 Tanks

 Timestamp is 5b8b04c4 (Sun Sep  2 00:29:40 2018)

 Preferred load address is 0000000140000000

 Start         Length     Name                   Class
 0001:00000000 000211a1H .textbss                DATA
 0002:00000000 00005280H .text$di                CODE
 0002:00005280 00041730H .text$mn                CODE
 0002:000469b0 00001020H .text$mn$00             CODE
 0002:000479d0 000039f0H .text$x                 CODE
 0002:0004b3c0 00001042H .text$yd                CODE
 0003:00000000 00000110H .CRT$XCA                DATA
 0003:00000110 00000110H .CRT$XCAA               DATA
 0003:00000220 00000110H .CRT$XCU                DATA
 0003:00000330 00000110H .CRT$XCZ                DATA
 0003:00000440 00000110H .CRT$XIA                DATA
 0003:00000550 00000110H .CRT$XIAA               DATA
 0003:00000660 00000110H .CRT$XIAC               DATA
 0003:00000770 00000110H .CRT$XIZ                DATA
 0003:00000880 00000110H .CRT$XPA                DATA
 0003:00000990 00000110H .CRT$XPZ                DATA
 0003:00000aa0 00000110H .CRT$XTA                DATA
 0003:00000bb0 00000110H .CRT$XTZ                DATA
 0003:00000cc0 0000b848H .rdata                  DATA
 0003:0000c508 00001960H .rdata$r                DATA
 0003:0000de68 00000160H .rdata$zzzdbg           DATA
 0003:0000dfc8 00000110H .rtc$IAA                DATA
 0003:0000e0d8 00000298H .rtc$IMZ                DATA
 0003:0000e370 00000110H .rtc$IZZ                DATA
 0003:0000e480 00000110H .rtc$TAA                DATA
 0003:0000e590 00000298H .rtc$TMZ                DATA
 0003:0000e828 00000118H .rtc$TZZ                DATA
 0003:0000e940 0000a930H .xdata                  DATA
 0003:00019270 000002a1H .xdata$x                DATA
 0003:00019511 00000000H .edata                  DATA
 0004:00000000 00000170H .data                   DATA
 0004:00000170 00001030H .data$r                 DATA
 0004:000011a0 00000821H .bss                    DATA
 0005:00000000 00006e40H .pdata                  DATA
 0006:00000000 00000850H .idata$5                DATA
 0006:00000850 0000008cH .idata$2                DATA
 0006:000008dc 00000014H .idata$3                DATA
 0006:000008f0 00000850H .idata$4                DATA
 0006:00001140 00001451H .idata$6                DATA
 0007:00000000 0000011bH .00cfg                  DATA
 0008:00000000 00000170H .rsrc$01                DATA
 0008:00000170 000002ccH .rsrc$02                DATA

  Address         Publics by Value              Rva+Base               Lib:Object

 0000:00000000       ___safe_se_handler_table   0000000000000000     <absolute>
 0000:00000000       __dynamic_value_reloc_table 0000000000000000     <absolute>
 0000:00000000       __guard_iat_table          0000000000000000     <absolute>
 0000:00000000       __guard_iat_count          0000000000000000     <absolute>
 0000:00000000       __guard_fids_count         0000000000000000     <absolute>
 0000:00000000       __guard_fids_table         0000000000000000     <absolute>
 0000:00000000       __guard_longjmp_count      0000000000000000     <absolute>
 0000:00000000       __hybrid_code_map_count    0000000000000000     <absolute>
 0000:00000000       __guard_longjmp_table      0000000000000000     <absolute>
 0000:00000000       __hybrid_auxiliary_iat     0000000000000000     <absolute>
 0000:00000000       __hybrid_code_map          0000000000000000     <absolute>
 0000:00000000       ___safe_se_handler_count   0000000000000000     <absolute>
 0000:00000000       __enclave_config           0000000000000000     <absolute>
 0000:00000100       __guard_flags              0000000000000100     <absolute>
 0000:00000000       __ImageBase                0000000140000000     <linker-defined>
 0001:00000000       __enc$textbss$begin        0000000140001000     <linker-defined>
 0001:000211a1       __enc$textbss$end          00000001400221a1     <linker-defined>
 0002:00005280       ??$?0$$QEAV?$basic_string@DU?$char_traits@D@std@@V?$allocator@D@2@@std@@$$Z$$V@?$pair@$$CBV?$basic_string@DU?$char_traits@D@std@@V?$allocator@D@2@@std@@PEAVTexture@sf@@@std@@QEAA@Upiecewise_construct_t@1@V?$tuple@$$QEAV?$basic_string@DU?$char_traits@D@std@@V?$allocator@D@2@@std@@@1@V?$tuple@$$V@1@@Z 0000000140028280 f i texture-manager.obj
 0002:00005320       ??$?0$$V@?$_Compressed_pair@V?$allocator@D@std@@V?$_String_val@U?$_Simple_types@D@std@@@2@$00@std@@QEAA@U_Zero_then_variadic_args_t@1@@Z 0000000140028320 f i texture-manager.obj
 0002:00005390       ??$?0$$V@?$_Compressed_pair@V?$allocator@U?$_Tree_node@U?$pair@$$CBV?$basic_string@DU?$char_traits@D@std@@V?$allocator@D@2@@std@@PEAVTexture@sf@@@std@@PEAX@std@@@std@@V?$_Tree_val@U?$_Tree_simple_types@U?$pair@$$CBV?$basic_string@DU?$char_traits@D@std@@V?$allocator@D@2@@std@@PEAVTexture@sf@@@std@@@std@@@2@$00@std@@QEAA@U_Zero_then_variadic_args_t@1@@Z 0000000140028390 f i texture-manager.obj
 0002:00005400       ??$?0AEAV?$_Tree_iterator@V?$_Tree_val@U?$_Tree_simple_types@U?$pair@$$CBV?$basic_string@DU?$char_traits@D@std@@V?$allocator@D@2@@std@@PEAVTexture@sf@@@std@@@std@@@std@@@std@@_N$0A@@?$pair@V?$_Tree_iterator@V?$_Tree_val@U?$_Tree_simple_types@U?$pair@$$CBV?$basic_string@DU?$char_traits@D@std@@V?$allocator@D@2@@std@@PEAVTexture@sf@@@std@@@std@@@std@@@std@@_N@std@@QEAA@AEAV?$_Tree_iterator@V?$_Tree_val@U?$_Tree_simple_types@U?$pair@$$CBV?$basic_string@DU?$char_traits@D@std@@V?$allocator@D@2@@std@@PEAVTexture@sf@@@std@@@std@@@std@@@1@$$QEA_N@Z 0000000140028400 f i texture-manager.obj
 0002:000054a0       ??$?0AEBU?$less@V?$basic_string@DU?$char_traits@D@std@@V?$allocator@D@2@@std@@@std@@U_Zero_then_variadic_args_t@1@@?$_Compressed_pair@U?$less@V?$basic_string@DU?$char_traits@D@std@@V?$allocator@D@2@@std@@@std@@V?$_Compressed_pair@V?$allocator@U?$_Tree_node@U?$pair@$$CBV?$basic_string@DU?$char_traits@D@std@@V?$allocator@D@2@@std@@PEAVTexture@sf@@@std@@PEAX@std@@@std@@V?$_Tree_val@U?$_Tree_simple_types@U?$pair@$$CBV?$basic_string@DU?$char_traits@D@std@@V?$allocator@D@2@@std@@PEAVTexture@sf@@@std@@@std@@@2@$00@2@$00@std@@QEAA@U_One_then_variadic_args_t@1@AEBU?$less@V?$basic_string@DU?$char_traits@D@std@@V?$allocator@D@2@@std@@@1@$$QEAU_Zero_then_variadic_args_t@1@@Z 00000001400284a0 f i texture-manager.obj
 0002:00005530       ??$?0D@?$allocator@U_Container_proxy@std@@@std@@QEAA@AEBV?$allocator@D@1@@Z 0000000140028530 f i texture-manager.obj
 0002:00005580       ??$?0U?$_Tree_node@U?$pair@$$CBV?$basic_string@DU?$char_traits@D@std@@V?$allocator@D@2@@std@@PEAVTexture@sf@@@std@@PEAX@std@@@?$allocator@U_Container_proxy@std@@@std@@QEAA@AEBV?$allocator@U?$_Tree_node@U?$pair@$$CBV?$basic_string@DU?$char_traits@D@std@@V?$allocator@D@2@@std@@PEAVTexture@sf@@@std@@PEAX@std@@@1@@Z 0000000140028580 f i texture-manager.obj
 0002:000055d0       ??$?0U_Exact_args_t@std@@$0A@@?$tuple@$$V@std@@QEAA@U_Exact_args_t@1@@Z 00000001400285d0 f i texture-manager.obj
 0002:00005620       ??$?0U_Exact_args_t@std@@V?$basic_string@DU?$char_traits@D@std@@V?$allocator@D@2@@1@$$V$0A@@?$tuple@$$QEAV?$basic_string@DU?$char_traits@D@std@@V?$allocator@D@2@@std@@@std@@QEAA@U_Exact_args_t@1@$$QEAV?$basic_string@DU?$char_traits@D@std@@V?$allocator@D@2@@1@@Z 0000000140028620 f i texture-manager.obj
 0002:000056d0       ??$?0V?$_Tree_iterator@V?$_Tree_val@U?$_Tree_simple_types@U?$pair@$$CBV?$basic_string@DU?$char_traits@D@std@@V?$allocator@D@2@@std@@PEAVTexture@sf@@@std@@@std@@@std@@@std@@_N$0A@@?$pair@V?$_Tree_iterator@V?$_Tree_val@U?$_Tree_simple_types@U?$pair@$$CBV?$basic_string@DU?$char_traits@D@std@@V?$allocator@D@2@@std@@PEAVTexture@sf@@@std@@@std@@@std@@@std@@_N@std@@QEAA@$$QEAV?$_Tree_iterator@V?$_Tree_val@U?$_Tree_simple_types@U?$pair@$$CBV?$basic_string@DU?$char_traits@D@std@@V?$allocator@D@2@@std@@PEAVTexture@sf@@@std@@@std@@@std@@@1@$$QEA_N@Z 00000001400286d0 f i texture-manager.obj
 0002:00005770       ??$?0V?$allocator@D@std@@$$V@?$_Compressed_pair@V?$allocator@D@std@@V?$_String_val@U?$_Simple_types@D@std@@@2@$00@std@@QEAA@U_One_then_variadic_args_t@1@$$QEAV?$allocator@D@1@@Z 0000000140028770 f i texture-manager.obj
 0002:000057f0       ??$?0V?$allocator@D@std@@X@?$_String_alloc@U?$_String_base_types@DV?$allocator@D@std@@@std@@@std@@QEAA@$$QEAV?$allocator@D@1@@Z 00000001400287f0 f i texture-manager.obj
 0002:00005890       ??$?0V?$basic_string@DU?$char_traits@D@std@@V?$allocator@D@2@@std@@$$V$0A@@?$tuple@$$QEAV?$basic_string@DU?$char_traits@D@std@@V?$allocator@D@2@@std@@@std@@QEAA@$$QEAV?$basic_string@DU?$char_traits@D@std@@V?$allocator@D@2@@1@@Z 0000000140028890 f i texture-manager.obj
 0002:00005930       ??$?0V?$basic_string@DU?$char_traits@D@std@@V?$allocator@D@2@@std@@@?$_Tuple_val@$$QEAV?$basic_string@DU?$char_traits@D@std@@V?$allocator@D@2@@std@@@std@@QEAA@$$QEAV?$basic_string@DU?$char_traits@D@std@@V?$allocator@D@2@@1@@Z 0000000140028930 f i texture-manager.obj
 0002:000059a0       ??$?0V?$tuple@$$QEAV?$basic_string@DU?$char_traits@D@std@@V?$allocator@D@2@@std@@@std@@V?$tuple@$$V@1@$0A@$$Z$S@?$pair@$$CBV?$basic_string@DU?$char_traits@D@std@@V?$allocator@D@2@@std@@PEAVTexture@sf@@@std@@QEAA@AEAV?$tuple@$$QEAV?$basic_string@DU?$char_traits@D@std@@V?$allocator@D@2@@std@@@1@AEAV?$tuple@$$V@1@U?$integer_sequence@_K$0A@@1@U?$integer_sequence@_K$S@1@@Z 00000001400289a0 f i texture-manager.obj
 0002:00005a40       ??$?MDU?$char_traits@D@std@@V?$allocator@D@1@@std@@YA_NAEBV?$basic_string@DU?$char_traits@D@std@@V?$allocator@D@2@@0@0@Z 0000000140028a40 f i texture-manager.obj
 0002:00005ad0       ??$_Allocate@$0BA@U_Default_allocate_traits@std@@$0A@@std@@YAPEAX_K@Z 0000000140028ad0 f i texture-manager.obj
 0002:00005b60       ??$_Allocate_manually_vector_aligned@U_Default_allocate_traits@std@@@std@@YAPEAX_K@Z 0000000140028b60 f i texture-manager.obj
 0002:00005c90       fabsf                      0000000140028c90 f i game-object.obj
 0002:00005cd0       ??$_Buy_if_not_node@AEAU?$pair@$$CBV?$basic_string@DU?$char_traits@D@std@@V?$allocator@D@2@@std@@PEAVTexture@sf@@@std@@@?$_Tree@V?$_Tmap_traits@V?$basic_string@DU?$char_traits@D@std@@V?$allocator@D@2@@std@@PEAVTexture@sf@@U?$less@V?$basic_string@DU?$char_traits@D@std@@V?$allocator@D@2@@std@@@2@V?$allocator@U?$pair@$$CBV?$basic_string@DU?$char_traits@D@std@@V?$allocator@D@2@@std@@PEAVTexture@sf@@@std@@@2@$0A@@std@@@std@@IEAAPEAU?$_Tree_node@U?$pair@$$CBV?$basic_string@DU?$char_traits@D@std@@V?$allocator@D@2@@std@@PEAVTexture@sf@@@std@@PEAX@1@PEAU21@AEAU?$pair@$$CBV?$basic_string@DU?$char_traits@D@std@@V?$allocator@D@2@@std@@PEAVTexture@sf@@@1@@Z 0000000140028cd0 f i texture-manager.obj
 0002:00005d30       ??$_Buynode@AEBUpiecewise_construct_t@std@@V?$tuple@$$QEAV?$basic_string@DU?$char_traits@D@std@@V?$allocator@D@2@@std@@@2@V?$tuple@$$V@2@@?$_Tree_comp_alloc@V?$_Tmap_traits@V?$basic_string@DU?$char_traits@D@std@@V?$allocator@D@2@@std@@PEAVTexture@sf@@U?$less@V?$basic_string@DU?$char_traits@D@std@@V?$allocator@D@2@@std@@@2@V?$allocator@U?$pair@$$CBV?$basic_string@DU?$char_traits@D@std@@V?$allocator@D@2@@std@@PEAVTexture@sf@@@std@@@2@$0A@@std@@@std@@QEAAPEAU?$_Tree_node@U?$pair@$$CBV?$basic_string@DU?$char_traits@D@std@@V?$allocator@D@2@@std@@PEAVTexture@sf@@@std@@PEAX@1@AEBUpiecewise_construct_t@1@$$QEAV?$tuple@$$QEAV?$basic_string@DU?$char_traits@D@std@@V?$allocator@D@2@@std@@@1@$$QEAV?$tuple@$$V@1@@Z 0000000140028d30 f i texture-manager.obj
 0002:00005e70       ??$_Convert_size@_K@std@@YA_K_K@Z 0000000140028e70 f i texture-manager.obj
 0002:00005ec0       ??$_Deallocate@$0BA@$0A@@std@@YAXPEAX_K@Z 0000000140028ec0 f i texture-manager.obj
 0002:00005f50       ??$_Deallocate_plain@V?$allocator@U_Container_proxy@std@@@std@@$0A@@std@@YAXAEAV?$allocator@U_Container_proxy@std@@@0@QEAU_Container_proxy@0@@Z 0000000140028f50 f i texture-manager.obj
 0002:00005fc0       ??$_Debug_lt_pred@AEAU?$less@V?$basic_string@DU?$char_traits@D@std@@V?$allocator@D@2@@std@@@std@@AEAV?$basic_string@DU?$char_traits@D@std@@V?$allocator@D@2@@2@AEBV32@@std@@YA_NAEAU?$less@V?$basic_string@DU?$char_traits@D@std@@V?$allocator@D@2@@std@@@0@AEAV?$basic_string@DU?$char_traits@D@std@@V?$allocator@D@2@@0@AEBV20@PEB_WI@Z 0000000140028fc0 f i texture-manager.obj
 0002:00006100       ??$_Debug_lt_pred@AEAU?$less@V?$basic_string@DU?$char_traits@D@std@@V?$allocator@D@2@@std@@@std@@AEBV?$basic_string@DU?$char_traits@D@std@@V?$allocator@D@2@@2@AEBV32@@std@@YA_NAEAU?$less@V?$basic_string@DU?$char_traits@D@std@@V?$allocator@D@2@@std@@@0@AEBV?$basic_string@DU?$char_traits@D@std@@V?$allocator@D@2@@0@1PEB_WI@Z 0000000140029100 f i texture-manager.obj
 0002:00006240       ??$_Debug_lt_pred@AEBU?$less@V?$basic_string@DU?$char_traits@D@std@@V?$allocator@D@2@@std@@@std@@AEBV?$basic_string@DU?$char_traits@D@std@@V?$allocator@D@2@@2@AEBV32@@std@@YA_NAEBU?$less@V?$basic_string@DU?$char_traits@D@std@@V?$allocator@D@2@@std@@@0@AEBV?$basic_string@DU?$char_traits@D@std@@V?$allocator@D@2@@0@1PEB_WI@Z 0000000140029240 f i texture-manager.obj
 0002:00006380       ??$_Freenode0@V?$allocator@U?$_Tree_node@U?$pair@$$CBV?$basic_string@DU?$char_traits@D@std@@V?$allocator@D@2@@std@@PEAVTexture@sf@@@std@@PEAX@std@@@std@@@?$_Tree_node@U?$pair@$$CBV?$basic_string@DU?$char_traits@D@std@@V?$allocator@D@2@@std@@PEAVTexture@sf@@@std@@PEAX@std@@SAXAEAV?$allocator@U?$_Tree_node@U?$pair@$$CBV?$basic_string@DU?$char_traits@D@std@@V?$allocator@D@2@@std@@PEAVTexture@sf@@@std@@PEAX@std@@@1@PEAU01@@Z 0000000140029380 f i texture-manager.obj
 0002:00006480       ??$_Get_size_of_n@$00@std@@YA_K_K@Z 0000000140029480 f i texture-manager.obj
 0002:000064d0       ??$_Get_size_of_n@$0BA@@std@@YA_K_K@Z 00000001400294d0 f i texture-manager.obj
 0002:00006560       ??$_Get_size_of_n@$0FA@@std@@YA_K_K@Z 0000000140029560 f i texture-manager.obj
 0002:000065f0       ??$_Getvals@_W@?$time_get@DV?$istreambuf_iterator@DU?$char_traits@D@std@@@std@@@std@@IEAAX_WAEBV_Locinfo@1@@Z 00000001400295f0 f i texture-manager.obj
 0002:00006780       ?SetVelocity@GameObject@@QEAAXAEBV?$Vector2@M@sf@@@Z 0000000140029780 f   game-object.obj
 0002:000067f0       ??$_Getvals@_W@?$time_get@_WV?$istreambuf_iterator@_WU?$char_traits@_W@std@@@std@@@std@@IEAAX_WAEBV_Locinfo@1@@Z 00000001400297f0 f i texture-manager.obj
 0002:000069f0       ??$_Insert_at@AEAU?$pair@$$CBV?$basic_string@DU?$char_traits@D@std@@V?$allocator@D@2@@std@@PEAVTexture@sf@@@std@@PEAU?$_Tree_node@U?$pair@$$CBV?$basic_string@DU?$char_traits@D@std@@V?$allocator@D@2@@std@@PEAVTexture@sf@@@std@@PEAX@2@@?$_Tree@V?$_Tmap_traits@V?$basic_string@DU?$char_traits@D@std@@V?$allocator@D@2@@std@@PEAVTexture@sf@@U?$less@V?$basic_string@DU?$char_traits@D@std@@V?$allocator@D@2@@std@@@2@V?$allocator@U?$pair@$$CBV?$basic_string@DU?$char_traits@D@std@@V?$allocator@D@2@@std@@PEAVTexture@sf@@@std@@@2@$0A@@std@@@std@@IEAA?AV?$_Tree_iterator@V?$_Tree_val@U?$_Tree_simple_types@U?$pair@$$CBV?$basic_string@DU?$char_traits@D@std@@V?$allocator@D@2@@std@@PEAVTexture@sf@@@std@@@std@@@std@@@1@_NPEAU?$_Tree_node@U?$pair@$$CBV?$basic_string@DU?$char_traits@D@std@@V?$allocator@D@2@@std@@PEAVTexture@sf@@@std@@PEAX@1@AEAU?$pair@$$CBV?$basic_string@DU?$char_traits@D@std@@V?$allocator@D@2@@std@@PEAVTexture@sf@@@1@1@Z 00000001400299f0 f i texture-manager.obj
 0002:00006e60       ??$_Insert_hint@AEAU?$pair@$$CBV?$basic_string@DU?$char_traits@D@std@@V?$allocator@D@2@@std@@PEAVTexture@sf@@@std@@PEAU?$_Tree_node@U?$pair@$$CBV?$basic_string@DU?$char_traits@D@std@@V?$allocator@D@2@@std@@PEAVTexture@sf@@@std@@PEAX@2@@?$_Tree@V?$_Tmap_traits@V?$basic_string@DU?$char_traits@D@std@@V?$allocator@D@2@@std@@PEAVTexture@sf@@U?$less@V?$basic_string@DU?$char_traits@D@std@@V?$allocator@D@2@@std@@@2@V?$allocator@U?$pair@$$CBV?$basic_string@DU?$char_traits@D@std@@V?$allocator@D@2@@std@@PEAVTexture@sf@@@std@@@2@$0A@@std@@@std@@IEAA?AV?$_Tree_iterator@V?$_Tree_val@U?$_Tree_simple_types@U?$pair@$$CBV?$basic_string@DU?$char_traits@D@std@@V?$allocator@D@2@@std@@PEAVTexture@sf@@@std@@@std@@@std@@@1@V?$_Tree_const_iterator@V?$_Tree_val@U?$_Tree_simple_types@U?$pair@$$CBV?$basic_string@DU?$char_traits@D@std@@V?$allocator@D@2@@std@@PEAVTexture@sf@@@std@@@std@@@std@@@1@AEAU?$pair@$$CBV?$basic_string@DU?$char_traits@D@std@@V?$allocator@D@2@@std@@PEAVTexture@sf@@@1@PEAU?$_Tree_node@U?$pair@$$CBV?$basic_string@DU?$char_traits@D@std@@V?$allocator@D@2@@std@@PEAVTexture@sf@@@std@@PEAX@1@@Z 0000000140029e60 f i texture-manager.obj
 0002:00007f90       ?onMoveBeginListener@WindowEditor@@AEAAPEAVObject@@PEAV2@AEBVEvent@sf@@@Z 000000014002af90 f   window-editor.obj
 0002:00008190       ?GetType@@YA?AW4Object_Type@@W4Object_Subtype@@@Z 000000014002b190 f   game-object.obj
 0002:00008210       ?SetSubtype@GameObject@@QEAAX_K@Z 000000014002b210 f   game-object.obj
 0002:000083d0       ??$_Insert_nohint@AEAU?$pair@$$CBV?$basic_string@DU?$char_traits@D@std@@V?$allocator@D@2@@std@@PEAVTexture@sf@@@std@@PEAU?$_Tree_node@U?$pair@$$CBV?$basic_string@DU?$char_traits@D@std@@V?$allocator@D@2@@std@@PEAVTexture@sf@@@std@@PEAX@2@@?$_Tree@V?$_Tmap_traits@V?$basic_string@DU?$char_traits@D@std@@V?$allocator@D@2@@std@@PEAVTexture@sf@@U?$less@V?$basic_string@DU?$char_traits@D@std@@V?$allocator@D@2@@std@@@2@V?$allocator@U?$pair@$$CBV?$basic_string@DU?$char_traits@D@std@@V?$allocator@D@2@@std@@PEAVTexture@sf@@@std@@@2@$0A@@std@@@std@@IEAA?AU?$pair@V?$_Tree_iterator@V?$_Tree_val@U?$_Tree_simple_types@U?$pair@$$CBV?$basic_string@DU?$char_traits@D@std@@V?$allocator@D@2@@std@@PEAVTexture@sf@@@std@@@std@@@std@@@std@@_N@1@_NAEAU?$pair@$$CBV?$basic_string@DU?$char_traits@D@std@@V?$allocator@D@2@@std@@PEAVTexture@sf@@@1@PEAU?$_Tree_node@U?$pair@$$CBV?$basic_string@DU?$char_traits@D@std@@V?$allocator@D@2@@std@@PEAVTexture@sf@@@std@@PEAX@1@@Z 000000014002b3d0 f i texture-manager.obj
 0002:00008920       ?onMoveBegin@WidgetTemplates@@AEAAPEAVObject@@PEAV2@AEBVEvent@sf@@@Z 000000014002b920 f   widget-templates.obj
 0002:00008a70       ??$_Kfn@$$CBV?$basic_string@DU?$char_traits@D@std@@V?$allocator@D@2@@std@@PEAVTexture@sf@@@?$_Tmap_traits@V?$basic_string@DU?$char_traits@D@std@@V?$allocator@D@2@@std@@PEAVTexture@sf@@U?$less@V?$basic_string@DU?$char_traits@D@std@@V?$allocator@D@2@@std@@@2@V?$allocator@U?$pair@$$CBV?$basic_string@DU?$char_traits@D@std@@V?$allocator@D@2@@std@@PEAVTexture@sf@@@std@@@2@$0A@@std@@SAAEBV?$basic_string@DU?$char_traits@D@std@@V?$allocator@D@2@@1@AEBU?$pair@$$CBV?$basic_string@DU?$char_traits@D@std@@V?$allocator@D@2@@std@@PEAVTexture@sf@@@1@@Z 000000014002ba70 f i texture-manager.obj
 0002:00008ac0       ??$_Lbound@V?$basic_string@DU?$char_traits@D@std@@V?$allocator@D@2@@std@@@?$_Tree@V?$_Tmap_traits@V?$basic_string@DU?$char_traits@D@std@@V?$allocator@D@2@@std@@PEAVTexture@sf@@U?$less@V?$basic_string@DU?$char_traits@D@std@@V?$allocator@D@2@@std@@@2@V?$allocator@U?$pair@$$CBV?$basic_string@DU?$char_traits@D@std@@V?$allocator@D@2@@std@@PEAVTexture@sf@@@std@@@2@$0A@@std@@@std@@IEBAPEAU?$_Tree_node@U?$pair@$$CBV?$basic_string@DU?$char_traits@D@std@@V?$allocator@D@2@@std@@PEAVTexture@sf@@@std@@PEAX@1@AEBV?$basic_string@DU?$char_traits@D@std@@V?$allocator@D@2@@1@@Z 000000014002bac0 f i texture-manager.obj
 0002:00008bb0       ??$_Maklocstr@D@std@@YAPEADPEBDPEADAEBU_Cvtvec@@@Z 000000014002bbb0 f i texture-manager.obj
 0002:00008cc0       ??$_Maklocstr@_W@std@@YAPEA_WPEBDPEA_WAEBU_Cvtvec@@@Z 000000014002bcc0 f i texture-manager.obj
 0002:00008f70       ??$_Max_value@_K@std@@YAAEB_KAEB_K0@Z 000000014002bf70 f i texture-manager.obj
 0002:00009010       ??$_Min_value@_K@std@@YAAEB_KAEB_K0@Z 000000014002c010 f i texture-manager.obj
 0002:00009540       ??$_Traits_compare@U?$char_traits@D@std@@@std@@YAHQEBD_K01@Z 000000014002c540 f i texture-manager.obj
 0002:00009620       ??$_Try_emplace@V?$basic_string@DU?$char_traits@D@std@@V?$allocator@D@2@@std@@$$V@?$map@V?$basic_string@DU?$char_traits@D@std@@V?$allocator@D@2@@std@@PEAVTexture@sf@@U?$less@V?$basic_string@DU?$char_traits@D@std@@V?$allocator@D@2@@std@@@2@V?$allocator@U?$pair@$$CBV?$basic_string@DU?$char_traits@D@std@@V?$allocator@D@2@@std@@PEAVTexture@sf@@@std@@@2@@std@@QEAA?AU?$pair@V?$_Tree_iterator@V?$_Tree_val@U?$_Tree_simple_types@U?$pair@$$CBV?$basic_string@DU?$char_traits@D@std@@V?$allocator@D@2@@std@@PEAVTexture@sf@@@std@@@std@@@std@@@std@@_N@1@$$QEAV?$basic_string@DU?$char_traits@D@std@@V?$allocator@D@2@@1@@Z 000000014002c620 f i texture-manager.obj
 0002:00009970       ??$_Unfancy@D@std@@YAPEADPEAD@Z 000000014002c970 f i texture-manager.obj
 0002:000099c0       ??$_Unfancy@U_Container_proxy@std@@@std@@YAPEAU_Container_proxy@0@PEAU10@@Z 000000014002c9c0 f i texture-manager.obj
 0002:00009a10       ??$addressof@PEAD@std@@YAPEAPEADAEAPEAD@Z 000000014002ca10 f i texture-manager.obj
 0002:00009a60       ??$addressof@PEAU?$_Tree_node@U?$pair@$$CBV?$basic_string@DU?$char_traits@D@std@@V?$allocator@D@2@@std@@PEAVTexture@sf@@@std@@PEAX@std@@@std@@YAPEAPEAU?$_Tree_node@U?$pair@$$CBV?$basic_string@DU?$char_traits@D@std@@V?$allocator@D@2@@std@@PEAVTexture@sf@@@std@@PEAX@0@AEAPEAU10@@Z 000000014002ca60 f i texture-manager.obj
 0002:00009ab0       ??$addressof@U?$pair@$$CBV?$basic_string@DU?$char_traits@D@std@@V?$allocator@D@2@@std@@PEAVTexture@sf@@@std@@@std@@YAPEAU?$pair@$$CBV?$basic_string@DU?$char_traits@D@std@@V?$allocator@D@2@@std@@PEAVTexture@sf@@@0@AEAU10@@Z 000000014002cab0 f i texture-manager.obj
 0002:00009b00       ??$addressof@V?$_String_val@U?$_Simple_types@D@std@@@std@@@std@@YAPEAV?$_String_val@U?$_Simple_types@D@std@@@0@AEAV10@@Z 000000014002cb00 f i texture-manager.obj
 0002:00009b50       ??$addressof@V?$_Tree_val@U?$_Tree_simple_types@U?$pair@$$CBV?$basic_string@DU?$char_traits@D@std@@V?$allocator@D@2@@std@@PEAVTexture@sf@@@std@@@std@@@std@@@std@@YAPEAV?$_Tree_val@U?$_Tree_simple_types@U?$pair@$$CBV?$basic_string@DU?$char_traits@D@std@@V?$allocator@D@2@@std@@PEAVTexture@sf@@@std@@@std@@@0@AEAV10@@Z 000000014002cb50 f i texture-manager.obj
 0002:00009ba0       ??$construct@PEADAEBQEAD@?$_Default_allocator_traits@V?$allocator@D@std@@@std@@SAXAEAV?$allocator@D@1@QEAPEADAEBQEAD@Z 000000014002cba0 f i texture-manager.obj
 0002:00009c30       ??$construct@PEAU?$_Tree_node@U?$pair@$$CBV?$basic_string@DU?$char_traits@D@std@@V?$allocator@D@2@@std@@PEAVTexture@sf@@@std@@PEAX@std@@AEAPEAU12@@?$_Default_allocator_traits@V?$allocator@U?$_Tree_node@U?$pair@$$CBV?$basic_string@DU?$char_traits@D@std@@V?$allocator@D@2@@std@@PEAVTexture@sf@@@std@@PEAX@std@@@std@@@std@@SAXAEAV?$allocator@U?$_Tree_node@U?$pair@$$CBV?$basic_string@DU?$char_traits@D@std@@V?$allocator@D@2@@std@@PEAVTexture@sf@@@std@@PEAX@std@@@1@QEAPEAU?$_Tree_node@U?$pair@$$CBV?$basic_string@DU?$char_traits@D@std@@V?$allocator@D@2@@std@@PEAVTexture@sf@@@std@@PEAX@1@AEAPEAU31@@Z 000000014002cc30 f i texture-manager.obj
 0002:00009cc0       ??$construct@U?$pair@$$CBV?$basic_string@DU?$char_traits@D@std@@V?$allocator@D@2@@std@@PEAVTexture@sf@@@std@@AEBUpiecewise_construct_t@2@V?$tuple@$$QEAV?$basic_string@DU?$char_traits@D@std@@V?$allocator@D@2@@std@@@2@V?$tuple@$$V@2@@?$_Default_allocator_traits@V?$allocator@U?$_Tree_node@U?$pair@$$CBV?$basic_string@DU?$char_traits@D@std@@V?$allocator@D@2@@std@@PEAVTexture@sf@@@std@@PEAX@std@@@std@@@std@@SAXAEAV?$allocator@U?$_Tree_node@U?$pair@$$CBV?$basic_string@DU?$char_traits@D@std@@V?$allocator@D@2@@std@@PEAVTexture@sf@@@std@@PEAX@std@@@1@QEAU?$pair@$$CBV?$basic_string@DU?$char_traits@D@std@@V?$allocator@D@2@@std@@PEAVTexture@sf@@@1@AEBUpiecewise_construct_t@1@$$QEAV?$tuple@$$QEAV?$basic_string@DU?$char_traits@D@std@@V?$allocator@D@2@@std@@@1@$$QEAV?$tuple@$$V@1@@Z 000000014002ccc0 f i texture-manager.obj
 0002:00009df0       ??$construct@U_Container_proxy@std@@U12@@?$_Default_allocator_traits@V?$allocator@U_Container_proxy@std@@@std@@@std@@SAXAEAV?$allocator@U_Container_proxy@std@@@1@QEAU_Container_proxy@1@$$QEAU31@@Z 000000014002cdf0 f i texture-manager.obj
 0002:00009e90       ??$destroy@PEAD@?$_Default_allocator_traits@V?$allocator@D@std@@@std@@SAXAEAV?$allocator@D@1@QEAPEAD@Z 000000014002ce90 f i texture-manager.obj
 0002:00009ee0       ??$destroy@PEAU?$_Tree_node@U?$pair@$$CBV?$basic_string@DU?$char_traits@D@std@@V?$allocator@D@2@@std@@PEAVTexture@sf@@@std@@PEAX@std@@@?$_Default_allocator_traits@V?$allocator@U?$_Tree_node@U?$pair@$$CBV?$basic_string@DU?$char_traits@D@std@@V?$allocator@D@2@@std@@PEAVTexture@sf@@@std@@PEAX@std@@@std@@@std@@SAXAEAV?$allocator@U?$_Tree_node@U?$pair@$$CBV?$basic_string@DU?$char_traits@D@std@@V?$allocator@D@2@@std@@PEAVTexture@sf@@@std@@PEAX@std@@@1@QEAPEAU?$_Tree_node@U?$pair@$$CBV?$basic_string@DU?$char_traits@D@std@@V?$allocator@D@2@@std@@PEAVTexture@sf@@@std@@PEAX@1@@Z 000000014002cee0 f i texture-manager.obj
 0002:00009f30       ??$destroy@U?$pair@$$CBV?$basic_string@DU?$char_traits@D@std@@V?$allocator@D@2@@std@@PEAVTexture@sf@@@std@@@?$_Default_allocator_traits@V?$allocator@U?$_Tree_node@U?$pair@$$CBV?$basic_string@DU?$char_traits@D@std@@V?$allocator@D@2@@std@@PEAVTexture@sf@@@std@@PEAX@std@@@std@@@std@@SAXAEAV?$allocator@U?$_Tree_node@U?$pair@$$CBV?$basic_string@DU?$char_traits@D@std@@V?$allocator@D@2@@std@@PEAVTexture@sf@@@std@@PEAX@std@@@1@QEAU?$pair@$$CBV?$basic_string@DU?$char_traits@D@std@@V?$allocator@D@2@@std@@PEAVTexture@sf@@@1@@Z 000000014002cf30 f i texture-manager.obj
 0002:00009f90       ??$destroy@U_Container_proxy@std@@@?$_Default_allocator_traits@V?$allocator@U_Container_proxy@std@@@std@@@std@@SAXAEAV?$allocator@U_Container_proxy@std@@@1@QEAU_Container_proxy@1@@Z 000000014002cf90 f i texture-manager.obj
 0002:00009fe0       ??$emplace_hint@AEBUpiecewise_construct_t@std@@V?$tuple@$$QEAV?$basic_string@DU?$char_traits@D@std@@V?$allocator@D@2@@std@@@2@V?$tuple@$$V@2@@?$_Tree@V?$_Tmap_traits@V?$basic_string@DU?$char_traits@D@std@@V?$allocator@D@2@@std@@PEAVTexture@sf@@U?$less@V?$basic_string@DU?$char_traits@D@std@@V?$allocator@D@2@@std@@@2@V?$allocator@U?$pair@$$CBV?$basic_string@DU?$char_traits@D@std@@V?$allocator@D@2@@std@@PEAVTexture@sf@@@std@@@2@$0A@@std@@@std@@QEAA?AV?$_Tree_iterator@V?$_Tree_val@U?$_Tree_simple_types@U?$pair@$$CBV?$basic_string@DU?$char_traits@D@std@@V?$allocator@D@2@@std@@PEAVTexture@sf@@@std@@@std@@@std@@@1@V?$_Tree_const_iterator@V?$_Tree_val@U?$_Tree_simple_types@U?$pair@$$CBV?$basic_string@DU?$char_traits@D@std@@V?$allocator@D@2@@std@@PEAVTexture@sf@@@std@@@std@@@std@@@1@AEBUpiecewise_construct_t@1@$$QEAV?$tuple@$$QEAV?$basic_string@DU?$char_traits@D@std@@V?$allocator@D@2@@std@@@1@$$QEAV?$tuple@$$V@1@@Z 000000014002cfe0 f i texture-manager.obj
 0002:0000a170       ??$forward@$$QEAV?$basic_string@DU?$char_traits@D@std@@V?$allocator@D@2@@std@@@std@@YA$$QEAV?$basic_string@DU?$char_traits@D@std@@V?$allocator@D@2@@0@AEAV10@@Z 000000014002d170 f i texture-manager.obj
 0002:0000a1c0       ??$forward@AEAPEAU?$_Tree_node@U?$pair@$$CBV?$basic_string@DU?$char_traits@D@std@@V?$allocator@D@2@@std@@PEAVTexture@sf@@@std@@PEAX@std@@@std@@YAAEAPEAU?$_Tree_node@U?$pair@$$CBV?$basic_string@DU?$char_traits@D@std@@V?$allocator@D@2@@std@@PEAVTexture@sf@@@std@@PEAX@0@AEAPEAU10@@Z 000000014002d1c0 f i texture-manager.obj
 0002:0000a210       ??$forward@AEAU?$pair@$$CBV?$basic_string@DU?$char_traits@D@std@@V?$allocator@D@2@@std@@PEAVTexture@sf@@@std@@@std@@YAAEAU?$pair@$$CBV?$basic_string@DU?$char_traits@D@std@@V?$allocator@D@2@@std@@PEAVTexture@sf@@@0@AEAU10@@Z 000000014002d210 f i texture-manager.obj
 0002:0000a260       ??$forward@AEAV?$_Tree_iterator@V?$_Tree_val@U?$_Tree_simple_types@U?$pair@$$CBV?$basic_string@DU?$char_traits@D@std@@V?$allocator@D@2@@std@@PEAVTexture@sf@@@std@@@std@@@std@@@std@@@std@@YAAEAV?$_Tree_iterator@V?$_Tree_val@U?$_Tree_simple_types@U?$pair@$$CBV?$basic_string@DU?$char_traits@D@std@@V?$allocator@D@2@@std@@PEAVTexture@sf@@@std@@@std@@@std@@@0@AEAV10@@Z 000000014002d260 f i texture-manager.obj
 0002:0000a2b0       ??$forward@AEBQEAD@std@@YAAEBQEADAEBQEAD@Z 000000014002d2b0 f i texture-manager.obj
 0002:0000a300       ??$forward@AEBU?$less@V?$basic_string@DU?$char_traits@D@std@@V?$allocator@D@2@@std@@@std@@@std@@YAAEBU?$less@V?$basic_string@DU?$char_traits@D@std@@V?$allocator@D@2@@std@@@0@AEBU10@@Z 000000014002d300 f i texture-manager.obj
 0002:0000a350       ??$forward@AEBUpiecewise_construct_t@std@@@std@@YAAEBUpiecewise_construct_t@0@AEBU10@@Z 000000014002d350 f i texture-manager.obj
 0002:0000a3a0       ??$forward@U_Container_proxy@std@@@std@@YA$$QEAU_Container_proxy@0@AEAU10@@Z 000000014002d3a0 f i texture-manager.obj
 0002:0000a3f0       ??$forward@U_Zero_then_variadic_args_t@std@@@std@@YA$$QEAU_Zero_then_variadic_args_t@0@AEAU10@@Z 000000014002d3f0 f i texture-manager.obj
 0002:0000a440       ??$forward@V?$_Tree_iterator@V?$_Tree_val@U?$_Tree_simple_types@U?$pair@$$CBV?$basic_string@DU?$char_traits@D@std@@V?$allocator@D@2@@std@@PEAVTexture@sf@@@std@@@std@@@std@@@std@@@std@@YA$$QEAV?$_Tree_iterator@V?$_Tree_val@U?$_Tree_simple_types@U?$pair@$$CBV?$basic_string@DU?$char_traits@D@std@@V?$allocator@D@2@@std@@PEAVTexture@sf@@@std@@@std@@@std@@@0@AEAV10@@Z 000000014002d440 f i texture-manager.obj
 0002:0000a490       ??$forward@V?$allocator@D@std@@@std@@YA$$QEAV?$allocator@D@0@AEAV10@@Z 000000014002d490 f i texture-manager.obj
 0002:0000a4e0       ??$forward@V?$basic_string@DU?$char_traits@D@std@@V?$allocator@D@2@@std@@@std@@YA$$QEAV?$basic_string@DU?$char_traits@D@std@@V?$allocator@D@2@@0@AEAV10@@Z 000000014002d4e0 f i texture-manager.obj
 0002:0000a530       ??$forward@V?$tuple@$$QEAV?$basic_string@DU?$char_traits@D@std@@V?$allocator@D@2@@std@@@std@@@std@@YA$$QEAV?$tuple@$$QEAV?$basic_string@DU?$char_traits@D@std@@V?$allocator@D@2@@std@@@0@AEAV10@@Z 000000014002d530 f i texture-manager.obj
 0002:0000a580       ??$forward@V?$tuple@$$V@std@@@std@@YA$$QEAV?$tuple@$$V@0@AEAV10@@Z 000000014002d580 f i texture-manager.obj
 0002:0000a5d0       ??$forward@_N@std@@YA$$QEA_NAEA_N@Z 000000014002d5d0 f i texture-manager.obj
 0002:0000a620       ??$forward_as_tuple@$$V@std@@YA?AV?$tuple@$$V@0@XZ 000000014002d620 f i texture-manager.obj
 0002:0000a680       ??$forward_as_tuple@V?$basic_string@DU?$char_traits@D@std@@V?$allocator@D@2@@std@@@std@@YA?AV?$tuple@$$QEAV?$basic_string@DU?$char_traits@D@std@@V?$allocator@D@2@@std@@@0@$$QEAV?$basic_string@DU?$char_traits@D@std@@V?$allocator@D@2@@0@@Z 000000014002d680 f i texture-manager.obj
 0002:0000a710       ??$get@$0A@$$QEAV?$basic_string@DU?$char_traits@D@std@@V?$allocator@D@2@@std@@@std@@YA$$QEAV?$basic_string@DU?$char_traits@D@std@@V?$allocator@D@2@@0@$$QEAV?$tuple@$$QEAV?$basic_string@DU?$char_traits@D@std@@V?$allocator@D@2@@std@@@0@@Z 000000014002d710 f i texture-manager.obj
 0002:0000a770       ??$move@AEAD@std@@YA$$QEADAEAD@Z 000000014002d770 f i texture-manager.obj
 0002:0000a7c0       ??$move@AEAV?$allocator@D@std@@@std@@YA$$QEAV?$allocator@D@0@AEAV10@@Z 000000014002d7c0 f i texture-manager.obj
 0002:0000a810       ??$move@AEAV?$basic_string@DU?$char_traits@D@std@@V?$allocator@D@2@@std@@@std@@YA$$QEAV?$basic_string@DU?$char_traits@D@std@@V?$allocator@D@2@@0@AEAV10@@Z 000000014002d810 f i texture-manager.obj
 0002:0000a860       ??$move@AEAV?$tuple@$$QEAV?$basic_string@DU?$char_traits@D@std@@V?$allocator@D@2@@std@@@std@@@std@@YA$$QEAV?$tuple@$$QEAV?$basic_string@DU?$char_traits@D@std@@V?$allocator@D@2@@std@@@0@AEAV10@@Z 000000014002d860 f i texture-manager.obj
 0002:0000a8b0       ??$swap@DX@std@@YAXAEAD0@Z 000000014002d8b0 f i texture-manager.obj
 0002:0000a960       ??$try_emplace@$$V@?$map@V?$basic_string@DU?$char_traits@D@std@@V?$allocator@D@2@@std@@PEAVTexture@sf@@U?$less@V?$basic_string@DU?$char_traits@D@std@@V?$allocator@D@2@@std@@@2@V?$allocator@U?$pair@$$CBV?$basic_string@DU?$char_traits@D@std@@V?$allocator@D@2@@std@@PEAVTexture@sf@@@std@@@2@@std@@QEAA?AU?$pair@V?$_Tree_iterator@V?$_Tree_val@U?$_Tree_simple_types@U?$pair@$$CBV?$basic_string@DU?$char_traits@D@std@@V?$allocator@D@2@@std@@PEAVTexture@sf@@@std@@@std@@@std@@@std@@_N@1@$$QEAV?$basic_string@DU?$char_traits@D@std@@V?$allocator@D@2@@1@@Z 000000014002d960 f i texture-manager.obj
 0002:0000aa00       ??0?$Rect@H@sf@@QEAA@XZ    000000014002da00 f i texture-manager.obj
 0002:0000aa90       ??0?$_String_alloc@U?$_String_base_types@DV?$allocator@D@std@@@std@@@std@@QEAA@XZ 000000014002da90 f i texture-manager.obj
 0002:0000ab20       ??0?$_String_val@U?$_Simple_types@D@std@@@std@@QEAA@XZ 000000014002db20 f i texture-manager.obj
 0002:0000abc0       ??0?$_Tree@V?$_Tmap_traits@V?$basic_string@DU?$char_traits@D@std@@V?$allocator@D@2@@std@@PEAVTexture@sf@@U?$less@V?$basic_string@DU?$char_traits@D@std@@V?$allocator@D@2@@std@@@2@V?$allocator@U?$pair@$$CBV?$basic_string@DU?$char_traits@D@std@@V?$allocator@D@2@@std@@PEAVTexture@sf@@@std@@@2@$0A@@std@@@std@@QEAA@AEBU?$less@V?$basic_string@DU?$char_traits@D@std@@V?$allocator@D@2@@std@@@1@@Z 000000014002dbc0 f i texture-manager.obj
 0002:0000ac30       ??0?$_Tree_comp_alloc@V?$_Tmap_traits@V?$basic_string@DU?$char_traits@D@std@@V?$allocator@D@2@@std@@PEAVTexture@sf@@U?$less@V?$basic_string@DU?$char_traits@D@std@@V?$allocator@D@2@@std@@@2@V?$allocator@U?$pair@$$CBV?$basic_string@DU?$char_traits@D@std@@V?$allocator@D@2@@std@@PEAVTexture@sf@@@std@@@2@$0A@@std@@@std@@QEAA@AEBU?$less@V?$basic_string@DU?$char_traits@D@std@@V?$allocator@D@2@@std@@@1@@Z 000000014002dc30 f i texture-manager.obj
 0002:0000acc0       ??0?$_Tree_const_iterator@V?$_Tree_val@U?$_Tree_simple_types@U?$pair@$$CBV?$basic_string@DU?$char_traits@D@std@@V?$allocator@D@2@@std@@PEAVTexture@sf@@@std@@@std@@@std@@@std@@QEAA@$$QEAV01@@Z 000000014002dcc0 f i texture-manager.obj
 0002:0000ad30       ??0?$_Tree_const_iterator@V?$_Tree_val@U?$_Tree_simple_types@U?$pair@$$CBV?$basic_string@DU?$char_traits@D@std@@V?$allocator@D@2@@std@@PEAVTexture@sf@@@std@@@std@@@std@@@std@@QEAA@AEBV01@@Z 000000014002dd30 f i texture-manager.obj
 0002:0000ada0       ??0?$_Tree_const_iterator@V?$_Tree_val@U?$_Tree_simple_types@U?$pair@$$CBV?$basic_string@DU?$char_traits@D@std@@V?$allocator@D@2@@std@@PEAVTexture@sf@@@std@@@std@@@std@@@std@@QEAA@PEAU?$_Tree_node@U?$pair@$$CBV?$basic_string@DU?$char_traits@D@std@@V?$allocator@D@2@@std@@PEAVTexture@sf@@@std@@PEAX@1@PEBV?$_Tree_val@U?$_Tree_simple_types@U?$pair@$$CBV?$basic_string@DU?$char_traits@D@std@@V?$allocator@D@2@@std@@PEAVTexture@sf@@@std@@@std@@@1@@Z 000000014002dda0 f i texture-manager.obj
 0002:0000ae20       ??0?$_Tree_const_iterator@V?$_Tree_val@U?$_Tree_simple_types@U?$pair@$$CBV?$basic_string@DU?$char_traits@D@std@@V?$allocator@D@2@@std@@PEAVTexture@sf@@@std@@@std@@@std@@@std@@QEAA@XZ 000000014002de20 f i texture-manager.obj
 0002:0000ae80       ??0?$_Tree_iterator@V?$_Tree_val@U?$_Tree_simple_types@U?$pair@$$CBV?$basic_string@DU?$char_traits@D@std@@V?$allocator@D@2@@std@@PEAVTexture@sf@@@std@@@std@@@std@@@std@@QEAA@$$QEAV01@@Z 000000014002de80 f i texture-manager.obj
 0002:0000aef0       ??0?$_Tree_iterator@V?$_Tree_val@U?$_Tree_simple_types@U?$pair@$$CBV?$basic_string@DU?$char_traits@D@std@@V?$allocator@D@2@@std@@PEAVTexture@sf@@@std@@@std@@@std@@@std@@QEAA@AEBV01@@Z 000000014002def0 f i texture-manager.obj
 0002:0000af60       ??0?$_Tree_iterator@V?$_Tree_val@U?$_Tree_simple_types@U?$pair@$$CBV?$basic_string@DU?$char_traits@D@std@@V?$allocator@D@2@@std@@PEAVTexture@sf@@@std@@@std@@@std@@@std@@QEAA@PEAU?$_Tree_node@U?$pair@$$CBV?$basic_string@DU?$char_traits@D@std@@V?$allocator@D@2@@std@@PEAVTexture@sf@@@std@@PEAX@1@PEBV?$_Tree_val@U?$_Tree_simple_types@U?$pair@$$CBV?$basic_string@DU?$char_traits@D@std@@V?$allocator@D@2@@std@@PEAVTexture@sf@@@std@@@std@@@1@@Z 000000014002df60 f i texture-manager.obj
 0002:0000afe0       ??0?$_Tree_unchecked_const_iterator@V?$_Tree_val@U?$_Tree_simple_types@U?$pair@$$CBV?$basic_string@DU?$char_traits@D@std@@V?$allocator@D@2@@std@@PEAVTexture@sf@@@std@@@std@@@std@@U_Iterator_base12@2@@std@@QEAA@$$QEAV01@@Z 000000014002dfe0 f i texture-manager.obj
 0002:0000b070       ??0?$_Tree_unchecked_const_iterator@V?$_Tree_val@U?$_Tree_simple_types@U?$pair@$$CBV?$basic_string@DU?$char_traits@D@std@@V?$allocator@D@2@@std@@PEAVTexture@sf@@@std@@@std@@@std@@U_Iterator_base12@2@@std@@QEAA@AEBV01@@Z 000000014002e070 f i texture-manager.obj
 0002:0000b100       ??0?$_Tree_unchecked_const_iterator@V?$_Tree_val@U?$_Tree_simple_types@U?$pair@$$CBV?$basic_string@DU?$char_traits@D@std@@V?$allocator@D@2@@std@@PEAVTexture@sf@@@std@@@std@@@std@@U_Iterator_base12@2@@std@@QEAA@PEAU?$_Tree_node@U?$pair@$$CBV?$basic_string@DU?$char_traits@D@std@@V?$allocator@D@2@@std@@PEAVTexture@sf@@@std@@PEAX@1@PEBV?$_Tree_val@U?$_Tree_simple_types@U?$pair@$$CBV?$basic_string@DU?$char_traits@D@std@@V?$allocator@D@2@@std@@PEAVTexture@sf@@@std@@@std@@@1@@Z 000000014002e100 f i texture-manager.obj
 0002:0000b1a0       ??0?$_Tree_unchecked_const_iterator@V?$_Tree_val@U?$_Tree_simple_types@U?$pair@$$CBV?$basic_string@DU?$char_traits@D@std@@V?$allocator@D@2@@std@@PEAVTexture@sf@@@std@@@std@@@std@@U_Iterator_base12@2@@std@@QEAA@XZ 000000014002e1a0 f i texture-manager.obj
 0002:0000b210       ??0?$_Tree_val@U?$_Tree_simple_types@U?$pair@$$CBV?$basic_string@DU?$char_traits@D@std@@V?$allocator@D@2@@std@@PEAVTexture@sf@@@std@@@std@@@std@@QEAA@XZ 000000014002e210 f i texture-manager.obj
 0002:0000b290       ??0?$allocator@D@std@@QEAA@XZ 000000014002e290 f i texture-manager.obj
 0002:0000b2e0       ??0?$allocator@U?$_Tree_node@U?$pair@$$CBV?$basic_string@DU?$char_traits@D@std@@V?$allocator@D@2@@std@@PEAVTexture@sf@@@std@@PEAX@std@@@std@@QEAA@XZ 000000014002e2e0 f i texture-manager.obj
 0002:0000b330       ??0?$basic_string@DU?$char_traits@D@std@@V?$allocator@D@2@@std@@QEAA@$$QEAV01@@Z 000000014002e330 f i texture-manager.obj
 0002:0000b410       ??0?$basic_string@DU?$char_traits@D@std@@V?$allocator@D@2@@std@@QEAA@AEBV01@@Z 000000014002e410 f i texture-manager.obj
 0002:0000b4c0       ??0?$basic_string@DU?$char_traits@D@std@@V?$allocator@D@2@@std@@QEAA@QEBD@Z 000000014002e4c0 f i texture-manager.obj
 0002:0000b560       ??0?$basic_string@DU?$char_traits@D@std@@V?$allocator@D@2@@std@@QEAA@XZ 000000014002e560 f i texture-manager.obj
 0002:0000b5e0       ??0?$map@V?$basic_string@DU?$char_traits@D@std@@V?$allocator@D@2@@std@@PEAVTexture@sf@@U?$less@V?$basic_string@DU?$char_traits@D@std@@V?$allocator@D@2@@std@@@2@V?$allocator@U?$pair@$$CBV?$basic_string@DU?$char_traits@D@std@@V?$allocator@D@2@@std@@PEAVTexture@sf@@@std@@@2@@std@@QEAA@XZ 000000014002e5e0 f i texture-manager.obj
 0002:0000b650       ??0?$tuple@$$QEAV?$basic_string@DU?$char_traits@D@std@@V?$allocator@D@2@@std@@@std@@QEAA@$$QEAV01@@Z 000000014002e650 f i texture-manager.obj
 0002:0000b6d0       ??0?$tuple@$$V@std@@QEAA@AEBV01@@Z 000000014002e6d0 f i texture-manager.obj
 0002:0000b720       ??0?$tuple@$$V@std@@QEAA@XZ 000000014002e720 f i texture-manager.obj
 0002:0000b770       ??0TextureManager@@AEAA@XZ 000000014002e770 f   texture-manager.obj
 0002:0000b800       ??0_Bxty@?$_String_val@U?$_Simple_types@D@std@@@std@@QEAA@XZ 000000014002e800 f i texture-manager.obj
 0002:0000b850       ??0_Container_base12@std@@QEAA@XZ 000000014002e850 f i texture-manager.obj
 0002:0000b8b0       ??0_Container_proxy@std@@QEAA@XZ 000000014002e8b0 f i texture-manager.obj
 0002:0000b920       ??0_Iterator_base12@std@@QEAA@AEBU01@@Z 000000014002e920 f i texture-manager.obj
 0002:0000b9b0       ??0_Iterator_base12@std@@QEAA@XZ 000000014002e9b0 f i texture-manager.obj
 0002:0000ba20       ??1?$_Compressed_pair@V?$allocator@D@std@@V?$_String_val@U?$_Simple_types@D@std@@@2@$00@std@@QEAA@XZ 000000014002ea20 f i texture-manager.obj
 0002:0000ba80       ??1?$_String_alloc@U?$_String_base_types@DV?$allocator@D@std@@@std@@@std@@QEAA@XZ 000000014002ea80 f i texture-manager.obj
 0002:0000bb00       ??1?$_String_val@U?$_Simple_types@D@std@@@std@@QEAA@XZ 000000014002eb00 f i texture-manager.obj
 0002:0000bb60       ??1?$_Tree@V?$_Tmap_traits@V?$basic_string@DU?$char_traits@D@std@@V?$allocator@D@2@@std@@PEAVTexture@sf@@U?$less@V?$basic_string@DU?$char_traits@D@std@@V?$allocator@D@2@@std@@@2@V?$allocator@U?$pair@$$CBV?$basic_string@DU?$char_traits@D@std@@V?$allocator@D@2@@std@@PEAVTexture@sf@@@std@@@2@$0A@@std@@@std@@QEAA@XZ 000000014002eb60 f i texture-manager.obj
 0002:0000bbd0       ??1?$_Tree_comp_alloc@V?$_Tmap_traits@V?$basic_string@DU?$char_traits@D@std@@V?$allocator@D@2@@std@@PEAVTexture@sf@@U?$less@V?$basic_string@DU?$char_traits@D@std@@V?$allocator@D@2@@std@@@2@V?$allocator@U?$pair@$$CBV?$basic_string@DU?$char_traits@D@std@@V?$allocator@D@2@@std@@PEAVTexture@sf@@@std@@@2@$0A@@std@@@std@@QEAA@XZ 000000014002ebd0 f i texture-manager.obj
 0002:0000bc60       ??1?$_Tree_const_iterator@V?$_Tree_val@U?$_Tree_simple_types@U?$pair@$$CBV?$basic_string@DU?$char_traits@D@std@@V?$allocator@D@2@@std@@PEAVTexture@sf@@@std@@@std@@@std@@@std@@QEAA@XZ 000000014002ec60 f i texture-manager.obj
 0002:0000bcb0       ??1?$_Tree_iterator@V?$_Tree_val@U?$_Tree_simple_types@U?$pair@$$CBV?$basic_string@DU?$char_traits@D@std@@V?$allocator@D@2@@std@@PEAVTexture@sf@@@std@@@std@@@std@@@std@@QEAA@XZ 000000014002ecb0 f i texture-manager.obj
 0002:0000bd00       ??1?$_Tree_unchecked_const_iterator@V?$_Tree_val@U?$_Tree_simple_types@U?$pair@$$CBV?$basic_string@DU?$char_traits@D@std@@V?$allocator@D@2@@std@@PEAVTexture@sf@@@std@@@std@@@std@@U_Iterator_base12@2@@std@@QEAA@XZ 000000014002ed00 f i texture-manager.obj
 0002:0000bd50       ??1?$basic_string@DU?$char_traits@D@std@@V?$allocator@D@2@@std@@QEAA@XZ 000000014002ed50 f i texture-manager.obj
 0002:0000bdc0       ??1?$map@V?$basic_string@DU?$char_traits@D@std@@V?$allocator@D@2@@std@@PEAVTexture@sf@@U?$less@V?$basic_string@DU?$char_traits@D@std@@V?$allocator@D@2@@std@@@2@V?$allocator@U?$pair@$$CBV?$basic_string@DU?$char_traits@D@std@@V?$allocator@D@2@@std@@PEAVTexture@sf@@@std@@@2@@std@@QEAA@XZ 000000014002edc0 f i texture-manager.obj
 0002:0000be10       ??1?$pair@$$CBV?$basic_string@DU?$char_traits@D@std@@V?$allocator@D@2@@std@@PEAVTexture@sf@@@std@@QEAA@XZ 000000014002ee10 f i texture-manager.obj
 0002:0000be70       ??1?$pair@V?$_Tree_iterator@V?$_Tree_val@U?$_Tree_simple_types@U?$pair@$$CBV?$basic_string@DU?$char_traits@D@std@@V?$allocator@D@2@@std@@PEAVTexture@sf@@@std@@@std@@@std@@@std@@_N@std@@QEAA@XZ 000000014002ee70 f i texture-manager.obj
 0002:0000bed0       ??1TextureManager@@QEAA@XZ 000000014002eed0 f   texture-manager.obj
 0002:0000bf40       ??1_Bxty@?$_String_val@U?$_Simple_types@D@std@@@std@@QEAA@XZ 000000014002ef40 f i texture-manager.obj
 0002:0000bf80       ??1_Iterator_base12@std@@QEAA@XZ 000000014002ef80 f i texture-manager.obj
 0002:0000c020       ??2@YAPEAX_KPEAX@Z         000000014002f020 f i texture-manager.obj
 0002:0000c070       ??4?$_Tree_const_iterator@V?$_Tree_val@U?$_Tree_simple_types@U?$pair@$$CBV?$basic_string@DU?$char_traits@D@std@@V?$allocator@D@2@@std@@PEAVTexture@sf@@@std@@@std@@@std@@@std@@QEAAAEAV01@AEBV01@@Z 000000014002f070 f i texture-manager.obj
 0002:0000c0e0       ??4?$_Tree_unchecked_const_iterator@V?$_Tree_val@U?$_Tree_simple_types@U?$pair@$$CBV?$basic_string@DU?$char_traits@D@std@@V?$allocator@D@2@@std@@PEAVTexture@sf@@@std@@@std@@@std@@U_Iterator_base12@2@@std@@QEAAAEAV01@AEBV01@@Z 000000014002f0e0 f i texture-manager.obj
 0002:0000c170       ??4?$basic_string@DU?$char_traits@D@std@@V?$allocator@D@2@@std@@QEAAAEAV01@QEBD@Z 000000014002f170 f i texture-manager.obj
 0002:0000c1d0       ??4_Iterator_base12@std@@QEAAAEAU01@AEBU01@@Z 000000014002f1d0 f i texture-manager.obj
 0002:0000c2d0       ??8?$_Tree_const_iterator@V?$_Tree_val@U?$_Tree_simple_types@U?$pair@$$CBV?$basic_string@DU?$char_traits@D@std@@V?$allocator@D@2@@std@@PEAVTexture@sf@@@std@@@std@@@std@@@std@@QEBA_NAEBV01@@Z 000000014002f2d0 f i texture-manager.obj
 0002:0000c3f0       ??9?$_Tree_const_iterator@V?$_Tree_val@U?$_Tree_simple_types@U?$pair@$$CBV?$basic_string@DU?$char_traits@D@std@@V?$allocator@D@2@@std@@PEAVTexture@sf@@@std@@@std@@@std@@@std@@QEBA_NAEBV01@@Z 000000014002f3f0 f i texture-manager.obj
 0002:0000c480       ??A?$map@V?$basic_string@DU?$char_traits@D@std@@V?$allocator@D@2@@std@@PEAVTexture@sf@@U?$less@V?$basic_string@DU?$char_traits@D@std@@V?$allocator@D@2@@std@@@2@V?$allocator@U?$pair@$$CBV?$basic_string@DU?$char_traits@D@std@@V?$allocator@D@2@@std@@PEAVTexture@sf@@@std@@@2@@std@@QEAAAEAPEAVTexture@sf@@$$QEAV?$basic_string@DU?$char_traits@D@std@@V?$allocator@D@2@@1@@Z 000000014002f480 f i texture-manager.obj
 0002:0000c560       ??C?$_Tree_iterator@V?$_Tree_val@U?$_Tree_simple_types@U?$pair@$$CBV?$basic_string@DU?$char_traits@D@std@@V?$allocator@D@2@@std@@PEAVTexture@sf@@@std@@@std@@@std@@@std@@QEBAPEAU?$pair@$$CBV?$basic_string@DU?$char_traits@D@std@@V?$allocator@D@2@@std@@PEAVTexture@sf@@@1@XZ 000000014002f560 f i texture-manager.obj
 0002:0000c5c0       ??D?$_Tree_const_iterator@V?$_Tree_val@U?$_Tree_simple_types@U?$pair@$$CBV?$basic_string@DU?$char_traits@D@std@@V?$allocator@D@2@@std@@PEAVTexture@sf@@@std@@@std@@@std@@@std@@QEBAAEBU?$pair@$$CBV?$basic_string@DU?$char_traits@D@std@@V?$allocator@D@2@@std@@PEAVTexture@sf@@@1@XZ 000000014002f5c0 f i texture-manager.obj
 0002:0000c6b0       ??D?$_Tree_iterator@V?$_Tree_val@U?$_Tree_simple_types@U?$pair@$$CBV?$basic_string@DU?$char_traits@D@std@@V?$allocator@D@2@@std@@PEAVTexture@sf@@@std@@@std@@@std@@@std@@QEBAAEAU?$pair@$$CBV?$basic_string@DU?$char_traits@D@std@@V?$allocator@D@2@@std@@PEAVTexture@sf@@@1@XZ 000000014002f6b0 f i texture-manager.obj
 0002:0000c700       ??E?$_Tree_const_iterator@V?$_Tree_val@U?$_Tree_simple_types@U?$pair@$$CBV?$basic_string@DU?$char_traits@D@std@@V?$allocator@D@2@@std@@PEAVTexture@sf@@@std@@@std@@@std@@@std@@QEAA?AV01@H@Z 000000014002f700 f i texture-manager.obj
 0002:0000c7f0       ??E?$_Tree_const_iterator@V?$_Tree_val@U?$_Tree_simple_types@U?$pair@$$CBV?$basic_string@DU?$char_traits@D@std@@V?$allocator@D@2@@std@@PEAVTexture@sf@@@std@@@std@@@std@@@std@@QEAAAEAV01@XZ 000000014002f7f0 f i texture-manager.obj
 0002:0000c8e0       ??E?$_Tree_unchecked_const_iterator@V?$_Tree_val@U?$_Tree_simple_types@U?$pair@$$CBV?$basic_string@DU?$char_traits@D@std@@V?$allocator@D@2@@std@@PEAVTexture@sf@@@std@@@std@@@std@@U_Iterator_base12@2@@std@@QEAAAEAV01@XZ 000000014002f8e0 f i texture-manager.obj
 0002:0000ca00       ??F?$_Tree_const_iterator@V?$_Tree_val@U?$_Tree_simple_types@U?$pair@$$CBV?$basic_string@DU?$char_traits@D@std@@V?$allocator@D@2@@std@@PEAVTexture@sf@@@std@@@std@@@std@@@std@@QEAAAEAV01@XZ 000000014002fa00 f i texture-manager.obj
 0002:0000cb50       ??F?$_Tree_iterator@V?$_Tree_val@U?$_Tree_simple_types@U?$pair@$$CBV?$basic_string@DU?$char_traits@D@std@@V?$allocator@D@2@@std@@PEAVTexture@sf@@@std@@@std@@@std@@@std@@QEAAAEAV01@XZ 000000014002fb50 f i texture-manager.obj
 0002:0000cbb0       ??F?$_Tree_unchecked_const_iterator@V?$_Tree_val@U?$_Tree_simple_types@U?$pair@$$CBV?$basic_string@DU?$char_traits@D@std@@V?$allocator@D@2@@std@@PEAVTexture@sf@@@std@@@std@@@std@@U_Iterator_base12@2@@std@@QEAAAEAV01@XZ 000000014002fbb0 f i texture-manager.obj
 0002:0000cea0       ??R?$less@V?$basic_string@DU?$char_traits@D@std@@V?$allocator@D@2@@std@@@std@@QEBA_NAEBV?$basic_string@DU?$char_traits@D@std@@V?$allocator@D@2@@1@0@Z 000000014002fea0 f i texture-manager.obj
 0002:0000cf10       ??_G?$pair@$$CBV?$basic_string@DU?$char_traits@D@std@@V?$allocator@D@2@@std@@PEAVTexture@sf@@@std@@QEAAPEAXI@Z 000000014002ff10 f i texture-manager.obj
 0002:0000cfa0       ?GetInstance@TextureManager@@SAPEAV1@XZ 000000014002ffa0 f   texture-manager.obj
 0002:0000d070       ?GetTexture@TextureManager@@QEAAPEAVTexture@sf@@PEBD@Z 0000000140030070 f   texture-manager.obj
 0002:0000d3d0       ?SetTextureDir@TextureManager@@QEAAXPEBD@Z 00000001400303d0 f   texture-manager.obj
 0002:0000d440       ?_Adjust_manually_vector_aligned@std@@YAXAEAPEAXAEA_K@Z 0000000140030440 f i texture-manager.obj
 0002:0000d5c0       ?_Adopt@_Iterator_base12@std@@QEAAXPEBU_Container_base12@2@@Z 00000001400305c0 f i texture-manager.obj
 0002:0000d700       ?_Alloc_proxy@?$_String_alloc@U?$_String_base_types@DV?$allocator@D@std@@@std@@@std@@QEAAXXZ 0000000140030700 f i texture-manager.obj
 0002:0000d840       ?_Alloc_proxy@?$_Tree_comp_alloc@V?$_Tmap_traits@V?$basic_string@DU?$char_traits@D@std@@V?$allocator@D@2@@std@@PEAVTexture@sf@@U?$less@V?$basic_string@DU?$char_traits@D@std@@V?$allocator@D@2@@std@@@2@V?$allocator@U?$pair@$$CBV?$basic_string@DU?$char_traits@D@std@@V?$allocator@D@2@@std@@PEAVTexture@sf@@@std@@@2@$0A@@std@@@std@@QEAAXXZ 0000000140030840 f i texture-manager.obj
 0002:0000d980       ?_Allocate@_Default_allocate_traits@std@@SAPEAX_K@Z 0000000140030980 f i texture-manager.obj
 0002:0000d9d0       ?_Assign_rv_contents_with_alloc_always_equal@?$basic_string@DU?$char_traits@D@std@@V?$allocator@D@2@@std@@QEAAX$$QEAV12@U?$integral_constant@_N$00@2@@Z 00000001400309d0 f i texture-manager.obj
 0002:0000daf0       ?_Buyheadnode@?$_Tree_comp_alloc@V?$_Tmap_traits@V?$basic_string@DU?$char_traits@D@std@@V?$allocator@D@2@@std@@PEAVTexture@sf@@U?$less@V?$basic_string@DU?$char_traits@D@std@@V?$allocator@D@2@@std@@@2@V?$allocator@U?$pair@$$CBV?$basic_string@DU?$char_traits@D@std@@V?$allocator@D@2@@std@@PEAVTexture@sf@@@std@@@2@$0A@@std@@@std@@QEAAPEAU?$_Tree_node@U?$pair@$$CBV?$basic_string@DU?$char_traits@D@std@@V?$allocator@D@2@@std@@PEAVTexture@sf@@@std@@PEAX@2@XZ 0000000140030af0 f i texture-manager.obj
 0002:0000dc20       ?_Buynode0@?$_Tree_comp_alloc@V?$_Tmap_traits@V?$basic_string@DU?$char_traits@D@std@@V?$allocator@D@2@@std@@PEAVTexture@sf@@U?$less@V?$basic_string@DU?$char_traits@D@std@@V?$allocator@D@2@@std@@@2@V?$allocator@U?$pair@$$CBV?$basic_string@DU?$char_traits@D@std@@V?$allocator@D@2@@std@@PEAVTexture@sf@@@std@@@2@$0A@@std@@@std@@QEAAPEAU?$_Tree_node@U?$pair@$$CBV?$basic_string@DU?$char_traits@D@std@@V?$allocator@D@2@@std@@PEAVTexture@sf@@@std@@PEAX@2@XZ 0000000140030c20 f i texture-manager.obj
 0002:0000dd70       ?_Calculate_growth@?$basic_string@DU?$char_traits@D@std@@V?$allocator@D@2@@std@@QEBA_K_K@Z 0000000140030d70 f i texture-manager.obj
 0002:0000dea0       ?_Clrcont@_Iterator_base12@std@@QEAAXXZ 0000000140030ea0 f i texture-manager.obj
 0002:0000def0       ?_Compare@?$_Tree@V?$_Tmap_traits@V?$basic_string@DU?$char_traits@D@std@@V?$allocator@D@2@@std@@PEAVTexture@sf@@U?$less@V?$basic_string@DU?$char_traits@D@std@@V?$allocator@D@2@@std@@@2@V?$allocator@U?$pair@$$CBV?$basic_string@DU?$char_traits@D@std@@V?$allocator@D@2@@std@@PEAVTexture@sf@@@std@@@2@$0A@@std@@@std@@IEBA_NAEBV?$basic_string@DU?$char_traits@D@std@@V?$allocator@D@2@@2@0@Z 0000000140030ef0 f i texture-manager.obj
 0002:0000df80       ?_Construct@?$_Tree_comp_alloc@V?$_Tmap_traits@V?$basic_string@DU?$char_traits@D@std@@V?$allocator@D@2@@std@@PEAVTexture@sf@@U?$less@V?$basic_string@DU?$char_traits@D@std@@V?$allocator@D@2@@std@@@2@V?$allocator@U?$pair@$$CBV?$basic_string@DU?$char_traits@D@std@@V?$allocator@D@2@@std@@PEAVTexture@sf@@@std@@@2@$0A@@std@@@std@@QEAAXXZ 0000000140030f80 f i texture-manager.obj
 0002:0000e010       ?_Construct_lv_contents@?$basic_string@DU?$char_traits@D@std@@V?$allocator@D@2@@std@@QEAAXAEBV12@@Z 0000000140031010 f i texture-manager.obj
 0002:0000e220       ?_Destroy_if_node@?$_Tree@V?$_Tmap_traits@V?$basic_string@DU?$char_traits@D@std@@V?$allocator@D@2@@std@@PEAVTexture@sf@@U?$less@V?$basic_string@DU?$char_traits@D@std@@V?$allocator@D@2@@std@@@2@V?$allocator@U?$pair@$$CBV?$basic_string@DU?$char_traits@D@std@@V?$allocator@D@2@@std@@PEAVTexture@sf@@@std@@@2@$0A@@std@@@std@@IEAAXPEAU?$_Tree_node@U?$pair@$$CBV?$basic_string@DU?$char_traits@D@std@@V?$allocator@D@2@@std@@PEAVTexture@sf@@@std@@PEAX@2@@Z 0000000140031220 f i texture-manager.obj
 0002:0000e2c0       ?_Erase@?$_Tree@V?$_Tmap_traits@V?$basic_string@DU?$char_traits@D@std@@V?$allocator@D@2@@std@@PEAVTexture@sf@@U?$less@V?$basic_string@DU?$char_traits@D@std@@V?$allocator@D@2@@std@@@2@V?$allocator@U?$pair@$$CBV?$basic_string@DU?$char_traits@D@std@@V?$allocator@D@2@@std@@PEAVTexture@sf@@@std@@@2@$0A@@std@@@std@@IEAAXPEAU?$_Tree_node@U?$pair@$$CBV?$basic_string@DU?$char_traits@D@std@@V?$allocator@D@2@@std@@PEAVTexture@sf@@@std@@PEAX@2@@Z 00000001400312c0 f i texture-manager.obj
 0002:0000e3b0       ?_Extract@?$_Tree_val@U?$_Tree_simple_types@U?$pair@$$CBV?$basic_string@DU?$char_traits@D@std@@V?$allocator@D@2@@std@@PEAVTexture@sf@@@std@@@std@@@std@@QEAAPEAU?$_Tree_node@U?$pair@$$CBV?$basic_string@DU?$char_traits@D@std@@V?$allocator@D@2@@std@@PEAVTexture@sf@@@std@@PEAX@2@V?$_Tree_const_iterator@V?$_Tree_val@U?$_Tree_simple_types@U?$pair@$$CBV?$basic_string@DU?$char_traits@D@std@@V?$allocator@D@2@@std@@PEAVTexture@sf@@@std@@@std@@@std@@@2@@Z 00000001400313b0 f i texture-manager.obj
 0002:0000eb50       ?_Free_proxy@?$_String_alloc@U?$_String_base_types@DV?$allocator@D@std@@@std@@@std@@QEAAXXZ 0000000140031b50 f i texture-manager.obj
 0002:0000ec30       ?_Free_proxy@?$_Tree_comp_alloc@V?$_Tmap_traits@V?$basic_string@DU?$char_traits@D@std@@V?$allocator@D@2@@std@@PEAVTexture@sf@@U?$less@V?$basic_string@DU?$char_traits@D@std@@V?$allocator@D@2@@std@@@2@V?$allocator@U?$pair@$$CBV?$basic_string@DU?$char_traits@D@std@@V?$allocator@D@2@@std@@PEAVTexture@sf@@@std@@@2@$0A@@std@@@std@@QEAAXXZ 0000000140031c30 f i texture-manager.obj
 0002:0000ed10       ?_Freeheadnode@?$_Tree_comp_alloc@V?$_Tmap_traits@V?$basic_string@DU?$char_traits@D@std@@V?$allocator@D@2@@std@@PEAVTexture@sf@@U?$less@V?$basic_string@DU?$char_traits@D@std@@V?$allocator@D@2@@std@@@2@V?$allocator@U?$pair@$$CBV?$basic_string@DU?$char_traits@D@std@@V?$allocator@D@2@@std@@PEAVTexture@sf@@@std@@@2@$0A@@std@@@std@@QEAAXPEAU?$_Tree_node@U?$pair@$$CBV?$basic_string@DU?$char_traits@D@std@@V?$allocator@D@2@@std@@PEAVTexture@sf@@@std@@PEAX@2@@Z 0000000140031d10 f i texture-manager.obj
 0002:0000ed80       ?_Freenode0@?$_Tree_comp_alloc@V?$_Tmap_traits@V?$basic_string@DU?$char_traits@D@std@@V?$allocator@D@2@@std@@PEAVTexture@sf@@U?$less@V?$basic_string@DU?$char_traits@D@std@@V?$allocator@D@2@@std@@@2@V?$allocator@U?$pair@$$CBV?$basic_string@DU?$char_traits@D@std@@V?$allocator@D@2@@std@@PEAVTexture@sf@@@std@@@2@$0A@@std@@@std@@QEAAXPEAU?$_Tree_node@U?$pair@$$CBV?$basic_string@DU?$char_traits@D@std@@V?$allocator@D@2@@std@@PEAVTexture@sf@@@std@@PEAX@2@@Z 0000000140031d80 f i texture-manager.obj
 0002:0000edf0       ?_Get_data@?$_String_alloc@U?$_String_base_types@DV?$allocator@D@std@@@std@@@std@@QEAAAEAV?$_String_val@U?$_Simple_types@D@std@@@2@XZ 0000000140031df0 f i texture-manager.obj
 0002:0000ee50       ?_Get_data@?$_String_alloc@U?$_String_base_types@DV?$allocator@D@std@@@std@@@std@@QEBAAEBV?$_String_val@U?$_Simple_types@D@std@@@2@XZ 0000000140031e50 f i texture-manager.obj
 0002:0000eeb0       ?_Get_data@?$_Tree_comp_alloc@V?$_Tmap_traits@V?$basic_string@DU?$char_traits@D@std@@V?$allocator@D@2@@std@@PEAVTexture@sf@@U?$less@V?$basic_string@DU?$char_traits@D@std@@V?$allocator@D@2@@std@@@2@V?$allocator@U?$pair@$$CBV?$basic_string@DU?$char_traits@D@std@@V?$allocator@D@2@@std@@PEAVTexture@sf@@@std@@@2@$0A@@std@@@std@@QEAAAEAV?$_Tree_val@U?$_Tree_simple_types@U?$pair@$$CBV?$basic_string@DU?$char_traits@D@std@@V?$allocator@D@2@@std@@PEAVTexture@sf@@@std@@@std@@@2@XZ 0000000140031eb0 f i texture-manager.obj
 0002:0000ef10       ?_Get_data@?$_Tree_comp_alloc@V?$_Tmap_traits@V?$basic_string@DU?$char_traits@D@std@@V?$allocator@D@2@@std@@PEAVTexture@sf@@U?$less@V?$basic_string@DU?$char_traits@D@std@@V?$allocator@D@2@@std@@@2@V?$allocator@U?$pair@$$CBV?$basic_string@DU?$char_traits@D@std@@V?$allocator@D@2@@std@@PEAVTexture@sf@@@std@@@2@$0A@@std@@@std@@QEBAAEBV?$_Tree_val@U?$_Tree_simple_types@U?$pair@$$CBV?$basic_string@DU?$char_traits@D@std@@V?$allocator@D@2@@std@@PEAVTexture@sf@@@std@@@std@@@2@XZ 0000000140031f10 f i texture-manager.obj
 0002:0000ef70       ?_Get_first@?$_Compressed_pair@U?$less@V?$basic_string@DU?$char_traits@D@std@@V?$allocator@D@2@@std@@@std@@V?$_Compressed_pair@V?$allocator@U?$_Tree_node@U?$pair@$$CBV?$basic_string@DU?$char_traits@D@std@@V?$allocator@D@2@@std@@PEAVTexture@sf@@@std@@PEAX@std@@@std@@V?$_Tree_val@U?$_Tree_simple_types@U?$pair@$$CBV?$basic_string@DU?$char_traits@D@std@@V?$allocator@D@2@@std@@PEAVTexture@sf@@@std@@@std@@@2@$00@2@$00@std@@QEAAAEAU?$less@V?$basic_string@DU?$char_traits@D@std@@V?$allocator@D@2@@std@@@2@XZ 0000000140031f70 f i texture-manager.obj
 0002:0000efc0       ?_Get_first@?$_Compressed_pair@U?$less@V?$basic_string@DU?$char_traits@D@std@@V?$allocator@D@2@@std@@@std@@V?$_Compressed_pair@V?$allocator@U?$_Tree_node@U?$pair@$$CBV?$basic_string@DU?$char_traits@D@std@@V?$allocator@D@2@@std@@PEAVTexture@sf@@@std@@PEAX@std@@@std@@V?$_Tree_val@U?$_Tree_simple_types@U?$pair@$$CBV?$basic_string@DU?$char_traits@D@std@@V?$allocator@D@2@@std@@PEAVTexture@sf@@@std@@@std@@@2@$00@2@$00@std@@QEBAAEBU?$less@V?$basic_string@DU?$char_traits@D@std@@V?$allocator@D@2@@std@@@2@XZ 0000000140031fc0 f i texture-manager.obj
 0002:0000f010       ?_Get_first@?$_Compressed_pair@V?$allocator@D@std@@V?$_String_val@U?$_Simple_types@D@std@@@2@$00@std@@QEAAAEAV?$allocator@D@2@XZ 0000000140032010 f i texture-manager.obj
 0002:0000f060       ?_Get_first@?$_Compressed_pair@V?$allocator@D@std@@V?$_String_val@U?$_Simple_types@D@std@@@2@$00@std@@QEBAAEBV?$allocator@D@2@XZ 0000000140032060 f i texture-manager.obj
 0002:0000f0b0       ?_Get_first@?$_Compressed_pair@V?$allocator@U?$_Tree_node@U?$pair@$$CBV?$basic_string@DU?$char_traits@D@std@@V?$allocator@D@2@@std@@PEAVTexture@sf@@@std@@PEAX@std@@@std@@V?$_Tree_val@U?$_Tree_simple_types@U?$pair@$$CBV?$basic_string@DU?$char_traits@D@std@@V?$allocator@D@2@@std@@PEAVTexture@sf@@@std@@@std@@@2@$00@std@@QEAAAEAV?$allocator@U?$_Tree_node@U?$pair@$$CBV?$basic_string@DU?$char_traits@D@std@@V?$allocator@D@2@@std@@PEAVTexture@sf@@@std@@PEAX@std@@@2@XZ 00000001400320b0 f i texture-manager.obj
 0002:0000f100       ?_Get_first@?$_Compressed_pair@V?$allocator@U?$_Tree_node@U?$pair@$$CBV?$basic_string@DU?$char_traits@D@std@@V?$allocator@D@2@@std@@PEAVTexture@sf@@@std@@PEAX@std@@@std@@V?$_Tree_val@U?$_Tree_simple_types@U?$pair@$$CBV?$basic_string@DU?$char_traits@D@std@@V?$allocator@D@2@@std@@PEAVTexture@sf@@@std@@@std@@@2@$00@std@@QEBAAEBV?$allocator@U?$_Tree_node@U?$pair@$$CBV?$basic_string@DU?$char_traits@D@std@@V?$allocator@D@2@@std@@PEAVTexture@sf@@@std@@PEAX@std@@@2@XZ 0000000140032100 f i texture-manager.obj
 0002:0000f150       ?_Get_second@?$_Compressed_pair@U?$less@V?$basic_string@DU?$char_traits@D@std@@V?$allocator@D@2@@std@@@std@@V?$_Compressed_pair@V?$allocator@U?$_Tree_node@U?$pair@$$CBV?$basic_string@DU?$char_traits@D@std@@V?$allocator@D@2@@std@@PEAVTexture@sf@@@std@@PEAX@std@@@std@@V?$_Tree_val@U?$_Tree_simple_types@U?$pair@$$CBV?$basic_string@DU?$char_traits@D@std@@V?$allocator@D@2@@std@@PEAVTexture@sf@@@std@@@std@@@2@$00@2@$00@std@@QEAAAEAV?$_Compressed_pair@V?$allocator@U?$_Tree_node@U?$pair@$$CBV?$basic_string@DU?$char_traits@D@std@@V?$allocator@D@2@@std@@PEAVTexture@sf@@@std@@PEAX@std@@@std@@V?$_Tree_val@U?$_Tree_simple_types@U?$pair@$$CBV?$basic_string@DU?$char_traits@D@std@@V?$allocator@D@2@@std@@PEAVTexture@sf@@@std@@@std@@@2@$00@2@XZ 0000000140032150 f i texture-manager.obj
 0002:0000f1a0       ?_Get_second@?$_Compressed_pair@U?$less@V?$basic_string@DU?$char_traits@D@std@@V?$allocator@D@2@@std@@@std@@V?$_Compressed_pair@V?$allocator@U?$_Tree_node@U?$pair@$$CBV?$basic_string@DU?$char_traits@D@std@@V?$allocator@D@2@@std@@PEAVTexture@sf@@@std@@PEAX@std@@@std@@V?$_Tree_val@U?$_Tree_simple_types@U?$pair@$$CBV?$basic_string@DU?$char_traits@D@std@@V?$allocator@D@2@@std@@PEAVTexture@sf@@@std@@@std@@@2@$00@2@$00@std@@QEBAAEBV?$_Compressed_pair@V?$allocator@U?$_Tree_node@U?$pair@$$CBV?$basic_string@DU?$char_traits@D@std@@V?$allocator@D@2@@std@@PEAVTexture@sf@@@std@@PEAX@std@@@std@@V?$_Tree_val@U?$_Tree_simple_types@U?$pair@$$CBV?$basic_string@DU?$char_traits@D@std@@V?$allocator@D@2@@std@@PEAVTexture@sf@@@std@@@std@@@2@$00@2@XZ 00000001400321a0 f i texture-manager.obj
 0002:0000f1f0       ?_Get_second@?$_Compressed_pair@V?$allocator@D@std@@V?$_String_val@U?$_Simple_types@D@std@@@2@$00@std@@QEAAAEAV?$_String_val@U?$_Simple_types@D@std@@@2@XZ 00000001400321f0 f i texture-manager.obj
 0002:0000f240       ?_Get_second@?$_Compressed_pair@V?$allocator@D@std@@V?$_String_val@U?$_Simple_types@D@std@@@2@$00@std@@QEBAAEBV?$_String_val@U?$_Simple_types@D@std@@@2@XZ 0000000140032240 f i texture-manager.obj
 0002:0000f290       ?_Get_second@?$_Compressed_pair@V?$allocator@U?$_Tree_node@U?$pair@$$CBV?$basic_string@DU?$char_traits@D@std@@V?$allocator@D@2@@std@@PEAVTexture@sf@@@std@@PEAX@std@@@std@@V?$_Tree_val@U?$_Tree_simple_types@U?$pair@$$CBV?$basic_string@DU?$char_traits@D@std@@V?$allocator@D@2@@std@@PEAVTexture@sf@@@std@@@std@@@2@$00@std@@QEAAAEAV?$_Tree_val@U?$_Tree_simple_types@U?$pair@$$CBV?$basic_string@DU?$char_traits@D@std@@V?$allocator@D@2@@std@@PEAVTexture@sf@@@std@@@std@@@2@XZ 0000000140032290 f i texture-manager.obj
 0002:0000f2e0       ?_Get_second@?$_Compressed_pair@V?$allocator@U?$_Tree_node@U?$pair@$$CBV?$basic_string@DU?$char_traits@D@std@@V?$allocator@D@2@@std@@PEAVTexture@sf@@@std@@PEAX@std@@@std@@V?$_Tree_val@U?$_Tree_simple_types@U?$pair@$$CBV?$basic_string@DU?$char_traits@D@std@@V?$allocator@D@2@@std@@PEAVTexture@sf@@@std@@@std@@@2@$00@std@@QEBAAEBV?$_Tree_val@U?$_Tree_simple_types@U?$pair@$$CBV?$basic_string@DU?$char_traits@D@std@@V?$allocator@D@2@@std@@PEAVTexture@sf@@@std@@@std@@@2@XZ 00000001400322e0 f i texture-manager.obj
 0002:0000f330       ?_Getal@?$_String_alloc@U?$_String_base_types@DV?$allocator@D@std@@@std@@@std@@QEAAAEAV?$allocator@D@2@XZ 0000000140032330 f i texture-manager.obj
 0002:0000f390       ?_Getal@?$_String_alloc@U?$_String_base_types@DV?$allocator@D@std@@@std@@@std@@QEBAAEBV?$allocator@D@2@XZ 0000000140032390 f i texture-manager.obj
 0002:0000f3f0       ?_Getal@?$_Tree_comp_alloc@V?$_Tmap_traits@V?$basic_string@DU?$char_traits@D@std@@V?$allocator@D@2@@std@@PEAVTexture@sf@@U?$less@V?$basic_string@DU?$char_traits@D@std@@V?$allocator@D@2@@std@@@2@V?$allocator@U?$pair@$$CBV?$basic_string@DU?$char_traits@D@std@@V?$allocator@D@2@@std@@PEAVTexture@sf@@@std@@@2@$0A@@std@@@std@@QEAAAEAV?$allocator@U?$_Tree_node@U?$pair@$$CBV?$basic_string@DU?$char_traits@D@std@@V?$allocator@D@2@@std@@PEAVTexture@sf@@@std@@PEAX@std@@@2@XZ 00000001400323f0 f i texture-manager.obj
 0002:0000f450       ?_Getal@?$_Tree_comp_alloc@V?$_Tmap_traits@V?$basic_string@DU?$char_traits@D@std@@V?$allocator@D@2@@std@@PEAVTexture@sf@@U?$less@V?$basic_string@DU?$char_traits@D@std@@V?$allocator@D@2@@std@@@2@V?$allocator@U?$pair@$$CBV?$basic_string@DU?$char_traits@D@std@@V?$allocator@D@2@@std@@PEAVTexture@sf@@@std@@@2@$0A@@std@@@std@@QEBAAEBV?$allocator@U?$_Tree_node@U?$pair@$$CBV?$basic_string@DU?$char_traits@D@std@@V?$allocator@D@2@@std@@PEAVTexture@sf@@@std@@PEAX@std@@@2@XZ 0000000140032450 f i texture-manager.obj
 0002:0000f4b0       ?_Getcomp@?$_Tree_comp_alloc@V?$_Tmap_traits@V?$basic_string@DU?$char_traits@D@std@@V?$allocator@D@2@@std@@PEAVTexture@sf@@U?$less@V?$basic_string@DU?$char_traits@D@std@@V?$allocator@D@2@@std@@@2@V?$allocator@U?$pair@$$CBV?$basic_string@DU?$char_traits@D@std@@V?$allocator@D@2@@std@@PEAVTexture@sf@@@std@@@2@$0A@@std@@@std@@QEAAAEAU?$less@V?$basic_string@DU?$char_traits@D@std@@V?$allocator@D@2@@std@@@2@XZ 00000001400324b0 f i texture-manager.obj
 0002:0000f510       ?_Getcomp@?$_Tree_comp_alloc@V?$_Tmap_traits@V?$basic_string@DU?$char_traits@D@std@@V?$allocator@D@2@@std@@PEAVTexture@sf@@U?$less@V?$basic_string@DU?$char_traits@D@std@@V?$allocator@D@2@@std@@@2@V?$allocator@U?$pair@$$CBV?$basic_string@DU?$char_traits@D@std@@V?$allocator@D@2@@std@@PEAVTexture@sf@@@std@@@2@$0A@@std@@@std@@QEBAAEBU?$less@V?$basic_string@DU?$char_traits@D@std@@V?$allocator@D@2@@std@@@2@XZ 0000000140032510 f i texture-manager.obj
 0002:0000f570       ?_Getcont@_Iterator_base12@std@@QEBAPEBU_Container_base12@2@XZ 0000000140032570 f i texture-manager.obj
 0002:0000f5f0       ?_Getpfirst@?$_Tree_comp_alloc@V?$_Tmap_traits@V?$basic_string@DU?$char_traits@D@std@@V?$allocator@D@2@@std@@PEAVTexture@sf@@U?$less@V?$basic_string@DU?$char_traits@D@std@@V?$allocator@D@2@@std@@@2@V?$allocator@U?$pair@$$CBV?$basic_string@DU?$char_traits@D@std@@V?$allocator@D@2@@std@@PEAVTexture@sf@@@std@@@2@$0A@@std@@@std@@QEBAPEAPEAU_Iterator_base12@2@XZ 00000001400325f0 f i texture-manager.obj
 0002:0000f650       ?_Getpfirst@_Container_base12@std@@QEBAPEAPEAU_Iterator_base12@2@XZ 0000000140032650 f i texture-manager.obj
 0002:0000f6e0       ?_Getpnext@_Iterator_base12@std@@QEAAPEAPEAU12@XZ 00000001400326e0 f i texture-manager.obj
 0002:0000f730       ?_Key@?$_Tree@V?$_Tmap_traits@V?$basic_string@DU?$char_traits@D@std@@V?$allocator@D@2@@std@@PEAVTexture@sf@@U?$less@V?$basic_string@DU?$char_traits@D@std@@V?$allocator@D@2@@std@@@2@V?$allocator@U?$pair@$$CBV?$basic_string@DU?$char_traits@D@std@@V?$allocator@D@2@@std@@PEAVTexture@sf@@@std@@@2@$0A@@std@@@std@@IEBAAEBV?$basic_string@DU?$char_traits@D@std@@V?$allocator@D@2@@2@PEAU?$_Tree_node@U?$pair@$$CBV?$basic_string@DU?$char_traits@D@std@@V?$allocator@D@2@@std@@PEAVTexture@sf@@@std@@PEAX@2@@Z 0000000140032730 f i texture-manager.obj
 0002:0000f7a0       ?_Kfn@?$_Tree@V?$_Tmap_traits@V?$basic_string@DU?$char_traits@D@std@@V?$allocator@D@2@@std@@PEAVTexture@sf@@U?$less@V?$basic_string@DU?$char_traits@D@std@@V?$allocator@D@2@@std@@@2@V?$allocator@U?$pair@$$CBV?$basic_string@DU?$char_traits@D@std@@V?$allocator@D@2@@std@@PEAVTexture@sf@@@std@@@2@$0A@@std@@@std@@IEBAAEBV?$basic_string@DU?$char_traits@D@std@@V?$allocator@D@2@@2@AEBU?$pair@$$CBV?$basic_string@DU?$char_traits@D@std@@V?$allocator@D@2@@std@@PEAVTexture@sf@@@2@@Z 00000001400327a0 f i texture-manager.obj
 0002:0000f800       ?_Large_string_engaged@?$_String_val@U?$_Simple_types@D@std@@@std@@QEBA_NXZ 0000000140032800 f i texture-manager.obj
 0002:0000f880       ?_Lmost@?$_Tree_val@U?$_Tree_simple_types@U?$pair@$$CBV?$basic_string@DU?$char_traits@D@std@@V?$allocator@D@2@@std@@PEAVTexture@sf@@@std@@@std@@@std@@QEBAAEAPEAU?$_Tree_node@U?$pair@$$CBV?$basic_string@DU?$char_traits@D@std@@V?$allocator@D@2@@std@@PEAVTexture@sf@@@std@@PEAX@2@XZ 0000000140032880 f i texture-manager.obj
 0002:0000f8d0       ?_Lrotate@?$_Tree_val@U?$_Tree_simple_types@U?$pair@$$CBV?$basic_string@DU?$char_traits@D@std@@V?$allocator@D@2@@std@@PEAVTexture@sf@@@std@@@std@@@std@@QEAAXPEAU?$_Tree_node@U?$pair@$$CBV?$basic_string@DU?$char_traits@D@std@@V?$allocator@D@2@@std@@PEAVTexture@sf@@@std@@PEAX@2@@Z 00000001400328d0 f i texture-manager.obj
 0002:0000fa30       ?_Maklocwcs@std@@YAPEA_WPEB_W@Z 0000000140032a30 f i texture-manager.obj
 0002:0000faf0       ?_Max@?$_Tree_val@U?$_Tree_simple_types@U?$pair@$$CBV?$basic_string@DU?$char_traits@D@std@@V?$allocator@D@2@@std@@PEAVTexture@sf@@@std@@@std@@@std@@SAPEAU?$_Tree_node@U?$pair@$$CBV?$basic_string@DU?$char_traits@D@std@@V?$allocator@D@2@@std@@PEAVTexture@sf@@@std@@PEAX@2@PEAU32@@Z 0000000140032af0 f i texture-manager.obj
 0002:0000fb70       ?_Min@?$_Tree_val@U?$_Tree_simple_types@U?$pair@$$CBV?$basic_string@DU?$char_traits@D@std@@V?$allocator@D@2@@std@@PEAVTexture@sf@@@std@@@std@@@std@@SAPEAU?$_Tree_node@U?$pair@$$CBV?$basic_string@DU?$char_traits@D@std@@V?$allocator@D@2@@std@@PEAVTexture@sf@@@std@@PEAX@2@PEAU32@@Z 0000000140032b70 f i texture-manager.obj
 0002:0000fbf0       ?_Myproxy@?$_String_alloc@U?$_String_base_types@DV?$allocator@D@std@@@std@@@std@@QEAAAEAPEAU_Container_proxy@2@XZ 0000000140032bf0 f i texture-manager.obj
 0002:0000fc40       ?_Myproxy@?$_Tree_comp_alloc@V?$_Tmap_traits@V?$basic_string@DU?$char_traits@D@std@@V?$allocator@D@2@@std@@PEAVTexture@sf@@U?$less@V?$basic_string@DU?$char_traits@D@std@@V?$allocator@D@2@@std@@@2@V?$allocator@U?$pair@$$CBV?$basic_string@DU?$char_traits@D@std@@V?$allocator@D@2@@std@@PEAVTexture@sf@@@std@@@2@$0A@@std@@@std@@QEAAAEAPEAU_Container_proxy@2@XZ 0000000140032c40 f i texture-manager.obj
 0002:0000fc90       ?_Myptr@?$_String_val@U?$_Simple_types@D@std@@@std@@QEAAPEADXZ 0000000140032c90 f i texture-manager.obj
 0002:0000fd20       ?_Myptr@?$_String_val@U?$_Simple_types@D@std@@@std@@QEBAPEBDXZ 0000000140032d20 f i texture-manager.obj
 0002:0000fdb0       ?_Orphan_all@?$_String_alloc@U?$_String_base_types@DV?$allocator@D@std@@@std@@@std@@QEAAXXZ 0000000140032db0 f i texture-manager.obj
 0002:0000fe10       ?_Orphan_all@?$_Tree_comp_alloc@V?$_Tmap_traits@V?$basic_string@DU?$char_traits@D@std@@V?$allocator@D@2@@std@@PEAVTexture@sf@@U?$less@V?$basic_string@DU?$char_traits@D@std@@V?$allocator@D@2@@std@@@2@V?$allocator@U?$pair@$$CBV?$basic_string@DU?$char_traits@D@std@@V?$allocator@D@2@@std@@PEAVTexture@sf@@@std@@@2@$0A@@std@@@std@@QEAAXXZ 0000000140032e10 f i texture-manager.obj
 0002:0000fe70       ?_Orphan_all@_Container_base12@std@@QEAAXXZ 0000000140032e70 f i texture-manager.obj
 0002:0000ff70       ?_Orphan_me@_Iterator_base12@std@@QEAAXXZ 0000000140032f70 f i texture-manager.obj
 0002:000100b0       ?_Orphan_ptr@?$_Tree@V?$_Tmap_traits@V?$basic_string@DU?$char_traits@D@std@@V?$allocator@D@2@@std@@PEAVTexture@sf@@U?$less@V?$basic_string@DU?$char_traits@D@std@@V?$allocator@D@2@@std@@@2@V?$allocator@U?$pair@$$CBV?$basic_string@DU?$char_traits@D@std@@V?$allocator@D@2@@std@@PEAVTexture@sf@@@std@@@2@$0A@@std@@@std@@IEAAXPEAU?$_Tree_node@U?$pair@$$CBV?$basic_string@DU?$char_traits@D@std@@V?$allocator@D@2@@std@@PEAVTexture@sf@@@std@@PEAX@2@@Z 00000001400330b0 f i texture-manager.obj
 0002:00010210       ?_Rmost@?$_Tree_val@U?$_Tree_simple_types@U?$pair@$$CBV?$basic_string@DU?$char_traits@D@std@@V?$allocator@D@2@@std@@PEAVTexture@sf@@@std@@@std@@@std@@QEBAAEAPEAU?$_Tree_node@U?$pair@$$CBV?$basic_string@DU?$char_traits@D@std@@V?$allocator@D@2@@std@@PEAVTexture@sf@@@std@@PEAX@2@XZ 0000000140033210 f i texture-manager.obj
 0002:00010270       ?_Root@?$_Tree_val@U?$_Tree_simple_types@U?$pair@$$CBV?$basic_string@DU?$char_traits@D@std@@V?$allocator@D@2@@std@@PEAVTexture@sf@@@std@@@std@@@std@@QEBAAEAPEAU?$_Tree_node@U?$pair@$$CBV?$basic_string@DU?$char_traits@D@std@@V?$allocator@D@2@@std@@PEAVTexture@sf@@@std@@PEAX@2@XZ 0000000140033270 f i texture-manager.obj
 0002:000102d0       ?_Rrotate@?$_Tree_val@U?$_Tree_simple_types@U?$pair@$$CBV?$basic_string@DU?$char_traits@D@std@@V?$allocator@D@2@@std@@PEAVTexture@sf@@@std@@@std@@@std@@QEAAXPEAU?$_Tree_node@U?$pair@$$CBV?$basic_string@DU?$char_traits@D@std@@V?$allocator@D@2@@std@@PEAVTexture@sf@@@std@@PEAX@2@@Z 00000001400332d0 f i texture-manager.obj
 0002:00010430       ?_Swap_all@?$_String_alloc@U?$_String_base_types@DV?$allocator@D@std@@@std@@@std@@QEAAXAEAV12@@Z 0000000140033430 f i texture-manager.obj
 0002:000104c0       ?_Swap_all@_Container_base12@std@@QEAAXAEAU12@@Z 00000001400334c0 f i texture-manager.obj
 0002:000105e0       ?_Tidy@?$_Tree@V?$_Tmap_traits@V?$basic_string@DU?$char_traits@D@std@@V?$allocator@D@2@@std@@PEAVTexture@sf@@U?$less@V?$basic_string@DU?$char_traits@D@std@@V?$allocator@D@2@@std@@@2@V?$allocator@U?$pair@$$CBV?$basic_string@DU?$char_traits@D@std@@V?$allocator@D@2@@std@@PEAVTexture@sf@@@std@@@2@$0A@@std@@@std@@IEAAXXZ 00000001400335e0 f i texture-manager.obj
 0002:00010750       ?_Tidy_deallocate@?$basic_string@DU?$char_traits@D@std@@V?$allocator@D@2@@std@@QEAAXXZ 0000000140033750 f i texture-manager.obj
 0002:00010880       ?_Tidy_init@?$basic_string@DU?$char_traits@D@std@@V?$allocator@D@2@@std@@QEAAXXZ 0000000140033880 f i texture-manager.obj
 0002:00010930       ?_Xlen@?$basic_string@DU?$char_traits@D@std@@V?$allocator@D@2@@std@@SAXXZ 0000000140033930 f i texture-manager.obj
 0002:00010980       ?__empty_global_delete@@YAXPEAX@Z 0000000140033980 f i texture-manager.obj
 0002:000109c0       ?__empty_global_delete@@YAXPEAX_K@Z 00000001400339c0 f i texture-manager.obj
 0002:00010a10       ?allocate@?$allocator@D@std@@QEAAPEAD_K@Z 0000000140033a10 f i texture-manager.obj
 0002:00010a70       ?allocate@?$allocator@U?$_Tree_node@U?$pair@$$CBV?$basic_string@DU?$char_traits@D@std@@V?$allocator@D@2@@std@@PEAVTexture@sf@@@std@@PEAX@std@@@std@@QEAAPEAU?$_Tree_node@U?$pair@$$CBV?$basic_string@DU?$char_traits@D@std@@V?$allocator@D@2@@std@@PEAVTexture@sf@@@std@@PEAX@2@_K@Z 0000000140033a70 f i texture-manager.obj
 0002:00010ad0       ?allocate@?$allocator@U_Container_proxy@std@@@std@@QEAAPEAU_Container_proxy@2@_K@Z 0000000140033ad0 f i texture-manager.obj
 0002:00010b30       ?append@?$basic_string@DU?$char_traits@D@std@@V?$allocator@D@2@@std@@QEAAAEAV12@QEBD@Z 0000000140033b30 f i texture-manager.obj
 0002:00010bb0       ?append@?$basic_string@DU?$char_traits@D@std@@V?$allocator@D@2@@std@@QEAAAEAV12@QEBD_K@Z 0000000140033bb0 f i texture-manager.obj
 0002:00010d40       ?assign@?$basic_string@DU?$char_traits@D@std@@V?$allocator@D@2@@std@@QEAAAEAV12@QEBD@Z 0000000140033d40 f i texture-manager.obj
 0002:00010dc0       ?assign@?$basic_string@DU?$char_traits@D@std@@V?$allocator@D@2@@std@@QEAAAEAV12@QEBD_K@Z 0000000140033dc0 f i texture-manager.obj
 0002:00010f00       ?assign@?$char_traits@D@std@@SAXAEADAEBD@Z 0000000140033f00 f i texture-manager.obj
 0002:00010f60       ?begin@?$_Tree@V?$_Tmap_traits@V?$basic_string@DU?$char_traits@D@std@@V?$allocator@D@2@@std@@PEAVTexture@sf@@U?$less@V?$basic_string@DU?$char_traits@D@std@@V?$allocator@D@2@@std@@@2@V?$allocator@U?$pair@$$CBV?$basic_string@DU?$char_traits@D@std@@V?$allocator@D@2@@std@@PEAVTexture@sf@@@std@@@2@$0A@@std@@@std@@QEAA?AV?$_Tree_iterator@V?$_Tree_val@U?$_Tree_simple_types@U?$pair@$$CBV?$basic_string@DU?$char_traits@D@std@@V?$allocator@D@2@@std@@PEAVTexture@sf@@@std@@@std@@@std@@@2@XZ 0000000140033f60 f i texture-manager.obj
 0002:00011020       ?clear@?$_Tree@V?$_Tmap_traits@V?$basic_string@DU?$char_traits@D@std@@V?$allocator@D@2@@std@@PEAVTexture@sf@@U?$less@V?$basic_string@DU?$char_traits@D@std@@V?$allocator@D@2@@std@@@2@V?$allocator@U?$pair@$$CBV?$basic_string@DU?$char_traits@D@std@@V?$allocator@D@2@@std@@PEAVTexture@sf@@@std@@@2@$0A@@std@@@std@@QEAAXXZ 0000000140034020 f i texture-manager.obj
 0002:00011120       ?compare@?$basic_string@DU?$char_traits@D@std@@V?$allocator@D@2@@std@@QEBAHAEBV12@@Z 0000000140034120 f i texture-manager.obj
 0002:000111f0       ?compare@?$char_traits@D@std@@SAHQEBD0_K@Z 00000001400341f0 f i texture-manager.obj
 0002:00011260       ?copy@?$char_traits@D@std@@SAPEADQEADQEBD_K@Z 0000000140034260 f i texture-manager.obj
 0002:000112d0       ?deallocate@?$_Default_allocator_traits@V?$allocator@U?$_Tree_node@U?$pair@$$CBV?$basic_string@DU?$char_traits@D@std@@V?$allocator@D@2@@std@@PEAVTexture@sf@@@std@@PEAX@std@@@std@@@std@@SAXAEAV?$allocator@U?$_Tree_node@U?$pair@$$CBV?$basic_string@DU?$char_traits@D@std@@V?$allocator@D@2@@std@@PEAVTexture@sf@@@std@@PEAX@std@@@2@QEAU?$_Tree_node@U?$pair@$$CBV?$basic_string@DU?$char_traits@D@std@@V?$allocator@D@2@@std@@PEAVTexture@sf@@@std@@PEAX@2@_K@Z 00000001400342d0 f i texture-manager.obj
 0002:00011340       ?deallocate@?$_Default_allocator_traits@V?$allocator@U_Container_proxy@std@@@std@@@std@@SAXAEAV?$allocator@U_Container_proxy@std@@@2@QEAU_Container_proxy@2@_K@Z 0000000140034340 f i texture-manager.obj
 0002:000113b0       ?deallocate@?$allocator@D@std@@QEAAXQEAD_K@Z 00000001400343b0 f i texture-manager.obj
 0002:00011420       ?deallocate@?$allocator@U?$_Tree_node@U?$pair@$$CBV?$basic_string@DU?$char_traits@D@std@@V?$allocator@D@2@@std@@PEAVTexture@sf@@@std@@PEAX@std@@@std@@QEAAXQEAU?$_Tree_node@U?$pair@$$CBV?$basic_string@DU?$char_traits@D@std@@V?$allocator@D@2@@std@@PEAVTexture@sf@@@std@@PEAX@2@_K@Z 0000000140034420 f i texture-manager.obj
 0002:00011490       ?end@?$_Tree@V?$_Tmap_traits@V?$basic_string@DU?$char_traits@D@std@@V?$allocator@D@2@@std@@PEAVTexture@sf@@U?$less@V?$basic_string@DU?$char_traits@D@std@@V?$allocator@D@2@@std@@@2@V?$allocator@U?$pair@$$CBV?$basic_string@DU?$char_traits@D@std@@V?$allocator@D@2@@std@@PEAVTexture@sf@@@std@@@2@$0A@@std@@@std@@QEAA?AV?$_Tree_iterator@V?$_Tree_val@U?$_Tree_simple_types@U?$pair@$$CBV?$basic_string@DU?$char_traits@D@std@@V?$allocator@D@2@@std@@PEAVTexture@sf@@@std@@@std@@@std@@@2@XZ 0000000140034490 f i texture-manager.obj
 0002:00011530       ?erase@?$_Tree@V?$_Tmap_traits@V?$basic_string@DU?$char_traits@D@std@@V?$allocator@D@2@@std@@PEAVTexture@sf@@U?$less@V?$basic_string@DU?$char_traits@D@std@@V?$allocator@D@2@@std@@@2@V?$allocator@U?$pair@$$CBV?$basic_string@DU?$char_traits@D@std@@V?$allocator@D@2@@std@@PEAVTexture@sf@@@std@@@2@$0A@@std@@@std@@QEAA?AV?$_Tree_iterator@V?$_Tree_val@U?$_Tree_simple_types@U?$pair@$$CBV?$basic_string@DU?$char_traits@D@std@@V?$allocator@D@2@@std@@PEAVTexture@sf@@@std@@@std@@@std@@@2@V?$_Tree_const_iterator@V?$_Tree_val@U?$_Tree_simple_types@U?$pair@$$CBV?$basic_string@DU?$char_traits@D@std@@V?$allocator@D@2@@std@@PEAVTexture@sf@@@std@@@std@@@std@@@2@0@Z 0000000140034530 f i texture-manager.obj
 0002:00011880       ?erase@?$_Tree@V?$_Tmap_traits@V?$basic_string@DU?$char_traits@D@std@@V?$allocator@D@2@@std@@PEAVTexture@sf@@U?$less@V?$basic_string@DU?$char_traits@D@std@@V?$allocator@D@2@@std@@@2@V?$allocator@U?$pair@$$CBV?$basic_string@DU?$char_traits@D@std@@V?$allocator@D@2@@std@@PEAVTexture@sf@@@std@@@2@$0A@@std@@@std@@QEAA?AV?$_Tree_iterator@V?$_Tree_val@U?$_Tree_simple_types@U?$pair@$$CBV?$basic_string@DU?$char_traits@D@std@@V?$allocator@D@2@@std@@PEAVTexture@sf@@@std@@@std@@@std@@@2@V?$_Tree_const_iterator@V?$_Tree_val@U?$_Tree_simple_types@U?$pair@$$CBV?$basic_string@DU?$char_traits@D@std@@V?$allocator@D@2@@std@@PEAVTexture@sf@@@std@@@std@@@std@@@2@@Z 0000000140034880 f i texture-manager.obj
 0002:00011ae0       ?length@?$char_traits@D@std@@SA_KQEBD@Z 0000000140034ae0 f i texture-manager.obj
 0002:00011b30       ?lower_bound@?$_Tree@V?$_Tmap_traits@V?$basic_string@DU?$char_traits@D@std@@V?$allocator@D@2@@std@@PEAVTexture@sf@@U?$less@V?$basic_string@DU?$char_traits@D@std@@V?$allocator@D@2@@std@@@2@V?$allocator@U?$pair@$$CBV?$basic_string@DU?$char_traits@D@std@@V?$allocator@D@2@@std@@PEAVTexture@sf@@@std@@@2@$0A@@std@@@std@@QEAA?AV?$_Tree_iterator@V?$_Tree_val@U?$_Tree_simple_types@U?$pair@$$CBV?$basic_string@DU?$char_traits@D@std@@V?$allocator@D@2@@std@@PEAVTexture@sf@@@std@@@std@@@std@@@2@AEBV?$basic_string@DU?$char_traits@D@std@@V?$allocator@D@2@@2@@Z 0000000140034b30 f i texture-manager.obj
 0002:00011c00       ?max@?$numeric_limits@_J@std@@SA_JXZ 0000000140034c00 f i texture-manager.obj
 0002:00011c40       ?max_size@?$_Default_allocator_traits@V?$allocator@D@std@@@std@@SA_KAEBV?$allocator@D@2@@Z 0000000140034c40 f i texture-manager.obj
 0002:00011c90       ?max_size@?$_Default_allocator_traits@V?$allocator@U?$_Tree_node@U?$pair@$$CBV?$basic_string@DU?$char_traits@D@std@@V?$allocator@D@2@@std@@PEAVTexture@sf@@@std@@PEAX@std@@@std@@@std@@SA_KAEBV?$allocator@U?$_Tree_node@U?$pair@$$CBV?$basic_string@DU?$char_traits@D@std@@V?$allocator@D@2@@std@@PEAVTexture@sf@@@std@@PEAX@std@@@2@@Z 0000000140034c90 f i texture-manager.obj
 0002:00011ce0       ?max_size@?$_Tree@V?$_Tmap_traits@V?$basic_string@DU?$char_traits@D@std@@V?$allocator@D@2@@std@@PEAVTexture@sf@@U?$less@V?$basic_string@DU?$char_traits@D@std@@V?$allocator@D@2@@std@@@2@V?$allocator@U?$pair@$$CBV?$basic_string@DU?$char_traits@D@std@@V?$allocator@D@2@@std@@PEAVTexture@sf@@@std@@@2@$0A@@std@@@std@@QEBA_KXZ 0000000140034ce0 f i texture-manager.obj
 0002:00011d40       ?max_size@?$basic_string@DU?$char_traits@D@std@@V?$allocator@D@2@@std@@QEBA_KXZ 0000000140034d40 f i texture-manager.obj
 0002:00011e30       ?move@?$char_traits@D@std@@SAPEADQEADQEBD_K@Z 0000000140034e30 f i texture-manager.obj
 0002:00011ea0       ?pointer_to@?$pointer_traits@PEAU?$pair@$$CBV?$basic_string@DU?$char_traits@D@std@@V?$allocator@D@2@@std@@PEAVTexture@sf@@@std@@@std@@SAPEAU?$pair@$$CBV?$basic_string@DU?$char_traits@D@std@@V?$allocator@D@2@@std@@PEAVTexture@sf@@@2@AEAU32@@Z 0000000140034ea0 f i texture-manager.obj
 0002:00011ef0       ?select_on_container_copy_construction@?$_Default_allocator_traits@V?$allocator@D@std@@@std@@SA?AV?$allocator@D@2@AEBV32@@Z 0000000140034ef0 f i texture-manager.obj
 0002:00011f40       ?size@?$_Tree@V?$_Tmap_traits@V?$basic_string@DU?$char_traits@D@std@@V?$allocator@D@2@@std@@PEAVTexture@sf@@U?$less@V?$basic_string@DU?$char_traits@D@std@@V?$allocator@D@2@@std@@@2@V?$allocator@U?$pair@$$CBV?$basic_string@DU?$char_traits@D@std@@V?$allocator@D@2@@std@@PEAVTexture@sf@@@std@@@2@$0A@@std@@@std@@QEBA_KXZ 0000000140034f40 f i texture-manager.obj
 0002:00011fa0       wmemcpy                    0000000140034fa0 f i texture-manager.obj
 0002:00012020       ??0Animation@@QEAA@XZ      0000000140035020 f   animation.obj
 0002:00012070       ??1Animation@@QEAA@XZ      0000000140035070 f   animation.obj
 0002:000120b0       ??$?0_W@?$allocator@U_Container_proxy@std@@@std@@QEAA@AEBV?$allocator@_W@1@@Z 00000001400350b0 f i button.obj
 0002:000122e0       ??$_Unfancy@_W@std@@YAPEA_WPEA_W@Z 00000001400352e0 f i button.obj
 0002:00012330       ??$addressof@PEA_W@std@@YAPEAPEA_WAEAPEA_W@Z 0000000140035330 f i button.obj
 0002:00012380       ??$destroy@PEA_W@?$_Default_allocator_traits@V?$allocator@_W@std@@@std@@SAXAEAV?$allocator@_W@1@QEAPEA_W@Z 0000000140035380 f i button.obj
 0002:000123d0       ??$forward@PEAVButton@@@std@@YA$$QEAPEAVButton@@AEAPEAV1@@Z 00000001400353d0 f i button.obj
 0002:00012420       ??$move@AEAV?$_Func_class@XPEAVButton@@@std@@@std@@YA$$QEAV?$_Func_class@XPEAVButton@@@0@AEAV10@@Z 0000000140035420 f i button.obj
 0002:00012470       ??0?$Vector2@M@sf@@QEAA@MM@Z 0000000140035470 f i button.obj
 0002:00012500       ??0?$_Func_class@XPEAVButton@@@std@@QEAA@XZ 0000000140035500 f i button.obj
 0002:00012560       ??0?$function@$$A6AXPEAVButton@@@Z@std@@QEAA@$$T@Z 0000000140035560 f i button.obj
 0002:000125c0       ??0?$function@$$A6AXPEAVButton@@@Z@std@@QEAA@AEBV01@@Z 00000001400355c0 f i button.obj
 0002:00012650       ??0Button@@QEAA@AEBV?$Vector2@M@sf@@0@Z 0000000140035650 f   button.obj
 0002:00012820       ??1?$_Compressed_pair@V?$allocator@_W@std@@V?$_String_val@U?$_Simple_types@_W@std@@@2@$00@std@@QEAA@XZ 0000000140035820 f i button.obj
 0002:00012880       ??1?$_Func_class@XPEAVButton@@@std@@QEAA@XZ 0000000140035880 f i button.obj
 0002:000128d0       ??1?$_String_alloc@U?$_String_base_types@_WV?$allocator@_W@std@@@std@@@std@@QEAA@XZ 00000001400358d0 f i button.obj
 0002:00012950       ??1?$_String_val@U?$_Simple_types@_W@std@@@std@@QEAA@XZ 0000000140035950 f i button.obj
 0002:000129b0       ??1?$basic_string@_WU?$char_traits@_W@std@@V?$allocator@_W@2@@std@@QEAA@XZ 00000001400359b0 f i button.obj
 0002:00012a20       ??1?$function@$$A6AXPEAVButton@@@Z@std@@QEAA@XZ 0000000140035a20 f i button.obj
 0002:00012a70       ??1Button@@UEAA@XZ         0000000140035a70 f   button.obj
 0002:00012b10       ??1_Bxty@?$_String_val@U?$_Simple_types@_W@std@@@std@@QEAA@XZ 0000000140035b10 f i button.obj
 0002:00012b50       ??4?$function@$$A6AXPEAVButton@@@Z@std@@QEAAAEAV01@AEBV01@@Z 0000000140035b50 f i button.obj
 0002:00012c10       ??B?$function@$$A6AXPEAVButton@@@Z@std@@QEBA_NXZ 0000000140035c10 f i button.obj
 0002:00012d40       ??R?$_Func_class@XPEAVButton@@@std@@QEBAXPEAVButton@@@Z 0000000140035d40 f i button.obj
 0002:00012df0       ??_GButton@@UEAAPEAXI@Z    0000000140035df0 f i button.obj
 0002:00012df0       ??_EButton@@UEAAPEAXI@Z    0000000140035df0 f i button.obj
 0002:00012e80       ?Draw@Button@@UEAAXPEAVRenderWindow@sf@@@Z 0000000140035e80 f   button.obj
 0002:00012f20       ?GetText@Button@@QEBAPEB_WXZ 0000000140035f20 f   button.obj
 0002:00012ff0       ?HandleEvent@Button@@UEAAXAEBVEvent@sf@@@Z 0000000140035ff0 f   button.obj
 0002:00013130       ?SetOnClickedListener@Button@@QEAAXV?$function@$$A6AXPEAVButton@@@Z@std@@@Z 0000000140036130 f   button.obj
 0002:000131c0       ?SetPos@Button@@UEAAXAEBV?$Vector2@M@sf@@@Z 00000001400361c0 f   button.obj
 0002:00013230       ?SetText@Button@@QEAAXPEB_W@Z 0000000140036230 f   button.obj
 0002:00013440       ?Update@Button@@UEAAXAEBVTime@sf@@@Z 0000000140036440 f   button.obj
 0002:00013490       ?_Empty@?$_Func_class@XPEAVButton@@@std@@IEBA_NXZ 0000000140036490 f i button.obj
 0002:00013510       ?_Free_proxy@?$_String_alloc@U?$_String_base_types@_WV?$allocator@_W@std@@@std@@@std@@QEAAXXZ 0000000140036510 f i button.obj
 0002:000135f0       ?_Get_data@?$_String_alloc@U?$_String_base_types@_WV?$allocator@_W@std@@@std@@@std@@QEAAAEAV?$_String_val@U?$_Simple_types@_W@std@@@2@XZ 00000001400365f0 f i button.obj
 0002:00013650       ?_Get_data@?$_String_alloc@U?$_String_base_types@_WV?$allocator@_W@std@@@std@@@std@@QEBAAEBV?$_String_val@U?$_Simple_types@_W@std@@@2@XZ 0000000140036650 f i button.obj
 0002:000136b0       ?_Get_first@?$_Compressed_pair@V?$allocator@_W@std@@V?$_String_val@U?$_Simple_types@_W@std@@@2@$00@std@@QEAAAEAV?$allocator@_W@2@XZ 00000001400366b0 f i button.obj
 0002:00013700       ?_Get_second@?$_Compressed_pair@V?$allocator@_W@std@@V?$_String_val@U?$_Simple_types@_W@std@@@2@$00@std@@QEAAAEAV?$_String_val@U?$_Simple_types@_W@std@@@2@XZ 0000000140036700 f i button.obj
 0002:00013750       ?_Get_second@?$_Compressed_pair@V?$allocator@_W@std@@V?$_String_val@U?$_Simple_types@_W@std@@@2@$00@std@@QEBAAEBV?$_String_val@U?$_Simple_types@_W@std@@@2@XZ 0000000140036750 f i button.obj
 0002:000137a0       ?_Getal@?$_String_alloc@U?$_String_base_types@_WV?$allocator@_W@std@@@std@@@std@@QEAAAEAV?$allocator@_W@2@XZ 00000001400367a0 f i button.obj
 0002:00013800       ?_Getimpl@?$_Func_class@XPEAVButton@@@std@@AEBAPEAV?$_Func_base@XPEAVButton@@@2@XZ 0000000140036800 f i button.obj
 0002:00013860       ?_Getspace@?$_Func_class@XPEAVButton@@@std@@AEAAPEAXXZ 0000000140036860 f i button.obj
 0002:000138b0       ?_Getspace@?$_Func_class@XPEAVButton@@@std@@AEBAPEBXXZ 00000001400368b0 f i button.obj
 0002:00013900       ?_Large_string_engaged@?$_String_val@U?$_Simple_types@_W@std@@@std@@QEBA_NXZ 0000000140036900 f i button.obj
 0002:00013980       ?_Local@?$_Func_class@XPEAVButton@@@std@@AEBA_NXZ 0000000140036980 f i button.obj
 0002:00013a20       ?_Myproxy@?$_String_alloc@U?$_String_base_types@_WV?$allocator@_W@std@@@std@@@std@@QEAAAEAPEAU_Container_proxy@2@XZ 0000000140036a20 f i button.obj
 0002:00013a70       ?_Myptr@?$_String_val@U?$_Simple_types@_W@std@@@std@@QEBAPEB_WXZ 0000000140036a70 f i button.obj
 0002:00013b00       ?_Orphan_all@?$_String_alloc@U?$_String_base_types@_WV?$allocator@_W@std@@@std@@@std@@QEAAXXZ 0000000140036b00 f i button.obj
 0002:00013b60       ?_Reset_copy@?$_Func_class@XPEAVButton@@@std@@IEAAXAEBV12@@Z 0000000140036b60 f i button.obj
 0002:00013c30       ?_Reset_move@?$_Func_class@XPEAVButton@@@std@@IEAAX$$QEAV12@@Z 0000000140036c30 f i button.obj
 0002:00013d60       ?_Set@?$_Func_class@XPEAVButton@@@std@@AEAAXPEAV?$_Func_base@XPEAVButton@@@2@@Z 0000000140036d60 f i button.obj
 0002:00013dd0       ?_Swap@?$_Func_class@XPEAVButton@@@std@@IEAAXAEAV12@@Z 0000000140036dd0 f i button.obj
 0002:00013f70       ?_Tidy@?$_Func_class@XPEAVButton@@@std@@IEAAXXZ 0000000140036f70 f i button.obj
 0002:00014040       ?_Tidy_deallocate@?$basic_string@_WU?$char_traits@_W@std@@V?$allocator@_W@2@@std@@QEAAXXZ 0000000140037040 f i button.obj
 0002:00014180       ?assign@?$_WChar_traits@_W@std@@SAXAEA_WAEB_W@Z 0000000140037180 f i button.obj
 0002:000141e0       ?c_str@?$basic_string@_WU?$char_traits@_W@std@@V?$allocator@_W@2@@std@@QEBAPEB_WXZ 00000001400371e0 f i button.obj
 0002:00014250       ?calculatePosText@Button@@AEAAXXZ 0000000140037250 f   button.obj
 0002:00014390       ?deallocate@?$allocator@_W@std@@QEAAXQEA_W_K@Z 0000000140037390 f i button.obj
 0002:00014400       ?swap@?$function@$$A6AXPEAVButton@@@Z@std@@QEAAXAEAV12@@Z 0000000140037400 f i button.obj
 0002:00014460       ??$?0$$QEAW4Object_Subtype@@$$Z$$V@?$pair@$$CBW4Object_Subtype@@PEBVGameObject@@@std@@QEAA@Upiecewise_construct_t@1@V?$tuple@$$QEAW4Object_Subtype@@@1@V?$tuple@$$V@1@@Z 0000000140037460 f i config.obj
 0002:00014500       ??$?0AEAV?$_Tree_iterator@V?$_Tree_val@U?$_Tree_simple_types@U?$pair@$$CBW4Object_Subtype@@PEBVGameObject@@@std@@@std@@@std@@@std@@_N$0A@@?$pair@V?$_Tree_iterator@V?$_Tree_val@U?$_Tree_simple_types@U?$pair@$$CBW4Object_Subtype@@PEBVGameObject@@@std@@@std@@@std@@@std@@_N@std@@QEAA@AEAV?$_Tree_iterator@V?$_Tree_val@U?$_Tree_simple_types@U?$pair@$$CBW4Object_Subtype@@PEBVGameObject@@@std@@@std@@@std@@@1@$$QEA_N@Z 0000000140037500 f i config.obj
 0002:000145a0       ??$?0AEBV?$allocator@D@std@@$$V@?$_Compressed_pair@V?$allocator@D@std@@V?$_String_val@U?$_Simple_types@D@std@@@2@$00@std@@QEAA@U_One_then_variadic_args_t@1@AEBV?$allocator@D@1@@Z 00000001400375a0 f i config.obj
 0002:00014620       ??$?0AEBV?$allocator@D@std@@X@?$_String_alloc@U?$_String_base_types@DV?$allocator@D@std@@@std@@@std@@QEAA@AEBV?$allocator@D@1@@Z 0000000140037620 f i config.obj
 0002:000146c0       ??$?0PEADX@?$basic_string@DU?$char_traits@D@std@@V?$allocator@D@2@@std@@QEAA@PEAD0AEBV?$allocator@D@1@@Z 00000001400376c0 f i config.obj
 0002:000147d0       ??$?0U_Exact_args_t@std@@W4Object_Subtype@@$$V$0A@@?$tuple@$$QEAW4Object_Subtype@@@std@@QEAA@U_Exact_args_t@1@$$QEAW4Object_Subtype@@@Z 00000001400377d0 f i config.obj
 0002:00014880       ??$?0V?$_Tree_iterator@V?$_Tree_val@U?$_Tree_simple_types@U?$pair@$$CBW4Object_Subtype@@PEBVGameObject@@@std@@@std@@@std@@@std@@_N$0A@@?$pair@V?$_Tree_iterator@V?$_Tree_val@U?$_Tree_simple_types@U?$pair@$$CBW4Object_Subtype@@PEBVGameObject@@@std@@@std@@@std@@@std@@_N@std@@QEAA@$$QEAV?$_Tree_iterator@V?$_Tree_val@U?$_Tree_simple_types@U?$pair@$$CBW4Object_Subtype@@PEBVGameObject@@@std@@@std@@@std@@@1@$$QEA_N@Z 0000000140037880 f i config.obj
 0002:00014920       ??$?0V?$tuple@$$QEAW4Object_Subtype@@@std@@V?$tuple@$$V@1@$0A@$$Z$S@?$pair@$$CBW4Object_Subtype@@PEBVGameObject@@@std@@QEAA@AEAV?$tuple@$$QEAW4Object_Subtype@@@1@AEAV?$tuple@$$V@1@U?$integer_sequence@_K$0A@@1@U?$integer_sequence@_K$S@1@@Z 0000000140037920 f i config.obj
 0002:000149c0       ??$?0W4Object_Subtype@@$$V$0A@@?$tuple@$$QEAW4Object_Subtype@@@std@@QEAA@$$QEAW4Object_Subtype@@@Z 00000001400379c0 f i config.obj
 0002:00014a60       ??$?0W4Object_Subtype@@@?$_Tuple_val@$$QEAW4Object_Subtype@@@std@@QEAA@$$QEAW4Object_Subtype@@@Z 0000000140037a60 f i config.obj
 0002:00014ad0       ??$?9DD@std@@YA_NAEBV?$allocator@D@0@0@Z 0000000140037ad0 f i config.obj
 0002:00014b20       ??$?HDU?$char_traits@D@std@@V?$allocator@D@1@@std@@YA?AV?$basic_string@DU?$char_traits@D@std@@V?$allocator@D@2@@0@QEBD$$QEAV10@@Z 0000000140037b20 f i config.obj
 0002:00014bd0       ??$_Buy_if_not_node@AEAU?$pair@$$CBW4Object_Subtype@@PEBVGameObject@@@std@@@?$_Tree@V?$_Tmap_traits@W4Object_Subtype@@PEBVGameObject@@U?$less@W4Object_Subtype@@@std@@V?$allocator@U?$pair@$$CBW4Object_Subtype@@PEBVGameObject@@@std@@@4@$0A@@std@@@std@@IEAAPEAU?$_Tree_node@U?$pair@$$CBW4Object_Subtype@@PEBVGameObject@@@std@@PEAX@1@PEAU21@AEAU?$pair@$$CBW4Object_Subtype@@PEBVGameObject@@@1@@Z 0000000140037bd0 f i config.obj
 0002:00014c30       ??$_Buynode@AEBUpiecewise_construct_t@std@@V?$tuple@$$QEAW4Object_Subtype@@@2@V?$tuple@$$V@2@@?$_Tree_comp_alloc@V?$_Tmap_traits@W4Object_Subtype@@PEBVGameObject@@U?$less@W4Object_Subtype@@@std@@V?$allocator@U?$pair@$$CBW4Object_Subtype@@PEBVGameObject@@@std@@@4@$0A@@std@@@std@@QEAAPEAU?$_Tree_node@U?$pair@$$CBW4Object_Subtype@@PEBVGameObject@@@std@@PEAX@1@AEBUpiecewise_construct_t@1@$$QEAV?$tuple@$$QEAW4Object_Subtype@@@1@$$QEAV?$tuple@$$V@1@@Z 0000000140037c30 f i config.obj
 0002:00014d70       ??$_Debug_lt_pred@AEAU?$less@W4Object_Subtype@@@std@@AEAW4Object_Subtype@@AEBW43@@std@@YA_NAEAU?$less@W4Object_Subtype@@@0@AEAW4Object_Subtype@@AEBW42@PEB_WI@Z 0000000140037d70 f i config.obj
 0002:00014eb0       ??$_Debug_lt_pred@AEAU?$less@W4Object_Subtype@@@std@@AEBW4Object_Subtype@@AEBW43@@std@@YA_NAEAU?$less@W4Object_Subtype@@@0@AEBW4Object_Subtype@@1PEB_WI@Z 0000000140037eb0 f i config.obj
 0002:00014ff0       ??$_Debug_lt_pred@AEBU?$less@W4Object_Subtype@@@std@@AEBW4Object_Subtype@@AEBW43@@std@@YA_NAEBU?$less@W4Object_Subtype@@@0@AEBW4Object_Subtype@@1PEB_WI@Z 0000000140037ff0 f i config.obj
 0002:00015130       ??$_Debug_range2@PEAD@std@@YAXPEAD0PEB_WIUrandom_access_iterator_tag@0@@Z 0000000140038130 f i config.obj
 0002:000151f0       ??$_Debug_range@PEAD@std@@YAXPEAD0PEB_WI@Z 00000001400381f0 f i config.obj
 0002:00015280       ??$_Floating_to_string@M@std@@YA?AV?$basic_string@DU?$char_traits@D@std@@V?$allocator@D@2@@0@PEBDM@Z 0000000140038280 f i config.obj
 0002:00015430       ??$_Freenode0@V?$allocator@U?$_Tree_node@U?$pair@$$CBW4Object_Subtype@@PEBVGameObject@@@std@@PEAX@std@@@std@@@?$_Tree_node@U?$pair@$$CBW4Object_Subtype@@PEBVGameObject@@@std@@PEAX@std@@SAXAEAV?$allocator@U?$_Tree_node@U?$pair@$$CBW4Object_Subtype@@PEBVGameObject@@@std@@PEAX@std@@@1@PEAU01@@Z 0000000140038430 f i config.obj
 0002:00015530       ??$_Get_size_of_n@$0DA@@std@@YA_K_K@Z 0000000140038530 f i config.obj
 0002:000155c0       ??$_Insert_at@AEAU?$pair@$$CBW4Object_Subtype@@PEBVGameObject@@@std@@PEAU?$_Tree_node@U?$pair@$$CBW4Object_Subtype@@PEBVGameObject@@@std@@PEAX@2@@?$_Tree@V?$_Tmap_traits@W4Object_Subtype@@PEBVGameObject@@U?$less@W4Object_Subtype@@@std@@V?$allocator@U?$pair@$$CBW4Object_Subtype@@PEBVGameObject@@@std@@@4@$0A@@std@@@std@@IEAA?AV?$_Tree_iterator@V?$_Tree_val@U?$_Tree_simple_types@U?$pair@$$CBW4Object_Subtype@@PEBVGameObject@@@std@@@std@@@std@@@1@_NPEAU?$_Tree_node@U?$pair@$$CBW4Object_Subtype@@PEBVGameObject@@@std@@PEAX@1@AEAU?$pair@$$CBW4Object_Subtype@@PEBVGameObject@@@1@1@Z 00000001400385c0 f i config.obj
 0002:00015a30       ??$_Insert_hint@AEAU?$pair@$$CBW4Object_Subtype@@PEBVGameObject@@@std@@PEAU?$_Tree_node@U?$pair@$$CBW4Object_Subtype@@PEBVGameObject@@@std@@PEAX@2@@?$_Tree@V?$_Tmap_traits@W4Object_Subtype@@PEBVGameObject@@U?$less@W4Object_Subtype@@@std@@V?$allocator@U?$pair@$$CBW4Object_Subtype@@PEBVGameObject@@@std@@@4@$0A@@std@@@std@@IEAA?AV?$_Tree_iterator@V?$_Tree_val@U?$_Tree_simple_types@U?$pair@$$CBW4Object_Subtype@@PEBVGameObject@@@std@@@std@@@std@@@1@V?$_Tree_const_iterator@V?$_Tree_val@U?$_Tree_simple_types@U?$pair@$$CBW4Object_Subtype@@PEBVGameObject@@@std@@@std@@@std@@@1@AEAU?$pair@$$CBW4Object_Subtype@@PEBVGameObject@@@1@PEAU?$_Tree_node@U?$pair@$$CBW4Object_Subtype@@PEBVGameObject@@@std@@PEAX@1@@Z 0000000140038a30 f i config.obj
 0002:00016b60       ?AddWidget@WidgetTemplates@@UEAAXPEAVObject@@@Z 0000000140039b60 f   widget-templates.obj
 0002:00016d60       ??0WidgetGame@@QEAA@PEAVEngine@@AEBV?$Vector2@M@sf@@1@Z 0000000140039d60 f   widget-game.obj
 0002:00016fa0       ??$_Insert_nohint@AEAU?$pair@$$CBW4Object_Subtype@@PEBVGameObject@@@std@@PEAU?$_Tree_node@U?$pair@$$CBW4Object_Subtype@@PEBVGameObject@@@std@@PEAX@2@@?$_Tree@V?$_Tmap_traits@W4Object_Subtype@@PEBVGameObject@@U?$less@W4Object_Subtype@@@std@@V?$allocator@U?$pair@$$CBW4Object_Subtype@@PEBVGameObject@@@std@@@4@$0A@@std@@@std@@IEAA?AU?$pair@V?$_Tree_iterator@V?$_Tree_val@U?$_Tree_simple_types@U?$pair@$$CBW4Object_Subtype@@PEBVGameObject@@@std@@@std@@@std@@@std@@_N@1@_NAEAU?$pair@$$CBW4Object_Subtype@@PEBVGameObject@@@1@PEAU?$_Tree_node@U?$pair@$$CBW4Object_Subtype@@PEBVGameObject@@@std@@PEAX@1@@Z 0000000140039fa0 f i config.obj
 0002:00017640       ??$_Integral_to_string@D_K@std@@YA?AV?$basic_string@DU?$char_traits@D@std@@V?$allocator@D@2@@0@_K@Z 000000014003a640 f i config.obj
 0002:000177a0       ??$_Kfn@$$CBW4Object_Subtype@@PEBVGameObject@@@?$_Tmap_traits@W4Object_Subtype@@PEBVGameObject@@U?$less@W4Object_Subtype@@@std@@V?$allocator@U?$pair@$$CBW4Object_Subtype@@PEBVGameObject@@@std@@@4@$0A@@std@@SAAEBW4Object_Subtype@@AEBU?$pair@$$CBW4Object_Subtype@@PEBVGameObject@@@1@@Z 000000014003a7a0 f i config.obj
 0002:000177f0       ??$_Lbound@W4Object_Subtype@@@?$_Tree@V?$_Tmap_traits@W4Object_Subtype@@PEBVGameObject@@U?$less@W4Object_Subtype@@@std@@V?$allocator@U?$pair@$$CBW4Object_Subtype@@PEBVGameObject@@@std@@@4@$0A@@std@@@std@@IEBAPEAU?$_Tree_node@U?$pair@$$CBW4Object_Subtype@@PEBVGameObject@@@std@@PEAX@1@AEBW4Object_Subtype@@@Z 000000014003a7f0 f i config.obj
 0002:000178e0       ??$_Pocma@V?$allocator@D@std@@@std@@YAXAEAV?$allocator@D@0@0@Z 000000014003a8e0 f i config.obj
 0002:00017960       ??$_Pocma@V?$allocator@D@std@@@std@@YAXAEAV?$allocator@D@0@0U?$integral_constant@_N$00@0@@Z 000000014003a960 f i config.obj
 0002:00018840       ??$_Try_emplace@W4Object_Subtype@@$$V@?$map@W4Object_Subtype@@PEBVGameObject@@U?$less@W4Object_Subtype@@@std@@V?$allocator@U?$pair@$$CBW4Object_Subtype@@PEBVGameObject@@@std@@@4@@std@@QEAA?AU?$pair@V?$_Tree_iterator@V?$_Tree_val@U?$_Tree_simple_types@U?$pair@$$CBW4Object_Subtype@@PEBVGameObject@@@std@@@std@@@std@@@std@@_N@1@$$QEAW4Object_Subtype@@@Z 000000014003b840 f i config.obj
 0002:00018b90       ??$_UIntegral_to_buff@D_K@std@@YAPEADPEAD_K@Z 000000014003bb90 f i config.obj
 0002:00018c50       ??$_Unchecked@PEAD@std@@YAPEADPEAD@Z 000000014003bc50 f i config.obj
 0002:00018ca0       ??$addressof@$$CBU?$pair@$$CBW4Object_Subtype@@PEBVGameObject@@@std@@@std@@YAPEBU?$pair@$$CBW4Object_Subtype@@PEBVGameObject@@@0@AEBU10@@Z 000000014003bca0 f i config.obj
 0002:00018cf0       ??$addressof@$$CBV?$_Tree_val@U?$_Tree_simple_types@U?$pair@$$CBW4Object_Subtype@@PEBVGameObject@@@std@@@std@@@std@@@std@@YAPEBV?$_Tree_val@U?$_Tree_simple_types@U?$pair@$$CBW4Object_Subtype@@PEBVGameObject@@@std@@@std@@@0@AEBV10@@Z 000000014003bcf0 f i config.obj
 0002:00018d40       ??$addressof@PEAU?$_Tree_node@U?$pair@$$CBW4Object_Subtype@@PEBVGameObject@@@std@@PEAX@std@@@std@@YAPEAPEAU?$_Tree_node@U?$pair@$$CBW4Object_Subtype@@PEBVGameObject@@@std@@PEAX@0@AEAPEAU10@@Z 000000014003bd40 f i config.obj
 0002:00018d90       ??$addressof@U?$pair@$$CBW4Object_Subtype@@PEBVGameObject@@@std@@@std@@YAPEAU?$pair@$$CBW4Object_Subtype@@PEBVGameObject@@@0@AEAU10@@Z 000000014003bd90 f i config.obj
 0002:00018de0       ??$addressof@V?$_Tree_val@U?$_Tree_simple_types@U?$pair@$$CBW4Object_Subtype@@PEBVGameObject@@@std@@@std@@@std@@@std@@YAPEAV?$_Tree_val@U?$_Tree_simple_types@U?$pair@$$CBW4Object_Subtype@@PEBVGameObject@@@std@@@std@@@0@AEAV10@@Z 000000014003bde0 f i config.obj
 0002:00018e30       ??$addressof@V?$basic_string@DU?$char_traits@D@std@@V?$allocator@D@2@@std@@@std@@YAPEAV?$basic_string@DU?$char_traits@D@std@@V?$allocator@D@2@@0@AEAV10@@Z 000000014003be30 f i config.obj
 0002:00018e80       ??$construct@PEAU?$_Tree_node@U?$pair@$$CBW4Object_Subtype@@PEBVGameObject@@@std@@PEAX@std@@AEAPEAU12@@?$_Default_allocator_traits@V?$allocator@U?$_Tree_node@U?$pair@$$CBW4Object_Subtype@@PEBVGameObject@@@std@@PEAX@std@@@std@@@std@@SAXAEAV?$allocator@U?$_Tree_node@U?$pair@$$CBW4Object_Subtype@@PEBVGameObject@@@std@@PEAX@std@@@1@QEAPEAU?$_Tree_node@U?$pair@$$CBW4Object_Subtype@@PEBVGameObject@@@std@@PEAX@1@AEAPEAU31@@Z 000000014003be80 f i config.obj
 0002:00018f10       ??$construct@U?$pair@$$CBW4Object_Subtype@@PEBVGameObject@@@std@@AEBUpiecewise_construct_t@2@V?$tuple@$$QEAW4Object_Subtype@@@2@V?$tuple@$$V@2@@?$_Default_allocator_traits@V?$allocator@U?$_Tree_node@U?$pair@$$CBW4Object_Subtype@@PEBVGameObject@@@std@@PEAX@std@@@std@@@std@@SAXAEAV?$allocator@U?$_Tree_node@U?$pair@$$CBW4Object_Subtype@@PEBVGameObject@@@std@@PEAX@std@@@1@QEAU?$pair@$$CBW4Object_Subtype@@PEBVGameObject@@@1@AEBUpiecewise_construct_t@1@$$QEAV?$tuple@$$QEAW4Object_Subtype@@@1@$$QEAV?$tuple@$$V@1@@Z 000000014003bf10 f i config.obj
 0002:00019040       ??$destroy@PEAU?$_Tree_node@U?$pair@$$CBW4Object_Subtype@@PEBVGameObject@@@std@@PEAX@std@@@?$_Default_allocator_traits@V?$allocator@U?$_Tree_node@U?$pair@$$CBW4Object_Subtype@@PEBVGameObject@@@std@@PEAX@std@@@std@@@std@@SAXAEAV?$allocator@U?$_Tree_node@U?$pair@$$CBW4Object_Subtype@@PEBVGameObject@@@std@@PEAX@std@@@1@QEAPEAU?$_Tree_node@U?$pair@$$CBW4Object_Subtype@@PEBVGameObject@@@std@@PEAX@1@@Z 000000014003c040 f i config.obj
 0002:00019090       ??$destroy@U?$pair@$$CBW4Object_Subtype@@PEBVGameObject@@@std@@@?$_Default_allocator_traits@V?$allocator@U?$_Tree_node@U?$pair@$$CBW4Object_Subtype@@PEBVGameObject@@@std@@PEAX@std@@@std@@@std@@SAXAEAV?$allocator@U?$_Tree_node@U?$pair@$$CBW4Object_Subtype@@PEBVGameObject@@@std@@PEAX@std@@@1@QEAU?$pair@$$CBW4Object_Subtype@@PEBVGameObject@@@1@@Z 000000014003c090 f i config.obj
 0002:000190e0       ??$emplace_hint@AEBUpiecewise_construct_t@std@@V?$tuple@$$QEAW4Object_Subtype@@@2@V?$tuple@$$V@2@@?$_Tree@V?$_Tmap_traits@W4Object_Subtype@@PEBVGameObject@@U?$less@W4Object_Subtype@@@std@@V?$allocator@U?$pair@$$CBW4Object_Subtype@@PEBVGameObject@@@std@@@4@$0A@@std@@@std@@QEAA?AV?$_Tree_iterator@V?$_Tree_val@U?$_Tree_simple_types@U?$pair@$$CBW4Object_Subtype@@PEBVGameObject@@@std@@@std@@@std@@@1@V?$_Tree_const_iterator@V?$_Tree_val@U?$_Tree_simple_types@U?$pair@$$CBW4Object_Subtype@@PEBVGameObject@@@std@@@std@@@std@@@1@AEBUpiecewise_construct_t@1@$$QEAV?$tuple@$$QEAW4Object_Subtype@@@1@$$QEAV?$tuple@$$V@1@@Z 000000014003c0e0 f i config.obj
 0002:00019270       ??$end@D$0BF@@std@@YAPEADAEAY0BF@D@Z 000000014003c270 f i config.obj
 0002:000192c0       ??$forward@$$QEAW4Object_Subtype@@@std@@YA$$QEAW4Object_Subtype@@AEAW41@@Z 000000014003c2c0 f i config.obj
 0002:00019310       ??$forward@AEAPEAU?$_Tree_node@U?$pair@$$CBW4Object_Subtype@@PEBVGameObject@@@std@@PEAX@std@@@std@@YAAEAPEAU?$_Tree_node@U?$pair@$$CBW4Object_Subtype@@PEBVGameObject@@@std@@PEAX@0@AEAPEAU10@@Z 000000014003c310 f i config.obj
 0002:00019360       ??$forward@AEAU?$pair@$$CBW4Object_Subtype@@PEBVGameObject@@@std@@@std@@YAAEAU?$pair@$$CBW4Object_Subtype@@PEBVGameObject@@@0@AEAU10@@Z 000000014003c360 f i config.obj
 0002:000193b0       ??$forward@AEAV?$_Tree_iterator@V?$_Tree_val@U?$_Tree_simple_types@U?$pair@$$CBW4Object_Subtype@@PEBVGameObject@@@std@@@std@@@std@@@std@@@std@@YAAEAV?$_Tree_iterator@V?$_Tree_val@U?$_Tree_simple_types@U?$pair@$$CBW4Object_Subtype@@PEBVGameObject@@@std@@@std@@@std@@@0@AEAV10@@Z 000000014003c3b0 f i config.obj
 0002:00019400       ??$forward@AEBV?$allocator@D@std@@@std@@YAAEBV?$allocator@D@0@AEBV10@@Z 000000014003c400 f i config.obj
 0002:00019450       ??$forward@V?$_Tree_iterator@V?$_Tree_val@U?$_Tree_simple_types@U?$pair@$$CBW4Object_Subtype@@PEBVGameObject@@@std@@@std@@@std@@@std@@@std@@YA$$QEAV?$_Tree_iterator@V?$_Tree_val@U?$_Tree_simple_types@U?$pair@$$CBW4Object_Subtype@@PEBVGameObject@@@std@@@std@@@std@@@0@AEAV10@@Z 000000014003c450 f i config.obj
 0002:000194a0       ??$forward@V?$tuple@$$QEAW4Object_Subtype@@@std@@@std@@YA$$QEAV?$tuple@$$QEAW4Object_Subtype@@@0@AEAV10@@Z 000000014003c4a0 f i config.obj
 0002:000194f0       ??$forward@W4Object_Subtype@@@std@@YA$$QEAW4Object_Subtype@@AEAW41@@Z 000000014003c4f0 f i config.obj
 0002:00019540       ??$forward_as_tuple@W4Object_Subtype@@@std@@YA?AV?$tuple@$$QEAW4Object_Subtype@@@0@$$QEAW4Object_Subtype@@@Z 000000014003c540 f i config.obj
 0002:000195d0       ??$get@$0A@$$QEAW4Object_Subtype@@@std@@YA$$QEAW4Object_Subtype@@$$QEAV?$tuple@$$QEAW4Object_Subtype@@@0@@Z 000000014003c5d0 f i config.obj
 0002:00019630       ??$move@AEAV?$tuple@$$QEAW4Object_Subtype@@@std@@@std@@YA$$QEAV?$tuple@$$QEAW4Object_Subtype@@@0@AEAV10@@Z 000000014003c630 f i config.obj
 0002:00019680       ??$move@AEAW4Object_Subtype@@@std@@YA$$QEAW4Object_Subtype@@AEAW41@@Z 000000014003c680 f i config.obj
 0002:000196d0       ??$try_emplace@$$V@?$map@W4Object_Subtype@@PEBVGameObject@@U?$less@W4Object_Subtype@@@std@@V?$allocator@U?$pair@$$CBW4Object_Subtype@@PEBVGameObject@@@std@@@4@@std@@QEAA?AU?$pair@V?$_Tree_iterator@V?$_Tree_val@U?$_Tree_simple_types@U?$pair@$$CBW4Object_Subtype@@PEBVGameObject@@@std@@@std@@@std@@@std@@_N@1@$$QEAW4Object_Subtype@@@Z 000000014003c6d0 f i config.obj
 0002:00019770       ??0?$Vector2@M@sf@@QEAA@XZ 000000014003c770 f i config.obj
 0002:000197e0       ??0?$_Tree_const_iterator@V?$_Tree_val@U?$_Tree_simple_types@U?$pair@$$CBW4Object_Subtype@@PEBVGameObject@@@std@@@std@@@std@@@std@@QEAA@$$QEAV01@@Z 000000014003c7e0 f i config.obj
 0002:00019850       ??0?$_Tree_const_iterator@V?$_Tree_val@U?$_Tree_simple_types@U?$pair@$$CBW4Object_Subtype@@PEBVGameObject@@@std@@@std@@@std@@@std@@QEAA@AEBV01@@Z 000000014003c850 f i config.obj
 0002:000198c0       ??0?$_Tree_const_iterator@V?$_Tree_val@U?$_Tree_simple_types@U?$pair@$$CBW4Object_Subtype@@PEBVGameObject@@@std@@@std@@@std@@@std@@QEAA@PEAU?$_Tree_node@U?$pair@$$CBW4Object_Subtype@@PEBVGameObject@@@std@@PEAX@1@PEBV?$_Tree_val@U?$_Tree_simple_types@U?$pair@$$CBW4Object_Subtype@@PEBVGameObject@@@std@@@std@@@1@@Z 000000014003c8c0 f i config.obj
 0002:00019940       ??0?$_Tree_const_iterator@V?$_Tree_val@U?$_Tree_simple_types@U?$pair@$$CBW4Object_Subtype@@PEBVGameObject@@@std@@@std@@@std@@@std@@QEAA@XZ 000000014003c940 f i config.obj
 0002:000199a0       ??0?$_Tree_iterator@V?$_Tree_val@U?$_Tree_simple_types@U?$pair@$$CBW4Object_Subtype@@PEBVGameObject@@@std@@@std@@@std@@@std@@QEAA@$$QEAV01@@Z 000000014003c9a0 f i config.obj
 0002:00019a10       ??0?$_Tree_iterator@V?$_Tree_val@U?$_Tree_simple_types@U?$pair@$$CBW4Object_Subtype@@PEBVGameObject@@@std@@@std@@@std@@@std@@QEAA@AEBV01@@Z 000000014003ca10 f i config.obj
 0002:00019a80       ??0?$_Tree_iterator@V?$_Tree_val@U?$_Tree_simple_types@U?$pair@$$CBW4Object_Subtype@@PEBVGameObject@@@std@@@std@@@std@@@std@@QEAA@PEAU?$_Tree_node@U?$pair@$$CBW4Object_Subtype@@PEBVGameObject@@@std@@PEAX@1@PEBV?$_Tree_val@U?$_Tree_simple_types@U?$pair@$$CBW4Object_Subtype@@PEBVGameObject@@@std@@@std@@@1@@Z 000000014003ca80 f i config.obj
 0002:00019b00       ??0?$_Tree_unchecked_const_iterator@V?$_Tree_val@U?$_Tree_simple_types@U?$pair@$$CBW4Object_Subtype@@PEBVGameObject@@@std@@@std@@@std@@U_Iterator_base12@2@@std@@QEAA@$$QEAV01@@Z 000000014003cb00 f i config.obj
 0002:00019b90       ??0?$_Tree_unchecked_const_iterator@V?$_Tree_val@U?$_Tree_simple_types@U?$pair@$$CBW4Object_Subtype@@PEBVGameObject@@@std@@@std@@@std@@U_Iterator_base12@2@@std@@QEAA@AEBV01@@Z 000000014003cb90 f i config.obj
 0002:00019c20       ??0?$_Tree_unchecked_const_iterator@V?$_Tree_val@U?$_Tree_simple_types@U?$pair@$$CBW4Object_Subtype@@PEBVGameObject@@@std@@@std@@@std@@U_Iterator_base12@2@@std@@QEAA@PEAU?$_Tree_node@U?$pair@$$CBW4Object_Subtype@@PEBVGameObject@@@std@@PEAX@1@PEBV?$_Tree_val@U?$_Tree_simple_types@U?$pair@$$CBW4Object_Subtype@@PEBVGameObject@@@std@@@std@@@1@@Z 000000014003cc20 f i config.obj
 0002:00019cc0       ??0?$_Tree_unchecked_const_iterator@V?$_Tree_val@U?$_Tree_simple_types@U?$pair@$$CBW4Object_Subtype@@PEBVGameObject@@@std@@@std@@@std@@U_Iterator_base12@2@@std@@QEAA@XZ 000000014003ccc0 f i config.obj
 0002:00019d30       ??0?$basic_string@DU?$char_traits@D@std@@V?$allocator@D@2@@std@@QEAA@AEBV01@_K1AEBV?$allocator@D@1@@Z 000000014003cd30 f i config.obj
 0002:00019df0       ??0?$basic_string@DU?$char_traits@D@std@@V?$allocator@D@2@@std@@QEAA@_KD@Z 000000014003cdf0 f i config.obj
 0002:00019ea0       ??0?$tuple@$$QEAW4Object_Subtype@@@std@@QEAA@$$QEAV01@@Z 000000014003cea0 f i config.obj
 0002:00019f20       ??0File@@QEAA@XZ           000000014003cf20 f   config.obj
 0002:00019f80       ??1?$_Tree_const_iterator@V?$_Tree_val@U?$_Tree_simple_types@U?$pair@$$CBW4Object_Subtype@@PEBVGameObject@@@std@@@std@@@std@@@std@@QEAA@XZ 000000014003cf80 f i config.obj
 0002:00019fd0       ??1?$_Tree_iterator@V?$_Tree_val@U?$_Tree_simple_types@U?$pair@$$CBW4Object_Subtype@@PEBVGameObject@@@std@@@std@@@std@@@std@@QEAA@XZ 000000014003cfd0 f i config.obj
 0002:0001a020       ??1?$_Tree_unchecked_const_iterator@V?$_Tree_val@U?$_Tree_simple_types@U?$pair@$$CBW4Object_Subtype@@PEBVGameObject@@@std@@@std@@@std@@U_Iterator_base12@2@@std@@QEAA@XZ 000000014003d020 f i config.obj
 0002:0001a070       ??1?$pair@V?$_Tree_iterator@V?$_Tree_val@U?$_Tree_simple_types@U?$pair@$$CBW4Object_Subtype@@PEBVGameObject@@@std@@@std@@@std@@@std@@_N@std@@QEAA@XZ 000000014003d070 f i config.obj
 0002:0001a0d0       ??1File@@QEAA@XZ           000000014003d0d0 f   config.obj
 0002:0001a110       ??4?$_Tree_const_iterator@V?$_Tree_val@U?$_Tree_simple_types@U?$pair@$$CBW4Object_Subtype@@PEBVGameObject@@@std@@@std@@@std@@@std@@QEAAAEAV01@AEBV01@@Z 000000014003d110 f i config.obj
 0002:0001a180       ??4?$_Tree_unchecked_const_iterator@V?$_Tree_val@U?$_Tree_simple_types@U?$pair@$$CBW4Object_Subtype@@PEBVGameObject@@@std@@@std@@@std@@U_Iterator_base12@2@@std@@QEAAAEAV01@AEBV01@@Z 000000014003d180 f i config.obj
 0002:0001a210       ??4?$basic_string@DU?$char_traits@D@std@@V?$allocator@D@2@@std@@QEAAAEAV01@$$QEAV01@@Z 000000014003d210 f i config.obj
 0002:0001a310       ??8?$_Tree_const_iterator@V?$_Tree_val@U?$_Tree_simple_types@U?$pair@$$CBW4Object_Subtype@@PEBVGameObject@@@std@@@std@@@std@@@std@@QEBA_NAEBV01@@Z 000000014003d310 f i config.obj
 0002:0001a430       ??A?$basic_string@DU?$char_traits@D@std@@V?$allocator@D@2@@std@@QEAAAEAD_K@Z 000000014003d430 f i config.obj
 0002:0001a510       ??A?$map@W4Object_Subtype@@PEBVGameObject@@U?$less@W4Object_Subtype@@@std@@V?$allocator@U?$pair@$$CBW4Object_Subtype@@PEBVGameObject@@@std@@@4@@std@@QEAAAEAPEBVGameObject@@$$QEAW4Object_Subtype@@@Z 000000014003d510 f i config.obj
 0002:0001a5f0       ??C?$_Tree_const_iterator@V?$_Tree_val@U?$_Tree_simple_types@U?$pair@$$CBW4Object_Subtype@@PEBVGameObject@@@std@@@std@@@std@@@std@@QEBAPEBU?$pair@$$CBW4Object_Subtype@@PEBVGameObject@@@1@XZ 000000014003d5f0 f i config.obj
 0002:0001a650       ??C?$_Tree_iterator@V?$_Tree_val@U?$_Tree_simple_types@U?$pair@$$CBW4Object_Subtype@@PEBVGameObject@@@std@@@std@@@std@@@std@@QEBAPEAU?$pair@$$CBW4Object_Subtype@@PEBVGameObject@@@1@XZ 000000014003d650 f i config.obj
 0002:0001a6b0       ??D?$_Tree_const_iterator@V?$_Tree_val@U?$_Tree_simple_types@U?$pair@$$CBW4Object_Subtype@@PEBVGameObject@@@std@@@std@@@std@@@std@@QEBAAEBU?$pair@$$CBW4Object_Subtype@@PEBVGameObject@@@1@XZ 000000014003d6b0 f i config.obj
 0002:0001a7a0       ??D?$_Tree_iterator@V?$_Tree_val@U?$_Tree_simple_types@U?$pair@$$CBW4Object_Subtype@@PEBVGameObject@@@std@@@std@@@std@@@std@@QEBAAEAU?$pair@$$CBW4Object_Subtype@@PEBVGameObject@@@1@XZ 000000014003d7a0 f i config.obj
 0002:0001a7f0       ??E?$_Tree_const_iterator@V?$_Tree_val@U?$_Tree_simple_types@U?$pair@$$CBW4Object_Subtype@@PEBVGameObject@@@std@@@std@@@std@@@std@@QEAAAEAV01@XZ 000000014003d7f0 f i config.obj
 0002:0001a8e0       ??E?$_Tree_unchecked_const_iterator@V?$_Tree_val@U?$_Tree_simple_types@U?$pair@$$CBW4Object_Subtype@@PEBVGameObject@@@std@@@std@@@std@@U_Iterator_base12@2@@std@@QEAAAEAV01@XZ 000000014003d8e0 f i config.obj
 0002:0001aa00       ??F?$_Tree_const_iterator@V?$_Tree_val@U?$_Tree_simple_types@U?$pair@$$CBW4Object_Subtype@@PEBVGameObject@@@std@@@std@@@std@@@std@@QEAAAEAV01@XZ 000000014003da00 f i config.obj
 0002:0001ab50       ??F?$_Tree_iterator@V?$_Tree_val@U?$_Tree_simple_types@U?$pair@$$CBW4Object_Subtype@@PEBVGameObject@@@std@@@std@@@std@@@std@@QEAAAEAV01@XZ 000000014003db50 f i config.obj
 0002:0001abb0       ??F?$_Tree_unchecked_const_iterator@V?$_Tree_val@U?$_Tree_simple_types@U?$pair@$$CBW4Object_Subtype@@PEBVGameObject@@@std@@@std@@@std@@U_Iterator_base12@2@@std@@QEAAAEAV01@XZ 000000014003dbb0 f i config.obj
 0002:0001b250       ??R?$less@W4Object_Subtype@@@std@@QEBA_NAEBW4Object_Subtype@@0@Z 000000014003e250 f i config.obj
 0002:0001b2e0       ??Y?$basic_string@DU?$char_traits@D@std@@V?$allocator@D@2@@std@@QEAAAEAV01@AEBV01@@Z 000000014003e2e0 f i config.obj
 0002:0001b340       ??Y?$basic_string@DU?$char_traits@D@std@@V?$allocator@D@2@@std@@QEAAAEAV01@D@Z 000000014003e340 f i config.obj
 0002:0001b3b0       ?Close@File@@QEAAXXZ       000000014003e3b0 f   config.obj
 0002:0001b420       ?Create_Object@ConfigManager@@QEBAPEAVGameObject@@W4Object_Subtype@@@Z 000000014003e420 f   config.obj
 0002:0001b5b0       ?Get_Word_Pos_End@Config_Parser@@YAPEBDPEBD@Z 000000014003e5b0 f   config.obj
 0002:0001b690       ?IsFileEof@File@@QEBA_NXZ  000000014003e690 f   config.obj
 0002:0001b710       ?IsFileOpened@File@@QEBA_NXZ 000000014003e710 f   config.obj
 0002:0001b780       ?Is_Comment_Line@Config_Parser@@YA_NPEBD@Z 000000014003e780 f   config.obj
 0002:0001b810       ?LoadGameObjects@ConfigManager@@QEAA_NPEBD@Z 000000014003e810 f   config.obj
 0002:0001ba10       ?LoadLevel@ConfigManager@@QEAAXPEBDPEAV?$Container@VObject@@@@@Z 000000014003ea10 f   config.obj
 0002:0001bb70       ?Open@File@@QEAA_NPEBD0@Z  000000014003eb70 f   config.obj
 0002:0001bc10       ?Read@Config_Parser@@YAPEBDPEBDAEAH@Z 000000014003ec10 f   config.obj
 0002:0001bda0       ?Read@Config_Parser@@YAPEBDPEBDAEAM@Z 000000014003eda0 f   config.obj
 0002:0001bf30       ?Read@Config_Parser@@YAPEBDPEBDAEAV?$basic_string@DU?$char_traits@D@std@@V?$allocator@D@2@@std@@@Z 000000014003ef30 f   config.obj
 0002:0001c0a0       ?Read@Config_Parser@@YAPEBDPEBDAEA_K@Z 000000014003f0a0 f   config.obj
 0002:0001c230       ?ReadLine@File@@QEAA_NAEAV?$basic_string@DU?$char_traits@D@std@@V?$allocator@D@2@@std@@@Z 000000014003f230 f   config.obj
 0002:0001c340       ?SaveLevel@ConfigManager@@QEAAXPEBDPEAV?$Container@VObject@@@@@Z 000000014003f340 f   config.obj
 0002:0001c500       ?WriteBuf@File@@QEAA_NPEBD@Z 000000014003f500 f   config.obj
 0002:0001c5e0       ?_Assign_rv_contents@?$basic_string@DU?$char_traits@D@std@@V?$allocator@D@2@@std@@QEAAX$$QEAV12@U?$integral_constant@_N$00@2@@Z 000000014003f5e0 f i config.obj
 0002:0001c680       ?_Buynode0@?$_Tree_comp_alloc@V?$_Tmap_traits@W4Object_Subtype@@PEBVGameObject@@U?$less@W4Object_Subtype@@@std@@V?$allocator@U?$pair@$$CBW4Object_Subtype@@PEBVGameObject@@@std@@@4@$0A@@std@@@std@@QEAAPEAU?$_Tree_node@U?$pair@$$CBW4Object_Subtype@@PEBVGameObject@@@std@@PEAX@2@XZ 000000014003f680 f i config.obj
 0002:0001c7d0       ?_Check_offset@?$_String_val@U?$_Simple_types@D@std@@@std@@QEBAX_K@Z 000000014003f7d0 f i config.obj
 0002:0001c840       ?_Clamp_suffix_size@?$_String_val@U?$_Simple_types@D@std@@@std@@QEBA_K_K0@Z 000000014003f840 f i config.obj
 0002:0001c8d0       ?_Compare@?$_Tree@V?$_Tmap_traits@W4Object_Subtype@@PEBVGameObject@@U?$less@W4Object_Subtype@@@std@@V?$allocator@U?$pair@$$CBW4Object_Subtype@@PEBVGameObject@@@std@@@4@$0A@@std@@@std@@IEBA_NAEBW4Object_Subtype@@0@Z 000000014003f8d0 f i config.obj
 0002:0001c960       ?_Construct@?$basic_string@DU?$char_traits@D@std@@V?$allocator@D@2@@std@@QEAAXQEAD0Urandom_access_iterator_tag@2@@Z 000000014003f960 f i config.obj
 0002:0001ca10       ?_Destroy_if_node@?$_Tree@V?$_Tmap_traits@W4Object_Subtype@@PEBVGameObject@@U?$less@W4Object_Subtype@@@std@@V?$allocator@U?$pair@$$CBW4Object_Subtype@@PEBVGameObject@@@std@@@4@$0A@@std@@@std@@IEAAXPEAU?$_Tree_node@U?$pair@$$CBW4Object_Subtype@@PEBVGameObject@@@std@@PEAX@2@@Z 000000014003fa10 f i config.obj
 0002:0001cab0       ?_Eos@?$basic_string@DU?$char_traits@D@std@@V?$allocator@D@2@@std@@QEAAX_K@Z 000000014003fab0 f i config.obj
 0002:0001cb50       ?_Freenode0@?$_Tree_comp_alloc@V?$_Tmap_traits@W4Object_Subtype@@PEBVGameObject@@U?$less@W4Object_Subtype@@@std@@V?$allocator@U?$pair@$$CBW4Object_Subtype@@PEBVGameObject@@@std@@@4@$0A@@std@@@std@@QEAAXPEAU?$_Tree_node@U?$pair@$$CBW4Object_Subtype@@PEBVGameObject@@@std@@PEAX@2@@Z 000000014003fb50 f i config.obj
 0002:0001cbc0       ?_Get_data@?$_Tree_comp_alloc@V?$_Tmap_traits@W4Object_Subtype@@PEBVGameObject@@U?$less@W4Object_Subtype@@@std@@V?$allocator@U?$pair@$$CBW4Object_Subtype@@PEBVGameObject@@@std@@@4@$0A@@std@@@std@@QEAAAEAV?$_Tree_val@U?$_Tree_simple_types@U?$pair@$$CBW4Object_Subtype@@PEBVGameObject@@@std@@@std@@@2@XZ 000000014003fbc0 f i config.obj
 0002:0001cc20       ?_Get_data@?$_Tree_comp_alloc@V?$_Tmap_traits@W4Object_Subtype@@PEBVGameObject@@U?$less@W4Object_Subtype@@@std@@V?$allocator@U?$pair@$$CBW4Object_Subtype@@PEBVGameObject@@@std@@@4@$0A@@std@@@std@@QEBAAEBV?$_Tree_val@U?$_Tree_simple_types@U?$pair@$$CBW4Object_Subtype@@PEBVGameObject@@@std@@@std@@@2@XZ 000000014003fc20 f i config.obj
 0002:0001cc80       ?_Get_first@?$_Compressed_pair@U?$less@W4Object_Subtype@@@std@@V?$_Compressed_pair@V?$allocator@U?$_Tree_node@U?$pair@$$CBW4Object_Subtype@@PEBVGameObject@@@std@@PEAX@std@@@std@@V?$_Tree_val@U?$_Tree_simple_types@U?$pair@$$CBW4Object_Subtype@@PEBVGameObject@@@std@@@std@@@2@$00@2@$00@std@@QEAAAEAU?$less@W4Object_Subtype@@@2@XZ 000000014003fc80 f i config.obj
 0002:0001ccd0       ?_Get_first@?$_Compressed_pair@U?$less@W4Object_Subtype@@@std@@V?$_Compressed_pair@V?$allocator@U?$_Tree_node@U?$pair@$$CBW4Object_Subtype@@PEBVGameObject@@@std@@PEAX@std@@@std@@V?$_Tree_val@U?$_Tree_simple_types@U?$pair@$$CBW4Object_Subtype@@PEBVGameObject@@@std@@@std@@@2@$00@2@$00@std@@QEBAAEBU?$less@W4Object_Subtype@@@2@XZ 000000014003fcd0 f i config.obj
 0002:0001cd20       ?_Get_first@?$_Compressed_pair@V?$allocator@U?$_Tree_node@U?$pair@$$CBW4Object_Subtype@@PEBVGameObject@@@std@@PEAX@std@@@std@@V?$_Tree_val@U?$_Tree_simple_types@U?$pair@$$CBW4Object_Subtype@@PEBVGameObject@@@std@@@std@@@2@$00@std@@QEAAAEAV?$allocator@U?$_Tree_node@U?$pair@$$CBW4Object_Subtype@@PEBVGameObject@@@std@@PEAX@std@@@2@XZ 000000014003fd20 f i config.obj
 0002:0001cd70       ?_Get_first@?$_Compressed_pair@V?$allocator@U?$_Tree_node@U?$pair@$$CBW4Object_Subtype@@PEBVGameObject@@@std@@PEAX@std@@@std@@V?$_Tree_val@U?$_Tree_simple_types@U?$pair@$$CBW4Object_Subtype@@PEBVGameObject@@@std@@@std@@@2@$00@std@@QEBAAEBV?$allocator@U?$_Tree_node@U?$pair@$$CBW4Object_Subtype@@PEBVGameObject@@@std@@PEAX@std@@@2@XZ 000000014003fd70 f i config.obj
 0002:0001cdc0       ?_Get_second@?$_Compressed_pair@U?$less@W4Object_Subtype@@@std@@V?$_Compressed_pair@V?$allocator@U?$_Tree_node@U?$pair@$$CBW4Object_Subtype@@PEBVGameObject@@@std@@PEAX@std@@@std@@V?$_Tree_val@U?$_Tree_simple_types@U?$pair@$$CBW4Object_Subtype@@PEBVGameObject@@@std@@@std@@@2@$00@2@$00@std@@QEAAAEAV?$_Compressed_pair@V?$allocator@U?$_Tree_node@U?$pair@$$CBW4Object_Subtype@@PEBVGameObject@@@std@@PEAX@std@@@std@@V?$_Tree_val@U?$_Tree_simple_types@U?$pair@$$CBW4Object_Subtype@@PEBVGameObject@@@std@@@std@@@2@$00@2@XZ 000000014003fdc0 f i config.obj
 0002:0001ce10       ?_Get_second@?$_Compressed_pair@U?$less@W4Object_Subtype@@@std@@V?$_Compressed_pair@V?$allocator@U?$_Tree_node@U?$pair@$$CBW4Object_Subtype@@PEBVGameObject@@@std@@PEAX@std@@@std@@V?$_Tree_val@U?$_Tree_simple_types@U?$pair@$$CBW4Object_Subtype@@PEBVGameObject@@@std@@@std@@@2@$00@2@$00@std@@QEBAAEBV?$_Compressed_pair@V?$allocator@U?$_Tree_node@U?$pair@$$CBW4Object_Subtype@@PEBVGameObject@@@std@@PEAX@std@@@std@@V?$_Tree_val@U?$_Tree_simple_types@U?$pair@$$CBW4Object_Subtype@@PEBVGameObject@@@std@@@std@@@2@$00@2@XZ 000000014003fe10 f i config.obj
 0002:0001ce60       ?_Get_second@?$_Compressed_pair@V?$allocator@U?$_Tree_node@U?$pair@$$CBW4Object_Subtype@@PEBVGameObject@@@std@@PEAX@std@@@std@@V?$_Tree_val@U?$_Tree_simple_types@U?$pair@$$CBW4Object_Subtype@@PEBVGameObject@@@std@@@std@@@2@$00@std@@QEAAAEAV?$_Tree_val@U?$_Tree_simple_types@U?$pair@$$CBW4Object_Subtype@@PEBVGameObject@@@std@@@std@@@2@XZ 000000014003fe60 f i config.obj
 0002:0001ceb0       ?_Get_second@?$_Compressed_pair@V?$allocator@U?$_Tree_node@U?$pair@$$CBW4Object_Subtype@@PEBVGameObject@@@std@@PEAX@std@@@std@@V?$_Tree_val@U?$_Tree_simple_types@U?$pair@$$CBW4Object_Subtype@@PEBVGameObject@@@std@@@std@@@2@$00@std@@QEBAAEBV?$_Tree_val@U?$_Tree_simple_types@U?$pair@$$CBW4Object_Subtype@@PEBVGameObject@@@std@@@std@@@2@XZ 000000014003feb0 f i config.obj
 0002:0001cf00       ?_Getal@?$_Tree_comp_alloc@V?$_Tmap_traits@W4Object_Subtype@@PEBVGameObject@@U?$less@W4Object_Subtype@@@std@@V?$allocator@U?$pair@$$CBW4Object_Subtype@@PEBVGameObject@@@std@@@4@$0A@@std@@@std@@QEAAAEAV?$allocator@U?$_Tree_node@U?$pair@$$CBW4Object_Subtype@@PEBVGameObject@@@std@@PEAX@std@@@2@XZ 000000014003ff00 f i config.obj
 0002:0001cf60       ?_Getal@?$_Tree_comp_alloc@V?$_Tmap_traits@W4Object_Subtype@@PEBVGameObject@@U?$less@W4Object_Subtype@@@std@@V?$allocator@U?$pair@$$CBW4Object_Subtype@@PEBVGameObject@@@std@@@4@$0A@@std@@@std@@QEBAAEBV?$allocator@U?$_Tree_node@U?$pair@$$CBW4Object_Subtype@@PEBVGameObject@@@std@@PEAX@std@@@2@XZ 000000014003ff60 f i config.obj
 0002:0001cfc0       ?_Getcomp@?$_Tree_comp_alloc@V?$_Tmap_traits@W4Object_Subtype@@PEBVGameObject@@U?$less@W4Object_Subtype@@@std@@V?$allocator@U?$pair@$$CBW4Object_Subtype@@PEBVGameObject@@@std@@@4@$0A@@std@@@std@@QEAAAEAU?$less@W4Object_Subtype@@@2@XZ 000000014003ffc0 f i config.obj
 0002:0001d020       ?_Getcomp@?$_Tree_comp_alloc@V?$_Tmap_traits@W4Object_Subtype@@PEBVGameObject@@U?$less@W4Object_Subtype@@@std@@V?$allocator@U?$pair@$$CBW4Object_Subtype@@PEBVGameObject@@@std@@@4@$0A@@std@@@std@@QEBAAEBU?$less@W4Object_Subtype@@@2@XZ 0000000140040020 f i config.obj
 0002:0001d080       ?_Key@?$_Tree@V?$_Tmap_traits@W4Object_Subtype@@PEBVGameObject@@U?$less@W4Object_Subtype@@@std@@V?$allocator@U?$pair@$$CBW4Object_Subtype@@PEBVGameObject@@@std@@@4@$0A@@std@@@std@@IEBAAEBW4Object_Subtype@@PEAU?$_Tree_node@U?$pair@$$CBW4Object_Subtype@@PEBVGameObject@@@std@@PEAX@2@@Z 0000000140040080 f i config.obj
 0002:0001d0f0       ?_Kfn@?$_Tree@V?$_Tmap_traits@W4Object_Subtype@@PEBVGameObject@@U?$less@W4Object_Subtype@@@std@@V?$allocator@U?$pair@$$CBW4Object_Subtype@@PEBVGameObject@@@std@@@4@$0A@@std@@@std@@IEBAAEBW4Object_Subtype@@AEBU?$pair@$$CBW4Object_Subtype@@PEBVGameObject@@@2@@Z 00000001400400f0 f i config.obj
 0002:0001d150       ?_Lmost@?$_Tree_val@U?$_Tree_simple_types@U?$pair@$$CBW4Object_Subtype@@PEBVGameObject@@@std@@@std@@@std@@QEBAAEAPEAU?$_Tree_node@U?$pair@$$CBW4Object_Subtype@@PEBVGameObject@@@std@@PEAX@2@XZ 0000000140040150 f i config.obj
 0002:0001d1a0       ?_Lrotate@?$_Tree_val@U?$_Tree_simple_types@U?$pair@$$CBW4Object_Subtype@@PEBVGameObject@@@std@@@std@@@std@@QEAAXPEAU?$_Tree_node@U?$pair@$$CBW4Object_Subtype@@PEBVGameObject@@@std@@PEAX@2@@Z 00000001400401a0 f i config.obj
 0002:0001d300       ?_Max@?$_Tree_val@U?$_Tree_simple_types@U?$pair@$$CBW4Object_Subtype@@PEBVGameObject@@@std@@@std@@@std@@SAPEAU?$_Tree_node@U?$pair@$$CBW4Object_Subtype@@PEBVGameObject@@@std@@PEAX@2@PEAU32@@Z 0000000140040300 f i config.obj
 0002:0001d380       ?_Min@?$_Tree_val@U?$_Tree_simple_types@U?$pair@$$CBW4Object_Subtype@@PEBVGameObject@@@std@@@std@@@std@@SAPEAU?$_Tree_node@U?$pair@$$CBW4Object_Subtype@@PEBVGameObject@@@std@@PEAX@2@PEAU32@@Z 0000000140040380 f i config.obj
 0002:0001d400       ?_Move_alloc@?$_String_alloc@U?$_String_base_types@DV?$allocator@D@std@@@std@@@std@@QEAAXAEAV?$allocator@D@2@@Z 0000000140040400 f i config.obj
 0002:0001d4f0       ?_Rmost@?$_Tree_val@U?$_Tree_simple_types@U?$pair@$$CBW4Object_Subtype@@PEBVGameObject@@@std@@@std@@@std@@QEBAAEAPEAU?$_Tree_node@U?$pair@$$CBW4Object_Subtype@@PEBVGameObject@@@std@@PEAX@2@XZ 00000001400404f0 f i config.obj
 0002:0001d550       ?_Root@?$_Tree_val@U?$_Tree_simple_types@U?$pair@$$CBW4Object_Subtype@@PEBVGameObject@@@std@@@std@@@std@@QEBAAEAPEAU?$_Tree_node@U?$pair@$$CBW4Object_Subtype@@PEBVGameObject@@@std@@PEAX@2@XZ 0000000140040550 f i config.obj
 0002:0001d5b0       ?_Rrotate@?$_Tree_val@U?$_Tree_simple_types@U?$pair@$$CBW4Object_Subtype@@PEBVGameObject@@@std@@@std@@@std@@QEAAXPEAU?$_Tree_node@U?$pair@$$CBW4Object_Subtype@@PEBVGameObject@@@std@@PEAX@2@@Z 00000001400405b0 f i config.obj
 0002:0001d710       ?_Xran@?$_String_val@U?$_Simple_types@D@std@@@std@@SAXXZ 0000000140040710 f i config.obj
 0002:0001d760       ?allocate@?$allocator@U?$_Tree_node@U?$pair@$$CBW4Object_Subtype@@PEBVGameObject@@@std@@PEAX@std@@@std@@QEAAPEAU?$_Tree_node@U?$pair@$$CBW4Object_Subtype@@PEBVGameObject@@@std@@PEAX@2@_K@Z 0000000140040760 f i config.obj
 0002:0001d7c0       ?append@?$basic_string@DU?$char_traits@D@std@@V?$allocator@D@2@@std@@QEAAAEAV12@AEBV12@@Z 00000001400407c0 f i config.obj
 0002:0001d850       ?append@?$basic_string@DU?$char_traits@D@std@@V?$allocator@D@2@@std@@QEAAAEAV12@_KD@Z 0000000140040850 f i config.obj
 0002:0001d9e0       ?assign@?$basic_string@DU?$char_traits@D@std@@V?$allocator@D@2@@std@@QEAAAEAV12@AEBV12@_K_K@Z 00000001400409e0 f i config.obj
 0002:0001dab0       ?assign@?$basic_string@DU?$char_traits@D@std@@V?$allocator@D@2@@std@@QEAAAEAV12@_KD@Z 0000000140040ab0 f i config.obj
 0002:0001dbf0       ?assign@?$char_traits@D@std@@SAPEADQEAD_KD@Z 0000000140040bf0 f i config.obj
 0002:0001dc60       ?begin@?$_Tree@V?$_Tmap_traits@W4Object_Subtype@@PEBVGameObject@@U?$less@W4Object_Subtype@@@std@@V?$allocator@U?$pair@$$CBW4Object_Subtype@@PEBVGameObject@@@std@@@4@$0A@@std@@@std@@QEAA?AV?$_Tree_iterator@V?$_Tree_val@U?$_Tree_simple_types@U?$pair@$$CBW4Object_Subtype@@PEBVGameObject@@@std@@@std@@@std@@@2@XZ 0000000140040c60 f i config.obj
 0002:0001dd20       ?c_str@?$basic_string@DU?$char_traits@D@std@@V?$allocator@D@2@@std@@QEBAPEBDXZ 0000000140040d20 f i config.obj
 0002:0001dd90       ?clear@?$basic_string@DU?$char_traits@D@std@@V?$allocator@D@2@@std@@QEAAXXZ 0000000140040d90 f i config.obj
 0002:0001de00       ?deallocate@?$_Default_allocator_traits@V?$allocator@U?$_Tree_node@U?$pair@$$CBW4Object_Subtype@@PEBVGameObject@@@std@@PEAX@std@@@std@@@std@@SAXAEAV?$allocator@U?$_Tree_node@U?$pair@$$CBW4Object_Subtype@@PEBVGameObject@@@std@@PEAX@std@@@2@QEAU?$_Tree_node@U?$pair@$$CBW4Object_Subtype@@PEBVGameObject@@@std@@PEAX@2@_K@Z 0000000140040e00 f i config.obj
 0002:0001de70       ?deallocate@?$allocator@U?$_Tree_node@U?$pair@$$CBW4Object_Subtype@@PEBVGameObject@@@std@@PEAX@std@@@std@@QEAAXQEAU?$_Tree_node@U?$pair@$$CBW4Object_Subtype@@PEBVGameObject@@@std@@PEAX@2@_K@Z 0000000140040e70 f i config.obj
 0002:0001dee0       ?end@?$_Tree@V?$_Tmap_traits@W4Object_Subtype@@PEBVGameObject@@U?$less@W4Object_Subtype@@@std@@V?$allocator@U?$pair@$$CBW4Object_Subtype@@PEBVGameObject@@@std@@@4@$0A@@std@@@std@@QEAA?AV?$_Tree_iterator@V?$_Tree_val@U?$_Tree_simple_types@U?$pair@$$CBW4Object_Subtype@@PEBVGameObject@@@std@@@std@@@std@@@2@XZ 0000000140040ee0 f i config.obj
 0002:0001df80       ?end@?$_Tree@V?$_Tmap_traits@W4Object_Subtype@@PEBVGameObject@@U?$less@W4Object_Subtype@@@std@@V?$allocator@U?$pair@$$CBW4Object_Subtype@@PEBVGameObject@@@std@@@4@$0A@@std@@@std@@QEBA?AV?$_Tree_const_iterator@V?$_Tree_val@U?$_Tree_simple_types@U?$pair@$$CBW4Object_Subtype@@PEBVGameObject@@@std@@@std@@@std@@@2@XZ 0000000140040f80 f i config.obj
 0002:0001e020       ?find@?$_Tree@V?$_Tmap_traits@W4Object_Subtype@@PEBVGameObject@@U?$less@W4Object_Subtype@@@std@@V?$allocator@U?$pair@$$CBW4Object_Subtype@@PEBVGameObject@@@std@@@4@$0A@@std@@@std@@QEBA?AV?$_Tree_const_iterator@V?$_Tree_val@U?$_Tree_simple_types@U?$pair@$$CBW4Object_Subtype@@PEBVGameObject@@@std@@@std@@@std@@@2@AEBW4Object_Subtype@@@Z 0000000140041020 f i config.obj
 0002:0001e2f0       ?insert@?$basic_string@DU?$char_traits@D@std@@V?$allocator@D@2@@std@@QEAAAEAV12@_KQEBD0@Z 00000001400412f0 f i config.obj
 0002:0001e5b0       ?insert@?$basic_string@DU?$char_traits@D@std@@V?$allocator@D@2@@std@@QEAAAEAV12@_KQEBD@Z 00000001400415b0 f i config.obj
 0002:0001e640       ?loadObject@ConfigManager@@AEBA_NPEBDPEAPEAVGameObject@@@Z 0000000140041640 f   config.obj
 0002:0001e750       ?lower_bound@?$_Tree@V?$_Tmap_traits@W4Object_Subtype@@PEBVGameObject@@U?$less@W4Object_Subtype@@@std@@V?$allocator@U?$pair@$$CBW4Object_Subtype@@PEBVGameObject@@@std@@@4@$0A@@std@@@std@@QEAA?AV?$_Tree_iterator@V?$_Tree_val@U?$_Tree_simple_types@U?$pair@$$CBW4Object_Subtype@@PEBVGameObject@@@std@@@std@@@std@@@2@AEBW4Object_Subtype@@@Z 0000000140041750 f i config.obj
 0002:0001e820       ?lower_bound@?$_Tree@V?$_Tmap_traits@W4Object_Subtype@@PEBVGameObject@@U?$less@W4Object_Subtype@@@std@@V?$allocator@U?$pair@$$CBW4Object_Subtype@@PEBVGameObject@@@std@@@4@$0A@@std@@@std@@QEBA?AV?$_Tree_const_iterator@V?$_Tree_val@U?$_Tree_simple_types@U?$pair@$$CBW4Object_Subtype@@PEBVGameObject@@@std@@@std@@@std@@@2@AEBW4Object_Subtype@@@Z 0000000140041820 f i config.obj
 0002:0001e8f0       ?max_size@?$_Default_allocator_traits@V?$allocator@U?$_Tree_node@U?$pair@$$CBW4Object_Subtype@@PEBVGameObject@@@std@@PEAX@std@@@std@@@std@@SA_KAEBV?$allocator@U?$_Tree_node@U?$pair@$$CBW4Object_Subtype@@PEBVGameObject@@@std@@PEAX@std@@@2@@Z 00000001400418f0 f i config.obj
 0002:0001e940       ?max_size@?$_Tree@V?$_Tmap_traits@W4Object_Subtype@@PEBVGameObject@@U?$less@W4Object_Subtype@@@std@@V?$allocator@U?$pair@$$CBW4Object_Subtype@@PEBVGameObject@@@std@@@4@$0A@@std@@@std@@QEBA_KXZ 0000000140041940 f i config.obj
 0002:0001e9a0       ?pointer_to@?$pointer_traits@PEAU?$pair@$$CBW4Object_Subtype@@PEBVGameObject@@@std@@@std@@SAPEAU?$pair@$$CBW4Object_Subtype@@PEBVGameObject@@@2@AEAU32@@Z 00000001400419a0 f i config.obj
 0002:0001e9f0       ?pointer_to@?$pointer_traits@PEBU?$pair@$$CBW4Object_Subtype@@PEBVGameObject@@@std@@@std@@SAPEBU?$pair@$$CBW4Object_Subtype@@PEBVGameObject@@@2@AEBU32@@Z 00000001400419f0 f i config.obj
 0002:0001ea40       ?push_back@?$basic_string@DU?$char_traits@D@std@@V?$allocator@D@2@@std@@QEAAXD@Z 0000000140041a40 f i config.obj
 0002:0001eb80       ?resize@?$basic_string@DU?$char_traits@D@std@@V?$allocator@D@2@@std@@QEAAX_KD@Z 0000000140041b80 f i config.obj
 0002:0001ec40       ?saveObject@ConfigManager@@AEBA_NPEBVGameObject@@AEAV?$basic_string@DU?$char_traits@D@std@@V?$allocator@D@2@@std@@@Z 0000000140041c40 f   config.obj
 0002:0001eed0       ?size@?$_Tree@V?$_Tmap_traits@W4Object_Subtype@@PEBVGameObject@@U?$less@W4Object_Subtype@@@std@@V?$allocator@U?$pair@$$CBW4Object_Subtype@@PEBVGameObject@@@std@@@4@$0A@@std@@@std@@QEBA_KXZ 0000000140041ed0 f i config.obj
 0002:0001ef30       ?size@?$basic_string@DU?$char_traits@D@std@@V?$allocator@D@2@@std@@QEBA_KXZ 0000000140041f30 f i config.obj
 0002:0001ef90       ?stof@std@@YAMAEBV?$basic_string@DU?$char_traits@D@std@@V?$allocator@D@2@@1@PEA_K@Z 0000000140041f90 f i config.obj
 0002:0001f0b0       ?stoi@std@@YAHAEBV?$basic_string@DU?$char_traits@D@std@@V?$allocator@D@2@@1@PEA_KH@Z 00000001400420b0 f i config.obj
 0002:0001f1e0       ?to_string@std@@YA?AV?$basic_string@DU?$char_traits@D@std@@V?$allocator@D@2@@1@M@Z 00000001400421e0 f i config.obj
 0002:0001f280       ?to_string@std@@YA?AV?$basic_string@DU?$char_traits@D@std@@V?$allocator@D@2@@1@_K@Z 0000000140042280 f i config.obj
 0002:0001f310       __local_stdio_printf_options 0000000140042310 f i config.obj
 0002:0001f350       _scprintf                  0000000140042350 f i config.obj
 0002:0001f400       _vfprintf_l                0000000140042400 f i config.obj
 0002:0001f490       _vscprintf_l               0000000140042490 f i config.obj
 0002:0001f560       _vsprintf_s_l              0000000140042560 f i config.obj
 0002:0001f630       printf                     0000000140042630 f i config.obj
 0002:0001f6f0       sprintf_s                  00000001400426f0 f i config.obj
 0002:0001f7b0       ??0?$Container@VGameObject@@@@QEAA@AEBV?$Vector2@M@sf@@0@Z 00000001400427b0 f i container.obj
 0002:0001f870       ??0?$Container@VObject@@@@QEAA@AEBV?$Vector2@M@sf@@0@Z 0000000140042870 f i container.obj
 0002:0001f930       ??0?$Container@VWidget@@@@QEAA@AEBV?$Vector2@M@sf@@0@Z 0000000140042930 f i container.obj
 0002:0001f9f0       ??1?$Container@VGameObject@@@@UEAA@XZ 00000001400429f0 f i container.obj
 0002:0001fab0       ??1?$Container@VObject@@@@UEAA@XZ 0000000140042ab0 f i container.obj
 0002:0001fb70       ??1?$Container@VWidget@@@@UEAA@XZ 0000000140042b70 f i container.obj
 0002:0001fc30       ??_G?$Container@VGameObject@@@@UEAAPEAXI@Z 0000000140042c30 f i container.obj
 0002:0001fc30       ??_E?$Container@VGameObject@@@@UEAAPEAXI@Z 0000000140042c30 f i container.obj
 0002:0001fcc0       ??_E?$Container@VObject@@@@UEAAPEAXI@Z 0000000140042cc0 f i container.obj
 0002:0001fcc0       ??_G?$Container@VObject@@@@UEAAPEAXI@Z 0000000140042cc0 f i container.obj
 0002:0001fd50       ??_E?$Container@VWidget@@@@UEAAPEAXI@Z 0000000140042d50 f i container.obj
 0002:0001fd50       ??_G?$Container@VWidget@@@@UEAAPEAXI@Z 0000000140042d50 f i container.obj
 0002:0001fde0       ?AddWidget@?$Container@VGameObject@@@@UEAAXPEAVGameObject@@@Z 0000000140042de0 f i container.obj
 0002:0001ff90       ?AddWidget@?$Container@VObject@@@@UEAAXPEAVObject@@@Z 0000000140042f90 f i container.obj
 0002:00020140       ?AddWidget@?$Container@VWidget@@@@UEAAXPEAVWidget@@@Z 0000000140043140 f i container.obj
 0002:000202f0       ?Draw@?$Container@VGameObject@@@@UEAAXPEAVRenderWindow@sf@@@Z 00000001400432f0 f i container.obj
 0002:000203d0       ?Draw@?$Container@VObject@@@@UEAAXPEAVRenderWindow@sf@@@Z 00000001400433d0 f i container.obj
 0002:000204b0       ?Draw@?$Container@VWidget@@@@UEAAXPEAVRenderWindow@sf@@@Z 00000001400434b0 f i container.obj
 0002:00020590       ?GetWidget@?$Container@VGameObject@@@@QEBAPEAVGameObject@@_K@Z 0000000140043590 f i container.obj
 0002:00020630       ?GetWidget@?$Container@VObject@@@@QEBAPEAVObject@@_K@Z 0000000140043630 f i container.obj
 0002:000206d0       ?GetWidget@?$Container@VWidget@@@@QEBAPEAVWidget@@_K@Z 00000001400436d0 f i container.obj
 0002:00020770       ?GetWidgetsCount@?$Container@VGameObject@@@@QEBA_KXZ 0000000140043770 f i container.obj
 0002:000207c0       ?GetWidgetsCount@?$Container@VObject@@@@QEBA_KXZ 00000001400437c0 f i container.obj
 0002:00020810       ?GetWidgetsCount@?$Container@VWidget@@@@QEBA_KXZ 0000000140043810 f i container.obj
 0002:00020860       ?HandleEvent@?$Container@VGameObject@@@@UEAAXAEBVEvent@sf@@@Z 0000000140043860 f i container.obj
 0002:000208b0       ?HandleEvent@?$Container@VObject@@@@UEAAXAEBVEvent@sf@@@Z 00000001400438b0 f i container.obj
 0002:00020900       ?HandleEvent@?$Container@VWidget@@@@UEAAXAEBVEvent@sf@@@Z 0000000140043900 f   container.obj
 0002:000209d0       ?RemoveWidget@?$Container@VGameObject@@@@QEAA_NPEAVGameObject@@_N@Z 00000001400439d0 f i container.obj
 0002:00020c00       ?RemoveWidget@?$Container@VObject@@@@QEAA_NPEAVObject@@_N@Z 0000000140043c00 f i container.obj
 0002:00020e30       ?RemoveWidget@?$Container@VWidget@@@@QEAA_NPEAVWidget@@_N@Z 0000000140043e30 f i container.obj
 0002:00021060       ?SetPos@?$Container@VGameObject@@@@UEAAXAEBV?$Vector2@M@sf@@@Z 0000000140044060 f i container.obj
 0002:00021120       ?SetPos@?$Container@VObject@@@@UEAAXAEBV?$Vector2@M@sf@@@Z 0000000140044120 f i container.obj
 0002:000211e0       ?SetPos@?$Container@VWidget@@@@UEAAXAEBV?$Vector2@M@sf@@@Z 00000001400441e0 f i container.obj
 0002:000212a0       ?Update@?$Container@VGameObject@@@@UEAAXAEBVTime@sf@@@Z 00000001400442a0 f i container.obj
 0002:00021370       ?Update@?$Container@VObject@@@@UEAAXAEBVTime@sf@@@Z 0000000140044370 f i container.obj
 0002:00021440       ?Update@?$Container@VWidget@@@@UEAAXAEBVTime@sf@@@Z 0000000140044440 f i container.obj
 0002:00021510       ??$?0$$V@?$_Compressed_pair@V?$allocator@PEAV?$Container@VWidget@@@@@std@@V?$_Vector_val@U?$_Simple_types@PEAV?$Container@VWidget@@@@@std@@@2@$00@std@@QEAA@U_Zero_then_variadic_args_t@1@@Z 0000000140044510 f i engine.obj
 0002:00021580       ??$?0$$V@?$_Compressed_pair@V?$allocator@PEAVObject@@@std@@V?$_Vector_val@U?$_Simple_types@PEAVObject@@@std@@@2@$00@std@@QEAA@U_Zero_then_variadic_args_t@1@@Z 0000000140044580 f i engine.obj
 0002:000215f0       ??$?0$$V@?$_Compressed_pair@V?$allocator@U?$_Tree_node@U?$pair@$$CBW4Object_Subtype@@PEBVGameObject@@@std@@PEAX@std@@@std@@V?$_Tree_val@U?$_Tree_simple_types@U?$pair@$$CBW4Object_Subtype@@PEBVGameObject@@@std@@@std@@@2@$00@std@@QEAA@U_Zero_then_variadic_args_t@1@@Z 00000001400445f0 f i engine.obj
 0002:00021660       ??$?0AEBU?$less@W4Object_Subtype@@@std@@U_Zero_then_variadic_args_t@1@@?$_Compressed_pair@U?$less@W4Object_Subtype@@@std@@V?$_Compressed_pair@V?$allocator@U?$_Tree_node@U?$pair@$$CBW4Object_Subtype@@PEBVGameObject@@@std@@PEAX@std@@@std@@V?$_Tree_val@U?$_Tree_simple_types@U?$pair@$$CBW4Object_Subtype@@PEBVGameObject@@@std@@@std@@@2@$00@2@$00@std@@QEAA@U_One_then_variadic_args_t@1@AEBU?$less@W4Object_Subtype@@@1@$$QEAU_Zero_then_variadic_args_t@1@@Z 0000000140044660 f i engine.obj
 0002:000216f0       ??$?0PEAV?$Container@VWidget@@@@@?$allocator@U_Container_proxy@std@@@std@@QEAA@AEBV?$allocator@PEAV?$Container@VWidget@@@@@1@@Z 00000001400446f0 f i engine.obj
 0002:00021740       ??$?0PEAVObject@@@?$allocator@U_Container_proxy@std@@@std@@QEAA@AEBV?$allocator@PEAVObject@@@1@@Z 0000000140044740 f i engine.obj
 0002:00021790       ??$?0U?$_Tree_node@U?$pair@$$CBW4Object_Subtype@@PEBVGameObject@@@std@@PEAX@std@@@?$allocator@U_Container_proxy@std@@@std@@QEAA@AEBV?$allocator@U?$_Tree_node@U?$pair@$$CBW4Object_Subtype@@PEBVGameObject@@@std@@PEAX@std@@@1@@Z 0000000140044790 f i engine.obj
 0002:000217e0       ??$_Copy_memmove@PEAPEAV?$Container@VWidget@@@@PEAPEAV1@@std@@YAPEAPEAV?$Container@VWidget@@@@PEAPEAV1@00@Z 00000001400447e0 f i engine.obj
 0002:000218a0       ??$_Copy_memmove@PEAPEAVObject@@PEAPEAV1@@std@@YAPEAPEAVObject@@PEAPEAV1@00@Z 00000001400448a0 f i engine.obj
 0002:00021960       ??$_Destroy_range1@V?$allocator@PEAV?$Container@VWidget@@@@@std@@@std@@YAXPEAPEAV?$Container@VWidget@@@@0AEAV?$allocator@PEAV?$Container@VWidget@@@@@0@U?$integral_constant@_N$00@0@@Z 0000000140044960 f i engine.obj
 0002:000219c0       ??$_Destroy_range1@V?$allocator@PEAVObject@@@std@@@std@@YAXPEAPEAVObject@@0AEAV?$allocator@PEAVObject@@@0@U?$integral_constant@_N$00@0@@Z 00000001400449c0 f i engine.obj
 0002:00021a20       ??$_Destroy_range@V?$allocator@PEAV?$Container@VWidget@@@@@std@@@std@@YAXPEAPEAV?$Container@VWidget@@@@0AEAV?$allocator@PEAV?$Container@VWidget@@@@@0@@Z 0000000140044a20 f i engine.obj
 0002:00021aa0       ??$_Destroy_range@V?$allocator@PEAVObject@@@std@@@std@@YAXPEAPEAVObject@@0AEAV?$allocator@PEAVObject@@@0@@Z 0000000140044aa0 f i engine.obj
 0002:00021b20       ??$_Emplace_back_with_unused_capacity@AEBQEAV?$Container@VWidget@@@@@?$vector@PEAV?$Container@VWidget@@@@V?$allocator@PEAV?$Container@VWidget@@@@@std@@@std@@AEAA@AEBQEAV?$Container@VWidget@@@@@Z 0000000140044b20 f i engine.obj
 0002:00021c70       ??$_Emplace_back_with_unused_capacity@AEBQEAVObject@@@?$vector@PEAVObject@@V?$allocator@PEAVObject@@@std@@@std@@AEAA@AEBQEAVObject@@@Z 0000000140044c70 f i engine.obj
 0002:00021dc0       ??$_Emplace_reallocate@AEBQEAV?$Container@VWidget@@@@@?$vector@PEAV?$Container@VWidget@@@@V?$allocator@PEAV?$Container@VWidget@@@@@std@@@std@@QEAAPEAPEAV?$Container@VWidget@@@@QEAPEAV2@AEBQEAV2@@Z 0000000140044dc0 f i engine.obj
 0002:000220c0       ??$_Emplace_reallocate@AEBQEAVObject@@@?$vector@PEAVObject@@V?$allocator@PEAVObject@@@std@@@std@@QEAAPEAPEAVObject@@QEAPEAV2@AEBQEAV2@@Z 00000001400450c0 f i engine.obj
 0002:000223c0       ??$_Get_size_of_n@$07@std@@YA_K_K@Z 00000001400453c0 f i engine.obj
 0002:00022450       ??$_Ptr_move_cat@PEAV?$Container@VWidget@@@@PEAV1@@std@@YA?AU_Really_trivial_ptr_iterator_tag@0@AEBQEAPEAV?$Container@VWidget@@@@0@Z 0000000140045450 f i engine.obj
 0002:000224b0       ??$_Ptr_move_cat@PEAVObject@@PEAV1@@std@@YA?AU_Really_trivial_ptr_iterator_tag@0@AEBQEAPEAVObject@@0@Z 00000001400454b0 f i engine.obj
 0002:00022510       ??$_Rechecked@PEAPEAV?$Container@VWidget@@@@PEAPEAV1@@std@@YAAEAPEAPEAV?$Container@VWidget@@@@AEAPEAPEAV1@QEAPEAV1@@Z 0000000140045510 f i engine.obj
 0002:00022580       ??$_Rechecked@PEAPEAVObject@@PEAPEAV1@@std@@YAAEAPEAPEAVObject@@AEAPEAPEAV1@QEAPEAV1@@Z 0000000140045580 f i engine.obj
 0002:000225f0       ??$_Unchecked@PEAPEAV?$Container@VWidget@@@@@std@@YAPEAPEAV?$Container@VWidget@@@@PEAPEAV1@@Z 00000001400455f0 f i engine.obj
 0002:00022640       ??$_Unchecked@PEAPEAVObject@@@std@@YAPEAPEAVObject@@PEAPEAV1@@Z 0000000140045640 f i engine.obj
 0002:00022690       ??$_Unfancy@PEAV?$Container@VWidget@@@@@std@@YAPEAPEAV?$Container@VWidget@@@@PEAPEAV1@@Z 0000000140045690 f i engine.obj
 0002:000226e0       ??$_Unfancy@PEAVObject@@@std@@YAPEAPEAVObject@@PEAPEAV1@@Z 00000001400456e0 f i engine.obj
 0002:00022730       ??$_Uninitialized_move@PEAPEAV?$Container@VWidget@@@@PEAPEAV1@V?$allocator@PEAV?$Container@VWidget@@@@@std@@@std@@YAPEAPEAV?$Container@VWidget@@@@QEAPEAV1@0PEAPEAV1@AEAV?$allocator@PEAV?$Container@VWidget@@@@@0@@Z 0000000140045730 f i engine.obj
 0002:00022840       ??$_Uninitialized_move@PEAPEAVObject@@PEAPEAV1@V?$allocator@PEAVObject@@@std@@@std@@YAPEAPEAVObject@@QEAPEAV1@0PEAPEAV1@AEAV?$allocator@PEAVObject@@@0@@Z 0000000140045840 f i engine.obj
 0002:00022950       ??$_Uninitialized_move_al_unchecked@PEAV?$Container@VWidget@@@@PEAV1@V?$allocator@PEAV?$Container@VWidget@@@@@std@@@std@@YAPEAPEAV?$Container@VWidget@@@@QEAPEAV1@00AEAV?$allocator@PEAV?$Container@VWidget@@@@@0@U_Really_trivial_ptr_iterator_tag@0@U?$integral_constant@_N$00@0@@Z 0000000140045950 f i engine.obj
 0002:000229d0       ??$_Uninitialized_move_al_unchecked@PEAVObject@@PEAV1@V?$allocator@PEAVObject@@@std@@@std@@YAPEAPEAVObject@@QEAPEAV1@00AEAV?$allocator@PEAVObject@@@0@U_Really_trivial_ptr_iterator_tag@0@U?$integral_constant@_N$00@0@@Z 00000001400459d0 f i engine.obj
 0002:00022a50       ??$addressof@V?$_Vector_val@U?$_Simple_types@PEAV?$Container@VWidget@@@@@std@@@std@@@std@@YAPEAV?$_Vector_val@U?$_Simple_types@PEAV?$Container@VWidget@@@@@std@@@0@AEAV10@@Z 0000000140045a50 f i engine.obj
 0002:00022aa0       ??$addressof@V?$_Vector_val@U?$_Simple_types@PEAVObject@@@std@@@std@@@std@@YAPEAV?$_Vector_val@U?$_Simple_types@PEAVObject@@@std@@@0@AEAV10@@Z 0000000140045aa0 f i engine.obj
 0002:00022af0       ??$construct@PEAV?$Container@VWidget@@@@AEBQEAV1@@?$_Default_allocator_traits@V?$allocator@PEAV?$Container@VWidget@@@@@std@@@std@@SAXAEAV?$allocator@PEAV?$Container@VWidget@@@@@1@QEAPEAV?$Container@VWidget@@@@AEBQEAV3@@Z 0000000140045af0 f i engine.obj
 0002:00022b80       ??$construct@PEAVObject@@AEBQEAV1@@?$_Default_allocator_traits@V?$allocator@PEAVObject@@@std@@@std@@SAXAEAV?$allocator@PEAVObject@@@1@QEAPEAVObject@@AEBQEAV3@@Z 0000000140045b80 f i engine.obj
 0002:00022c10       ??$destroy@PEAV?$Container@VWidget@@@@@?$_Default_allocator_traits@V?$allocator@PEAV?$Container@VWidget@@@@@std@@@std@@SAXAEAV?$allocator@PEAV?$Container@VWidget@@@@@1@QEAPEAV?$Container@VWidget@@@@@Z 0000000140045c10 f i engine.obj
 0002:00022c60       ??$emplace_back@AEBQEAV?$Container@VWidget@@@@@?$vector@PEAV?$Container@VWidget@@@@V?$allocator@PEAV?$Container@VWidget@@@@@std@@@std@@QEAA@AEBQEAV?$Container@VWidget@@@@@Z 0000000140045c60 f i engine.obj
 0002:00022d30       ??$emplace_back@AEBQEAVObject@@@?$vector@PEAVObject@@V?$allocator@PEAVObject@@@std@@@std@@QEAA@AEBQEAVObject@@@Z 0000000140045d30 f i engine.obj
 0002:00022e00       ??$forward@AEBQEAV?$Container@VWidget@@@@@std@@YAAEBQEAV?$Container@VWidget@@@@AEBQEAV1@@Z 0000000140045e00 f i engine.obj
 0002:00022e50       ??$forward@AEBQEAVObject@@@std@@YAAEBQEAVObject@@AEBQEAV1@@Z 0000000140045e50 f i engine.obj
 0002:00022ea0       ??$forward@AEBU?$less@W4Object_Subtype@@@std@@@std@@YAAEBU?$less@W4Object_Subtype@@@0@AEBU10@@Z 0000000140045ea0 f i engine.obj
 0002:00022ef0       ??0?$_Tree@V?$_Tmap_traits@W4Object_Subtype@@PEBVGameObject@@U?$less@W4Object_Subtype@@@std@@V?$allocator@U?$pair@$$CBW4Object_Subtype@@PEBVGameObject@@@std@@@4@$0A@@std@@@std@@QEAA@AEBU?$less@W4Object_Subtype@@@1@@Z 0000000140045ef0 f i engine.obj
 0002:00022f60       ??0?$_Tree_comp_alloc@V?$_Tmap_traits@W4Object_Subtype@@PEBVGameObject@@U?$less@W4Object_Subtype@@@std@@V?$allocator@U?$pair@$$CBW4Object_Subtype@@PEBVGameObject@@@std@@@4@$0A@@std@@@std@@QEAA@AEBU?$less@W4Object_Subtype@@@1@@Z 0000000140045f60 f i engine.obj
 0002:00022ff0       ??0?$_Tree_val@U?$_Tree_simple_types@U?$pair@$$CBW4Object_Subtype@@PEBVGameObject@@@std@@@std@@@std@@QEAA@XZ 0000000140045ff0 f i engine.obj
 0002:00023070       ??0?$_Vector_alloc@U?$_Vec_base_types@PEAV?$Container@VWidget@@@@V?$allocator@PEAV?$Container@VWidget@@@@@std@@@std@@@std@@QEAA@XZ 0000000140046070 f i engine.obj
 0002:000230f0       ??0?$_Vector_alloc@U?$_Vec_base_types@PEAVObject@@V?$allocator@PEAVObject@@@std@@@std@@@std@@QEAA@XZ 00000001400460f0 f i engine.obj
 0002:00023170       ??0?$_Vector_val@U?$_Simple_types@PEAV?$Container@VWidget@@@@@std@@@std@@QEAA@XZ 0000000140046170 f i engine.obj
 0002:00023210       ??0?$_Vector_val@U?$_Simple_types@PEAVObject@@@std@@@std@@QEAA@XZ 0000000140046210 f i engine.obj
 0002:000232b0       ??0?$allocator@PEAV?$Container@VWidget@@@@@std@@QEAA@XZ 00000001400462b0 f i engine.obj
 0002:00023300       ??0?$allocator@PEAVObject@@@std@@QEAA@XZ 0000000140046300 f i engine.obj
 0002:00023350       ??0?$allocator@U?$_Tree_node@U?$pair@$$CBW4Object_Subtype@@PEBVGameObject@@@std@@PEAX@std@@@std@@QEAA@XZ 0000000140046350 f i engine.obj
 0002:000233a0       ??0?$map@W4Object_Subtype@@PEBVGameObject@@U?$less@W4Object_Subtype@@@std@@V?$allocator@U?$pair@$$CBW4Object_Subtype@@PEBVGameObject@@@std@@@4@@std@@QEAA@XZ 00000001400463a0 f i engine.obj
 0002:00023410       ??0?$vector@PEAV?$Container@VWidget@@@@V?$allocator@PEAV?$Container@VWidget@@@@@std@@@std@@QEAA@XZ 0000000140046410 f i engine.obj
 0002:00023480       ??0?$vector@PEAVObject@@V?$allocator@PEAVObject@@@std@@@std@@QEAA@XZ 0000000140046480 f i engine.obj
 0002:000234f0       ??0ConfigManager@@QEAA@XZ  00000001400464f0 f i engine.obj
 0002:00023550       ??0ContextSettings@sf@@QEAA@IIIIII_N@Z 0000000140046550 f i engine.obj
 0002:00023640       ??0Engine@@QEAA@XZ         0000000140046640 f   engine.obj
 0002:000239e0       ??0locale@std@@QEAA@XZ     00000001400469e0 f i engine.obj
 0002:00023a50       ??1?$_Tree@V?$_Tmap_traits@W4Object_Subtype@@PEBVGameObject@@U?$less@W4Object_Subtype@@@std@@V?$allocator@U?$pair@$$CBW4Object_Subtype@@PEBVGameObject@@@std@@@4@$0A@@std@@@std@@QEAA@XZ 0000000140046a50 f i engine.obj
 0002:00023ac0       ??1?$_Tree_comp_alloc@V?$_Tmap_traits@W4Object_Subtype@@PEBVGameObject@@U?$less@W4Object_Subtype@@@std@@V?$allocator@U?$pair@$$CBW4Object_Subtype@@PEBVGameObject@@@std@@@4@$0A@@std@@@std@@QEAA@XZ 0000000140046ac0 f i engine.obj
 0002:00023b50       ??1?$_Vector_alloc@U?$_Vec_base_types@PEAV?$Container@VWidget@@@@V?$allocator@PEAV?$Container@VWidget@@@@@std@@@std@@@std@@QEAA@XZ 0000000140046b50 f i engine.obj
 0002:00023bb0       ??1?$_Vector_alloc@U?$_Vec_base_types@PEAVObject@@V?$allocator@PEAVObject@@@std@@@std@@@std@@QEAA@XZ 0000000140046bb0 f i engine.obj
 0002:00023c10       ??1?$map@W4Object_Subtype@@PEBVGameObject@@U?$less@W4Object_Subtype@@@std@@V?$allocator@U?$pair@$$CBW4Object_Subtype@@PEBVGameObject@@@std@@@4@@std@@QEAA@XZ 0000000140046c10 f i engine.obj
 0002:00023c60       ??1?$vector@PEAV?$Container@VWidget@@@@V?$allocator@PEAV?$Container@VWidget@@@@@std@@@std@@QEAA@XZ 0000000140046c60 f i engine.obj
 0002:00023cd0       ??1?$vector@PEAVObject@@V?$allocator@PEAVObject@@@std@@@std@@QEAA@XZ 0000000140046cd0 f i engine.obj
 0002:00023d40       ??1ConfigManager@@QEAA@XZ  0000000140046d40 f i engine.obj
 0002:00023da0       ??1Engine@@QEAA@XZ         0000000140046da0 f   engine.obj
 0002:00023fc0       ??1locale@std@@QEAA@XZ     0000000140046fc0 f i engine.obj
 0002:000240b0       ??9?$_Tree_const_iterator@V?$_Tree_val@U?$_Tree_simple_types@U?$pair@$$CBW4Object_Subtype@@PEBVGameObject@@@std@@@std@@@std@@@std@@QEBA_NAEBV01@@Z 00000001400470b0 f i engine.obj
 0002:00024140       ??A?$vector@PEAV?$Container@VWidget@@@@V?$allocator@PEAV?$Container@VWidget@@@@@std@@@std@@QEAAAEAPEAV?$Container@VWidget@@@@_K@Z 0000000140047140 f i engine.obj
 0002:00024220       ??A?$vector@PEAVObject@@V?$allocator@PEAVObject@@@std@@@std@@QEAAAEAPEAVObject@@_K@Z 0000000140047220 f i engine.obj
 0002:00024300       ??E?$_Tree_const_iterator@V?$_Tree_val@U?$_Tree_simple_types@U?$pair@$$CBW4Object_Subtype@@PEBVGameObject@@@std@@@std@@@std@@@std@@QEAA?AV01@H@Z 0000000140047300 f i engine.obj
 0002:000243e4       ??_ERenderWindow@sf@@WDI@EAAPEAXI@Z 00000001400473e4 f i engine.obj
 0002:000243f0       ??_GRenderWindow@sf@@UEAAPEAXI@Z 00000001400473f0 f i engine.obj
 0002:000243f0       ??_ERenderWindow@sf@@UEAAPEAXI@Z 00000001400473f0 f i engine.obj
 0002:00024480       ?AddWindow@Engine@@QEAAXPEAV?$Window@VWidget@@@@@Z 0000000140047480 f   engine.obj
 0002:00024500       ?ChangeWindow@Engine@@QEAAXPEAV?$Window@VWidget@@@@@Z 0000000140047500 f   engine.obj
 0002:000245d0       ?Close@Engine@@QEAAXXZ     00000001400475d0 f   engine.obj
 0002:00024630       ?Draw@Engine@@QEAAXXZ      0000000140047630 f   engine.obj
 0002:00024740       ?Execute@Engine@@QEAAXXZ   0000000140047740 f   engine.obj
 0002:00024970       ?GetConfigManager@Engine@@QEAAPEAVConfigManager@@XZ 0000000140047970 f   engine.obj
 0002:000249c0       ?GetSize@Engine@@QEBA?AV?$Vector2@M@sf@@XZ 00000001400479c0 f   engine.obj
 0002:00024a30       ?HandleEvents@Engine@@QEAAXXZ 0000000140047a30 f   engine.obj
 0002:00024b40       ?RemoveWindow@Engine@@QEAAXPEAV?$Container@VWidget@@@@@Z 0000000140047b40 f   engine.obj
 0002:00024cf0       ?SetSize@Engine@@QEAAXAEBV?$Vector2@M@sf@@@Z 0000000140047cf0 f   engine.obj
 0002:00024d50       ?Update@Engine@@QEAAXAEBVTime@sf@@@Z 0000000140047d50 f   engine.obj
 0002:00024e10       ?_Alloc_proxy@?$_Tree_comp_alloc@V?$_Tmap_traits@W4Object_Subtype@@PEBVGameObject@@U?$less@W4Object_Subtype@@@std@@V?$allocator@U?$pair@$$CBW4Object_Subtype@@PEBVGameObject@@@std@@@4@$0A@@std@@@std@@QEAAXXZ 0000000140047e10 f i engine.obj
 0002:00024f50       ?_Alloc_proxy@?$_Vector_alloc@U?$_Vec_base_types@PEAV?$Container@VWidget@@@@V?$allocator@PEAV?$Container@VWidget@@@@@std@@@std@@@std@@QEAAXXZ 0000000140047f50 f i engine.obj
 0002:00025090       ?_Alloc_proxy@?$_Vector_alloc@U?$_Vec_base_types@PEAVObject@@V?$allocator@PEAVObject@@@std@@@std@@@std@@QEAAXXZ 0000000140048090 f i engine.obj
 0002:000251d0       ?_Buyheadnode@?$_Tree_comp_alloc@V?$_Tmap_traits@W4Object_Subtype@@PEBVGameObject@@U?$less@W4Object_Subtype@@@std@@V?$allocator@U?$pair@$$CBW4Object_Subtype@@PEBVGameObject@@@std@@@4@$0A@@std@@@std@@QEAAPEAU?$_Tree_node@U?$pair@$$CBW4Object_Subtype@@PEBVGameObject@@@std@@PEAX@2@XZ 00000001400481d0 f i engine.obj
 0002:00025300       ?_Calculate_growth@?$vector@PEAV?$Container@VWidget@@@@V?$allocator@PEAV?$Container@VWidget@@@@@std@@@std@@AEBA_K_K@Z 0000000140048300 f i engine.obj
 0002:000253f0       ?_Calculate_growth@?$vector@PEAVObject@@V?$allocator@PEAVObject@@@std@@@std@@AEBA_K_K@Z 00000001400483f0 f i engine.obj
 0002:000254e0       ?_Change_array@?$vector@PEAV?$Container@VWidget@@@@V?$allocator@PEAV?$Container@VWidget@@@@@std@@@std@@AEAAXQEAPEAV?$Container@VWidget@@@@_K1@Z 00000001400484e0 f i engine.obj
 0002:000256a0       ?_Change_array@?$vector@PEAVObject@@V?$allocator@PEAVObject@@@std@@@std@@AEAAXQEAPEAVObject@@_K1@Z 00000001400486a0 f i engine.obj
 0002:00025860       ?_Construct@?$_Tree_comp_alloc@V?$_Tmap_traits@W4Object_Subtype@@PEBVGameObject@@U?$less@W4Object_Subtype@@@std@@V?$allocator@U?$pair@$$CBW4Object_Subtype@@PEBVGameObject@@@std@@@4@$0A@@std@@@std@@QEAAXXZ 0000000140048860 f i engine.obj
 0002:000258f0       ?_Destroy@?$vector@PEAV?$Container@VWidget@@@@V?$allocator@PEAV?$Container@VWidget@@@@@std@@@std@@AEAAXPEAPEAV?$Container@VWidget@@@@0@Z 00000001400488f0 f i engine.obj
 0002:00025970       ?_Destroy@?$vector@PEAVObject@@V?$allocator@PEAVObject@@@std@@@std@@AEAAXPEAPEAVObject@@0@Z 0000000140048970 f i engine.obj
 0002:000259f0       ?_Erase@?$_Tree@V?$_Tmap_traits@W4Object_Subtype@@PEBVGameObject@@U?$less@W4Object_Subtype@@@std@@V?$allocator@U?$pair@$$CBW4Object_Subtype@@PEBVGameObject@@@std@@@4@$0A@@std@@@std@@IEAAXPEAU?$_Tree_node@U?$pair@$$CBW4Object_Subtype@@PEBVGameObject@@@std@@PEAX@2@@Z 00000001400489f0 f i engine.obj
 0002:00025ae0       ?_Extract@?$_Tree_val@U?$_Tree_simple_types@U?$pair@$$CBW4Object_Subtype@@PEBVGameObject@@@std@@@std@@@std@@QEAAPEAU?$_Tree_node@U?$pair@$$CBW4Object_Subtype@@PEBVGameObject@@@std@@PEAX@2@V?$_Tree_const_iterator@V?$_Tree_val@U?$_Tree_simple_types@U?$pair@$$CBW4Object_Subtype@@PEBVGameObject@@@std@@@std@@@std@@@2@@Z 0000000140048ae0 f i engine.obj
 0002:00026280       ?_Free_proxy@?$_Tree_comp_alloc@V?$_Tmap_traits@W4Object_Subtype@@PEBVGameObject@@U?$less@W4Object_Subtype@@@std@@V?$allocator@U?$pair@$$CBW4Object_Subtype@@PEBVGameObject@@@std@@@4@$0A@@std@@@std@@QEAAXXZ 0000000140049280 f i engine.obj
 0002:00026360       ?_Free_proxy@?$_Vector_alloc@U?$_Vec_base_types@PEAV?$Container@VWidget@@@@V?$allocator@PEAV?$Container@VWidget@@@@@std@@@std@@@std@@QEAAXXZ 0000000140049360 f i engine.obj
 0002:00026440       ?_Free_proxy@?$_Vector_alloc@U?$_Vec_base_types@PEAVObject@@V?$allocator@PEAVObject@@@std@@@std@@@std@@QEAAXXZ 0000000140049440 f i engine.obj
 0002:00026520       ?_Freeheadnode@?$_Tree_comp_alloc@V?$_Tmap_traits@W4Object_Subtype@@PEBVGameObject@@U?$less@W4Object_Subtype@@@std@@V?$allocator@U?$pair@$$CBW4Object_Subtype@@PEBVGameObject@@@std@@@4@$0A@@std@@@std@@QEAAXPEAU?$_Tree_node@U?$pair@$$CBW4Object_Subtype@@PEBVGameObject@@@std@@PEAX@2@@Z 0000000140049520 f i engine.obj
 0002:00026590       ?_Get_data@?$_Vector_alloc@U?$_Vec_base_types@PEAV?$Container@VWidget@@@@V?$allocator@PEAV?$Container@VWidget@@@@@std@@@std@@@std@@QEAAAEAV?$_Vector_val@U?$_Simple_types@PEAV?$Container@VWidget@@@@@std@@@2@XZ 0000000140049590 f i engine.obj
 0002:000265f0       ?_Get_data@?$_Vector_alloc@U?$_Vec_base_types@PEAV?$Container@VWidget@@@@V?$allocator@PEAV?$Container@VWidget@@@@@std@@@std@@@std@@QEBAAEBV?$_Vector_val@U?$_Simple_types@PEAV?$Container@VWidget@@@@@std@@@2@XZ 00000001400495f0 f i engine.obj
 0002:00026650       ?_Get_data@?$_Vector_alloc@U?$_Vec_base_types@PEAVObject@@V?$allocator@PEAVObject@@@std@@@std@@@std@@QEAAAEAV?$_Vector_val@U?$_Simple_types@PEAVObject@@@std@@@2@XZ 0000000140049650 f i engine.obj
 0002:000266b0       ?_Get_data@?$_Vector_alloc@U?$_Vec_base_types@PEAVObject@@V?$allocator@PEAVObject@@@std@@@std@@@std@@QEBAAEBV?$_Vector_val@U?$_Simple_types@PEAVObject@@@std@@@2@XZ 00000001400496b0 f i engine.obj
 0002:00026710       ?_Get_first@?$_Compressed_pair@V?$allocator@PEAV?$Container@VWidget@@@@@std@@V?$_Vector_val@U?$_Simple_types@PEAV?$Container@VWidget@@@@@std@@@2@$00@std@@QEAAAEAV?$allocator@PEAV?$Container@VWidget@@@@@2@XZ 0000000140049710 f i engine.obj
 0002:00026760       ?_Get_first@?$_Compressed_pair@V?$allocator@PEAV?$Container@VWidget@@@@@std@@V?$_Vector_val@U?$_Simple_types@PEAV?$Container@VWidget@@@@@std@@@2@$00@std@@QEBAAEBV?$allocator@PEAV?$Container@VWidget@@@@@2@XZ 0000000140049760 f i engine.obj
 0002:000267b0       ?_Get_first@?$_Compressed_pair@V?$allocator@PEAVObject@@@std@@V?$_Vector_val@U?$_Simple_types@PEAVObject@@@std@@@2@$00@std@@QEAAAEAV?$allocator@PEAVObject@@@2@XZ 00000001400497b0 f i engine.obj
 0002:00026800       ?_Get_first@?$_Compressed_pair@V?$allocator@PEAVObject@@@std@@V?$_Vector_val@U?$_Simple_types@PEAVObject@@@std@@@2@$00@std@@QEBAAEBV?$allocator@PEAVObject@@@2@XZ 0000000140049800 f i engine.obj
 0002:00026850       ?_Get_second@?$_Compressed_pair@V?$allocator@PEAV?$Container@VWidget@@@@@std@@V?$_Vector_val@U?$_Simple_types@PEAV?$Container@VWidget@@@@@std@@@2@$00@std@@QEAAAEAV?$_Vector_val@U?$_Simple_types@PEAV?$Container@VWidget@@@@@std@@@2@XZ 0000000140049850 f i engine.obj
 0002:000268a0       ?_Get_second@?$_Compressed_pair@V?$allocator@PEAV?$Container@VWidget@@@@@std@@V?$_Vector_val@U?$_Simple_types@PEAV?$Container@VWidget@@@@@std@@@2@$00@std@@QEBAAEBV?$_Vector_val@U?$_Simple_types@PEAV?$Container@VWidget@@@@@std@@@2@XZ 00000001400498a0 f i engine.obj
 0002:000268f0       ?_Get_second@?$_Compressed_pair@V?$allocator@PEAVObject@@@std@@V?$_Vector_val@U?$_Simple_types@PEAVObject@@@std@@@2@$00@std@@QEAAAEAV?$_Vector_val@U?$_Simple_types@PEAVObject@@@std@@@2@XZ 00000001400498f0 f i engine.obj
 0002:00026940       ?_Get_second@?$_Compressed_pair@V?$allocator@PEAVObject@@@std@@V?$_Vector_val@U?$_Simple_types@PEAVObject@@@std@@@2@$00@std@@QEBAAEBV?$_Vector_val@U?$_Simple_types@PEAVObject@@@std@@@2@XZ 0000000140049940 f i engine.obj
 0002:00026990       ?_Getal@?$_Vector_alloc@U?$_Vec_base_types@PEAV?$Container@VWidget@@@@V?$allocator@PEAV?$Container@VWidget@@@@@std@@@std@@@std@@QEAAAEAV?$allocator@PEAV?$Container@VWidget@@@@@2@XZ 0000000140049990 f i engine.obj
 0002:000269f0       ?_Getal@?$_Vector_alloc@U?$_Vec_base_types@PEAV?$Container@VWidget@@@@V?$allocator@PEAV?$Container@VWidget@@@@@std@@@std@@@std@@QEBAAEBV?$allocator@PEAV?$Container@VWidget@@@@@2@XZ 00000001400499f0 f i engine.obj
 0002:00026a50       ?_Getal@?$_Vector_alloc@U?$_Vec_base_types@PEAVObject@@V?$allocator@PEAVObject@@@std@@@std@@@std@@QEAAAEAV?$allocator@PEAVObject@@@2@XZ 0000000140049a50 f i engine.obj
 0002:00026ab0       ?_Getal@?$_Vector_alloc@U?$_Vec_base_types@PEAVObject@@V?$allocator@PEAVObject@@@std@@@std@@@std@@QEBAAEBV?$allocator@PEAVObject@@@2@XZ 0000000140049ab0 f i engine.obj
 0002:00026b10       ?_Getpfirst@?$_Tree_comp_alloc@V?$_Tmap_traits@W4Object_Subtype@@PEBVGameObject@@U?$less@W4Object_Subtype@@@std@@V?$allocator@U?$pair@$$CBW4Object_Subtype@@PEBVGameObject@@@std@@@4@$0A@@std@@@std@@QEBAPEAPEAU_Iterator_base12@2@XZ 0000000140049b10 f i engine.obj
 0002:00026b70       ?_Getpfirst@?$_Vector_alloc@U?$_Vec_base_types@PEAV?$Container@VWidget@@@@V?$allocator@PEAV?$Container@VWidget@@@@@std@@@std@@@std@@QEBAPEAPEAU_Iterator_base12@2@XZ 0000000140049b70 f i engine.obj
 0002:00026bd0       ?_Getpfirst@?$_Vector_alloc@U?$_Vec_base_types@PEAVObject@@V?$allocator@PEAVObject@@@std@@@std@@@std@@QEBAPEAPEAU_Iterator_base12@2@XZ 0000000140049bd0 f i engine.obj
 0002:00026c30       ?_Has_unused_capacity@?$vector@PEAV?$Container@VWidget@@@@V?$allocator@PEAV?$Container@VWidget@@@@@std@@@std@@AEBA_NXZ 0000000140049c30 f i engine.obj
 0002:00026cd0       ?_Has_unused_capacity@?$vector@PEAVObject@@V?$allocator@PEAVObject@@@std@@@std@@AEBA_NXZ 0000000140049cd0 f i engine.obj
 0002:00026d70       ?_Myend@?$_Vector_alloc@U?$_Vec_base_types@PEAV?$Container@VWidget@@@@V?$allocator@PEAV?$Container@VWidget@@@@@std@@@std@@@std@@QEAAAEAPEAPEAV?$Container@VWidget@@@@XZ 0000000140049d70 f i engine.obj
 0002:00026dd0       ?_Myend@?$_Vector_alloc@U?$_Vec_base_types@PEAV?$Container@VWidget@@@@V?$allocator@PEAV?$Container@VWidget@@@@@std@@@std@@@std@@QEBAAEBQEAPEAV?$Container@VWidget@@@@XZ 0000000140049dd0 f i engine.obj
 0002:00026e30       ?_Myend@?$_Vector_alloc@U?$_Vec_base_types@PEAVObject@@V?$allocator@PEAVObject@@@std@@@std@@@std@@QEAAAEAPEAPEAVObject@@XZ 0000000140049e30 f i engine.obj
 0002:00026e90       ?_Myend@?$_Vector_alloc@U?$_Vec_base_types@PEAVObject@@V?$allocator@PEAVObject@@@std@@@std@@@std@@QEBAAEBQEAPEAVObject@@XZ 0000000140049e90 f i engine.obj
 0002:00026ef0       ?_Myfirst@?$_Vector_alloc@U?$_Vec_base_types@PEAV?$Container@VWidget@@@@V?$allocator@PEAV?$Container@VWidget@@@@@std@@@std@@@std@@QEAAAEAPEAPEAV?$Container@VWidget@@@@XZ 0000000140049ef0 f i engine.obj
 0002:00026f50       ?_Myfirst@?$_Vector_alloc@U?$_Vec_base_types@PEAV?$Container@VWidget@@@@V?$allocator@PEAV?$Container@VWidget@@@@@std@@@std@@@std@@QEBAAEBQEAPEAV?$Container@VWidget@@@@XZ 0000000140049f50 f i engine.obj
 0002:00026fb0       ?_Myfirst@?$_Vector_alloc@U?$_Vec_base_types@PEAVObject@@V?$allocator@PEAVObject@@@std@@@std@@@std@@QEAAAEAPEAPEAVObject@@XZ 0000000140049fb0 f i engine.obj
 0002:00027010       ?_Myfirst@?$_Vector_alloc@U?$_Vec_base_types@PEAVObject@@V?$allocator@PEAVObject@@@std@@@std@@@std@@QEBAAEBQEAPEAVObject@@XZ 000000014004a010 f i engine.obj
 0002:00027070       ?_Mylast@?$_Vector_alloc@U?$_Vec_base_types@PEAV?$Container@VWidget@@@@V?$allocator@PEAV?$Container@VWidget@@@@@std@@@std@@@std@@QEAAAEAPEAPEAV?$Container@VWidget@@@@XZ 000000014004a070 f i engine.obj
 0002:000270d0       ?_Mylast@?$_Vector_alloc@U?$_Vec_base_types@PEAV?$Container@VWidget@@@@V?$allocator@PEAV?$Container@VWidget@@@@@std@@@std@@@std@@QEBAAEBQEAPEAV?$Container@VWidget@@@@XZ 000000014004a0d0 f i engine.obj
 0002:00027130       ?_Mylast@?$_Vector_alloc@U?$_Vec_base_types@PEAVObject@@V?$allocator@PEAVObject@@@std@@@std@@@std@@QEAAAEAPEAPEAVObject@@XZ 000000014004a130 f i engine.obj
 0002:00027190       ?_Mylast@?$_Vector_alloc@U?$_Vec_base_types@PEAVObject@@V?$allocator@PEAVObject@@@std@@@std@@@std@@QEBAAEBQEAPEAVObject@@XZ 000000014004a190 f i engine.obj
 0002:000271f0       ?_Myproxy@?$_Tree_comp_alloc@V?$_Tmap_traits@W4Object_Subtype@@PEBVGameObject@@U?$less@W4Object_Subtype@@@std@@V?$allocator@U?$pair@$$CBW4Object_Subtype@@PEBVGameObject@@@std@@@4@$0A@@std@@@std@@QEAAAEAPEAU_Container_proxy@2@XZ 000000014004a1f0 f i engine.obj
 0002:00027240       ?_Myproxy@?$_Vector_alloc@U?$_Vec_base_types@PEAV?$Container@VWidget@@@@V?$allocator@PEAV?$Container@VWidget@@@@@std@@@std@@@std@@QEAAAEAPEAU_Container_proxy@2@XZ 000000014004a240 f i engine.obj
 0002:00027290       ?_Myproxy@?$_Vector_alloc@U?$_Vec_base_types@PEAVObject@@V?$allocator@PEAVObject@@@std@@@std@@@std@@QEAAAEAPEAU_Container_proxy@2@XZ 000000014004a290 f i engine.obj
 0002:000272e0       ?_Orphan_all@?$_Tree_comp_alloc@V?$_Tmap_traits@W4Object_Subtype@@PEBVGameObject@@U?$less@W4Object_Subtype@@@std@@V?$allocator@U?$pair@$$CBW4Object_Subtype@@PEBVGameObject@@@std@@@4@$0A@@std@@@std@@QEAAXXZ 000000014004a2e0 f i engine.obj
 0002:00027340       ?_Orphan_all@?$_Vector_alloc@U?$_Vec_base_types@PEAV?$Container@VWidget@@@@V?$allocator@PEAV?$Container@VWidget@@@@@std@@@std@@@std@@QEAAXXZ 000000014004a340 f i engine.obj
 0002:000273a0       ?_Orphan_all@?$_Vector_alloc@U?$_Vec_base_types@PEAVObject@@V?$allocator@PEAVObject@@@std@@@std@@@std@@QEAAXXZ 000000014004a3a0 f i engine.obj
 0002:00027400       ?_Orphan_ptr@?$_Tree@V?$_Tmap_traits@W4Object_Subtype@@PEBVGameObject@@U?$less@W4Object_Subtype@@@std@@V?$allocator@U?$pair@$$CBW4Object_Subtype@@PEBVGameObject@@@std@@@4@$0A@@std@@@std@@IEAAXPEAU?$_Tree_node@U?$pair@$$CBW4Object_Subtype@@PEBVGameObject@@@std@@PEAX@2@@Z 000000014004a400 f i engine.obj
 0002:00027560       ?_Orphan_range@?$vector@PEAV?$Container@VWidget@@@@V?$allocator@PEAV?$Container@VWidget@@@@@std@@@std@@AEBAXPEAPEAV?$Container@VWidget@@@@0@Z 000000014004a560 f i engine.obj
 0002:00027690       ?_Orphan_range@?$vector@PEAVObject@@V?$allocator@PEAVObject@@@std@@@std@@AEBAXPEAPEAVObject@@0@Z 000000014004a690 f i engine.obj
 0002:000277c0       ?_Tidy@?$_Tree@V?$_Tmap_traits@W4Object_Subtype@@PEBVGameObject@@U?$less@W4Object_Subtype@@@std@@V?$allocator@U?$pair@$$CBW4Object_Subtype@@PEBVGameObject@@@std@@@4@$0A@@std@@@std@@IEAAXXZ 000000014004a7c0 f i engine.obj
 0002:00027930       ?_Tidy@?$vector@PEAV?$Container@VWidget@@@@V?$allocator@PEAV?$Container@VWidget@@@@@std@@@std@@AEAAXXZ 000000014004a930 f i engine.obj
 0002:00027a90       ?_Tidy@?$vector@PEAVObject@@V?$allocator@PEAVObject@@@std@@@std@@AEAAXXZ 000000014004aa90 f i engine.obj
 0002:00027bf0       ?_Umove@?$vector@PEAV?$Container@VWidget@@@@V?$allocator@PEAV?$Container@VWidget@@@@@std@@@std@@AEAAPEAPEAV?$Container@VWidget@@@@PEAPEAV3@00@Z 000000014004abf0 f i engine.obj
 0002:00027c80       ?_Umove@?$vector@PEAVObject@@V?$allocator@PEAVObject@@@std@@@std@@AEAAPEAPEAVObject@@PEAPEAV3@00@Z 000000014004ac80 f i engine.obj
 0002:00027d10       ?_Umove_if_noexcept1@?$vector@PEAV?$Container@VWidget@@@@V?$allocator@PEAV?$Container@VWidget@@@@@std@@@std@@AEAAXPEAPEAV?$Container@VWidget@@@@00U?$integral_constant@_N$00@2@@Z 000000014004ad10 f i engine.obj
 0002:00027da0       ?_Umove_if_noexcept1@?$vector@PEAVObject@@V?$allocator@PEAVObject@@@std@@@std@@AEAAXPEAPEAVObject@@00U?$integral_constant@_N$00@2@@Z 000000014004ada0 f i engine.obj
 0002:00027e30       ?_Umove_if_noexcept@?$vector@PEAV?$Container@VWidget@@@@V?$allocator@PEAV?$Container@VWidget@@@@@std@@@std@@AEAAXPEAPEAV?$Container@VWidget@@@@00@Z 000000014004ae30 f i engine.obj
 0002:00027ee0       ?_Umove_if_noexcept@?$vector@PEAVObject@@V?$allocator@PEAVObject@@@std@@@std@@AEAAXPEAPEAVObject@@00@Z 000000014004aee0 f i engine.obj
 0002:00027f90       ?_Xlength@?$vector@PEAV?$Container@VWidget@@@@V?$allocator@PEAV?$Container@VWidget@@@@@std@@@std@@CAXXZ 000000014004af90 f i engine.obj
 0002:00027fe0       ?_Xlength@?$vector@PEAVObject@@V?$allocator@PEAVObject@@@std@@@std@@CAXXZ 000000014004afe0 f i engine.obj
 0002:00028030       ?allocate@?$allocator@PEAV?$Container@VWidget@@@@@std@@QEAAPEAPEAV?$Container@VWidget@@@@_K@Z 000000014004b030 f i engine.obj
 0002:00028090       ?allocate@?$allocator@PEAVObject@@@std@@QEAAPEAPEAVObject@@_K@Z 000000014004b090 f i engine.obj
 0002:000280f0       ?capacity@?$vector@PEAV?$Container@VWidget@@@@V?$allocator@PEAV?$Container@VWidget@@@@@std@@@std@@QEBA_KXZ 000000014004b0f0 f i engine.obj
 0002:00028180       ?capacity@?$vector@PEAVObject@@V?$allocator@PEAVObject@@@std@@@std@@QEBA_KXZ 000000014004b180 f i engine.obj
 0002:00028210       ?clear@?$_Tree@V?$_Tmap_traits@W4Object_Subtype@@PEBVGameObject@@U?$less@W4Object_Subtype@@@std@@V?$allocator@U?$pair@$$CBW4Object_Subtype@@PEBVGameObject@@@std@@@4@$0A@@std@@@std@@QEAAXXZ 000000014004b210 f i engine.obj
 0002:00028310       ?clear@?$vector@PEAV?$Container@VWidget@@@@V?$allocator@PEAV?$Container@VWidget@@@@@std@@@std@@QEAAXXZ 000000014004b310 f i engine.obj
 0002:00028400       ?clear@?$vector@PEAVObject@@V?$allocator@PEAVObject@@@std@@@std@@QEAAXXZ 000000014004b400 f i engine.obj
 0002:000284f0       ?deallocate@?$allocator@PEAV?$Container@VWidget@@@@@std@@QEAAXQEAPEAV?$Container@VWidget@@@@_K@Z 000000014004b4f0 f i engine.obj
 0002:00028560       ?deallocate@?$allocator@PEAVObject@@@std@@QEAAXQEAPEAVObject@@_K@Z 000000014004b560 f i engine.obj
 0002:000285d0       ?destroyObjectsDeffered@Engine@@AEAAXXZ 000000014004b5d0 f   engine.obj
 0002:00028710       ?empty@?$vector@PEAV?$Container@VWidget@@@@V?$allocator@PEAV?$Container@VWidget@@@@@std@@@std@@QEBA_NXZ 000000014004b710 f i engine.obj
 0002:000287b0       ?erase@?$_Tree@V?$_Tmap_traits@W4Object_Subtype@@PEBVGameObject@@U?$less@W4Object_Subtype@@@std@@V?$allocator@U?$pair@$$CBW4Object_Subtype@@PEBVGameObject@@@std@@@4@$0A@@std@@@std@@QEAA?AV?$_Tree_iterator@V?$_Tree_val@U?$_Tree_simple_types@U?$pair@$$CBW4Object_Subtype@@PEBVGameObject@@@std@@@std@@@std@@@2@V?$_Tree_const_iterator@V?$_Tree_val@U?$_Tree_simple_types@U?$pair@$$CBW4Object_Subtype@@PEBVGameObject@@@std@@@std@@@std@@@2@0@Z 000000014004b7b0 f i engine.obj
 0002:00028b00       ?erase@?$_Tree@V?$_Tmap_traits@W4Object_Subtype@@PEBVGameObject@@U?$less@W4Object_Subtype@@@std@@V?$allocator@U?$pair@$$CBW4Object_Subtype@@PEBVGameObject@@@std@@@4@$0A@@std@@@std@@QEAA?AV?$_Tree_iterator@V?$_Tree_val@U?$_Tree_simple_types@U?$pair@$$CBW4Object_Subtype@@PEBVGameObject@@@std@@@std@@@std@@@2@V?$_Tree_const_iterator@V?$_Tree_val@U?$_Tree_simple_types@U?$pair@$$CBW4Object_Subtype@@PEBVGameObject@@@std@@@std@@@std@@@2@@Z 000000014004bb00 f i engine.obj
 0002:00028d60       ?max_size@?$_Default_allocator_traits@V?$allocator@PEAV?$Container@VWidget@@@@@std@@@std@@SA_KAEBV?$allocator@PEAV?$Container@VWidget@@@@@2@@Z 000000014004bd60 f i engine.obj
 0002:00028db0       ?max_size@?$_Default_allocator_traits@V?$allocator@PEAVObject@@@std@@@std@@SA_KAEBV?$allocator@PEAVObject@@@2@@Z 000000014004bdb0 f i engine.obj
 0002:00028e00       ?max_size@?$vector@PEAV?$Container@VWidget@@@@V?$allocator@PEAV?$Container@VWidget@@@@@std@@@std@@QEBA_KXZ 000000014004be00 f i engine.obj
 0002:00028e90       ?max_size@?$vector@PEAVObject@@V?$allocator@PEAVObject@@@std@@@std@@QEBA_KXZ 000000014004be90 f i engine.obj
 0002:00028f20       ?pop_back@?$vector@PEAV?$Container@VWidget@@@@V?$allocator@PEAV?$Container@VWidget@@@@@std@@@std@@QEAAXXZ 000000014004bf20 f i engine.obj
 0002:000290b0       ?push_back@?$vector@PEAV?$Container@VWidget@@@@V?$allocator@PEAV?$Container@VWidget@@@@@std@@@std@@QEAAXAEBQEAV?$Container@VWidget@@@@@Z 000000014004c0b0 f i engine.obj
 0002:00029110       ?push_back@?$vector@PEAVObject@@V?$allocator@PEAVObject@@@std@@@std@@QEAAXAEBQEAVObject@@@Z 000000014004c110 f i engine.obj
 0002:00029170       ?size@?$vector@PEAV?$Container@VWidget@@@@V?$allocator@PEAV?$Container@VWidget@@@@@std@@@std@@QEBA_KXZ 000000014004c170 f i engine.obj
 0002:00029200       ?size@?$vector@PEAVObject@@V?$allocator@PEAVObject@@@std@@@std@@QEBA_KXZ 000000014004c200 f i engine.obj
 0002:00029290       WinMain                    000000014004c290 f   main.obj
 0002:00029320       ??$?0$$V@?$_Compressed_pair@V?$allocator@V?$function@$$A6APEAVObject@@PEAV1@AEBVEvent@sf@@@Z@std@@@std@@V?$_Vector_val@U?$_Simple_types@V?$function@$$A6APEAVObject@@PEAV1@AEBVEvent@sf@@@Z@std@@@std@@@2@$00@std@@QEAA@U_Zero_then_variadic_args_t@1@@Z 000000014004c320 f i container-moving.obj
 0002:00029390       ??$?0$$V@?$_Compressed_pair@V?$allocator@V?$function@$$A6AXPEAVObject@@AEBVEvent@sf@@@Z@std@@@std@@V?$_Vector_val@U?$_Simple_types@V?$function@$$A6AXPEAVObject@@AEBVEvent@sf@@@Z@std@@@std@@@2@$00@std@@QEAA@U_Zero_then_variadic_args_t@1@@Z 000000014004c390 f i container-moving.obj
 0002:00029400       ??$?0U?$integral_constant@_N$00@std@@@_Unused_parameter@std@@QEAA@$$QEAU?$integral_constant@_N$00@1@@Z 000000014004c400 f i container-moving.obj
 0002:00029450       ??$?0V?$function@$$A6APEAVObject@@PEAV1@AEBVEvent@sf@@@Z@std@@@?$allocator@U_Container_proxy@std@@@std@@QEAA@AEBV?$allocator@V?$function@$$A6APEAVObject@@PEAV1@AEBVEvent@sf@@@Z@std@@@1@@Z 000000014004c450 f i container-moving.obj
 0002:000294a0       ??$?0V?$function@$$A6AXPEAVObject@@AEBVEvent@sf@@@Z@std@@@?$allocator@U_Container_proxy@std@@@std@@QEAA@AEBV?$allocator@V?$function@$$A6AXPEAVObject@@AEBVEvent@sf@@@Z@std@@@1@@Z 000000014004c4a0 f i container-moving.obj
 0002:000294f0       ??$_Destroy_range1@V?$allocator@V?$function@$$A6APEAVObject@@PEAV1@AEBVEvent@sf@@@Z@std@@@std@@@std@@YAXPEAV?$function@$$A6APEAVObject@@PEAV1@AEBVEvent@sf@@@Z@0@0AEAV?$allocator@V?$function@$$A6APEAVObject@@PEAV1@AEBVEvent@sf@@@Z@std@@@0@U?$integral_constant@_N$0A@@0@@Z 000000014004c4f0 f i container-moving.obj
 0002:000295a0       ??$_Destroy_range1@V?$allocator@V?$function@$$A6AXPEAVObject@@AEBVEvent@sf@@@Z@std@@@std@@@std@@YAXPEAV?$function@$$A6AXPEAVObject@@AEBVEvent@sf@@@Z@0@0AEAV?$allocator@V?$function@$$A6AXPEAVObject@@AEBVEvent@sf@@@Z@std@@@0@U?$integral_constant@_N$0A@@0@@Z 000000014004c5a0 f i container-moving.obj
 0002:00029650       ??$_Destroy_range@V?$allocator@V?$function@$$A6APEAVObject@@PEAV1@AEBVEvent@sf@@@Z@std@@@std@@@std@@YAXPEAV?$function@$$A6APEAVObject@@PEAV1@AEBVEvent@sf@@@Z@0@0AEAV?$allocator@V?$function@$$A6APEAVObject@@PEAV1@AEBVEvent@sf@@@Z@std@@@0@@Z 000000014004c650 f i container-moving.obj
 0002:000296d0       ??$_Destroy_range@V?$allocator@V?$function@$$A6AXPEAVObject@@AEBVEvent@sf@@@Z@std@@@std@@@std@@YAXPEAV?$function@$$A6AXPEAVObject@@AEBVEvent@sf@@@Z@0@0AEAV?$allocator@V?$function@$$A6AXPEAVObject@@AEBVEvent@sf@@@Z@std@@@0@@Z 000000014004c6d0 f i container-moving.obj
 0002:00029750       ??$_Emplace_back@AEAV?$function@$$A6APEAVObject@@PEAV1@AEBVEvent@sf@@@Z@std@@@?$_Uninitialized_backout_al@PEAV?$function@$$A6APEAVObject@@PEAV1@AEBVEvent@sf@@@Z@std@@V?$allocator@V?$function@$$A6APEAVObject@@PEAV1@AEBVEvent@sf@@@Z@std@@@2@@std@@QEAAXAEAV?$function@$$A6APEAVObject@@PEAV1@AEBVEvent@sf@@@Z@1@@Z 000000014004c750 f i container-moving.obj
 0002:00029810       ??$_Emplace_back@AEAV?$function@$$A6AXPEAVObject@@AEBVEvent@sf@@@Z@std@@@?$_Uninitialized_backout_al@PEAV?$function@$$A6AXPEAVObject@@AEBVEvent@sf@@@Z@std@@V?$allocator@V?$function@$$A6AXPEAVObject@@AEBVEvent@sf@@@Z@std@@@2@@std@@QEAAXAEAV?$function@$$A6AXPEAVObject@@AEBVEvent@sf@@@Z@1@@Z 000000014004c810 f i container-moving.obj
 0002:000298d0       ??$_Emplace_back@V?$function@$$A6APEAVObject@@PEAV1@AEBVEvent@sf@@@Z@std@@@?$_Uninitialized_backout_al@PEAV?$function@$$A6APEAVObject@@PEAV1@AEBVEvent@sf@@@Z@std@@V?$allocator@V?$function@$$A6APEAVObject@@PEAV1@AEBVEvent@sf@@@Z@std@@@2@@std@@QEAAX$$QEAV?$function@$$A6APEAVObject@@PEAV1@AEBVEvent@sf@@@Z@1@@Z 000000014004c8d0 f i container-moving.obj
 0002:00029990       ??$_Emplace_back@V?$function@$$A6AXPEAVObject@@AEBVEvent@sf@@@Z@std@@@?$_Uninitialized_backout_al@PEAV?$function@$$A6AXPEAVObject@@AEBVEvent@sf@@@Z@std@@V?$allocator@V?$function@$$A6AXPEAVObject@@AEBVEvent@sf@@@Z@std@@@2@@std@@QEAAX$$QEAV?$function@$$A6AXPEAVObject@@AEBVEvent@sf@@@Z@1@@Z 000000014004c990 f i container-moving.obj
 0002:00029a50       ??$_Emplace_back_with_unused_capacity@AEBV?$function@$$A6APEAVObject@@PEAV1@AEBVEvent@sf@@@Z@std@@@?$vector@V?$function@$$A6APEAVObject@@PEAV1@AEBVEvent@sf@@@Z@std@@V?$allocator@V?$function@$$A6APEAVObject@@PEAV1@AEBVEvent@sf@@@Z@std@@@2@@std@@AEAA@AEBV?$function@$$A6APEAVObject@@PEAV1@AEBVEvent@sf@@@Z@1@@Z 000000014004ca50 f i container-moving.obj
 0002:00029ba0       ??$_Emplace_back_with_unused_capacity@AEBV?$function@$$A6AXPEAVObject@@AEBVEvent@sf@@@Z@std@@@?$vector@V?$function@$$A6AXPEAVObject@@AEBVEvent@sf@@@Z@std@@V?$allocator@V?$function@$$A6AXPEAVObject@@AEBVEvent@sf@@@Z@std@@@2@@std@@AEAA@AEBV?$function@$$A6AXPEAVObject@@AEBVEvent@sf@@@Z@1@@Z 000000014004cba0 f i container-moving.obj
 0002:00029cf0       ??$_Emplace_reallocate@AEBV?$function@$$A6APEAVObject@@PEAV1@AEBVEvent@sf@@@Z@std@@@?$vector@V?$function@$$A6APEAVObject@@PEAV1@AEBVEvent@sf@@@Z@std@@V?$allocator@V?$function@$$A6APEAVObject@@PEAV1@AEBVEvent@sf@@@Z@std@@@2@@std@@QEAAPEAV?$function@$$A6APEAVObject@@PEAV1@AEBVEvent@sf@@@Z@1@QEAV21@AEBV21@@Z 000000014004ccf0 f i container-moving.obj
 0002:0002a010       ??$_Emplace_reallocate@AEBV?$function@$$A6AXPEAVObject@@AEBVEvent@sf@@@Z@std@@@?$vector@V?$function@$$A6AXPEAVObject@@AEBVEvent@sf@@@Z@std@@V?$allocator@V?$function@$$A6AXPEAVObject@@AEBVEvent@sf@@@Z@std@@@2@@std@@QEAAPEAV?$function@$$A6AXPEAVObject@@AEBVEvent@sf@@@Z@1@QEAV21@AEBV21@@Z 000000014004d010 f i container-moving.obj
 0002:0002a330       ??$_Get_size_of_n@$0EA@@std@@YA_K_K@Z 000000014004d330 f i container-moving.obj
 0002:0002a3c0       ??$_Ptr_copy_cat@V?$function@$$A6APEAVObject@@PEAV1@AEBVEvent@sf@@@Z@std@@V12@@std@@YA?AU_General_ptr_iterator_tag@0@AEBQEAV?$function@$$A6APEAVObject@@PEAV1@AEBVEvent@sf@@@Z@0@0@Z 000000014004d3c0 f i container-moving.obj
 0002:0002a430       ??$_Ptr_copy_cat@V?$function@$$A6AXPEAVObject@@AEBVEvent@sf@@@Z@std@@V12@@std@@YA?AU_General_ptr_iterator_tag@0@AEBQEAV?$function@$$A6AXPEAVObject@@AEBVEvent@sf@@@Z@0@0@Z 000000014004d430 f i container-moving.obj
 0002:0002a4a0       ??$_Ptr_move_cat@V?$function@$$A6APEAVObject@@PEAV1@AEBVEvent@sf@@@Z@std@@V12@@std@@YA?AU_General_ptr_iterator_tag@0@AEBQEAV?$function@$$A6APEAVObject@@PEAV1@AEBVEvent@sf@@@Z@0@0@Z 000000014004d4a0 f i container-moving.obj
 0002:0002a510       ??$_Ptr_move_cat@V?$function@$$A6AXPEAVObject@@AEBVEvent@sf@@@Z@std@@V12@@std@@YA?AU_General_ptr_iterator_tag@0@AEBQEAV?$function@$$A6AXPEAVObject@@AEBVEvent@sf@@@Z@0@0@Z 000000014004d510 f i container-moving.obj
 0002:0002a580       ??$_Rechecked@PEAV?$function@$$A6APEAVObject@@PEAV1@AEBVEvent@sf@@@Z@std@@PEAV12@@std@@YAAEAPEAV?$function@$$A6APEAVObject@@PEAV1@AEBVEvent@sf@@@Z@0@AEAPEAV10@QEAV10@@Z 000000014004d580 f i container-moving.obj
 0002:0002a5f0       ??$_Rechecked@PEAV?$function@$$A6AXPEAVObject@@AEBVEvent@sf@@@Z@std@@PEAV12@@std@@YAAEAPEAV?$function@$$A6AXPEAVObject@@AEBVEvent@sf@@@Z@0@AEAPEAV10@QEAV10@@Z 000000014004d5f0 f i container-moving.obj
 0002:0002a660       ??$_Unchecked@PEAV?$function@$$A6APEAVObject@@PEAV1@AEBVEvent@sf@@@Z@std@@@std@@YAPEAV?$function@$$A6APEAVObject@@PEAV1@AEBVEvent@sf@@@Z@0@PEAV10@@Z 000000014004d660 f i container-moving.obj
 0002:0002a6b0       ??$_Unchecked@PEAV?$function@$$A6AXPEAVObject@@AEBVEvent@sf@@@Z@std@@@std@@YAPEAV?$function@$$A6AXPEAVObject@@AEBVEvent@sf@@@Z@0@PEAV10@@Z 000000014004d6b0 f i container-moving.obj
 0002:0002a700       ??$_Unfancy@V?$function@$$A6APEAVObject@@PEAV1@AEBVEvent@sf@@@Z@std@@@std@@YAPEAV?$function@$$A6APEAVObject@@PEAV1@AEBVEvent@sf@@@Z@0@PEAV10@@Z 000000014004d700 f i container-moving.obj
 0002:0002a750       ??$_Unfancy@V?$function@$$A6AXPEAVObject@@AEBVEvent@sf@@@Z@std@@@std@@YAPEAV?$function@$$A6AXPEAVObject@@AEBVEvent@sf@@@Z@0@PEAV10@@Z 000000014004d750 f i container-moving.obj
 0002:0002a7a0       ??$_Uninitialized_copy@PEAV?$function@$$A6APEAVObject@@PEAV1@AEBVEvent@sf@@@Z@std@@PEAV12@V?$allocator@V?$function@$$A6APEAVObject@@PEAV1@AEBVEvent@sf@@@Z@std@@@2@@std@@YAPEAV?$function@$$A6APEAVObject@@PEAV1@AEBVEvent@sf@@@Z@0@QEAV10@0PEAV10@AEAV?$allocator@V?$function@$$A6APEAVObject@@PEAV1@AEBVEvent@sf@@@Z@std@@@0@@Z 000000014004d7a0 f i container-moving.obj
 0002:0002a8e0       ??$_Uninitialized_copy@PEAV?$function@$$A6AXPEAVObject@@AEBVEvent@sf@@@Z@std@@PEAV12@V?$allocator@V?$function@$$A6AXPEAVObject@@AEBVEvent@sf@@@Z@std@@@2@@std@@YAPEAV?$function@$$A6AXPEAVObject@@AEBVEvent@sf@@@Z@0@QEAV10@0PEAV10@AEAV?$allocator@V?$function@$$A6AXPEAVObject@@AEBVEvent@sf@@@Z@std@@@0@@Z 000000014004d8e0 f i container-moving.obj
 0002:0002aa20       ??$_Uninitialized_copy_al_unchecked@PEAV?$function@$$A6APEAVObject@@PEAV1@AEBVEvent@sf@@@Z@std@@PEAV12@V?$allocator@V?$function@$$A6APEAVObject@@PEAV1@AEBVEvent@sf@@@Z@std@@@2@@std@@YAPEAV?$function@$$A6APEAVObject@@PEAV1@AEBVEvent@sf@@@Z@0@PEAV10@QEAV10@1AEAV?$allocator@V?$function@$$A6APEAVObject@@PEAV1@AEBVEvent@sf@@@Z@std@@@0@U_General_ptr_iterator_tag@0@U_Unused_parameter@0@@Z 000000014004da20 f i container-moving.obj
 0002:0002ab30       ??$_Uninitialized_copy_al_unchecked@PEAV?$function@$$A6AXPEAVObject@@AEBVEvent@sf@@@Z@std@@PEAV12@V?$allocator@V?$function@$$A6AXPEAVObject@@AEBVEvent@sf@@@Z@std@@@2@@std@@YAPEAV?$function@$$A6AXPEAVObject@@AEBVEvent@sf@@@Z@0@PEAV10@QEAV10@1AEAV?$allocator@V?$function@$$A6AXPEAVObject@@AEBVEvent@sf@@@Z@std@@@0@U_General_ptr_iterator_tag@0@U_Unused_parameter@0@@Z 000000014004db30 f i container-moving.obj
 0002:0002ac40       ??$_Uninitialized_move@PEAV?$function@$$A6APEAVObject@@PEAV1@AEBVEvent@sf@@@Z@std@@PEAV12@V?$allocator@V?$function@$$A6APEAVObject@@PEAV1@AEBVEvent@sf@@@Z@std@@@2@@std@@YAPEAV?$function@$$A6APEAVObject@@PEAV1@AEBVEvent@sf@@@Z@0@QEAV10@0PEAV10@AEAV?$allocator@V?$function@$$A6APEAVObject@@PEAV1@AEBVEvent@sf@@@Z@std@@@0@@Z 000000014004dc40 f i container-moving.obj
 0002:0002ad80       ??$_Uninitialized_move@PEAV?$function@$$A6AXPEAVObject@@AEBVEvent@sf@@@Z@std@@PEAV12@V?$allocator@V?$function@$$A6AXPEAVObject@@AEBVEvent@sf@@@Z@std@@@2@@std@@YAPEAV?$function@$$A6AXPEAVObject@@AEBVEvent@sf@@@Z@0@QEAV10@0PEAV10@AEAV?$allocator@V?$function@$$A6AXPEAVObject@@AEBVEvent@sf@@@Z@std@@@0@@Z 000000014004dd80 f i container-moving.obj
 0002:0002aec0       ??$_Uninitialized_move_al_unchecked@PEAV?$function@$$A6APEAVObject@@PEAV1@AEBVEvent@sf@@@Z@std@@PEAV12@V?$allocator@V?$function@$$A6APEAVObject@@PEAV1@AEBVEvent@sf@@@Z@std@@@2@@std@@YAPEAV?$function@$$A6APEAVObject@@PEAV1@AEBVEvent@sf@@@Z@0@PEAV10@QEAV10@1AEAV?$allocator@V?$function@$$A6APEAVObject@@PEAV1@AEBVEvent@sf@@@Z@std@@@0@U_General_ptr_iterator_tag@0@U_Unused_parameter@0@@Z 000000014004dec0 f i container-moving.obj
 0002:0002afd0       ??$_Uninitialized_move_al_unchecked@PEAV?$function@$$A6AXPEAVObject@@AEBVEvent@sf@@@Z@std@@PEAV12@V?$allocator@V?$function@$$A6AXPEAVObject@@AEBVEvent@sf@@@Z@std@@@2@@std@@YAPEAV?$function@$$A6AXPEAVObject@@AEBVEvent@sf@@@Z@0@PEAV10@QEAV10@1AEAV?$allocator@V?$function@$$A6AXPEAVObject@@AEBVEvent@sf@@@Z@std@@@0@U_General_ptr_iterator_tag@0@U_Unused_parameter@0@@Z 000000014004dfd0 f i container-moving.obj
 0002:0002b0e0       ??$addressof@V?$_Vector_val@U?$_Simple_types@V?$function@$$A6APEAVObject@@PEAV1@AEBVEvent@sf@@@Z@std@@@std@@@std@@@std@@YAPEAV?$_Vector_val@U?$_Simple_types@V?$function@$$A6APEAVObject@@PEAV1@AEBVEvent@sf@@@Z@std@@@std@@@0@AEAV10@@Z 000000014004e0e0 f i container-moving.obj
 0002:0002b130       ??$addressof@V?$_Vector_val@U?$_Simple_types@V?$function@$$A6AXPEAVObject@@AEBVEvent@sf@@@Z@std@@@std@@@std@@@std@@YAPEAV?$_Vector_val@U?$_Simple_types@V?$function@$$A6AXPEAVObject@@AEBVEvent@sf@@@Z@std@@@std@@@0@AEAV10@@Z 000000014004e130 f i container-moving.obj
 0002:0002b180       ??$construct@V?$function@$$A6APEAVObject@@PEAV1@AEBVEvent@sf@@@Z@std@@AEAV12@@?$_Default_allocator_traits@V?$allocator@V?$function@$$A6APEAVObject@@PEAV1@AEBVEvent@sf@@@Z@std@@@std@@@std@@SAXAEAV?$allocator@V?$function@$$A6APEAVObject@@PEAV1@AEBVEvent@sf@@@Z@std@@@1@QEAV?$function@$$A6APEAVObject@@PEAV1@AEBVEvent@sf@@@Z@1@AEAV31@@Z 000000014004e180 f i container-moving.obj
 0002:0002b210       ??$construct@V?$function@$$A6APEAVObject@@PEAV1@AEBVEvent@sf@@@Z@std@@AEBV12@@?$_Default_allocator_traits@V?$allocator@V?$function@$$A6APEAVObject@@PEAV1@AEBVEvent@sf@@@Z@std@@@std@@@std@@SAXAEAV?$allocator@V?$function@$$A6APEAVObject@@PEAV1@AEBVEvent@sf@@@Z@std@@@1@QEAV?$function@$$A6APEAVObject@@PEAV1@AEBVEvent@sf@@@Z@1@AEBV31@@Z 000000014004e210 f i container-moving.obj
 0002:0002b2a0       ??$construct@V?$function@$$A6APEAVObject@@PEAV1@AEBVEvent@sf@@@Z@std@@V12@@?$_Default_allocator_traits@V?$allocator@V?$function@$$A6APEAVObject@@PEAV1@AEBVEvent@sf@@@Z@std@@@std@@@std@@SAXAEAV?$allocator@V?$function@$$A6APEAVObject@@PEAV1@AEBVEvent@sf@@@Z@std@@@1@QEAV?$function@$$A6APEAVObject@@PEAV1@AEBVEvent@sf@@@Z@1@$$QEAV31@@Z 000000014004e2a0 f i container-moving.obj
 0002:0002b330       ??$construct@V?$function@$$A6AXPEAVObject@@AEBVEvent@sf@@@Z@std@@AEAV12@@?$_Default_allocator_traits@V?$allocator@V?$function@$$A6AXPEAVObject@@AEBVEvent@sf@@@Z@std@@@std@@@std@@SAXAEAV?$allocator@V?$function@$$A6AXPEAVObject@@AEBVEvent@sf@@@Z@std@@@1@QEAV?$function@$$A6AXPEAVObject@@AEBVEvent@sf@@@Z@1@AEAV31@@Z 000000014004e330 f i container-moving.obj
 0002:0002b3c0       ??$construct@V?$function@$$A6AXPEAVObject@@AEBVEvent@sf@@@Z@std@@AEBV12@@?$_Default_allocator_traits@V?$allocator@V?$function@$$A6AXPEAVObject@@AEBVEvent@sf@@@Z@std@@@std@@@std@@SAXAEAV?$allocator@V?$function@$$A6AXPEAVObject@@AEBVEvent@sf@@@Z@std@@@1@QEAV?$function@$$A6AXPEAVObject@@AEBVEvent@sf@@@Z@1@AEBV31@@Z 000000014004e3c0 f i container-moving.obj
 0002:0002b450       ??$construct@V?$function@$$A6AXPEAVObject@@AEBVEvent@sf@@@Z@std@@V12@@?$_Default_allocator_traits@V?$allocator@V?$function@$$A6AXPEAVObject@@AEBVEvent@sf@@@Z@std@@@std@@@std@@SAXAEAV?$allocator@V?$function@$$A6AXPEAVObject@@AEBVEvent@sf@@@Z@std@@@1@QEAV?$function@$$A6AXPEAVObject@@AEBVEvent@sf@@@Z@1@$$QEAV31@@Z 000000014004e450 f i container-moving.obj
 0002:0002b4e0       ??$destroy@V?$function@$$A6APEAVObject@@PEAV1@AEBVEvent@sf@@@Z@std@@@?$_Default_allocator_traits@V?$allocator@V?$function@$$A6APEAVObject@@PEAV1@AEBVEvent@sf@@@Z@std@@@std@@@std@@SAXAEAV?$allocator@V?$function@$$A6APEAVObject@@PEAV1@AEBVEvent@sf@@@Z@std@@@1@QEAV?$function@$$A6APEAVObject@@PEAV1@AEBVEvent@sf@@@Z@1@@Z 000000014004e4e0 f i container-moving.obj
 0002:0002b540       ??$destroy@V?$function@$$A6AXPEAVObject@@AEBVEvent@sf@@@Z@std@@@?$_Default_allocator_traits@V?$allocator@V?$function@$$A6AXPEAVObject@@AEBVEvent@sf@@@Z@std@@@std@@@std@@SAXAEAV?$allocator@V?$function@$$A6AXPEAVObject@@AEBVEvent@sf@@@Z@std@@@1@QEAV?$function@$$A6AXPEAVObject@@AEBVEvent@sf@@@Z@1@@Z 000000014004e540 f i container-moving.obj
 0002:0002b5a0       ??$emplace_back@AEBV?$function@$$A6APEAVObject@@PEAV1@AEBVEvent@sf@@@Z@std@@@?$vector@V?$function@$$A6APEAVObject@@PEAV1@AEBVEvent@sf@@@Z@std@@V?$allocator@V?$function@$$A6APEAVObject@@PEAV1@AEBVEvent@sf@@@Z@std@@@2@@std@@QEAA@AEBV?$function@$$A6APEAVObject@@PEAV1@AEBVEvent@sf@@@Z@1@@Z 000000014004e5a0 f i container-moving.obj
 0002:0002b670       ??$emplace_back@AEBV?$function@$$A6AXPEAVObject@@AEBVEvent@sf@@@Z@std@@@?$vector@V?$function@$$A6AXPEAVObject@@AEBVEvent@sf@@@Z@std@@V?$allocator@V?$function@$$A6AXPEAVObject@@AEBVEvent@sf@@@Z@std@@@2@@std@@QEAA@AEBV?$function@$$A6AXPEAVObject@@AEBVEvent@sf@@@Z@1@@Z 000000014004e670 f i container-moving.obj
 0002:0002b740       ??$forward@AEAV?$function@$$A6APEAVObject@@PEAV1@AEBVEvent@sf@@@Z@std@@@std@@YAAEAV?$function@$$A6APEAVObject@@PEAV1@AEBVEvent@sf@@@Z@0@AEAV10@@Z 000000014004e740 f i container-moving.obj
 0002:0002b790       ??$forward@AEAV?$function@$$A6AXPEAVObject@@AEBVEvent@sf@@@Z@std@@@std@@YAAEAV?$function@$$A6AXPEAVObject@@AEBVEvent@sf@@@Z@0@AEAV10@@Z 000000014004e790 f i container-moving.obj
 0002:0002b7e0       ??$forward@AEBV?$function@$$A6APEAVObject@@PEAV1@AEBVEvent@sf@@@Z@std@@@std@@YAAEBV?$function@$$A6APEAVObject@@PEAV1@AEBVEvent@sf@@@Z@0@AEBV10@@Z 000000014004e7e0 f i container-moving.obj
 0002:0002b830       ??$forward@AEBV?$function@$$A6AXPEAVObject@@AEBVEvent@sf@@@Z@std@@@std@@YAAEBV?$function@$$A6AXPEAVObject@@AEBVEvent@sf@@@Z@0@AEBV10@@Z 000000014004e830 f i container-moving.obj
 0002:0002b880       ??$forward@AEBVEvent@sf@@@std@@YAAEBVEvent@sf@@AEBV12@@Z 000000014004e880 f i container-moving.obj
 0002:0002b8d0       ??$forward@PEAVObject@@@std@@YA$$QEAPEAVObject@@AEAPEAV1@@Z 000000014004e8d0 f i container-moving.obj
 0002:0002b920       ??$forward@V?$function@$$A6APEAVObject@@PEAV1@AEBVEvent@sf@@@Z@std@@@std@@YA$$QEAV?$function@$$A6APEAVObject@@PEAV1@AEBVEvent@sf@@@Z@0@AEAV10@@Z 000000014004e920 f i container-moving.obj
 0002:0002b970       ??$forward@V?$function@$$A6AXPEAVObject@@AEBVEvent@sf@@@Z@std@@@std@@YA$$QEAV?$function@$$A6AXPEAVObject@@AEBVEvent@sf@@@Z@0@AEAV10@@Z 000000014004e970 f i container-moving.obj
 0002:0002b9c0       ??$move@AEAV?$function@$$A6APEAVObject@@PEAV1@AEBVEvent@sf@@@Z@std@@@std@@YA$$QEAV?$function@$$A6APEAVObject@@PEAV1@AEBVEvent@sf@@@Z@0@AEAV10@@Z 000000014004e9c0 f i container-moving.obj
 0002:0002ba10       ??$move@AEAV?$function@$$A6AXPEAVObject@@AEBVEvent@sf@@@Z@std@@@std@@YA$$QEAV?$function@$$A6AXPEAVObject@@AEBVEvent@sf@@@Z@0@AEAV10@@Z 000000014004ea10 f i container-moving.obj
 0002:0002ba60       ??0?$ContainerMoving@VObject@@@@QEAA@AEBV?$Vector2@M@sf@@0@Z 000000014004ea60 f i container-moving.obj
 0002:0002bb80       ??0?$_Func_class@PEAVObject@@PEAV1@AEBVEvent@sf@@@std@@QEAA@XZ 000000014004eb80 f i container-moving.obj
 0002:0002bbe0       ??0?$_Func_class@XPEAVObject@@AEBVEvent@sf@@@std@@QEAA@XZ 000000014004ebe0 f i container-moving.obj
 0002:0002bc40       ??0?$_Uninitialized_backout_al@PEAV?$function@$$A6APEAVObject@@PEAV1@AEBVEvent@sf@@@Z@std@@V?$allocator@V?$function@$$A6APEAVObject@@PEAV1@AEBVEvent@sf@@@Z@std@@@2@@std@@QEAA@PEAV?$function@$$A6APEAVObject@@PEAV1@AEBVEvent@sf@@@Z@1@AEAV?$allocator@V?$function@$$A6APEAVObject@@PEAV1@AEBVEvent@sf@@@Z@std@@@1@@Z 000000014004ec40 f i container-moving.obj
 0002:0002bce0       ??0?$_Uninitialized_backout_al@PEAV?$function@$$A6AXPEAVObject@@AEBVEvent@sf@@@Z@std@@V?$allocator@V?$function@$$A6AXPEAVObject@@AEBVEvent@sf@@@Z@std@@@2@@std@@QEAA@PEAV?$function@$$A6AXPEAVObject@@AEBVEvent@sf@@@Z@1@AEAV?$allocator@V?$function@$$A6AXPEAVObject@@AEBVEvent@sf@@@Z@std@@@1@@Z 000000014004ece0 f i container-moving.obj
 0002:0002bd80       ??0?$_Vector_alloc@U?$_Vec_base_types@V?$function@$$A6APEAVObject@@PEAV1@AEBVEvent@sf@@@Z@std@@V?$allocator@V?$function@$$A6APEAVObject@@PEAV1@AEBVEvent@sf@@@Z@std@@@2@@std@@@std@@QEAA@XZ 000000014004ed80 f i container-moving.obj
 0002:0002be00       ??0?$_Vector_alloc@U?$_Vec_base_types@V?$function@$$A6AXPEAVObject@@AEBVEvent@sf@@@Z@std@@V?$allocator@V?$function@$$A6AXPEAVObject@@AEBVEvent@sf@@@Z@std@@@2@@std@@@std@@QEAA@XZ 000000014004ee00 f i container-moving.obj
 0002:0002be80       ??0?$_Vector_const_iterator@V?$_Vector_val@U?$_Simple_types@V?$function@$$A6APEAVObject@@PEAV1@AEBVEvent@sf@@@Z@std@@@std@@@std@@@std@@QEAA@PEAV?$function@$$A6APEAVObject@@PEAV1@AEBVEvent@sf@@@Z@1@PEBU_Container_base12@1@@Z 000000014004ee80 f i container-moving.obj
 0002:0002bf20       ??0?$_Vector_const_iterator@V?$_Vector_val@U?$_Simple_types@V?$function@$$A6AXPEAVObject@@AEBVEvent@sf@@@Z@std@@@std@@@std@@@std@@QEAA@PEAV?$function@$$A6AXPEAVObject@@AEBVEvent@sf@@@Z@1@PEBU_Container_base12@1@@Z 000000014004ef20 f i container-moving.obj
 0002:0002bfc0       ??0?$_Vector_iterator@V?$_Vector_val@U?$_Simple_types@V?$function@$$A6APEAVObject@@PEAV1@AEBVEvent@sf@@@Z@std@@@std@@@std@@@std@@QEAA@PEAV?$function@$$A6APEAVObject@@PEAV1@AEBVEvent@sf@@@Z@1@PEBU_Container_base12@1@@Z 000000014004efc0 f i container-moving.obj
 0002:0002c040       ??0?$_Vector_iterator@V?$_Vector_val@U?$_Simple_types@V?$function@$$A6AXPEAVObject@@AEBVEvent@sf@@@Z@std@@@std@@@std@@@std@@QEAA@PEAV?$function@$$A6AXPEAVObject@@AEBVEvent@sf@@@Z@1@PEBU_Container_base12@1@@Z 000000014004f040 f i container-moving.obj
 0002:0002c0c0       ??0?$_Vector_val@U?$_Simple_types@V?$function@$$A6APEAVObject@@PEAV1@AEBVEvent@sf@@@Z@std@@@std@@@std@@QEAA@XZ 000000014004f0c0 f i container-moving.obj
 0002:0002c160       ??0?$_Vector_val@U?$_Simple_types@V?$function@$$A6AXPEAVObject@@AEBVEvent@sf@@@Z@std@@@std@@@std@@QEAA@XZ 000000014004f160 f i container-moving.obj
 0002:0002c200       ??0?$allocator@V?$function@$$A6APEAVObject@@PEAV1@AEBVEvent@sf@@@Z@std@@@std@@QEAA@XZ 000000014004f200 f i container-moving.obj
 0002:0002c250       ??0?$allocator@V?$function@$$A6AXPEAVObject@@AEBVEvent@sf@@@Z@std@@@std@@QEAA@XZ 000000014004f250 f i container-moving.obj
 0002:0002c2a0       ??0?$function@$$A6APEAVObject@@PEAV1@AEBVEvent@sf@@@Z@std@@QEAA@$$QEAV01@@Z 000000014004f2a0 f i container-moving.obj
 0002:0002c340       ??0?$function@$$A6APEAVObject@@PEAV1@AEBVEvent@sf@@@Z@std@@QEAA@AEBV01@@Z 000000014004f340 f i container-moving.obj
 0002:0002c3d0       ??0?$function@$$A6AXPEAVObject@@AEBVEvent@sf@@@Z@std@@QEAA@$$QEAV01@@Z 000000014004f3d0 f i container-moving.obj
 0002:0002c470       ??0?$function@$$A6AXPEAVObject@@AEBVEvent@sf@@@Z@std@@QEAA@AEBV01@@Z 000000014004f470 f i container-moving.obj
 0002:0002c500       ??0?$vector@V?$function@$$A6APEAVObject@@PEAV1@AEBVEvent@sf@@@Z@std@@V?$allocator@V?$function@$$A6APEAVObject@@PEAV1@AEBVEvent@sf@@@Z@std@@@2@@std@@QEAA@XZ 000000014004f500 f i container-moving.obj
 0002:0002c570       ??0?$vector@V?$function@$$A6AXPEAVObject@@AEBVEvent@sf@@@Z@std@@V?$allocator@V?$function@$$A6AXPEAVObject@@AEBVEvent@sf@@@Z@std@@@2@@std@@QEAA@XZ 000000014004f570 f i container-moving.obj
 0002:0002c5e0       ??1?$ContainerMoving@VObject@@@@UEAA@XZ 000000014004f5e0 f i container-moving.obj
 0002:0002c6a0       ??1?$_Func_class@PEAVObject@@PEAV1@AEBVEvent@sf@@@std@@QEAA@XZ 000000014004f6a0 f i container-moving.obj
 0002:0002c6f0       ??1?$_Func_class@XPEAVObject@@AEBVEvent@sf@@@std@@QEAA@XZ 000000014004f6f0 f i container-moving.obj
 0002:0002c740       ??1?$_Uninitialized_backout_al@PEAV?$function@$$A6APEAVObject@@PEAV1@AEBVEvent@sf@@@Z@std@@V?$allocator@V?$function@$$A6APEAVObject@@PEAV1@AEBVEvent@sf@@@Z@std@@@2@@std@@QEAA@XZ 000000014004f740 f i container-moving.obj
 0002:0002c7c0       ??1?$_Uninitialized_backout_al@PEAV?$function@$$A6AXPEAVObject@@AEBVEvent@sf@@@Z@std@@V?$allocator@V?$function@$$A6AXPEAVObject@@AEBVEvent@sf@@@Z@std@@@2@@std@@QEAA@XZ 000000014004f7c0 f i container-moving.obj
 0002:0002c840       ??1?$_Vector_alloc@U?$_Vec_base_types@V?$function@$$A6APEAVObject@@PEAV1@AEBVEvent@sf@@@Z@std@@V?$allocator@V?$function@$$A6APEAVObject@@PEAV1@AEBVEvent@sf@@@Z@std@@@2@@std@@@std@@QEAA@XZ 000000014004f840 f i container-moving.obj
 0002:0002c8a0       ??1?$_Vector_alloc@U?$_Vec_base_types@V?$function@$$A6AXPEAVObject@@AEBVEvent@sf@@@Z@std@@V?$allocator@V?$function@$$A6AXPEAVObject@@AEBVEvent@sf@@@Z@std@@@2@@std@@@std@@QEAA@XZ 000000014004f8a0 f i container-moving.obj
 0002:0002c900       ??1?$_Vector_const_iterator@V?$_Vector_val@U?$_Simple_types@V?$function@$$A6APEAVObject@@PEAV1@AEBVEvent@sf@@@Z@std@@@std@@@std@@@std@@QEAA@XZ 000000014004f900 f i container-moving.obj
 0002:0002c950       ??1?$_Vector_const_iterator@V?$_Vector_val@U?$_Simple_types@V?$function@$$A6AXPEAVObject@@AEBVEvent@sf@@@Z@std@@@std@@@std@@@std@@QEAA@XZ 000000014004f950 f i container-moving.obj
 0002:0002c9a0       ??1?$_Vector_iterator@V?$_Vector_val@U?$_Simple_types@V?$function@$$A6APEAVObject@@PEAV1@AEBVEvent@sf@@@Z@std@@@std@@@std@@@std@@QEAA@XZ 000000014004f9a0 f i container-moving.obj
 0002:0002c9f0       ??1?$_Vector_iterator@V?$_Vector_val@U?$_Simple_types@V?$function@$$A6AXPEAVObject@@AEBVEvent@sf@@@Z@std@@@std@@@std@@@std@@QEAA@XZ 000000014004f9f0 f i container-moving.obj
 0002:0002ca40       ??1?$function@$$A6APEAVObject@@PEAV1@AEBVEvent@sf@@@Z@std@@QEAA@XZ 000000014004fa40 f i container-moving.obj
 0002:0002ca90       ??1?$function@$$A6AXPEAVObject@@AEBVEvent@sf@@@Z@std@@QEAA@XZ 000000014004fa90 f i container-moving.obj
 0002:0002cae0       ??1?$vector@V?$function@$$A6APEAVObject@@PEAV1@AEBVEvent@sf@@@Z@std@@V?$allocator@V?$function@$$A6APEAVObject@@PEAV1@AEBVEvent@sf@@@Z@std@@@2@@std@@QEAA@XZ 000000014004fae0 f i container-moving.obj
 0002:0002cb50       ??1?$vector@V?$function@$$A6AXPEAVObject@@AEBVEvent@sf@@@Z@std@@V?$allocator@V?$function@$$A6AXPEAVObject@@AEBVEvent@sf@@@Z@std@@@2@@std@@QEAA@XZ 000000014004fb50 f i container-moving.obj
 0002:0002cbc0       ??8?$_Vector_const_iterator@V?$_Vector_val@U?$_Simple_types@V?$function@$$A6APEAVObject@@PEAV1@AEBVEvent@sf@@@Z@std@@@std@@@std@@@std@@QEBA_NAEBV01@@Z 000000014004fbc0 f i container-moving.obj
 0002:0002cc70       ??8?$_Vector_const_iterator@V?$_Vector_val@U?$_Simple_types@V?$function@$$A6AXPEAVObject@@AEBVEvent@sf@@@Z@std@@@std@@@std@@@std@@QEBA_NAEBV01@@Z 000000014004fc70 f i container-moving.obj
 0002:0002cd20       ??9?$_Vector_const_iterator@V?$_Vector_val@U?$_Simple_types@V?$function@$$A6APEAVObject@@PEAV1@AEBVEvent@sf@@@Z@std@@@std@@@std@@@std@@QEBA_NAEBV01@@Z 000000014004fd20 f i container-moving.obj
 0002:0002cdb0       ??9?$_Vector_const_iterator@V?$_Vector_val@U?$_Simple_types@V?$function@$$A6AXPEAVObject@@AEBVEvent@sf@@@Z@std@@@std@@@std@@@std@@QEBA_NAEBV01@@Z 000000014004fdb0 f i container-moving.obj
 0002:0002ce40       ??D?$_Vector_const_iterator@V?$_Vector_val@U?$_Simple_types@V?$function@$$A6APEAVObject@@PEAV1@AEBVEvent@sf@@@Z@std@@@std@@@std@@@std@@QEBAAEBV?$function@$$A6APEAVObject@@PEAV1@AEBVEvent@sf@@@Z@1@XZ 000000014004fe40 f i container-moving.obj
 0002:0002cf50       ??D?$_Vector_const_iterator@V?$_Vector_val@U?$_Simple_types@V?$function@$$A6AXPEAVObject@@AEBVEvent@sf@@@Z@std@@@std@@@std@@@std@@QEBAAEBV?$function@$$A6AXPEAVObject@@AEBVEvent@sf@@@Z@1@XZ 000000014004ff50 f i container-moving.obj
 0002:0002d060       ??D?$_Vector_iterator@V?$_Vector_val@U?$_Simple_types@V?$function@$$A6APEAVObject@@PEAV1@AEBVEvent@sf@@@Z@std@@@std@@@std@@@std@@QEBAAEAV?$function@$$A6APEAVObject@@PEAV1@AEBVEvent@sf@@@Z@1@XZ 0000000140050060 f i container-moving.obj
 0002:0002d0b0       ??D?$_Vector_iterator@V?$_Vector_val@U?$_Simple_types@V?$function@$$A6AXPEAVObject@@AEBVEvent@sf@@@Z@std@@@std@@@std@@@std@@QEBAAEAV?$function@$$A6AXPEAVObject@@AEBVEvent@sf@@@Z@1@XZ 00000001400500b0 f i container-moving.obj
 0002:0002d100       ??E?$_Vector_const_iterator@V?$_Vector_val@U?$_Simple_types@V?$function@$$A6APEAVObject@@PEAV1@AEBVEvent@sf@@@Z@std@@@std@@@std@@@std@@QEAAAEAV01@XZ 0000000140050100 f i container-moving.obj
 0002:0002d210       ??E?$_Vector_const_iterator@V?$_Vector_val@U?$_Simple_types@V?$function@$$A6AXPEAVObject@@AEBVEvent@sf@@@Z@std@@@std@@@std@@@std@@QEAAAEAV01@XZ 0000000140050210 f i container-moving.obj
 0002:0002d320       ??E?$_Vector_iterator@V?$_Vector_val@U?$_Simple_types@V?$function@$$A6APEAVObject@@PEAV1@AEBVEvent@sf@@@Z@std@@@std@@@std@@@std@@QEAAAEAV01@XZ 0000000140050320 f i container-moving.obj
 0002:0002d380       ??E?$_Vector_iterator@V?$_Vector_val@U?$_Simple_types@V?$function@$$A6AXPEAVObject@@AEBVEvent@sf@@@Z@std@@@std@@@std@@@std@@QEAAAEAV01@XZ 0000000140050380 f i container-moving.obj
 0002:0002d3e0       ??R?$_Func_class@PEAVObject@@PEAV1@AEBVEvent@sf@@@std@@QEBAPEAVObject@@PEAV2@AEBVEvent@sf@@@Z 00000001400503e0 f i container-moving.obj
 0002:0002d4c0       ??R?$_Func_class@XPEAVObject@@AEBVEvent@sf@@@std@@QEBAXPEAVObject@@AEBVEvent@sf@@@Z 00000001400504c0 f i container-moving.obj
 0002:0002d5a0       ??_E?$ContainerMoving@VObject@@@@UEAAPEAXI@Z 00000001400505a0 f i container-moving.obj
 0002:0002d5a0       ??_G?$ContainerMoving@VObject@@@@UEAAPEAXI@Z 00000001400505a0 f i container-moving.obj
 0002:0002d630       ??_G?$function@$$A6APEAVObject@@PEAV1@AEBVEvent@sf@@@Z@std@@QEAAPEAXI@Z 0000000140050630 f i container-moving.obj
 0002:0002d6c0       ??_G?$function@$$A6AXPEAVObject@@AEBVEvent@sf@@@Z@std@@QEAAPEAXI@Z 00000001400506c0 f i container-moving.obj
 0002:0002d750       ?AddMoveBeginListener@?$ContainerMoving@VObject@@@@QEAAXV?$function@$$A6APEAVObject@@PEAV1@AEBVEvent@sf@@@Z@std@@@Z 0000000140050750 f i container-moving.obj
 0002:0002d7e0       ?AddMoveEndListener@?$ContainerMoving@VObject@@@@QEAAXV?$function@$$A6AXPEAVObject@@AEBVEvent@sf@@@Z@std@@@Z 00000001400507e0 f i container-moving.obj
 0002:0002d870       ?AddMovingListener@?$ContainerMoving@VObject@@@@QEAAXV?$function@$$A6AXPEAVObject@@AEBVEvent@sf@@@Z@std@@@Z 0000000140050870 f i container-moving.obj
 0002:0002d900       ?HandleEvent@?$ContainerMoving@VObject@@@@UEAAXAEBVEvent@sf@@@Z 0000000140050900 f i container-moving.obj
 0002:0002dfe0       ?_Alloc_proxy@?$_Vector_alloc@U?$_Vec_base_types@V?$function@$$A6APEAVObject@@PEAV1@AEBVEvent@sf@@@Z@std@@V?$allocator@V?$function@$$A6APEAVObject@@PEAV1@AEBVEvent@sf@@@Z@std@@@2@@std@@@std@@QEAAXXZ 0000000140050fe0 f i container-moving.obj
 0002:0002e120       ?_Alloc_proxy@?$_Vector_alloc@U?$_Vec_base_types@V?$function@$$A6AXPEAVObject@@AEBVEvent@sf@@@Z@std@@V?$allocator@V?$function@$$A6AXPEAVObject@@AEBVEvent@sf@@@Z@std@@@2@@std@@@std@@QEAAXXZ 0000000140051120 f i container-moving.obj
 0002:0002e260       ?_Calculate_growth@?$vector@V?$function@$$A6APEAVObject@@PEAV1@AEBVEvent@sf@@@Z@std@@V?$allocator@V?$function@$$A6APEAVObject@@PEAV1@AEBVEvent@sf@@@Z@std@@@2@@std@@AEBA_K_K@Z 0000000140051260 f i container-moving.obj
 0002:0002e350       ?_Calculate_growth@?$vector@V?$function@$$A6AXPEAVObject@@AEBVEvent@sf@@@Z@std@@V?$allocator@V?$function@$$A6AXPEAVObject@@AEBVEvent@sf@@@Z@std@@@2@@std@@AEBA_K_K@Z 0000000140051350 f i container-moving.obj
 0002:0002e440       ?_Change_array@?$vector@V?$function@$$A6APEAVObject@@PEAV1@AEBVEvent@sf@@@Z@std@@V?$allocator@V?$function@$$A6APEAVObject@@PEAV1@AEBVEvent@sf@@@Z@std@@@2@@std@@AEAAXQEAV?$function@$$A6APEAVObject@@PEAV1@AEBVEvent@sf@@@Z@2@_K1@Z 0000000140051440 f i container-moving.obj
 0002:0002e600       ?_Change_array@?$vector@V?$function@$$A6AXPEAVObject@@AEBVEvent@sf@@@Z@std@@V?$allocator@V?$function@$$A6AXPEAVObject@@AEBVEvent@sf@@@Z@std@@@2@@std@@AEAAXQEAV?$function@$$A6AXPEAVObject@@AEBVEvent@sf@@@Z@2@_K1@Z 0000000140051600 f i container-moving.obj
 0002:0002e7c0       ?_Compat@?$_Vector_const_iterator@V?$_Vector_val@U?$_Simple_types@V?$function@$$A6APEAVObject@@PEAV1@AEBVEvent@sf@@@Z@std@@@std@@@std@@@std@@QEBAXAEBV12@@Z 00000001400517c0 f i container-moving.obj
 0002:0002e890       ?_Compat@?$_Vector_const_iterator@V?$_Vector_val@U?$_Simple_types@V?$function@$$A6AXPEAVObject@@AEBVEvent@sf@@@Z@std@@@std@@@std@@@std@@QEBAXAEBV12@@Z 0000000140051890 f i container-moving.obj
 0002:0002e960       ?_Destroy@?$vector@V?$function@$$A6APEAVObject@@PEAV1@AEBVEvent@sf@@@Z@std@@V?$allocator@V?$function@$$A6APEAVObject@@PEAV1@AEBVEvent@sf@@@Z@std@@@2@@std@@AEAAXPEAV?$function@$$A6APEAVObject@@PEAV1@AEBVEvent@sf@@@Z@2@0@Z 0000000140051960 f i container-moving.obj
 0002:0002e9e0       ?_Destroy@?$vector@V?$function@$$A6AXPEAVObject@@AEBVEvent@sf@@@Z@std@@V?$allocator@V?$function@$$A6AXPEAVObject@@AEBVEvent@sf@@@Z@std@@@2@@std@@AEAAXPEAV?$function@$$A6AXPEAVObject@@AEBVEvent@sf@@@Z@2@0@Z 00000001400519e0 f i container-moving.obj
 0002:0002ea60       ?_Empty@?$_Func_class@PEAVObject@@PEAV1@AEBVEvent@sf@@@std@@IEBA_NXZ 0000000140051a60 f i container-moving.obj
 0002:0002eae0       ?_Empty@?$_Func_class@XPEAVObject@@AEBVEvent@sf@@@std@@IEBA_NXZ 0000000140051ae0 f i container-moving.obj
 0002:0002eb60       ?_Free_proxy@?$_Vector_alloc@U?$_Vec_base_types@V?$function@$$A6APEAVObject@@PEAV1@AEBVEvent@sf@@@Z@std@@V?$allocator@V?$function@$$A6APEAVObject@@PEAV1@AEBVEvent@sf@@@Z@std@@@2@@std@@@std@@QEAAXXZ 0000000140051b60 f i container-moving.obj
 0002:0002ec40       ?_Free_proxy@?$_Vector_alloc@U?$_Vec_base_types@V?$function@$$A6AXPEAVObject@@AEBVEvent@sf@@@Z@std@@V?$allocator@V?$function@$$A6AXPEAVObject@@AEBVEvent@sf@@@Z@std@@@2@@std@@@std@@QEAAXXZ 0000000140051c40 f i container-moving.obj
 0002:0002ed20       ?_Get_data@?$_Vector_alloc@U?$_Vec_base_types@V?$function@$$A6APEAVObject@@PEAV1@AEBVEvent@sf@@@Z@std@@V?$allocator@V?$function@$$A6APEAVObject@@PEAV1@AEBVEvent@sf@@@Z@std@@@2@@std@@@std@@QEAAAEAV?$_Vector_val@U?$_Simple_types@V?$function@$$A6APEAVObject@@PEAV1@AEBVEvent@sf@@@Z@std@@@std@@@2@XZ 0000000140051d20 f i container-moving.obj
 0002:0002ed80       ?_Get_data@?$_Vector_alloc@U?$_Vec_base_types@V?$function@$$A6APEAVObject@@PEAV1@AEBVEvent@sf@@@Z@std@@V?$allocator@V?$function@$$A6APEAVObject@@PEAV1@AEBVEvent@sf@@@Z@std@@@2@@std@@@std@@QEBAAEBV?$_Vector_val@U?$_Simple_types@V?$function@$$A6APEAVObject@@PEAV1@AEBVEvent@sf@@@Z@std@@@std@@@2@XZ 0000000140051d80 f i container-moving.obj
 0002:0002ede0       ?_Get_data@?$_Vector_alloc@U?$_Vec_base_types@V?$function@$$A6AXPEAVObject@@AEBVEvent@sf@@@Z@std@@V?$allocator@V?$function@$$A6AXPEAVObject@@AEBVEvent@sf@@@Z@std@@@2@@std@@@std@@QEAAAEAV?$_Vector_val@U?$_Simple_types@V?$function@$$A6AXPEAVObject@@AEBVEvent@sf@@@Z@std@@@std@@@2@XZ 0000000140051de0 f i container-moving.obj
 0002:0002ee40       ?_Get_data@?$_Vector_alloc@U?$_Vec_base_types@V?$function@$$A6AXPEAVObject@@AEBVEvent@sf@@@Z@std@@V?$allocator@V?$function@$$A6AXPEAVObject@@AEBVEvent@sf@@@Z@std@@@2@@std@@@std@@QEBAAEBV?$_Vector_val@U?$_Simple_types@V?$function@$$A6AXPEAVObject@@AEBVEvent@sf@@@Z@std@@@std@@@2@XZ 0000000140051e40 f i container-moving.obj
 0002:0002eea0       ?_Get_first@?$_Compressed_pair@V?$allocator@V?$function@$$A6APEAVObject@@PEAV1@AEBVEvent@sf@@@Z@std@@@std@@V?$_Vector_val@U?$_Simple_types@V?$function@$$A6APEAVObject@@PEAV1@AEBVEvent@sf@@@Z@std@@@std@@@2@$00@std@@QEAAAEAV?$allocator@V?$function@$$A6APEAVObject@@PEAV1@AEBVEvent@sf@@@Z@std@@@2@XZ 0000000140051ea0 f i container-moving.obj
 0002:0002eef0       ?_Get_first@?$_Compressed_pair@V?$allocator@V?$function@$$A6APEAVObject@@PEAV1@AEBVEvent@sf@@@Z@std@@@std@@V?$_Vector_val@U?$_Simple_types@V?$function@$$A6APEAVObject@@PEAV1@AEBVEvent@sf@@@Z@std@@@std@@@2@$00@std@@QEBAAEBV?$allocator@V?$function@$$A6APEAVObject@@PEAV1@AEBVEvent@sf@@@Z@std@@@2@XZ 0000000140051ef0 f i container-moving.obj
 0002:0002ef40       ?_Get_first@?$_Compressed_pair@V?$allocator@V?$function@$$A6AXPEAVObject@@AEBVEvent@sf@@@Z@std@@@std@@V?$_Vector_val@U?$_Simple_types@V?$function@$$A6AXPEAVObject@@AEBVEvent@sf@@@Z@std@@@std@@@2@$00@std@@QEAAAEAV?$allocator@V?$function@$$A6AXPEAVObject@@AEBVEvent@sf@@@Z@std@@@2@XZ 0000000140051f40 f i container-moving.obj
 0002:0002ef90       ?_Get_first@?$_Compressed_pair@V?$allocator@V?$function@$$A6AXPEAVObject@@AEBVEvent@sf@@@Z@std@@@std@@V?$_Vector_val@U?$_Simple_types@V?$function@$$A6AXPEAVObject@@AEBVEvent@sf@@@Z@std@@@std@@@2@$00@std@@QEBAAEBV?$allocator@V?$function@$$A6AXPEAVObject@@AEBVEvent@sf@@@Z@std@@@2@XZ 0000000140051f90 f i container-moving.obj
 0002:0002efe0       ?_Get_second@?$_Compressed_pair@V?$allocator@V?$function@$$A6APEAVObject@@PEAV1@AEBVEvent@sf@@@Z@std@@@std@@V?$_Vector_val@U?$_Simple_types@V?$function@$$A6APEAVObject@@PEAV1@AEBVEvent@sf@@@Z@std@@@std@@@2@$00@std@@QEAAAEAV?$_Vector_val@U?$_Simple_types@V?$function@$$A6APEAVObject@@PEAV1@AEBVEvent@sf@@@Z@std@@@std@@@2@XZ 0000000140051fe0 f i container-moving.obj
 0002:0002f030       ?_Get_second@?$_Compressed_pair@V?$allocator@V?$function@$$A6APEAVObject@@PEAV1@AEBVEvent@sf@@@Z@std@@@std@@V?$_Vector_val@U?$_Simple_types@V?$function@$$A6APEAVObject@@PEAV1@AEBVEvent@sf@@@Z@std@@@std@@@2@$00@std@@QEBAAEBV?$_Vector_val@U?$_Simple_types@V?$function@$$A6APEAVObject@@PEAV1@AEBVEvent@sf@@@Z@std@@@std@@@2@XZ 0000000140052030 f i container-moving.obj
 0002:0002f080       ?_Get_second@?$_Compressed_pair@V?$allocator@V?$function@$$A6AXPEAVObject@@AEBVEvent@sf@@@Z@std@@@std@@V?$_Vector_val@U?$_Simple_types@V?$function@$$A6AXPEAVObject@@AEBVEvent@sf@@@Z@std@@@std@@@2@$00@std@@QEAAAEAV?$_Vector_val@U?$_Simple_types@V?$function@$$A6AXPEAVObject@@AEBVEvent@sf@@@Z@std@@@std@@@2@XZ 0000000140052080 f i container-moving.obj
 0002:0002f0d0       ?_Get_second@?$_Compressed_pair@V?$allocator@V?$function@$$A6AXPEAVObject@@AEBVEvent@sf@@@Z@std@@@std@@V?$_Vector_val@U?$_Simple_types@V?$function@$$A6AXPEAVObject@@AEBVEvent@sf@@@Z@std@@@std@@@2@$00@std@@QEBAAEBV?$_Vector_val@U?$_Simple_types@V?$function@$$A6AXPEAVObject@@AEBVEvent@sf@@@Z@std@@@std@@@2@XZ 00000001400520d0 f i container-moving.obj
 0002:0002f120       ?_Getal@?$_Vector_alloc@U?$_Vec_base_types@V?$function@$$A6APEAVObject@@PEAV1@AEBVEvent@sf@@@Z@std@@V?$allocator@V?$function@$$A6APEAVObject@@PEAV1@AEBVEvent@sf@@@Z@std@@@2@@std@@@std@@QEAAAEAV?$allocator@V?$function@$$A6APEAVObject@@PEAV1@AEBVEvent@sf@@@Z@std@@@2@XZ 0000000140052120 f i container-moving.obj
 0002:0002f180       ?_Getal@?$_Vector_alloc@U?$_Vec_base_types@V?$function@$$A6APEAVObject@@PEAV1@AEBVEvent@sf@@@Z@std@@V?$allocator@V?$function@$$A6APEAVObject@@PEAV1@AEBVEvent@sf@@@Z@std@@@2@@std@@@std@@QEBAAEBV?$allocator@V?$function@$$A6APEAVObject@@PEAV1@AEBVEvent@sf@@@Z@std@@@2@XZ 0000000140052180 f i container-moving.obj
 0002:0002f1e0       ?_Getal@?$_Vector_alloc@U?$_Vec_base_types@V?$function@$$A6AXPEAVObject@@AEBVEvent@sf@@@Z@std@@V?$allocator@V?$function@$$A6AXPEAVObject@@AEBVEvent@sf@@@Z@std@@@2@@std@@@std@@QEAAAEAV?$allocator@V?$function@$$A6AXPEAVObject@@AEBVEvent@sf@@@Z@std@@@2@XZ 00000001400521e0 f i container-moving.obj
 0002:0002f240       ?_Getal@?$_Vector_alloc@U?$_Vec_base_types@V?$function@$$A6AXPEAVObject@@AEBVEvent@sf@@@Z@std@@V?$allocator@V?$function@$$A6AXPEAVObject@@AEBVEvent@sf@@@Z@std@@@2@@std@@@std@@QEBAAEBV?$allocator@V?$function@$$A6AXPEAVObject@@AEBVEvent@sf@@@Z@std@@@2@XZ 0000000140052240 f i container-moving.obj
 0002:0002f2a0       ?_Getimpl@?$_Func_class@PEAVObject@@PEAV1@AEBVEvent@sf@@@std@@AEBAPEAV?$_Func_base@PEAVObject@@PEAV1@AEBVEvent@sf@@@2@XZ 00000001400522a0 f i container-moving.obj
 0002:0002f300       ?_Getimpl@?$_Func_class@XPEAVObject@@AEBVEvent@sf@@@std@@AEBAPEAV?$_Func_base@XPEAVObject@@AEBVEvent@sf@@@2@XZ 0000000140052300 f i container-moving.obj
 0002:0002f360       ?_Getpfirst@?$_Vector_alloc@U?$_Vec_base_types@V?$function@$$A6APEAVObject@@PEAV1@AEBVEvent@sf@@@Z@std@@V?$allocator@V?$function@$$A6APEAVObject@@PEAV1@AEBVEvent@sf@@@Z@std@@@2@@std@@@std@@QEBAPEAPEAU_Iterator_base12@2@XZ 0000000140052360 f i container-moving.obj
 0002:0002f3c0       ?_Getpfirst@?$_Vector_alloc@U?$_Vec_base_types@V?$function@$$A6AXPEAVObject@@AEBVEvent@sf@@@Z@std@@V?$allocator@V?$function@$$A6AXPEAVObject@@AEBVEvent@sf@@@Z@std@@@2@@std@@@std@@QEBAPEAPEAU_Iterator_base12@2@XZ 00000001400523c0 f i container-moving.obj
 0002:0002f420       ?_Getspace@?$_Func_class@PEAVObject@@PEAV1@AEBVEvent@sf@@@std@@AEAAPEAXXZ 0000000140052420 f i container-moving.obj
 0002:0002f470       ?_Getspace@?$_Func_class@PEAVObject@@PEAV1@AEBVEvent@sf@@@std@@AEBAPEBXXZ 0000000140052470 f i container-moving.obj
 0002:0002f4c0       ?_Getspace@?$_Func_class@XPEAVObject@@AEBVEvent@sf@@@std@@AEAAPEAXXZ 00000001400524c0 f i container-moving.obj
 0002:0002f510       ?_Getspace@?$_Func_class@XPEAVObject@@AEBVEvent@sf@@@std@@AEBAPEBXXZ 0000000140052510 f i container-moving.obj
 0002:0002f560       ?_Has_unused_capacity@?$vector@V?$function@$$A6APEAVObject@@PEAV1@AEBVEvent@sf@@@Z@std@@V?$allocator@V?$function@$$A6APEAVObject@@PEAV1@AEBVEvent@sf@@@Z@std@@@2@@std@@AEBA_NXZ 0000000140052560 f i container-moving.obj
 0002:0002f600       ?_Has_unused_capacity@?$vector@V?$function@$$A6AXPEAVObject@@AEBVEvent@sf@@@Z@std@@V?$allocator@V?$function@$$A6AXPEAVObject@@AEBVEvent@sf@@@Z@std@@@2@@std@@AEBA_NXZ 0000000140052600 f i container-moving.obj
 0002:0002f6a0       ?_Local@?$_Func_class@PEAVObject@@PEAV1@AEBVEvent@sf@@@std@@AEBA_NXZ 00000001400526a0 f i container-moving.obj
 0002:0002f740       ?_Local@?$_Func_class@XPEAVObject@@AEBVEvent@sf@@@std@@AEBA_NXZ 0000000140052740 f i container-moving.obj
 0002:0002f7e0       ?_Myend@?$_Vector_alloc@U?$_Vec_base_types@V?$function@$$A6APEAVObject@@PEAV1@AEBVEvent@sf@@@Z@std@@V?$allocator@V?$function@$$A6APEAVObject@@PEAV1@AEBVEvent@sf@@@Z@std@@@2@@std@@@std@@QEAAAEAPEAV?$function@$$A6APEAVObject@@PEAV1@AEBVEvent@sf@@@Z@2@XZ 00000001400527e0 f i container-moving.obj
 0002:0002f840       ?_Myend@?$_Vector_alloc@U?$_Vec_base_types@V?$function@$$A6APEAVObject@@PEAV1@AEBVEvent@sf@@@Z@std@@V?$allocator@V?$function@$$A6APEAVObject@@PEAV1@AEBVEvent@sf@@@Z@std@@@2@@std@@@std@@QEBAAEBQEAV?$function@$$A6APEAVObject@@PEAV1@AEBVEvent@sf@@@Z@2@XZ 0000000140052840 f i container-moving.obj
 0002:0002f8a0       ?_Myend@?$_Vector_alloc@U?$_Vec_base_types@V?$function@$$A6AXPEAVObject@@AEBVEvent@sf@@@Z@std@@V?$allocator@V?$function@$$A6AXPEAVObject@@AEBVEvent@sf@@@Z@std@@@2@@std@@@std@@QEAAAEAPEAV?$function@$$A6AXPEAVObject@@AEBVEvent@sf@@@Z@2@XZ 00000001400528a0 f i container-moving.obj
 0002:0002f900       ?_Myend@?$_Vector_alloc@U?$_Vec_base_types@V?$function@$$A6AXPEAVObject@@AEBVEvent@sf@@@Z@std@@V?$allocator@V?$function@$$A6AXPEAVObject@@AEBVEvent@sf@@@Z@std@@@2@@std@@@std@@QEBAAEBQEAV?$function@$$A6AXPEAVObject@@AEBVEvent@sf@@@Z@2@XZ 0000000140052900 f i container-moving.obj
 0002:0002f960       ?_Myfirst@?$_Vector_alloc@U?$_Vec_base_types@V?$function@$$A6APEAVObject@@PEAV1@AEBVEvent@sf@@@Z@std@@V?$allocator@V?$function@$$A6APEAVObject@@PEAV1@AEBVEvent@sf@@@Z@std@@@2@@std@@@std@@QEAAAEAPEAV?$function@$$A6APEAVObject@@PEAV1@AEBVEvent@sf@@@Z@2@XZ 0000000140052960 f i container-moving.obj
 0002:0002f9c0       ?_Myfirst@?$_Vector_alloc@U?$_Vec_base_types@V?$function@$$A6APEAVObject@@PEAV1@AEBVEvent@sf@@@Z@std@@V?$allocator@V?$function@$$A6APEAVObject@@PEAV1@AEBVEvent@sf@@@Z@std@@@2@@std@@@std@@QEBAAEBQEAV?$function@$$A6APEAVObject@@PEAV1@AEBVEvent@sf@@@Z@2@XZ 00000001400529c0 f i container-moving.obj
 0002:0002fa20       ?_Myfirst@?$_Vector_alloc@U?$_Vec_base_types@V?$function@$$A6AXPEAVObject@@AEBVEvent@sf@@@Z@std@@V?$allocator@V?$function@$$A6AXPEAVObject@@AEBVEvent@sf@@@Z@std@@@2@@std@@@std@@QEAAAEAPEAV?$function@$$A6AXPEAVObject@@AEBVEvent@sf@@@Z@2@XZ 0000000140052a20 f i container-moving.obj
 0002:0002fa80       ?_Myfirst@?$_Vector_alloc@U?$_Vec_base_types@V?$function@$$A6AXPEAVObject@@AEBVEvent@sf@@@Z@std@@V?$allocator@V?$function@$$A6AXPEAVObject@@AEBVEvent@sf@@@Z@std@@@2@@std@@@std@@QEBAAEBQEAV?$function@$$A6AXPEAVObject@@AEBVEvent@sf@@@Z@2@XZ 0000000140052a80 f i container-moving.obj
 0002:0002fae0       ?_Mylast@?$_Vector_alloc@U?$_Vec_base_types@V?$function@$$A6APEAVObject@@PEAV1@AEBVEvent@sf@@@Z@std@@V?$allocator@V?$function@$$A6APEAVObject@@PEAV1@AEBVEvent@sf@@@Z@std@@@2@@std@@@std@@QEAAAEAPEAV?$function@$$A6APEAVObject@@PEAV1@AEBVEvent@sf@@@Z@2@XZ 0000000140052ae0 f i container-moving.obj
 0002:0002fb40       ?_Mylast@?$_Vector_alloc@U?$_Vec_base_types@V?$function@$$A6APEAVObject@@PEAV1@AEBVEvent@sf@@@Z@std@@V?$allocator@V?$function@$$A6APEAVObject@@PEAV1@AEBVEvent@sf@@@Z@std@@@2@@std@@@std@@QEBAAEBQEAV?$function@$$A6APEAVObject@@PEAV1@AEBVEvent@sf@@@Z@2@XZ 0000000140052b40 f i container-moving.obj
 0002:0002fba0       ?_Mylast@?$_Vector_alloc@U?$_Vec_base_types@V?$function@$$A6AXPEAVObject@@AEBVEvent@sf@@@Z@std@@V?$allocator@V?$function@$$A6AXPEAVObject@@AEBVEvent@sf@@@Z@std@@@2@@std@@@std@@QEAAAEAPEAV?$function@$$A6AXPEAVObject@@AEBVEvent@sf@@@Z@2@XZ 0000000140052ba0 f i container-moving.obj
 0002:0002fc00       ?_Mylast@?$_Vector_alloc@U?$_Vec_base_types@V?$function@$$A6AXPEAVObject@@AEBVEvent@sf@@@Z@std@@V?$allocator@V?$function@$$A6AXPEAVObject@@AEBVEvent@sf@@@Z@std@@@2@@std@@@std@@QEBAAEBQEAV?$function@$$A6AXPEAVObject@@AEBVEvent@sf@@@Z@2@XZ 0000000140052c00 f i container-moving.obj
 0002:0002fc60       ?_Myproxy@?$_Vector_alloc@U?$_Vec_base_types@V?$function@$$A6APEAVObject@@PEAV1@AEBVEvent@sf@@@Z@std@@V?$allocator@V?$function@$$A6APEAVObject@@PEAV1@AEBVEvent@sf@@@Z@std@@@2@@std@@@std@@QEAAAEAPEAU_Container_proxy@2@XZ 0000000140052c60 f i container-moving.obj
 0002:0002fcb0       ?_Myproxy@?$_Vector_alloc@U?$_Vec_base_types@V?$function@$$A6AXPEAVObject@@AEBVEvent@sf@@@Z@std@@V?$allocator@V?$function@$$A6AXPEAVObject@@AEBVEvent@sf@@@Z@std@@@2@@std@@@std@@QEAAAEAPEAU_Container_proxy@2@XZ 0000000140052cb0 f i container-moving.obj
 0002:0002fd00       ?_Orphan_all@?$_Vector_alloc@U?$_Vec_base_types@V?$function@$$A6APEAVObject@@PEAV1@AEBVEvent@sf@@@Z@std@@V?$allocator@V?$function@$$A6APEAVObject@@PEAV1@AEBVEvent@sf@@@Z@std@@@2@@std@@@std@@QEAAXXZ 0000000140052d00 f i container-moving.obj
 0002:0002fd60       ?_Orphan_all@?$_Vector_alloc@U?$_Vec_base_types@V?$function@$$A6AXPEAVObject@@AEBVEvent@sf@@@Z@std@@V?$allocator@V?$function@$$A6AXPEAVObject@@AEBVEvent@sf@@@Z@std@@@2@@std@@@std@@QEAAXXZ 0000000140052d60 f i container-moving.obj
 0002:0002fdc0       ?_Orphan_range@?$vector@V?$function@$$A6APEAVObject@@PEAV1@AEBVEvent@sf@@@Z@std@@V?$allocator@V?$function@$$A6APEAVObject@@PEAV1@AEBVEvent@sf@@@Z@std@@@2@@std@@AEBAXPEAV?$function@$$A6APEAVObject@@PEAV1@AEBVEvent@sf@@@Z@2@0@Z 0000000140052dc0 f i container-moving.obj
 0002:0002fef0       ?_Orphan_range@?$vector@V?$function@$$A6AXPEAVObject@@AEBVEvent@sf@@@Z@std@@V?$allocator@V?$function@$$A6AXPEAVObject@@AEBVEvent@sf@@@Z@std@@@2@@std@@AEBAXPEAV?$function@$$A6AXPEAVObject@@AEBVEvent@sf@@@Z@2@0@Z 0000000140052ef0 f i container-moving.obj
 0002:00030020       ?_Release@?$_Uninitialized_backout_al@PEAV?$function@$$A6APEAVObject@@PEAV1@AEBVEvent@sf@@@Z@std@@V?$allocator@V?$function@$$A6APEAVObject@@PEAV1@AEBVEvent@sf@@@Z@std@@@2@@std@@QEAAPEAV?$function@$$A6APEAVObject@@PEAV1@AEBVEvent@sf@@@Z@2@XZ 0000000140053020 f i container-moving.obj
 0002:00030090       ?_Release@?$_Uninitialized_backout_al@PEAV?$function@$$A6AXPEAVObject@@AEBVEvent@sf@@@Z@std@@V?$allocator@V?$function@$$A6AXPEAVObject@@AEBVEvent@sf@@@Z@std@@@2@@std@@QEAAPEAV?$function@$$A6AXPEAVObject@@AEBVEvent@sf@@@Z@2@XZ 0000000140053090 f i container-moving.obj
 0002:00030100       ?_Reset_copy@?$_Func_class@PEAVObject@@PEAV1@AEBVEvent@sf@@@std@@IEAAXAEBV12@@Z 0000000140053100 f i container-moving.obj
 0002:000301d0       ?_Reset_copy@?$_Func_class@XPEAVObject@@AEBVEvent@sf@@@std@@IEAAXAEBV12@@Z 00000001400531d0 f i container-moving.obj
 0002:000302a0       ?_Reset_move@?$_Func_class@PEAVObject@@PEAV1@AEBVEvent@sf@@@std@@IEAAX$$QEAV12@@Z 00000001400532a0 f i container-moving.obj
 0002:000303d0       ?_Reset_move@?$_Func_class@XPEAVObject@@AEBVEvent@sf@@@std@@IEAAX$$QEAV12@@Z 00000001400533d0 f i container-moving.obj
 0002:00030500       ?_Set@?$_Func_class@PEAVObject@@PEAV1@AEBVEvent@sf@@@std@@AEAAXPEAV?$_Func_base@PEAVObject@@PEAV1@AEBVEvent@sf@@@2@@Z 0000000140053500 f i container-moving.obj
 0002:00030570       ?_Set@?$_Func_class@XPEAVObject@@AEBVEvent@sf@@@std@@AEAAXPEAV?$_Func_base@XPEAVObject@@AEBVEvent@sf@@@2@@Z 0000000140053570 f i container-moving.obj
 0002:000305e0       ?_Tidy@?$_Func_class@PEAVObject@@PEAV1@AEBVEvent@sf@@@std@@IEAAXXZ 00000001400535e0 f i container-moving.obj
 0002:000306b0       ?_Tidy@?$_Func_class@XPEAVObject@@AEBVEvent@sf@@@std@@IEAAXXZ 00000001400536b0 f i container-moving.obj
 0002:00030780       ?_Tidy@?$vector@V?$function@$$A6APEAVObject@@PEAV1@AEBVEvent@sf@@@Z@std@@V?$allocator@V?$function@$$A6APEAVObject@@PEAV1@AEBVEvent@sf@@@Z@std@@@2@@std@@AEAAXXZ 0000000140053780 f i container-moving.obj
 0002:000308e0       ?_Tidy@?$vector@V?$function@$$A6AXPEAVObject@@AEBVEvent@sf@@@Z@std@@V?$allocator@V?$function@$$A6AXPEAVObject@@AEBVEvent@sf@@@Z@std@@@2@@std@@AEAAXXZ 00000001400538e0 f i container-moving.obj
 0002:00030a40       ?_Umove@?$vector@V?$function@$$A6APEAVObject@@PEAV1@AEBVEvent@sf@@@Z@std@@V?$allocator@V?$function@$$A6APEAVObject@@PEAV1@AEBVEvent@sf@@@Z@std@@@2@@std@@AEAAPEAV?$function@$$A6APEAVObject@@PEAV1@AEBVEvent@sf@@@Z@2@PEAV32@00@Z 0000000140053a40 f i container-moving.obj
 0002:00030ad0       ?_Umove@?$vector@V?$function@$$A6AXPEAVObject@@AEBVEvent@sf@@@Z@std@@V?$allocator@V?$function@$$A6AXPEAVObject@@AEBVEvent@sf@@@Z@std@@@2@@std@@AEAAPEAV?$function@$$A6AXPEAVObject@@AEBVEvent@sf@@@Z@2@PEAV32@00@Z 0000000140053ad0 f i container-moving.obj
 0002:00030b60       ?_Umove_if_noexcept1@?$vector@V?$function@$$A6APEAVObject@@PEAV1@AEBVEvent@sf@@@Z@std@@V?$allocator@V?$function@$$A6APEAVObject@@PEAV1@AEBVEvent@sf@@@Z@std@@@2@@std@@AEAAXPEAV?$function@$$A6APEAVObject@@PEAV1@AEBVEvent@sf@@@Z@2@00U?$integral_constant@_N$0A@@2@@Z 0000000140053b60 f i container-moving.obj
 0002:00030bf0       ?_Umove_if_noexcept1@?$vector@V?$function@$$A6AXPEAVObject@@AEBVEvent@sf@@@Z@std@@V?$allocator@V?$function@$$A6AXPEAVObject@@AEBVEvent@sf@@@Z@std@@@2@@std@@AEAAXPEAV?$function@$$A6AXPEAVObject@@AEBVEvent@sf@@@Z@2@00U?$integral_constant@_N$0A@@2@@Z 0000000140053bf0 f i container-moving.obj
 0002:00030c80       ?_Umove_if_noexcept@?$vector@V?$function@$$A6APEAVObject@@PEAV1@AEBVEvent@sf@@@Z@std@@V?$allocator@V?$function@$$A6APEAVObject@@PEAV1@AEBVEvent@sf@@@Z@std@@@2@@std@@AEAAXPEAV?$function@$$A6APEAVObject@@PEAV1@AEBVEvent@sf@@@Z@2@00@Z 0000000140053c80 f i container-moving.obj
 0002:00030d30       ?_Umove_if_noexcept@?$vector@V?$function@$$A6AXPEAVObject@@AEBVEvent@sf@@@Z@std@@V?$allocator@V?$function@$$A6AXPEAVObject@@AEBVEvent@sf@@@Z@std@@@2@@std@@AEAAXPEAV?$function@$$A6AXPEAVObject@@AEBVEvent@sf@@@Z@2@00@Z 0000000140053d30 f i container-moving.obj
 0002:00030de0       ?_Xlength@?$vector@V?$function@$$A6APEAVObject@@PEAV1@AEBVEvent@sf@@@Z@std@@V?$allocator@V?$function@$$A6APEAVObject@@PEAV1@AEBVEvent@sf@@@Z@std@@@2@@std@@CAXXZ 0000000140053de0 f i container-moving.obj
 0002:00030e30       ?_Xlength@?$vector@V?$function@$$A6AXPEAVObject@@AEBVEvent@sf@@@Z@std@@V?$allocator@V?$function@$$A6AXPEAVObject@@AEBVEvent@sf@@@Z@std@@@2@@std@@CAXXZ 0000000140053e30 f i container-moving.obj
 0002:00030e80       ?allocate@?$allocator@V?$function@$$A6APEAVObject@@PEAV1@AEBVEvent@sf@@@Z@std@@@std@@QEAAPEAV?$function@$$A6APEAVObject@@PEAV1@AEBVEvent@sf@@@Z@2@_K@Z 0000000140053e80 f i container-moving.obj
 0002:00030ee0       ?allocate@?$allocator@V?$function@$$A6AXPEAVObject@@AEBVEvent@sf@@@Z@std@@@std@@QEAAPEAV?$function@$$A6AXPEAVObject@@AEBVEvent@sf@@@Z@2@_K@Z 0000000140053ee0 f i container-moving.obj
 0002:00030f40       ?begin@?$vector@V?$function@$$A6APEAVObject@@PEAV1@AEBVEvent@sf@@@Z@std@@V?$allocator@V?$function@$$A6APEAVObject@@PEAV1@AEBVEvent@sf@@@Z@std@@@2@@std@@QEAA?AV?$_Vector_iterator@V?$_Vector_val@U?$_Simple_types@V?$function@$$A6APEAVObject@@PEAV1@AEBVEvent@sf@@@Z@std@@@std@@@std@@@2@XZ 0000000140053f40 f i container-moving.obj
 0002:00031000       ?begin@?$vector@V?$function@$$A6AXPEAVObject@@AEBVEvent@sf@@@Z@std@@V?$allocator@V?$function@$$A6AXPEAVObject@@AEBVEvent@sf@@@Z@std@@@2@@std@@QEAA?AV?$_Vector_iterator@V?$_Vector_val@U?$_Simple_types@V?$function@$$A6AXPEAVObject@@AEBVEvent@sf@@@Z@std@@@std@@@std@@@2@XZ 0000000140054000 f i container-moving.obj
 0002:000310c0       ?capacity@?$vector@V?$function@$$A6APEAVObject@@PEAV1@AEBVEvent@sf@@@Z@std@@V?$allocator@V?$function@$$A6APEAVObject@@PEAV1@AEBVEvent@sf@@@Z@std@@@2@@std@@QEBA_KXZ 00000001400540c0 f i container-moving.obj
 0002:00031150       ?capacity@?$vector@V?$function@$$A6AXPEAVObject@@AEBVEvent@sf@@@Z@std@@V?$allocator@V?$function@$$A6AXPEAVObject@@AEBVEvent@sf@@@Z@std@@@2@@std@@QEBA_KXZ 0000000140054150 f i container-moving.obj
 0002:000311e0       ?deallocate@?$allocator@V?$function@$$A6APEAVObject@@PEAV1@AEBVEvent@sf@@@Z@std@@@std@@QEAAXQEAV?$function@$$A6APEAVObject@@PEAV1@AEBVEvent@sf@@@Z@2@_K@Z 00000001400541e0 f i container-moving.obj
 0002:00031250       ?deallocate@?$allocator@V?$function@$$A6AXPEAVObject@@AEBVEvent@sf@@@Z@std@@@std@@QEAAXQEAV?$function@$$A6AXPEAVObject@@AEBVEvent@sf@@@Z@2@_K@Z 0000000140054250 f i container-moving.obj
 0002:000312c0       ?end@?$vector@V?$function@$$A6APEAVObject@@PEAV1@AEBVEvent@sf@@@Z@std@@V?$allocator@V?$function@$$A6APEAVObject@@PEAV1@AEBVEvent@sf@@@Z@std@@@2@@std@@QEAA?AV?$_Vector_iterator@V?$_Vector_val@U?$_Simple_types@V?$function@$$A6APEAVObject@@PEAV1@AEBVEvent@sf@@@Z@std@@@std@@@std@@@2@XZ 00000001400542c0 f i container-moving.obj
 0002:00031380       ?end@?$vector@V?$function@$$A6AXPEAVObject@@AEBVEvent@sf@@@Z@std@@V?$allocator@V?$function@$$A6AXPEAVObject@@AEBVEvent@sf@@@Z@std@@@2@@std@@QEAA?AV?$_Vector_iterator@V?$_Vector_val@U?$_Simple_types@V?$function@$$A6AXPEAVObject@@AEBVEvent@sf@@@Z@std@@@std@@@std@@@2@XZ 0000000140054380 f i container-moving.obj
 0002:00031440       ?max_size@?$_Default_allocator_traits@V?$allocator@V?$function@$$A6APEAVObject@@PEAV1@AEBVEvent@sf@@@Z@std@@@std@@@std@@SA_KAEBV?$allocator@V?$function@$$A6APEAVObject@@PEAV1@AEBVEvent@sf@@@Z@std@@@2@@Z 0000000140054440 f i container-moving.obj
 0002:00031490       ?max_size@?$_Default_allocator_traits@V?$allocator@V?$function@$$A6AXPEAVObject@@AEBVEvent@sf@@@Z@std@@@std@@@std@@SA_KAEBV?$allocator@V?$function@$$A6AXPEAVObject@@AEBVEvent@sf@@@Z@std@@@2@@Z 0000000140054490 f i container-moving.obj
 0002:000314e0       ?max_size@?$vector@V?$function@$$A6APEAVObject@@PEAV1@AEBVEvent@sf@@@Z@std@@V?$allocator@V?$function@$$A6APEAVObject@@PEAV1@AEBVEvent@sf@@@Z@std@@@2@@std@@QEBA_KXZ 00000001400544e0 f i container-moving.obj
 0002:00031570       ?max_size@?$vector@V?$function@$$A6AXPEAVObject@@AEBVEvent@sf@@@Z@std@@V?$allocator@V?$function@$$A6AXPEAVObject@@AEBVEvent@sf@@@Z@std@@@2@@std@@QEBA_KXZ 0000000140054570 f i container-moving.obj
 0002:00031600       ?push_back@?$vector@V?$function@$$A6APEAVObject@@PEAV1@AEBVEvent@sf@@@Z@std@@V?$allocator@V?$function@$$A6APEAVObject@@PEAV1@AEBVEvent@sf@@@Z@std@@@2@@std@@QEAAXAEBV?$function@$$A6APEAVObject@@PEAV1@AEBVEvent@sf@@@Z@2@@Z 0000000140054600 f i container-moving.obj
 0002:00031660       ?push_back@?$vector@V?$function@$$A6AXPEAVObject@@AEBVEvent@sf@@@Z@std@@V?$allocator@V?$function@$$A6AXPEAVObject@@AEBVEvent@sf@@@Z@std@@@2@@std@@QEAAXAEBV?$function@$$A6AXPEAVObject@@AEBVEvent@sf@@@Z@2@@Z 0000000140054660 f i container-moving.obj
 0002:000316c0       ?size@?$vector@V?$function@$$A6APEAVObject@@PEAV1@AEBVEvent@sf@@@Z@std@@V?$allocator@V?$function@$$A6APEAVObject@@PEAV1@AEBVEvent@sf@@@Z@std@@@2@@std@@QEBA_KXZ 00000001400546c0 f i container-moving.obj
 0002:00031750       ?size@?$vector@V?$function@$$A6AXPEAVObject@@AEBVEvent@sf@@@Z@std@@V?$allocator@V?$function@$$A6AXPEAVObject@@AEBVEvent@sf@@@Z@std@@@2@@std@@QEBA_KXZ 0000000140054750 f i container-moving.obj
 0002:000317e0       ??0GameObject@@QEAA@PEBD@Z 00000001400547e0 f   game-object.obj
 0002:00031c50       ??0GameObject@@QEAA@PEBV0@@Z 0000000140054c50 f   game-object.obj
 0002:00031e80       ??0ID@@QEAA@XZ             0000000140054e80 f i game-object.obj
 0002:00031ee0       ??1GameObject@@UEAA@XZ     0000000140054ee0 f   game-object.obj
 0002:00031f60       ??1ID@@QEAA@XZ             0000000140054f60 f i game-object.obj
 0002:00031fa0       ??_GGameObject@@UEAAPEAXI@Z 0000000140054fa0 f i game-object.obj
 0002:00031fa0       ??_EGameObject@@UEAAPEAXI@Z 0000000140054fa0 f i game-object.obj
 0002:00032030       ?CheckIntersectX@GameObject@@QEBA_NPEBV1@VTime@sf@@@Z 0000000140055030 f   game-object.obj
 0002:00032600       ?CheckIntersectY@GameObject@@QEBA_NPEBV1@VTime@sf@@@Z 0000000140055600 f   game-object.obj
 0002:00032be0       ?Create@GameObject@@SAPEBV1@PEBD@Z 0000000140055be0 f   game-object.obj
 0002:00032ca0       ?CreateImpl@GameObject@@CAPEAV1@W4Object_Type@@PEBD@Z 0000000140055ca0 f   game-object.obj
 0002:00032e90       ?Generate@ID@@QEAAXXZ      0000000140055e90 f i game-object.obj
 0002:00032f80       ?GetDirection@GameObject@@QEBA?AV?$Vector2@M@sf@@XZ 0000000140055f80 f   game-object.obj
 0002:00032ff0       ?GetGroup@GameObject@@QEBA_KXZ 0000000140055ff0 f   game-object.obj
 0002:00033040       ?GetHealth@GameObject@@QEBAHXZ 0000000140056040 f   game-object.obj
 0002:00033090       ?GetMaxVelocity@GameObject@@QEBAMXZ 0000000140056090 f   game-object.obj
 0002:000330e0       ?GetSubtype@GameObject@@QEBA?AW4Object_Subtype@@XZ 00000001400560e0 f   game-object.obj
 0002:000331f0       ?GetVelocity@GameObject@@QEBA?AV?$Vector2@M@sf@@XZ 00000001400561f0 f   game-object.obj
 0002:00033250       ?SetGroup@GameObject@@QEAAX_K@Z 0000000140056250 f   game-object.obj
 0002:000333d0       ?Update@GameObject@@UEAAXAEBVTime@sf@@@Z 00000001400563d0 f   game-object.obj
 0002:00033410       ?calculateDirection@GameObject@@AEAAXXZ 0000000140056410 f   game-object.obj
 0002:00033640       ?fabs@@YAMM@Z              0000000140056640 f i game-object.obj
 0002:00033f90       ??$_Deallocate@$07$0A@@std@@YAXPEAX_K@Z 0000000140056f90 f i menu-window.obj
 0002:00034dd0       ??0?$_Func_base@XPEAVButton@@@std@@QEAA@XZ 0000000140057dd0 f i menu-window.obj
 0002:00034e20       ??0MenuWindow@@QEAA@PEAVEngine@@AEBV?$Vector2@M@sf@@1@Z 0000000140057e20 f   menu-window.obj
 0002:00035560       ??1MenuWindow@@UEAA@XZ     0000000140058560 f   menu-window.obj
 0002:00035720       ??_GMenuWindow@@UEAAPEAXI@Z 0000000140058720 f i menu-window.obj
 0002:00035720       ??_EMenuWindow@@UEAAPEAXI@Z 0000000140058720 f i menu-window.obj
 0002:00036140       ?onEditorClicked@MenuWindow@@AEAAXPEAVButton@@@Z 0000000140059140 f   menu-window.obj
 0002:00036280       ?onExitClicked@MenuWindow@@AEAAXPEAVButton@@@Z 0000000140059280 f   menu-window.obj
 0002:000362e0       ?onStartClicked@MenuWindow@@AEAAXPEAVButton@@@Z 00000001400592e0 f   menu-window.obj
 0002:00036420       ??0Missile@@QEAA@XZ        0000000140059420 f   missile.obj
 0002:00036470       ??1Missile@@QEAA@XZ        0000000140059470 f   missile.obj
 0002:000364b0       ??0?$Rect@H@sf@@QEAA@AEBV?$Vector2@H@1@0@Z 00000001400594b0 f i object.obj
 0002:00036570       ??0?$Vector2@H@sf@@QEAA@HH@Z 0000000140059570 f i object.obj
 0002:000365f0       ??0Object@@QEAA@AEBV?$Vector2@M@sf@@0@Z 00000001400595f0 f   object.obj
 0002:000366e0       ??0Object@@QEAA@PEBD@Z     00000001400596e0 f   object.obj
 0002:000367e0       ??0Object@@QEAA@PEBV0@@Z   00000001400597e0 f   object.obj
 0002:00036950       ??1Object@@UEAA@XZ         0000000140059950 f   object.obj
 0002:000369c0       ??_EObject@@UEAAPEAXI@Z    00000001400599c0 f i object.obj
 0002:000369c0       ??_GObject@@UEAAPEAXI@Z    00000001400599c0 f i object.obj
 0002:00036a50       ?CalculateSpritePos@Object@@QEAAXXZ 0000000140059a50 f   object.obj
 0002:00036ad0       ?CheckIntersect@Object@@QEBA_NAEBV?$Vector2@M@sf@@@Z 0000000140059ad0 f   object.obj
 0002:00036be0       ?CheckIntersectX@Object@@QEBA_NPEBV1@@Z 0000000140059be0 f   object.obj
 0002:00036db0       ?CheckIntersectY@Object@@QEBA_NPEBV1@@Z 0000000140059db0 f   object.obj
 0002:00036f90       ?Draw@Object@@UEAAXPEAVRenderWindow@sf@@@Z 0000000140059f90 f   object.obj
 0002:00037010       ?GetAbsolutePos@Object@@QEBA?AV?$Vector2@M@sf@@XZ 000000014005a010 f   object.obj
 0002:00037120       ?GetParent@Object@@QEBAPEAV1@XZ 000000014005a120 f   object.obj
 0002:00037170       ?GetPos@Object@@QEBA?AV?$Vector2@M@sf@@XZ 000000014005a170 f   object.obj
 0002:000371e0       ?GetSize@Object@@QEBA?AV?$Vector2@M@sf@@XZ 000000014005a1e0 f   object.obj
 0002:00037250       ?SetParent@Object@@QEAAXPEAV1@@Z 000000014005a250 f   object.obj
 0002:000373b0       ?SetPos@Object@@UEAAXAEBV?$Vector2@M@sf@@@Z 000000014005a3b0 f   object.obj
 0002:00037420       ?SetSize@Object@@QEAAXAEBV?$Vector2@M@sf@@@Z 000000014005a420 f   object.obj
 0002:00037490       ?SetTexture@Object@@QEAA_NPEBD@Z 000000014005a490 f   object.obj
 0002:00037530       ?calculateSpriteSize@Object@@AEAAXXZ 000000014005a530 f   object.obj
 0002:00037760       ??0Player@@QEAA@PEAVGameObject@@@Z 000000014005a760 f   player.obj
 0002:000377d0       ??1Player@@QEAA@XZ         000000014005a7d0 f   player.obj
 0002:00037810       ?HandleEvent@Player@@QEAA_NAEBVEvent@sf@@@Z 000000014005a810 f   player.obj
 0002:000379f0       ??0Tank@@QEAA@PEBD@Z       000000014005a9f0 f   tank.obj
 0002:00037a80       ??0Tank@@QEAA@PEBV0@@Z     000000014005aa80 f   tank.obj
 0002:00037b00       ??1Tank@@UEAA@XZ           000000014005ab00 f   tank.obj
 0002:00037b70       ??_ETank@@UEAAPEAXI@Z      000000014005ab70 f i tank.obj
 0002:00037b70       ??_GTank@@UEAAPEAXI@Z      000000014005ab70 f i tank.obj
 0002:00037c00       ?Clone@Tank@@UEBAPEAVGameObject@@XZ 000000014005ac00 f   tank.obj
 0002:00037cc0       ?OnIntersect@Tank@@UEAAXPEAVGameObject@@@Z 000000014005acc0 f   tank.obj
 0002:00037d10       ??0Wall@@QEAA@PEBD@Z       000000014005ad10 f   wall.obj
 0002:00037d90       ??0Wall@@QEAA@PEBV0@@Z     000000014005ad90 f   wall.obj
 0002:00037e10       ??1Wall@@UEAA@XZ           000000014005ae10 f   wall.obj
 0002:00037e80       ??_EWall@@UEAAPEAXI@Z      000000014005ae80 f i wall.obj
 0002:00037e80       ??_GWall@@UEAAPEAXI@Z      000000014005ae80 f i wall.obj
 0002:00037f10       ?Clone@Wall@@UEBAPEAVGameObject@@XZ 000000014005af10 f   wall.obj
 0002:00037fd0       ?OnIntersect@Wall@@UEAAXPEAVGameObject@@@Z 000000014005afd0 f   wall.obj
 0002:000381c0       ??1WidgetGame@@UEAA@XZ     000000014005b1c0 f   widget-game.obj
 0002:00038230       ??_GWidgetGame@@UEAAPEAXI@Z 000000014005b230 f i widget-game.obj
 0002:00038230       ??_EWidgetGame@@UEAAPEAXI@Z 000000014005b230 f i widget-game.obj
 0002:000382c0       ?Draw@WidgetGame@@UEAAXPEAVRenderWindow@sf@@@Z 000000014005b2c0 f   widget-game.obj
 0002:00038320       ?GetNearestIntersectX@WidgetGame@@AEBAPEAVGameObject@@PEBV2@VTime@sf@@@Z 000000014005b320 f   widget-game.obj
 0002:00038510       ?GetNearestIntersectY@WidgetGame@@AEBAPEAVGameObject@@PEBV2@VTime@sf@@@Z 000000014005b510 f   widget-game.obj
 0002:00038700       ?HandleEvent@WidgetGame@@UEAAXAEBVEvent@sf@@@Z 000000014005b700 f   widget-game.obj
 0002:00038780       ?Update@WidgetGame@@UEAAXAEBVTime@sf@@@Z 000000014005b780 f   widget-game.obj
 0002:00038a30       ?createWorldWalls@WidgetGame@@QEAAXPEBVConfigManager@@@Z 000000014005ba30 f   widget-game.obj
 0002:00038d60       ??0?$Rect@M@sf@@QEAA@MMMM@Z 000000014005bd60 f i widget.obj
 0002:00038e20       ??0Widget@@QEAA@AEBV?$Vector2@M@sf@@0@Z 000000014005be20 f   widget.obj
 0002:00038eb0       ??1Widget@@UEAA@XZ         000000014005beb0 f   widget.obj
 0002:00038f20       ??_GWidget@@UEAAPEAXI@Z    000000014005bf20 f i widget.obj
 0002:00038f20       ??_EWidget@@UEAAPEAXI@Z    000000014005bf20 f i widget.obj
 0002:00038fb0       ?Draw@Widget@@UEAAXPEAVRenderWindow@sf@@@Z 000000014005bfb0 f   widget.obj
 0002:000399b0       ??0?$_Func_base@PEAVObject@@PEAV1@AEBVEvent@sf@@@std@@QEAA@XZ 000000014005c9b0 f i widget-templates.obj
 0002:00039a00       ??0WidgetTemplates@@QEAA@PEAVEngine@@AEBV?$Vector2@M@sf@@1@Z 000000014005ca00 f   widget-templates.obj
 0002:00039ba0       ??1WidgetTemplates@@UEAA@XZ 000000014005cba0 f   widget-templates.obj
 0002:00039c90       ??_GWidgetTemplates@@UEAAPEAXI@Z 000000014005cc90 f i widget-templates.obj
 0002:00039c90       ??_EWidgetTemplates@@UEAAPEAXI@Z 000000014005cc90 f i widget-templates.obj
 0002:0003a170       ??0WidgetGameEditor@@QEAA@PEAVEngine@@AEBV?$Vector2@M@sf@@1@Z 000000014005d170 f   widget-game-editor.obj
 0002:0003a210       ??1WidgetGameEditor@@UEAA@XZ 000000014005d210 f   widget-game-editor.obj
 0002:0003a280       ??_EWidgetGameEditor@@UEAAPEAXI@Z 000000014005d280 f i widget-game-editor.obj
 0002:0003a280       ??_GWidgetGameEditor@@UEAAPEAXI@Z 000000014005d280 f i widget-game-editor.obj
 0002:0003a310       ??0WidgetIlluminatedObject@@QEAA@PEAVObject@@@Z 000000014005d310 f   widget-illuminated-object.obj
 0002:0003a3f0       ??1WidgetIlluminatedObject@@UEAA@XZ 000000014005d3f0 f   widget-illuminated-object.obj
 0002:0003a460       ??_EWidgetIlluminatedObject@@UEAAPEAXI@Z 000000014005d460 f i widget-illuminated-object.obj
 0002:0003a460       ??_GWidgetIlluminatedObject@@UEAAPEAXI@Z 000000014005d460 f i widget-illuminated-object.obj
 0002:0003a4f0       ?Draw@WidgetIlluminatedObject@@UEAAXPEAVRenderWindow@sf@@@Z 000000014005d4f0 f   widget-illuminated-object.obj
 0002:0003a590       ?GetOwnedObject@WidgetIlluminatedObject@@QEBAPEAVObject@@XZ 000000014005d590 f   widget-illuminated-object.obj
 0002:0003a5e0       ?HandleEvent@WidgetIlluminatedObject@@UEAAXAEBVEvent@sf@@@Z 000000014005d5e0 f   widget-illuminated-object.obj
 0002:0003a630       ?SetOwnedObject@WidgetIlluminatedObject@@QEAAXPEAVObject@@@Z 000000014005d630 f   widget-illuminated-object.obj
 0002:0003a7b0       ?SetPos@WidgetIlluminatedObject@@UEAAXAEBV?$Vector2@M@sf@@@Z 000000014005d7b0 f   widget-illuminated-object.obj
 0002:0003a830       ?Update@WidgetIlluminatedObject@@UEAAXAEBVTime@sf@@@Z 000000014005d830 f   widget-illuminated-object.obj
 0002:0003a8b0       ??0?$Window@VWidget@@@@QEAA@AEBV?$Vector2@M@sf@@0@Z 000000014005d8b0 f i window.obj
 0002:0003a940       ??1?$Window@VWidget@@@@UEAA@XZ 000000014005d940 f i window.obj
 0002:0003a9b0       ??_E?$Window@VWidget@@@@UEAAPEAXI@Z 000000014005d9b0 f i window.obj
 0002:0003a9b0       ??_G?$Window@VWidget@@@@UEAAPEAXI@Z 000000014005d9b0 f i window.obj
 0002:0003aa40       ??0WindowGame@@QEAA@PEAVEngine@@AEBV?$Vector2@M@sf@@1@Z 000000014005da40 f   window-game.obj
 0002:0003abf0       ??1WindowGame@@UEAA@XZ     000000014005dbf0 f   window-game.obj
 0002:0003ac60       ??_GWindowGame@@UEAAPEAXI@Z 000000014005dc60 f i window-game.obj
 0002:0003ac60       ??_EWindowGame@@UEAAPEAXI@Z 000000014005dc60 f i window-game.obj
 0002:0003acf0       ?HandleEvent@WindowGame@@UEAAXAEBVEvent@sf@@@Z 000000014005dcf0 f   window-game.obj
 0002:0003dd30       ??0?$_Func_base@XPEAVObject@@AEBVEvent@sf@@@std@@QEAA@XZ 0000000140060d30 f i window-editor.obj
 0002:0003dd80       ??0WindowEditor@@QEAA@PEAVEngine@@AEBV?$Vector2@M@sf@@1@Z 0000000140060d80 f   window-editor.obj
 0002:0003e320       ??1WindowEditor@@UEAA@XZ   0000000140061320 f   window-editor.obj
 0002:0003e6b0       ??_GWindowEditor@@UEAAPEAXI@Z 00000001400616b0 f i window-editor.obj
 0002:0003e6b0       ??_EWindowEditor@@UEAAPEAXI@Z 00000001400616b0 f i window-editor.obj
 0002:0003e740       ?HandleEvent@WindowEditor@@UEAAXAEBVEvent@sf@@@Z 0000000140061740 f   window-editor.obj
 0002:0003fc70       ?isShiftPressed@WindowEditor@@AEBA_NXZ 0000000140062c70 f   window-editor.obj
 0002:0003fcc0       ?loadLevel@WindowEditor@@AEAAXXZ 0000000140062cc0 f   window-editor.obj
 0002:0003fe80       ?onMoveListener@WindowEditor@@AEAAXPEAVObject@@AEBVEvent@sf@@@Z 0000000140062e80 f   window-editor.obj
 0002:000404f0       ?onMovingEndListener@WindowEditor@@AEAAXPEAVObject@@AEBVEvent@sf@@@Z 00000001400634f0 f   window-editor.obj
 0002:000406f0       ?saveLevel@WindowEditor@@AEAAXXZ 00000001400636f0 f   window-editor.obj
 0002:00040770       ?setShiftPressed@WindowEditor@@AEAAX_N@Z 0000000140063770 f   window-editor.obj
 0002:000407cc       ??0Texture@sf@@QEAA@XZ     00000001400637cc f   sfml-graphics-d:sfml-graphics-d-2.dll
 0002:000407d2       ?loadFromFile@Texture@sf@@QEAA_NAEBV?$basic_string@DU?$char_traits@D@std@@V?$allocator@D@2@@std@@AEBV?$Rect@H@2@@Z 00000001400637d2 f   sfml-graphics-d:sfml-graphics-d-2.dll
 0002:000407d8       ?setPosition@Transformable@sf@@QEAAXMM@Z 00000001400637d8 f   sfml-graphics-d:sfml-graphics-d-2.dll
 0002:000407de       ?setOrigin@Transformable@sf@@QEAAXAEBV?$Vector2@M@2@@Z 00000001400637de f   sfml-graphics-d:sfml-graphics-d-2.dll
 0002:000407e4       ??0Font@sf@@QEAA@XZ        00000001400637e4 f   sfml-graphics-d:sfml-graphics-d-2.dll
 0002:000407ea       ??1Font@sf@@QEAA@XZ        00000001400637ea f   sfml-graphics-d:sfml-graphics-d-2.dll
 0002:000407f0       ?loadFromFile@Font@sf@@QEAA_NAEBV?$basic_string@DU?$char_traits@D@std@@V?$allocator@D@2@@std@@@Z 00000001400637f0 f   sfml-graphics-d:sfml-graphics-d-2.dll
 0002:000407f6       ?draw@RenderTarget@sf@@QEAAXAEBVDrawable@2@AEBVRenderStates@2@@Z 00000001400637f6 f   sfml-graphics-d:sfml-graphics-d-2.dll
 0002:000407fc       ??0Text@sf@@QEAA@XZ        00000001400637fc f   sfml-graphics-d:sfml-graphics-d-2.dll
 0002:00040802       ?setString@Text@sf@@QEAAXAEBVString@2@@Z 0000000140063802 f   sfml-graphics-d:sfml-graphics-d-2.dll
 0002:00040808       ?setFont@Text@sf@@QEAAXAEBVFont@2@@Z 0000000140063808 f   sfml-graphics-d:sfml-graphics-d-2.dll
 0002:0004080e       ?setCharacterSize@Text@sf@@QEAAXI@Z 000000014006380e f   sfml-graphics-d:sfml-graphics-d-2.dll
 0002:00040814       ?setColor@Text@sf@@QEAAXAEBVColor@2@@Z 0000000140063814 f   sfml-graphics-d:sfml-graphics-d-2.dll
 0002:0004081a       ?getString@Text@sf@@QEBAAEBVString@2@XZ 000000014006381a f   sfml-graphics-d:sfml-graphics-d-2.dll
 0002:00040820       ?getLocalBounds@Text@sf@@QEBA?AV?$Rect@M@2@XZ 0000000140063820 f   sfml-graphics-d:sfml-graphics-d-2.dll
 0002:00040826       ??1Text@sf@@UEAA@XZ        0000000140063826 f   sfml-graphics-d:sfml-graphics-d-2.dll
 0002:0004082c       ??0Color@sf@@QEAA@EEEE@Z   000000014006382c f   sfml-graphics-d:sfml-graphics-d-2.dll
 0002:00040832       ?clear@RenderTarget@sf@@QEAAXAEBVColor@2@@Z 0000000140063832 f   sfml-graphics-d:sfml-graphics-d-2.dll
 0002:00040838       ??0RenderWindow@sf@@QEAA@VVideoMode@1@AEBVString@1@IAEBUContextSettings@1@@Z 0000000140063838 f   sfml-graphics-d:sfml-graphics-d-2.dll
 0002:0004083e       ??1RenderWindow@sf@@UEAA@XZ 000000014006383e f   sfml-graphics-d:sfml-graphics-d-2.dll
 0002:00040844       ?getSize@RenderWindow@sf@@UEBA?AV?$Vector2@I@2@XZ 0000000140063844 f   sfml-graphics-d:sfml-graphics-d-2.dll
 0002:0004084a       ?onCreate@RenderWindow@sf@@MEAAXXZ 000000014006384a f   sfml-graphics-d:sfml-graphics-d-2.dll
 0002:00040850       ?onResize@RenderWindow@sf@@MEAAXXZ 0000000140063850 f   sfml-graphics-d:sfml-graphics-d-2.dll
 0002:00040856       ?setActive@RenderWindow@sf@@UEAA_N_N@Z 0000000140063856 f   sfml-graphics-d:sfml-graphics-d-2.dll
 0002:0004085c       ?setPosition@Transformable@sf@@QEAAXAEBV?$Vector2@M@2@@Z 000000014006385c f   sfml-graphics-d:sfml-graphics-d-2.dll
 0002:00040862       ?setScale@Transformable@sf@@QEAAXAEBV?$Vector2@M@2@@Z 0000000140063862 f   sfml-graphics-d:sfml-graphics-d-2.dll
 0002:00040868       ?getSize@Texture@sf@@QEBA?AV?$Vector2@I@2@XZ 0000000140063868 f   sfml-graphics-d:sfml-graphics-d-2.dll
 0002:0004086e       ??0Sprite@sf@@QEAA@XZ      000000014006386e f   sfml-graphics-d:sfml-graphics-d-2.dll
 0002:00040874       ?setTexture@Sprite@sf@@QEAAXAEBVTexture@2@_N@Z 0000000140063874 f   sfml-graphics-d:sfml-graphics-d-2.dll
 0002:0004087a       ?setTextureRect@Sprite@sf@@QEAAXAEBV?$Rect@H@2@@Z 000000014006387a f   sfml-graphics-d:sfml-graphics-d-2.dll
 0002:00040880       ?getTexture@Sprite@sf@@QEBAPEBVTexture@2@XZ 0000000140063880 f   sfml-graphics-d:sfml-graphics-d-2.dll
 0002:00040886       ??1Sprite@sf@@UEAA@XZ      0000000140063886 f   sfml-graphics-d:sfml-graphics-d-2.dll
 0002:0004088c       ??4Sprite@sf@@QEAAAEAV01@AEBV01@@Z 000000014006388c f   sfml-graphics-d:sfml-graphics-d-2.dll
 0002:00040892       ??0View@sf@@QEAA@XZ        0000000140063892 f   sfml-graphics-d:sfml-graphics-d-2.dll
 0002:00040898       ?setViewport@View@sf@@QEAAXAEBV?$Rect@M@2@@Z 0000000140063898 f   sfml-graphics-d:sfml-graphics-d-2.dll
 0002:0004089e       ??0VideoMode@sf@@QEAA@III@Z 000000014006389e f   sfml-window-d:sfml-window-d-2.dll
 0002:000408a4       ?close@Window@sf@@QEAAXXZ  00000001400638a4 f   sfml-window-d:sfml-window-d-2.dll
 0002:000408aa       ?isOpen@Window@sf@@QEBA_NXZ 00000001400638aa f   sfml-window-d:sfml-window-d-2.dll
 0002:000408b0       ?pollEvent@Window@sf@@QEAA_NAEAVEvent@2@@Z 00000001400638b0 f   sfml-window-d:sfml-window-d-2.dll
 0002:000408b6       ?display@Window@sf@@QEAAXXZ 00000001400638b6 f   sfml-window-d:sfml-window-d-2.dll
 0002:000408bc       ??0String@sf@@QEAA@PEB_W@Z 00000001400638bc f   sfml-system-d:sfml-system-d-2.dll
 0002:000408c2       ?toWideString@String@sf@@QEBA?AV?$basic_string@_WU?$char_traits@_W@std@@V?$allocator@_W@2@@std@@XZ 00000001400638c2 f   sfml-system-d:sfml-system-d-2.dll
 0002:000408c8       ??1String@sf@@QEAA@XZ      00000001400638c8 f   sfml-system-d:sfml-system-d-2.dll
 0002:000408ce       ?asMilliseconds@Time@sf@@QEBAHXZ 00000001400638ce f   sfml-system-d:sfml-system-d-2.dll
 0002:000408d4       ??Gsf@@YA?AVTime@0@V10@0@Z 00000001400638d4 f   sfml-system-d:sfml-system-d-2.dll
 0002:000408da       ??0Clock@sf@@QEAA@XZ       00000001400638da f   sfml-system-d:sfml-system-d-2.dll
 0002:000408e0       ?getElapsedTime@Clock@sf@@QEBA?AVTime@2@XZ 00000001400638e0 f   sfml-system-d:sfml-system-d-2.dll
 0002:000408e6       ??0String@sf@@QEAA@PEBDAEBVlocale@std@@@Z 00000001400638e6 f   sfml-system-d:sfml-system-d-2.dll
 0002:000408ec       ??0_Lockit@std@@QEAA@H@Z   00000001400638ec f   msvcprtd:MSVCP140D.dll
 0002:000408f2       ??1_Lockit@std@@QEAA@XZ    00000001400638f2 f   msvcprtd:MSVCP140D.dll
 0002:000408f8       ?_Debug_message@std@@YAXPEB_W0I@Z 00000001400638f8 f   msvcprtd:MSVCP140D.dll
 0002:000408fe       ?_Xbad_alloc@std@@YAXXZ    00000001400638fe f   msvcprtd:MSVCP140D.dll
 0002:00040904       ?_Xlength_error@std@@YAXPEBD@Z 0000000140063904 f   msvcprtd:MSVCP140D.dll
 0002:0004090a       _Mbrtowc                   000000014006390a f   msvcprtd:MSVCP140D.dll
 0002:00040910       ?_Getcvt@_Locinfo@std@@QEBA?AU_Cvtvec@@XZ 0000000140063910 f   msvcprtd:MSVCP140D.dll
 0002:00040916       ?_Getdays@_Locinfo@std@@QEBAPEBDXZ 0000000140063916 f   msvcprtd:MSVCP140D.dll
 0002:0004091c       ?_Getmonths@_Locinfo@std@@QEBAPEBDXZ 000000014006391c f   msvcprtd:MSVCP140D.dll
 0002:00040922       ?_W_Getdays@_Locinfo@std@@QEBAPEBGXZ 0000000140063922 f   msvcprtd:MSVCP140D.dll
 0002:00040928       ?_W_Getmonths@_Locinfo@std@@QEBAPEBGXZ 0000000140063928 f   msvcprtd:MSVCP140D.dll
 0002:0004092e       ?_Xbad_function_call@std@@YAXXZ 000000014006392e f   msvcprtd:MSVCP140D.dll
 0002:00040934       ?_Xinvalid_argument@std@@YAXPEBD@Z 0000000140063934 f   msvcprtd:MSVCP140D.dll
 0002:0004093a       ?_Xout_of_range@std@@YAXPEBD@Z 000000014006393a f   msvcprtd:MSVCP140D.dll
 0002:00040940       ?_Init@locale@std@@CAPEAV_Locimp@12@_N@Z 0000000140063940 f   msvcprtd:MSVCP140D.dll
 0002:00040950       ??2@YAPEAX_K@Z             0000000140063950 f   MSVCRTD:new_scalar.obj
 0002:000409c0       ??3@YAXPEAX_K@Z            00000001400639c0 f   MSVCRTD:delete_scalar_size.obj
 0002:000409f0       _RTC_AllocaHelper          00000001400639f0 f   MSVCRTD:_stack_.obj
 0002:00040a40       _RTC_CheckStackVars        0000000140063a40 f   MSVCRTD:_stack_.obj
 0002:00040af0       _RTC_CheckStackVars2       0000000140063af0 f   MSVCRTD:_stack_.obj
 0002:00040c40       _CRT_RTC_INIT              0000000140063c40 f   MSVCRTD:_init_.obj
 0002:00040c50       _CRT_RTC_INITW             0000000140063c50 f   MSVCRTD:_init_.obj
 0002:00040c60       _RTC_InitBase              0000000140063c60 f   MSVCRTD:_init_.obj
 0002:00040cb0       _RTC_Shutdown              0000000140063cb0 f   MSVCRTD:_init_.obj
 0002:00040ce0       __GSHandlerCheck           0000000140063ce0 f   MSVCRTD:_gshandler_.obj
 0002:00040d30       __GSHandlerCheckCommon     0000000140063d30 f   MSVCRTD:_gshandler_.obj
 0002:00040e70       __GSHandlerCheck_EH        0000000140063e70 f   MSVCRTD:gshandlereh.obj
 0002:00040f50       __security_check_cookie    0000000140063f50 f   MSVCRTD:_amdsecgs_.obj
 0002:00040f80       ??$__crt_fast_decode_pointer@PEAP6AXXZ@@YAPEAP6AXXZQEAP6AXXZ@Z 0000000140063f80 f i MSVCRTD:utility.obj
 0002:00040fd0       ??$__crt_fast_encode_pointer@PEAP6AXXZ@@YAPEAP6AXXZQEAP6AXXZ@Z 0000000140063fd0 f i MSVCRTD:utility.obj
 0002:00041020       ?__crt_rotate_pointer_value@@YA_K_KH@Z 0000000140064020 f i MSVCRTD:utility.obj
 0002:00041040       ?configure_argv@__scrt_narrow_argv_policy@@SAHXZ 0000000140064040 f i MSVCRTD:utility.obj
 0002:00041160       ?initialize_environment@__scrt_narrow_environment_policy@@SAHXZ 0000000140064160 f i MSVCRTD:utility.obj
 0002:00041230       NtCurrentTeb               0000000140064230 f i MSVCRTD:utility.obj
 0002:00041240       __scrt_acquire_startup_lock 0000000140064240 f   MSVCRTD:utility.obj
 0002:000412c0       __scrt_dllmain_after_initialize_c 00000001400642c0 f   MSVCRTD:utility.obj
 0002:00041300       __scrt_dllmain_before_initialize_c 0000000140064300 f   MSVCRTD:utility.obj
 0002:00041330       __scrt_dllmain_crt_thread_attach 0000000140064330 f   MSVCRTD:utility.obj
 0002:00041370       __scrt_dllmain_crt_thread_detach 0000000140064370 f   MSVCRTD:utility.obj
 0002:00041390       __scrt_dllmain_exception_filter 0000000140064390 f   MSVCRTD:utility.obj
 0002:00041410       __scrt_dllmain_uninitialize_c 0000000140064410 f   MSVCRTD:utility.obj
 0002:00041450       __scrt_dllmain_uninitialize_critical 0000000140064450 f   MSVCRTD:utility.obj
 0002:00041470       __scrt_initialize_crt      0000000140064470 f   MSVCRTD:utility.obj
 0002:000414d0       __scrt_initialize_onexit_tables 00000001400644d0 f   MSVCRTD:utility.obj
 0002:00041620       __scrt_is_nonwritable_in_current_image 0000000140064620 f   MSVCRTD:utility.obj
 0002:000416d0       __scrt_release_startup_lock 00000001400646d0 f   MSVCRTD:utility.obj
 0002:00041710       __scrt_uninitialize_crt    0000000140064710 f   MSVCRTD:utility.obj
 0002:00041760       _onexit                    0000000140064760 f   MSVCRTD:utility.obj
 0002:00041810       at_quick_exit              0000000140064810 f   MSVCRTD:utility.obj
 0002:00041880       atexit                     0000000140064880 f   MSVCRTD:utility.obj
 0002:000418c0       ??1type_info@@UEAA@XZ      00000001400648c0 f   MSVCRTD:std_type_info_static.obj
 0002:000418e0       ??_Gtype_info@@UEAAPEAXI@Z 00000001400648e0 f i MSVCRTD:std_type_info_static.obj
 0002:000418e0       ??_Etype_info@@UEAAPEAXI@Z 00000001400648e0 f i MSVCRTD:std_type_info_static.obj
 0002:00041930       ??_U@YAPEAX_K@Z            0000000140064930 f   MSVCRTD:new_array.obj
 0002:00041a00       ?_RTC_AllocaFailure@@YAXPEAXPEAU_RTC_ALLOCA_NODE@@H@Z 0000000140064a00 f   MSVCRTD:_error_.obj
 0002:00041bb0       ?_RTC_Failure@@YAXPEAXH@Z  0000000140064bb0 f   MSVCRTD:_error_.obj
 0002:00041c20       ?_RTC_StackFailure@@YAXPEAXPEBD@Z 0000000140064c20 f   MSVCRTD:_error_.obj
 0002:00042160       _RTC_UninitUse             0000000140065160 f   MSVCRTD:_error_.obj
 0002:000425d0       ?set_app_type@__scrt_winmain_policy@@SAXXZ 00000001400655d0 f i MSVCRTD:exe_winmain.obj
 0002:000425f0       ?set_commode@__scrt_file_policy@@SAXXZ 00000001400655f0 f i MSVCRTD:exe_winmain.obj
 0002:00042620       ?set_fmode@__scrt_file_policy@@SAXXZ 0000000140065620 f i MSVCRTD:exe_winmain.obj
 0002:00042640       WinMainCRTStartup          0000000140065640 f   MSVCRTD:exe_winmain.obj
 0002:00042660       ??0bad_alloc@std@@AEAA@QEBD@Z 0000000140065660 f i MSVCRTD:throw_bad_alloc.obj
 0002:000426b0       ??0bad_alloc@std@@QEAA@AEBV01@@Z 00000001400656b0 f i MSVCRTD:throw_bad_alloc.obj
 0002:00042700       ??0bad_alloc@std@@QEAA@XZ  0000000140065700 f i MSVCRTD:throw_bad_alloc.obj
 0002:00042750       ??0bad_array_new_length@std@@QEAA@AEBV01@@Z 0000000140065750 f i MSVCRTD:throw_bad_alloc.obj
 0002:000427a0       ??0bad_array_new_length@std@@QEAA@XZ 00000001400657a0 f i MSVCRTD:throw_bad_alloc.obj
 0002:000427e0       ??0exception@std@@QEAA@AEBV01@@Z 00000001400657e0 f i MSVCRTD:throw_bad_alloc.obj
 0002:00042850       ??0exception@std@@QEAA@QEBDH@Z 0000000140065850 f i MSVCRTD:throw_bad_alloc.obj
 0002:000428b0       ??1bad_alloc@std@@UEAA@XZ  00000001400658b0 f i MSVCRTD:throw_bad_alloc.obj
 0002:000428d0       ??1bad_array_new_length@std@@UEAA@XZ 00000001400658d0 f i MSVCRTD:throw_bad_alloc.obj
 0002:000428f0       ??1exception@std@@UEAA@XZ  00000001400658f0 f i MSVCRTD:throw_bad_alloc.obj
 0002:00042930       ??_Ebad_alloc@std@@UEAAPEAXI@Z 0000000140065930 f i MSVCRTD:throw_bad_alloc.obj
 0002:00042930       ??_Gbad_alloc@std@@UEAAPEAXI@Z 0000000140065930 f i MSVCRTD:throw_bad_alloc.obj
 0002:00042980       ??_Ebad_array_new_length@std@@UEAAPEAXI@Z 0000000140065980 f i MSVCRTD:throw_bad_alloc.obj
 0002:00042980       ??_Gbad_array_new_length@std@@UEAAPEAXI@Z 0000000140065980 f i MSVCRTD:throw_bad_alloc.obj
 0002:000429d0       ??_Eexception@std@@UEAAPEAXI@Z 00000001400659d0 f i MSVCRTD:throw_bad_alloc.obj
 0002:000429d0       ??_Gexception@std@@UEAAPEAXI@Z 00000001400659d0 f i MSVCRTD:throw_bad_alloc.obj
 0002:00042a20       ?__scrt_throw_std_bad_alloc@@YAXXZ 0000000140065a20 f   MSVCRTD:throw_bad_alloc.obj
 0002:00042a50       ?__scrt_throw_std_bad_array_new_length@@YAXXZ 0000000140065a50 f   MSVCRTD:throw_bad_alloc.obj
 0002:00042a80       ?what@exception@std@@UEBAPEBDXZ 0000000140065a80 f i MSVCRTD:throw_bad_alloc.obj
 0002:00042ad0       ??3@YAXPEAX@Z              0000000140065ad0 f   MSVCRTD:delete_scalar.obj
 0002:00042b00       ?_RTC_GetErrorFunc@@YAP6AHHPEBDH00ZZPEBX@Z 0000000140065b00 f   MSVCRTD:_userapi_.obj
 0002:00042b10       ?_RTC_GetErrorFuncW@@YAP6AHHPEB_WH00ZZPEBX@Z 0000000140065b10 f   MSVCRTD:_userapi_.obj
 0002:00042b20       _RTC_GetErrDesc            0000000140065b20 f   MSVCRTD:_userapi_.obj
 0002:00042b40       _RTC_NumErrors             0000000140065b40 f   MSVCRTD:_userapi_.obj
 0002:00042b50       _RTC_SetErrorFunc          0000000140065b50 f   MSVCRTD:_userapi_.obj
 0002:00042b70       _RTC_SetErrorFuncW         0000000140065b70 f   MSVCRTD:_userapi_.obj
 0002:00042b90       _RTC_SetErrorType          0000000140065b90 f   MSVCRTD:_userapi_.obj
 0002:00042bc0       __raise_securityfailure    0000000140065bc0 f   MSVCRTD:gs_report.obj
 0002:00042c10       __report_gsfailure         0000000140065c10 f   MSVCRTD:gs_report.obj
 0002:00042d20       __report_rangecheckfailure 0000000140065d20 f   MSVCRTD:gs_report.obj
 0002:00042d40       __report_securityfailure   0000000140065d40 f   MSVCRTD:gs_report.obj
 0002:00042e10       __report_securityfailureEx 0000000140065e10 f   MSVCRTD:gs_report.obj
 0002:00043110       __isa_available_init       0000000140066110 f   MSVCRTD:_cpu_disp_.obj
 0002:00043560       _get_startup_argv_mode     0000000140066560 f   MSVCRTD:argv_mode.obj
 0002:00043570       __scrt_is_ucrt_dll_in_use  0000000140066570 f   MSVCRTD:ucrt_detection.obj
 0002:000435a0       __crt_debugger_hook        00000001400665a0 f   MSVCRTD:utility_desktop.obj
 0002:000435c0       __scrt_fastfail            00000001400665c0 f   MSVCRTD:utility_desktop.obj
 0002:000437c0       __scrt_get_show_window_mode 00000001400667c0 f   MSVCRTD:utility_desktop.obj
 0002:00043830       __scrt_initialize_winrt    0000000140066830 f   MSVCRTD:utility_desktop.obj
 0002:00043840       __scrt_is_managed_app      0000000140066840 f   MSVCRTD:utility_desktop.obj
 0002:00043910       __scrt_set_unhandled_exception_filter 0000000140066910 f   MSVCRTD:utility_desktop.obj
 0002:00043930       __scrt_unhandled_exception_filter 0000000140066930 f   MSVCRTD:utility_desktop.obj
 0002:000439c0       _guard_check_icall_nop     00000001400669c0 f i MSVCRTD:guard_support.obj
 0002:000439d0       ReadNoFence64              00000001400669d0 f i MSVCRTD:guard_support.obj
 0002:00043a00       ReadPointerNoFence         0000000140066a00 f i MSVCRTD:guard_support.obj
 0002:00043a20       _guard_icall_checks_enforced 0000000140066a20 f i MSVCRTD:guard_support.obj
 0002:00043a70       _guard_rf_checks_enforced  0000000140066a70 f i MSVCRTD:guard_support.obj
 0002:000440d0       ?_RTC_GetSrcLine@@YAHPEAEPEA_WKPEAH1K@Z 00000001400670d0 f   MSVCRTD:_pdblkup_.obj
 0002:00044680       __security_init_cookie     0000000140067680 f   MSVCRTD:gs_support.obj
 0002:00044720       _matherr                   0000000140067720 f   MSVCRTD:matherr.obj
 0002:00044730       _get_startup_commit_mode   0000000140067730 f   MSVCRTD:commit_mode.obj
 0002:00044740       _get_startup_file_mode     0000000140067740 f   MSVCRTD:file_mode.obj
 0002:00044750       _get_startup_new_mode      0000000140067750 f   MSVCRTD:new_mode.obj
 0002:00044760       _get_startup_thread_locale_mode 0000000140067760 f   MSVCRTD:thread_locale.obj
 0002:00044770       ?__scrt_initialize_type_info@@YAXXZ 0000000140067770 f   MSVCRTD:tncleanup.obj
 0002:00044790       ?__scrt_uninitialize_type_info@@YAXXZ 0000000140067790 f   MSVCRTD:tncleanup.obj
 0002:000447b0       _should_initialize_environment 00000001400677b0 f   MSVCRTD:env_mode.obj
 0002:000447c0       _initialize_invalid_parameter_handler 00000001400677c0 f   MSVCRTD:invalid_parameter_handler.obj
 0002:000447d0       _initialize_denormal_control 00000001400677d0 f   MSVCRTD:denormal_control.obj
 0002:000447e0       __local_stdio_scanf_options 00000001400677e0 f i MSVCRTD:default_local_stdio_options.obj
 0002:000447f0       __scrt_initialize_default_local_stdio_options 00000001400677f0 f   MSVCRTD:default_local_stdio_options.obj
 0002:00044850       __scrt_is_user_matherr_present 0000000140067850 f   MSVCRTD:matherr_detection.obj
 0002:00044880       __scrt_get_dyn_tls_init_callback 0000000140067880 f   MSVCRTD:dyn_tls_init.obj
 0002:00044890       __scrt_get_dyn_tls_dtor_callback 0000000140067890 f   MSVCRTD:dyn_tls_dtor.obj
 0002:000448a0       _RTC_Initialize            00000001400678a0 f   MSVCRTD:_initsect_.obj
 0002:00044900       _RTC_Terminate             0000000140067900 f   MSVCRTD:_initsect_.obj
 0002:00044960       memcmp                     0000000140067960 f   vcruntimed:VCRUNTIME140D.dll
 0002:00044966       memcpy                     0000000140067966 f   vcruntimed:VCRUNTIME140D.dll
 0002:0004496c       memmove                    000000014006796c f   vcruntimed:VCRUNTIME140D.dll
 0002:00044972       _CxxThrowException         0000000140067972 f   vcruntimed:VCRUNTIME140D.dll
 0002:00044978       __CxxFrameHandler3         0000000140067978 f   vcruntimed:VCRUNTIME140D.dll
 0002:0004497e       memset                     000000014006797e f   vcruntimed:VCRUNTIME140D.dll
 0002:00044984       __RTDynamicCast            0000000140067984 f   vcruntimed:VCRUNTIME140D.dll
 0002:0004498a       _purecall                  000000014006798a f   vcruntimed:VCRUNTIME140D.dll
 0002:00044990       __C_specific_handler       0000000140067990 f   vcruntimed:VCRUNTIME140D.dll
 0002:00044996       __C_specific_handler_noexcept 0000000140067996 f   vcruntimed:VCRUNTIME140D.dll
 0002:0004499c       __std_exception_copy       000000014006799c f   vcruntimed:VCRUNTIME140D.dll
 0002:000449a2       __std_exception_destroy    00000001400679a2 f   vcruntimed:VCRUNTIME140D.dll
 0002:000449a8       __vcrt_GetModuleFileNameW  00000001400679a8 f   vcruntimed:VCRUNTIME140D.dll
 0002:000449ae       __vcrt_GetModuleHandleW    00000001400679ae f   vcruntimed:VCRUNTIME140D.dll
 0002:000449b4       __vcrt_LoadLibraryExW      00000001400679b4 f   vcruntimed:VCRUNTIME140D.dll
 0002:000449ba       __std_type_info_destroy_list 00000001400679ba f   vcruntimed:VCRUNTIME140D.dll
 0002:000449c0       _invalid_parameter         00000001400679c0 f   ucrtd:ucrtbased.dll
 0002:000449c6       wcslen                     00000001400679c6 f   ucrtd:ucrtbased.dll
 0002:000449cc       strlen                     00000001400679cc f   ucrtd:ucrtbased.dll
 0002:000449d2       _calloc_dbg                00000001400679d2 f   ucrtd:ucrtbased.dll
 0002:000449d8       _CrtDbgReportW             00000001400679d8 f   ucrtd:ucrtbased.dll
 0002:000449de       _errno                     00000001400679de f   ucrtd:ucrtbased.dll
 0002:000449e4       strtof                     00000001400679e4 f   ucrtd:ucrtbased.dll
 0002:000449ea       strtol                     00000001400679ea f   ucrtd:ucrtbased.dll
 0002:000449f0       __acrt_iob_func            00000001400679f0 f   ucrtd:ucrtbased.dll
 0002:000449f6       fclose                     00000001400679f6 f   ucrtd:ucrtbased.dll
 0002:000449fc       feof                       00000001400679fc f   ucrtd:ucrtbased.dll
 0002:00044a02       fopen                      0000000140067a02 f   ucrtd:ucrtbased.dll
 0002:00044a08       fread                      0000000140067a08 f   ucrtd:ucrtbased.dll
 0002:00044a0e       fwrite                     0000000140067a0e f   ucrtd:ucrtbased.dll
 0002:00044a14       __stdio_common_vfprintf    0000000140067a14 f   ucrtd:ucrtbased.dll
 0002:00044a1a       __stdio_common_vsprintf    0000000140067a1a f   ucrtd:ucrtbased.dll
 0002:00044a20       __stdio_common_vsprintf_s  0000000140067a20 f   ucrtd:ucrtbased.dll
 0002:00044a26       rand                       0000000140067a26 f   ucrtd:ucrtbased.dll
 0002:00044a2c       fabs                       0000000140067a2c f   ucrtd:ucrtbased.dll
 0002:00044a32       _callnewh                  0000000140067a32 f   ucrtd:ucrtbased.dll
 0002:00044a38       malloc                     0000000140067a38 f   ucrtd:ucrtbased.dll
 0002:00044a3e       _CrtDbgReport              0000000140067a3e f   ucrtd:ucrtbased.dll
 0002:00044a44       _seh_filter_dll            0000000140067a44 f   ucrtd:ucrtbased.dll
 0002:00044a4a       _configure_narrow_argv     0000000140067a4a f   ucrtd:ucrtbased.dll
 0002:00044a50       _initialize_narrow_environment 0000000140067a50 f   ucrtd:ucrtbased.dll
 0002:00044a56       _initialize_onexit_table   0000000140067a56 f   ucrtd:ucrtbased.dll
 0002:00044a5c       _register_onexit_function  0000000140067a5c f   ucrtd:ucrtbased.dll
 0002:00044a62       _execute_onexit_table      0000000140067a62 f   ucrtd:ucrtbased.dll
 0002:00044a68       _crt_atexit                0000000140067a68 f   ucrtd:ucrtbased.dll
 0002:00044a6e       _crt_at_quick_exit         0000000140067a6e f   ucrtd:ucrtbased.dll
 0002:00044a74       _cexit                     0000000140067a74 f   ucrtd:ucrtbased.dll
 0002:00044a7a       strcpy_s                   0000000140067a7a f   ucrtd:ucrtbased.dll
 0002:00044a80       strcat_s                   0000000140067a80 f   ucrtd:ucrtbased.dll
 0002:00044a86       _seh_filter_exe            0000000140067a86 f   ucrtd:ucrtbased.dll
 0002:00044a8c       _set_app_type              0000000140067a8c f   ucrtd:ucrtbased.dll
 0002:00044a92       __setusermatherr           0000000140067a92 f   ucrtd:ucrtbased.dll
 0002:00044a98       _get_narrow_winmain_command_line 0000000140067a98 f   ucrtd:ucrtbased.dll
 0002:00044a9e       _initterm                  0000000140067a9e f   ucrtd:ucrtbased.dll
 0002:00044aa4       _initterm_e                0000000140067aa4 f   ucrtd:ucrtbased.dll
 0002:00044aaa       exit                       0000000140067aaa f   ucrtd:ucrtbased.dll
 0002:00044ab0       _exit                      0000000140067ab0 f   ucrtd:ucrtbased.dll
 0002:00044ab6       _set_fmode                 0000000140067ab6 f   ucrtd:ucrtbased.dll
 0002:00044abc       _c_exit                    0000000140067abc f   ucrtd:ucrtbased.dll
 0002:00044ac2       _register_thread_local_exe_atexit_callback 0000000140067ac2 f   ucrtd:ucrtbased.dll
 0002:00044ac8       _configthreadlocale        0000000140067ac8 f   ucrtd:ucrtbased.dll
 0002:00044ace       _set_new_mode              0000000140067ace f   ucrtd:ucrtbased.dll
 0002:00044ad4       __p__commode               0000000140067ad4 f   ucrtd:ucrtbased.dll
 0002:00044ada       _free_dbg                  0000000140067ada f   ucrtd:ucrtbased.dll
 0002:00044ae0       terminate                  0000000140067ae0 f   ucrtd:ucrtbased.dll
 0002:00044ae6       _wmakepath_s               0000000140067ae6 f   ucrtd:ucrtbased.dll
 0002:00044aec       _wsplitpath_s              0000000140067aec f   ucrtd:ucrtbased.dll
 0002:00044af2       wcscpy_s                   0000000140067af2 f   ucrtd:ucrtbased.dll
 0002:00044af8       IsDebuggerPresent          0000000140067af8 f   kernel32:KERNEL32.dll
 0002:00044afe       RaiseException             0000000140067afe f   kernel32:KERNEL32.dll
 0002:00044b04       MultiByteToWideChar        0000000140067b04 f   kernel32:KERNEL32.dll
 0002:00044b0a       WideCharToMultiByte        0000000140067b0a f   kernel32:KERNEL32.dll
 0002:00044b10       RtlCaptureContext          0000000140067b10 f   kernel32:KERNEL32.dll
 0002:00044b16       RtlLookupFunctionEntry     0000000140067b16 f   kernel32:KERNEL32.dll
 0002:00044b1c       RtlVirtualUnwind           0000000140067b1c f   kernel32:KERNEL32.dll
 0002:00044b22       UnhandledExceptionFilter   0000000140067b22 f   kernel32:KERNEL32.dll
 0002:00044b28       SetUnhandledExceptionFilter 0000000140067b28 f   kernel32:KERNEL32.dll
 0002:00044b2e       GetCurrentProcess          0000000140067b2e f   kernel32:KERNEL32.dll
 0002:00044b34       TerminateProcess           0000000140067b34 f   kernel32:KERNEL32.dll
 0002:00044b3a       IsProcessorFeaturePresent  0000000140067b3a f   kernel32:KERNEL32.dll
 0002:00044b40       GetStartupInfoW            0000000140067b40 f   kernel32:KERNEL32.dll
 0002:00044b46       GetModuleHandleW           0000000140067b46 f   kernel32:KERNEL32.dll
 0002:00044b4c       GetLastError               0000000140067b4c f   kernel32:KERNEL32.dll
 0002:00044b52       HeapAlloc                  0000000140067b52 f   kernel32:KERNEL32.dll
 0002:00044b58       HeapFree                   0000000140067b58 f   kernel32:KERNEL32.dll
 0002:00044b5e       GetProcessHeap             0000000140067b5e f   kernel32:KERNEL32.dll
 0002:00044b64       VirtualQuery               0000000140067b64 f   kernel32:KERNEL32.dll
 0002:00044b6a       FreeLibrary                0000000140067b6a f   kernel32:KERNEL32.dll
 0002:00044b70       GetProcAddress             0000000140067b70 f   kernel32:KERNEL32.dll
 0002:00044b76       QueryPerformanceCounter    0000000140067b76 f   kernel32:KERNEL32.dll
 0002:00044b7c       GetCurrentProcessId        0000000140067b7c f   kernel32:KERNEL32.dll
 0002:00044b82       GetCurrentThreadId         0000000140067b82 f   kernel32:KERNEL32.dll
 0002:00044b88       GetSystemTimeAsFileTime    0000000140067b88 f   kernel32:KERNEL32.dll
 0002:00044b8e       InitializeSListHead        0000000140067b8e f   kernel32:KERNEL32.dll
 0002:00044ba0       __vcrt_initialize          0000000140067ba0 f   MSVCRTD:ucrt_stubs.obj
 0002:00044ba0       __acrt_initialize          0000000140067ba0 f   MSVCRTD:ucrt_stubs.obj
 0002:00044ba0       __scrt_stub_for_acrt_initialize 0000000140067ba0 f   MSVCRTD:ucrt_stubs.obj
 0002:00044bb0       __acrt_thread_attach       0000000140067bb0 f   MSVCRTD:ucrt_stubs.obj
 0002:00044bb0       __scrt_stub_for_acrt_thread_attach 0000000140067bb0 f   MSVCRTD:ucrt_stubs.obj
 0002:00044bb0       __vcrt_thread_attach       0000000140067bb0 f   MSVCRTD:ucrt_stubs.obj
 0002:00044bc0       __vcrt_thread_detach       0000000140067bc0 f   MSVCRTD:ucrt_stubs.obj
 0002:00044bc0       __scrt_stub_for_acrt_thread_detach 0000000140067bc0 f   MSVCRTD:ucrt_stubs.obj
 0002:00044bc0       __acrt_thread_detach       0000000140067bc0 f   MSVCRTD:ucrt_stubs.obj
 0002:00044bd0       __scrt_stub_for_acrt_uninitialize 0000000140067bd0 f   MSVCRTD:ucrt_stubs.obj
 0002:00044bd0       __acrt_uninitialize        0000000140067bd0 f   MSVCRTD:ucrt_stubs.obj
 0002:00044bd0       __vcrt_uninitialize        0000000140067bd0 f   MSVCRTD:ucrt_stubs.obj
 0002:00044be0       __scrt_stub_for_acrt_uninitialize_critical 0000000140067be0 f   MSVCRTD:ucrt_stubs.obj
 0002:00044be0       __vcrt_uninitialize_critical 0000000140067be0 f   MSVCRTD:ucrt_stubs.obj
 0002:00044be0       __acrt_uninitialize_critical 0000000140067be0 f   MSVCRTD:ucrt_stubs.obj
 0002:00044bf0       _is_c_termination_complete 0000000140067bf0 f   MSVCRTD:ucrt_stubs.obj
 0002:00044bf0       __scrt_stub_for_is_c_termination_complete 0000000140067bf0 f   MSVCRTD:ucrt_stubs.obj
 0002:000469c0       _guard_dispatch_icall_nop  00000001400699c0 f   MSVCRTD:_guard_dispatch_.obj
 0003:00000000       __xc_a                     0000000140070000     MSVCRTD:initializers.obj
 0003:00000330       __xc_z                     0000000140070330     MSVCRTD:initializers.obj
 0003:00000440       __xi_a                     0000000140070440     MSVCRTD:initializers.obj
 0003:00000770       __xi_z                     0000000140070770     MSVCRTD:initializers.obj
 0003:00000880       __xp_a                     0000000140070880     MSVCRTD:initializers.obj
 0003:00000990       __xp_z                     0000000140070990     MSVCRTD:initializers.obj
 0003:00000aa0       __xt_a                     0000000140070aa0     MSVCRTD:initializers.obj
 0003:00000bb0       __xt_z                     0000000140070bb0     MSVCRTD:initializers.obj
 0003:00000cc1       ??_C@_00CNPNBAHC@?$AA@     0000000140070cc1     texture-manager.obj
 0003:000021a0       ??_C@_1NC@OPMKDBPG@?$AAc?$AA?3?$AA?2?$AAp?$AAr?$AAo?$AAg?$AAr?$AAa?$AAm?$AA?5?$AAf?$AAi?$AAl?$AAe?$AAs?$AA?5?$AA?$CI?$AAx?$AA8?$AA6?$AA?$CJ?$AA?2?$AAm?$AAi?$AAc?$AAr?$AAo?$AAs?$AAo?$AAf?$AAt@ 00000001400721a0     texture-manager.obj
 0003:000022a0       ??_C@_1DC@POOIKBAO@?$AAI?$AAT?$AAE?$AAR?$AAA?$AAT?$AAO?$AAR?$AA?5?$AAL?$AAI?$AAS?$AAT?$AA?5?$AAC?$AAO?$AAR?$AAR?$AAU?$AAP?$AAT?$AAE?$AAD?$AA?$CB?$AA?$AA@ 00000001400722a0     texture-manager.obj
 0003:000022e0       ??_C@_1EE@KLDMFDFL@?$AAs?$AAt?$AAd?$AA?3?$AA?3?$AA_?$AAI?$AAt?$AAe?$AAr?$AAa?$AAt?$AAo?$AAr?$AA_?$AAb?$AAa?$AAs?$AAe?$AA1?$AA2?$AA?3?$AA?3?$AA_?$AAO?$AAr?$AAp?$AAh?$AAa?$AAn?$AA_?$AAm@ 00000001400722e0     texture-manager.obj
 0003:00002338       ??_C@_1DG@PLBPCAEM@?$AA?$CC?$AAI?$AAT?$AAE?$AAR?$AAA?$AAT?$AAO?$AAR?$AA?5?$AAL?$AAI?$AAS?$AAT?$AA?5?$AAC?$AAO?$AAR?$AAR?$AAU?$AAP?$AAT?$AAE?$AAD?$AA?$CB?$AA?$CC?$AA?$AA@ 0000000140072338     texture-manager.obj
 0003:00002380       ??_C@_1NC@BCCBOEFF@?$AAc?$AA?3?$AA?2?$AAp?$AAr?$AAo?$AAg?$AAr?$AAa?$AAm?$AA?5?$AAf?$AAi?$AAl?$AAe?$AAs?$AA?5?$AA?$CI?$AAx?$AA8?$AA6?$AA?$CJ?$AA?2?$AAm?$AAi?$AAc?$AAr?$AAo?$AAs?$AAo?$AAf?$AAt@ 0000000140072380     texture-manager.obj
 0003:00002480       ??_C@_1EK@NIFDJFDG@?$AAs?$AAt?$AAd?$AA?3?$AA?3?$AA_?$AAA?$AAd?$AAj?$AAu?$AAs?$AAt?$AA_?$AAm?$AAa?$AAn?$AAu?$AAa?$AAl?$AAl?$AAy?$AA_?$AAv?$AAe?$AAc?$AAt?$AAo?$AAr?$AA_?$AAa?$AAl?$AAi@ 0000000140072480     texture-manager.obj
 0003:000024d8       ??_C@_1CG@JNLFBNGN@?$AA?$CC?$AAi?$AAn?$AAv?$AAa?$AAl?$AAi?$AAd?$AA?5?$AAa?$AAr?$AAg?$AAu?$AAm?$AAe?$AAn?$AAt?$AA?$CC?$AA?$AA@ 00000001400724d8     texture-manager.obj
 0003:00002510       ??_C@_0GI@EPMNOPBK@c?3?2program?5files?5?$CIx86?$CJ?2microsoft@ 0000000140072510     texture-manager.obj
 0003:00002590       ??_C@_0GI@MMIAONLL@c?3?2program?5files?5?$CIx86?$CJ?2microsoft@ 0000000140072590     texture-manager.obj
 0003:00002610       ??_C@_0N@LPFKKEBD@?3AM?3am?3PM?3pm?$AA@ 0000000140072610     texture-manager.obj
 0003:00002620       ??_C@_1MM@KGLOHGEF@?$AAc?$AA?3?$AA?2?$AAp?$AAr?$AAo?$AAg?$AAr?$AAa?$AAm?$AA?5?$AAf?$AAi?$AAl?$AAe?$AAs?$AA?5?$AA?$CI?$AAx?$AA8?$AA6?$AA?$CJ?$AA?2?$AAm?$AAi?$AAc?$AAr?$AAo?$AAs?$AAo?$AAf?$AAt@ 0000000140072620     texture-manager.obj
 0003:00002718       ??_C@_1DO@CFEEPGGJ@?$AAm?$AAa?$AAp?$AA?1?$AAs?$AAe?$AAt?$AA?5?$AAi?$AAt?$AAe?$AAr?$AAa?$AAt?$AAo?$AAr?$AAs?$AA?5?$AAi?$AAn?$AAc?$AAo?$AAm?$AAp?$AAa?$AAt?$AAi?$AAb?$AAl?$AAe?$AA?$AA@ 0000000140072718     texture-manager.obj
 0003:00002770       ??_C@_1BMM@NENMMGHA@?$AAs?$AAt?$AAd?$AA?3?$AA?3?$AA_?$AAT?$AAr?$AAe?$AAe?$AA_?$AAc?$AAo?$AAn?$AAs?$AAt?$AA_?$AAi?$AAt?$AAe?$AAr?$AAa?$AAt?$AAo?$AAr?$AA?$DM?$AAc?$AAl?$AAa?$AAs?$AAs?$AA?5@ 0000000140072770     texture-manager.obj
 0003:000029a0       ??_C@_1EC@JLIDLCDH@?$AA?$CC?$AAm?$AAa?$AAp?$AA?1?$AAs?$AAe?$AAt?$AA?5?$AAi?$AAt?$AAe?$AAr?$AAa?$AAt?$AAo?$AAr?$AAs?$AA?5?$AAi?$AAn?$AAc?$AAo?$AAm?$AAp?$AAa?$AAt?$AAi?$AAb?$AAl?$AAe?$AA?$CC@ 00000001400729a0     texture-manager.obj
 0003:000029f0       ??_C@_1EI@FHEHNNNM@?$AAm?$AAa?$AAp?$AA?1?$AAs?$AAe?$AAt?$AA?5?$AAi?$AAt?$AAe?$AAr?$AAa?$AAt?$AAo?$AAr?$AA?5?$AAn?$AAo?$AAt?$AA?5?$AAd?$AAe?$AAr?$AAe?$AAf?$AAe?$AAr?$AAe?$AAn?$AAc?$AAa@ 00000001400729f0     texture-manager.obj
 0003:00002a50       ??_C@_1BMK@IMPOIIAD@?$AAs?$AAt?$AAd?$AA?3?$AA?3?$AA_?$AAT?$AAr?$AAe?$AAe?$AA_?$AAc?$AAo?$AAn?$AAs?$AAt?$AA_?$AAi?$AAt?$AAe?$AAr?$AAa?$AAt?$AAo?$AAr?$AA?$DM?$AAc?$AAl?$AAa?$AAs?$AAs?$AA?5@ 0000000140072a50     texture-manager.obj
 0003:00002c80       ??_C@_1EM@KEKCOCNI@?$AA?$CC?$AAm?$AAa?$AAp?$AA?1?$AAs?$AAe?$AAt?$AA?5?$AAi?$AAt?$AAe?$AAr?$AAa?$AAt?$AAo?$AAr?$AA?5?$AAn?$AAo?$AAt?$AA?5?$AAd?$AAe?$AAr?$AAe?$AAf?$AAe?$AAr?$AAe?$AAn?$AAc@ 0000000140072c80     texture-manager.obj
 0003:00002ce0       ??_C@_1EK@PPDBPCAN@?$AAm?$AAa?$AAp?$AA?1?$AAs?$AAe?$AAt?$AA?5?$AAe?$AAr?$AAa?$AAs?$AAe?$AA?5?$AAi?$AAt?$AAe?$AAr?$AAa?$AAt?$AAo?$AAr?$AA?5?$AAo?$AAu?$AAt?$AAs?$AAi?$AAd?$AAe?$AA?5?$AAr@ 0000000140072ce0     texture-manager.obj
 0003:00002d40       ??_C@_1DEE@LNHEMGNE@?$AAs?$AAt?$AAd?$AA?3?$AA?3?$AA_?$AAT?$AAr?$AAe?$AAe?$AA?$DM?$AAc?$AAl?$AAa?$AAs?$AAs?$AA?5?$AAs?$AAt?$AAd?$AA?3?$AA?3?$AA_?$AAT?$AAm?$AAa?$AAp?$AA_?$AAt?$AAr?$AAa?$AAi@ 0000000140072d40     texture-manager.obj
 0003:00003130       ??_C@_1EO@CEDAEPC@?$AA?$CC?$AAm?$AAa?$AAp?$AA?1?$AAs?$AAe?$AAt?$AA?5?$AAe?$AAr?$AAa?$AAs?$AAe?$AA?5?$AAi?$AAt?$AAe?$AAr?$AAa?$AAt?$AAo?$AAr?$AA?5?$AAo?$AAu?$AAt?$AAs?$AAi?$AAd?$AAe?$AA?5@ 0000000140073130     texture-manager.obj
 0003:00003190       ??_C@_1EG@EHJFMBHJ@?$AAm?$AAa?$AAp?$AA?1?$AAs?$AAe?$AAt?$AA?5?$AAi?$AAt?$AAe?$AAr?$AAa?$AAt?$AAo?$AAr?$AA?5?$AAn?$AAo?$AAt?$AA?5?$AAi?$AAn?$AAc?$AAr?$AAe?$AAm?$AAe?$AAn?$AAt?$AAa?$AAb@ 0000000140073190     texture-manager.obj
 0003:000031f0       ??_C@_1BMM@HECBCPLF@?$AAs?$AAt?$AAd?$AA?3?$AA?3?$AA_?$AAT?$AAr?$AAe?$AAe?$AA_?$AAc?$AAo?$AAn?$AAs?$AAt?$AA_?$AAi?$AAt?$AAe?$AAr?$AAa?$AAt?$AAo?$AAr?$AA?$DM?$AAc?$AAl?$AAa?$AAs?$AAs?$AA?5@ 00000001400731f0     texture-manager.obj
 0003:00003420       ??_C@_1EK@BCPDGOMC@?$AA?$CC?$AAm?$AAa?$AAp?$AA?1?$AAs?$AAe?$AAt?$AA?5?$AAi?$AAt?$AAe?$AAr?$AAa?$AAt?$AAo?$AAr?$AA?5?$AAn?$AAo?$AAt?$AA?5?$AAi?$AAn?$AAc?$AAr?$AAe?$AAm?$AAe?$AAn?$AAt?$AAa@ 0000000140073420     texture-manager.obj
 0003:00003480       ??_C@_1BIC@BNCMLHFL@?$AAs?$AAt?$AAd?$AA?3?$AA?3?$AA_?$AAT?$AAr?$AAe?$AAe?$AA_?$AAv?$AAa?$AAl?$AA?$DM?$AAs?$AAt?$AAr?$AAu?$AAc?$AAt?$AA?5?$AAs?$AAt?$AAd?$AA?3?$AA?3?$AA_?$AAT?$AAr?$AAe?$AAe@ 0000000140073480     texture-manager.obj
 0003:00003650       ??_C@_1BK@MHIKGOKE@?$AA?3?$AAA?$AAM?$AA?3?$AAa?$AAm?$AA?3?$AAP?$AAM?$AA?3?$AAp?$AAm?$AA?$AA@ 0000000140073650     texture-manager.obj
 0003:00003670       ??_C@_0BA@JFNIOLAK@string?5too?5long?$AA@ 0000000140073670     texture-manager.obj
 0003:00003690       ??_C@_1MI@GHHFAAMD@?$AAc?$AA?3?$AA?2?$AAp?$AAr?$AAo?$AAg?$AAr?$AAa?$AAm?$AA?5?$AAf?$AAi?$AAl?$AAe?$AAs?$AA?5?$AA?$CI?$AAx?$AA8?$AA6?$AA?$CJ?$AA?2?$AAm?$AAi?$AAc?$AAr?$AAo?$AAs?$AAo?$AAf?$AAt@ 0000000140073690     texture-manager.obj
 0003:00003780       ??_C@_0BE@LMNLACIC@_Ptr_container?5?$CB?$DN?50?$AA@ 0000000140073780     texture-manager.obj
 0003:00003798       ??_C@_1DG@HGDKEBPG@?$AA?$CC?$AA_?$AAP?$AAt?$AAr?$AA_?$AAc?$AAo?$AAn?$AAt?$AAa?$AAi?$AAn?$AAe?$AAr?$AA?5?$AA?$CB?$AA?$DN?$AA?5?$AA0?$AA?$CC?$AA?5?$AA?$CG?$AA?$CG?$AA?5?$AA0?$AA?$AA@ 0000000140073798     texture-manager.obj
 0003:000037d8       ??_C@_17CNPHIMPH@?$AA?$CF?$AAl?$AAs?$AA?$AA@ 00000001400737d8     texture-manager.obj
 0003:000037f0       ??_C@_1EO@GFNCMDLA@?$AAs?$AAt?$AAd?$AA?3?$AA?3?$AA_?$AAA?$AAl?$AAl?$AAo?$AAc?$AAa?$AAt?$AAe?$AA_?$AAm?$AAa?$AAn?$AAu?$AAa?$AAl?$AAl?$AAy?$AA_?$AAv?$AAe?$AAc?$AAt?$AAo?$AAr?$AA_?$AAa@ 00000001400737f0     texture-manager.obj
 0003:00003850       ??_C@_1CG@LEJCKCBB@?$AAi?$AAn?$AAv?$AAa?$AAl?$AAi?$AAd?$AA?5?$AAc?$AAo?$AAm?$AAp?$AAa?$AAr?$AAa?$AAt?$AAo?$AAr?$AA?$AA@ 0000000140073850     texture-manager.obj
 0003:00003880       ??_C@_1CI@JONCLBEJ@?$AAs?$AAt?$AAd?$AA?3?$AA?3?$AA_?$AAD?$AAe?$AAb?$AAu?$AAg?$AA_?$AAl?$AAt?$AA_?$AAp?$AAr?$AAe?$AAd?$AA?$AA@ 0000000140073880     texture-manager.obj
 0003:000038b0       ??_C@_1CK@NDNHPKPI@?$AA?$CC?$AAi?$AAn?$AAv?$AAa?$AAl?$AAi?$AAd?$AA?5?$AAc?$AAo?$AAm?$AAp?$AAa?$AAr?$AAa?$AAt?$AAo?$AAr?$AA?$CC?$AA?$AA@ 00000001400738b0     texture-manager.obj
 0003:000038f0       ??_C@_1EM@MHOKKPFH@?$AAm?$AAa?$AAp?$AA?1?$AAs?$AAe?$AAt?$AA?5?$AAi?$AAn?$AAs?$AAe?$AAr?$AAt?$AA?5?$AAi?$AAt?$AAe?$AAr?$AAa?$AAt?$AAo?$AAr?$AA?5?$AAo?$AAu?$AAt?$AAs?$AAi?$AAd?$AAe?$AA?5@ 00000001400738f0     texture-manager.obj
 0003:00003950       ??_C@_1DFC@DPIIABCN@?$AAs?$AAt?$AAd?$AA?3?$AA?3?$AA_?$AAT?$AAr?$AAe?$AAe?$AA?$DM?$AAc?$AAl?$AAa?$AAs?$AAs?$AA?5?$AAs?$AAt?$AAd?$AA?3?$AA?3?$AA_?$AAT?$AAm?$AAa?$AAp?$AA_?$AAt?$AAr?$AAa?$AAi@ 0000000140073950     texture-manager.obj
 0003:00003d50       ??_C@_1FA@HNFOKDLB@?$AA?$CC?$AAm?$AAa?$AAp?$AA?1?$AAs?$AAe?$AAt?$AA?5?$AAi?$AAn?$AAs?$AAe?$AAr?$AAt?$AA?5?$AAi?$AAt?$AAe?$AAr?$AAa?$AAt?$AAo?$AAr?$AA?5?$AAo?$AAu?$AAt?$AAs?$AAi?$AAd?$AAe@ 0000000140073d50     texture-manager.obj
 0003:00003db0       ??_C@_1EG@OKCGOALM@?$AAm?$AAa?$AAp?$AA?1?$AAs?$AAe?$AAt?$AA?5?$AAi?$AAt?$AAe?$AAr?$AAa?$AAt?$AAo?$AAr?$AA?5?$AAn?$AAo?$AAt?$AA?5?$AAd?$AAe?$AAc?$AAr?$AAe?$AAm?$AAe?$AAn?$AAt?$AAa?$AAb@ 0000000140073db0     texture-manager.obj
 0003:00003e10       ??_C@_1BMM@IHBDJDHE@?$AAs?$AAt?$AAd?$AA?3?$AA?3?$AA_?$AAT?$AAr?$AAe?$AAe?$AA_?$AAc?$AAo?$AAn?$AAs?$AAt?$AA_?$AAi?$AAt?$AAe?$AAr?$AAa?$AAt?$AAo?$AAr?$AA?$DM?$AAc?$AAl?$AAa?$AAs?$AAs?$AA?5@ 0000000140073e10     texture-manager.obj
 0003:00004040       ??_C@_1EK@OIBHPACE@?$AA?$CC?$AAm?$AAa?$AAp?$AA?1?$AAs?$AAe?$AAt?$AA?5?$AAi?$AAt?$AAe?$AAr?$AAa?$AAt?$AAo?$AAr?$AA?5?$AAn?$AAo?$AAt?$AA?5?$AAd?$AAe?$AAc?$AAr?$AAe?$AAm?$AAe?$AAn?$AAt?$AAa@ 0000000140074040     texture-manager.obj
 0003:00004098       ??_C@_0BE@JONHPENG@map?1set?$DMT?$DO?5too?5long?$AA@ 0000000140074098     texture-manager.obj
 0003:000043c0       ??_7Button@@6B@            00000001400743c0     button.obj
 0003:000043f8       ??_C@_0L@DLMOFKBA@button?4png?$AA@ 00000001400743f8     button.obj
 0003:00004408       ??_C@_0CG@IEMLCEJ@C?3?1C?$CL?$CL?1Tanks?1x64?1Debug?1capture?9i@ 0000000140074408     button.obj
 0003:00004438       __real@40000000            0000000140074438     button.obj
 0003:00005958       ??_C@_0BG@HGEDEDEC@invalid?5stoi?5argument?$AA@ 0000000140075958     config.obj
 0003:00005978       ??_C@_0BL@MFFNMGGC@stoi?5argument?5out?5of?5range?$AA@ 0000000140075978     config.obj
 0003:00005998       ??_C@_0BG@OFLLLHIE@invalid?5stof?5argument?$AA@ 0000000140075998     config.obj
 0003:000059b8       ??_C@_0BL@CGEIMNKL@stof?5argument?5out?5of?5range?$AA@ 00000001400759b8     config.obj
 0003:000059d8       ??_C@_02NJPGOMH@?$CFf?$AA@ 00000001400759d8     config.obj
 0003:000059e0       ??_C@_0BC@BGEEBOPC@File?5?$CFs?5not?5found?$AA@ 00000001400759e0     config.obj
 0003:000059f8       ??_C@_01KDCPPGHE@r?$AA@    00000001400759f8     config.obj
 0003:00005a00       ??_C@_0DF@CDFJBOGE@Create?5object?5error?3?5not?5found?5p@ 0000000140075a00     config.obj
 0003:00005a40       ??_C@_01NOFIACDB@w?$AA@    0000000140075a40     config.obj
 0003:00005a44       ??_C@_01EEMJAFIK@?6?$AA@   0000000140075a44     config.obj
 0003:00005a48       ??_C@_01JLIPDDHJ@?3?$AA@   0000000140075a48     config.obj
 0003:00005a50       ??_C@_1BEO@CLGCGLEB@?$AAs?$AAt?$AAd?$AA?3?$AA?3?$AA_?$AAT?$AAr?$AAe?$AAe?$AA_?$AAc?$AAo?$AAn?$AAs?$AAt?$AA_?$AAi?$AAt?$AAe?$AAr?$AAa?$AAt?$AAo?$AAr?$AA?$DM?$AAc?$AAl?$AAa?$AAs?$AAs?$AA?5@ 0000000140075a50     config.obj
 0003:00005be0       ??_C@_1NA@DFGHBIGI@?$AAc?$AA?3?$AA?2?$AAp?$AAr?$AAo?$AAg?$AAr?$AAa?$AAm?$AA?5?$AAf?$AAi?$AAl?$AAe?$AAs?$AA?5?$AA?$CI?$AAx?$AA8?$AA6?$AA?$CJ?$AA?2?$AAm?$AAi?$AAc?$AAr?$AAo?$AAs?$AAo?$AAf?$AAt@ 0000000140075be0     config.obj
 0003:00005ce0       ??_C@_1DM@GMPLOCPK@?$AAs?$AAt?$AAr?$AAi?$AAn?$AAg?$AA?5?$AAs?$AAu?$AAb?$AAs?$AAc?$AAr?$AAi?$AAp?$AAt?$AA?5?$AAo?$AAu?$AAt?$AA?5?$AAo?$AAf?$AA?5?$AAr?$AAa?$AAn?$AAg?$AAe?$AA?$AA@ 0000000140075ce0     config.obj
 0003:00005d30       ??_C@_1LO@NPPEKPAI@?$AAs?$AAt?$AAd?$AA?3?$AA?3?$AAb?$AAa?$AAs?$AAi?$AAc?$AA_?$AAs?$AAt?$AAr?$AAi?$AAn?$AAg?$AA?$DM?$AAc?$AAh?$AAa?$AAr?$AA?0?$AAs?$AAt?$AAr?$AAu?$AAc?$AAt?$AA?5?$AAs?$AAt@ 0000000140075d30     config.obj
 0003:00005e20       ??_C@_1EA@OADAPGGK@?$AA?$CC?$AAs?$AAt?$AAr?$AAi?$AAn?$AAg?$AA?5?$AAs?$AAu?$AAb?$AAs?$AAc?$AAr?$AAi?$AAp?$AAt?$AA?5?$AAo?$AAu?$AAt?$AA?5?$AAo?$AAf?$AA?5?$AAr?$AAa?$AAn?$AAg?$AAe?$AA?$CC?$AA?$AA@ 0000000140075e20     config.obj
 0003:00005e70       ??_C@_1BEM@EAFGHFDI@?$AAs?$AAt?$AAd?$AA?3?$AA?3?$AA_?$AAT?$AAr?$AAe?$AAe?$AA_?$AAc?$AAo?$AAn?$AAs?$AAt?$AA_?$AAi?$AAt?$AAe?$AAr?$AAa?$AAt?$AAo?$AAr?$AA?$DM?$AAc?$AAl?$AAa?$AAs?$AAs?$AA?5@ 0000000140075e70     config.obj
 0003:00006000       ??_C@_0BI@CFPLBAOH@invalid?5string?5position?$AA@ 0000000140076000     config.obj
 0003:00006020       ??_C@_1CO@DGLIKNHI@?$AAi?$AAn?$AAv?$AAa?$AAl?$AAi?$AAd?$AA?5?$AAi?$AAt?$AAe?$AAr?$AAa?$AAt?$AAo?$AAr?$AA?5?$AAr?$AAa?$AAn?$AAg?$AAe?$AA?$AA@ 0000000140076020     config.obj
 0003:00006058       ??_C@_1CG@MDICLDJA@?$AAs?$AAt?$AAd?$AA?3?$AA?3?$AA_?$AAD?$AAe?$AAb?$AAu?$AAg?$AA_?$AAr?$AAa?$AAn?$AAg?$AAe?$AA2?$AA?$AA@ 0000000140076058     config.obj
 0003:00006088       ??_C@_1DC@CHPPODDE@?$AA?$CC?$AAi?$AAn?$AAv?$AAa?$AAl?$AAi?$AAd?$AA?5?$AAi?$AAt?$AAe?$AAr?$AAa?$AAt?$AAo?$AAr?$AA?5?$AAr?$AAa?$AAn?$AAg?$AAe?$AA?$CC?$AA?$AA@ 0000000140076088     config.obj
 0003:000060d0       ??_C@_1BMM@EHCLJHKJ@?$AAs?$AAt?$AAd?$AA?3?$AA?3?$AA_?$AAT?$AAr?$AAe?$AAe?$AA?$DM?$AAc?$AAl?$AAa?$AAs?$AAs?$AA?5?$AAs?$AAt?$AAd?$AA?3?$AA?3?$AA_?$AAT?$AAm?$AAa?$AAp?$AA_?$AAt?$AAr?$AAa?$AAi@ 00000001400760d0     config.obj
 0003:00006300       ??_C@_1BEO@HIKNDOEF@?$AAs?$AAt?$AAd?$AA?3?$AA?3?$AA_?$AAT?$AAr?$AAe?$AAe?$AA_?$AAc?$AAo?$AAn?$AAs?$AAt?$AA_?$AAi?$AAt?$AAe?$AAr?$AAa?$AAt?$AAo?$AAr?$AA?$DM?$AAc?$AAl?$AAa?$AAs?$AAs?$AA?5@ 0000000140076300     config.obj
 0003:00006490       ??_C@_1BEO@ILJPICIE@?$AAs?$AAt?$AAd?$AA?3?$AA?3?$AA_?$AAT?$AAr?$AAe?$AAe?$AA_?$AAc?$AAo?$AAn?$AAs?$AAt?$AA_?$AAi?$AAt?$AAe?$AAr?$AAa?$AAt?$AAo?$AAr?$AA?$DM?$AAc?$AAl?$AAa?$AAs?$AAs?$AA?5@ 0000000140076490     config.obj
 0003:00006628       ??_7?$Container@VObject@@@@6B@ 0000000140076628     container.obj
 0003:00006668       ??_7?$Container@VWidget@@@@6B@ 0000000140076668     container.obj
 0003:000066a8       ??_7?$Container@VGameObject@@@@6B@ 00000001400766a8     container.obj
 0003:000075a8       ??_SRenderWindow@sf@@6BWindow@1@@ 00000001400775a8     engine.obj
 0003:000075d0       ??_SRenderWindow@sf@@6BRenderTarget@1@@ 00000001400775d0     engine.obj
 0003:000075f0       ??_C@_0BI@MNBCIHDP@C?3?1C?$CL?$CL?1Tanks?1x64?1Debug?1?$AA@ 00000001400775f0     engine.obj
 0003:0000760c       ??_C@_05OGBJMEIE@Tanks?$AA@ 000000014007760c     engine.obj
 0003:00007618       ??_C@_0M@EGINLKPJ@objects?4txt?$AA@ 0000000140077618     engine.obj
 0003:00007628       ??_C@_0P@OAFBEPHL@background?4png?$AA@ 0000000140077628     engine.obj
 0003:00007640       ??_C@_1MO@HAJOKNPG@?$AAc?$AA?3?$AA?2?$AAp?$AAr?$AAo?$AAg?$AAr?$AAa?$AAm?$AA?5?$AAf?$AAi?$AAl?$AAe?$AAs?$AA?5?$AA?$CI?$AAx?$AA8?$AA6?$AA?$CJ?$AA?2?$AAm?$AAi?$AAc?$AAr?$AAo?$AAs?$AAo?$AAf?$AAt@ 0000000140077640     engine.obj
 0003:00007738       ??_C@_1DM@LHGCHCBA@?$AAv?$AAe?$AAc?$AAt?$AAo?$AAr?$AA?5?$AAs?$AAu?$AAb?$AAs?$AAc?$AAr?$AAi?$AAp?$AAt?$AA?5?$AAo?$AAu?$AAt?$AA?5?$AAo?$AAf?$AA?5?$AAr?$AAa?$AAn?$AAg?$AAe?$AA?$AA@ 0000000140077738     engine.obj
 0003:00007780       ??_C@_1JO@KNCEHHPG@?$AAs?$AAt?$AAd?$AA?3?$AA?3?$AAv?$AAe?$AAc?$AAt?$AAo?$AAr?$AA?$DM?$AAc?$AAl?$AAa?$AAs?$AAs?$AA?5?$AAO?$AAb?$AAj?$AAe?$AAc?$AAt?$AA?5?$AA?$CK?$AA?0?$AAc?$AAl?$AAa?$AAs?$AAs@ 0000000140077780     engine.obj
 0003:00007840       ??_C@_1EA@LEKOKFNB@?$AA?$CC?$AAv?$AAe?$AAc?$AAt?$AAo?$AAr?$AA?5?$AAs?$AAu?$AAb?$AAs?$AAc?$AAr?$AAi?$AAp?$AAt?$AA?5?$AAo?$AAu?$AAt?$AA?5?$AAo?$AAf?$AA?5?$AAr?$AAa?$AAn?$AAg?$AAe?$AA?$CC?$AA?$AA@ 0000000140077840     engine.obj
 0003:00007890       ??_C@_1OC@CMNDILFB@?$AAs?$AAt?$AAd?$AA?3?$AA?3?$AAv?$AAe?$AAc?$AAt?$AAo?$AAr?$AA?$DM?$AAc?$AAl?$AAa?$AAs?$AAs?$AA?5?$AAC?$AAo?$AAn?$AAt?$AAa?$AAi?$AAn?$AAe?$AAr?$AA?$DM?$AAc?$AAl?$AAa?$AAs@ 0000000140077890     engine.obj
 0003:000079a0       ??_C@_1DA@JIKEAPDO@?$AAv?$AAe?$AAc?$AAt?$AAo?$AAr?$AA?5?$AAe?$AAm?$AAp?$AAt?$AAy?$AA?5?$AAb?$AAe?$AAf?$AAo?$AAr?$AAe?$AA?5?$AAp?$AAo?$AAp?$AA?$AA@ 00000001400779a0     engine.obj
 0003:000079e0       ??_C@_1NM@LNMGGNAI@?$AAs?$AAt?$AAd?$AA?3?$AA?3?$AAv?$AAe?$AAc?$AAt?$AAo?$AAr?$AA?$DM?$AAc?$AAl?$AAa?$AAs?$AAs?$AA?5?$AAC?$AAo?$AAn?$AAt?$AAa?$AAi?$AAn?$AAe?$AAr?$AA?$DM?$AAc?$AAl?$AAa?$AAs@ 00000001400779e0     engine.obj
 0003:00007ae8       ??_C@_1DE@IPIBMNGD@?$AA?$CC?$AAv?$AAe?$AAc?$AAt?$AAo?$AAr?$AA?5?$AAe?$AAm?$AAp?$AAt?$AAy?$AA?5?$AAb?$AAe?$AAf?$AAo?$AAr?$AAe?$AA?5?$AAp?$AAo?$AAp?$AA?$CC?$AA?$AA@ 0000000140077ae8     engine.obj
 0003:00007b30       ??_C@_1BLO@DAEOCHPB@?$AAs?$AAt?$AAd?$AA?3?$AA?3?$AA_?$AAT?$AAr?$AAe?$AAe?$AA?$DM?$AAc?$AAl?$AAa?$AAs?$AAs?$AA?5?$AAs?$AAt?$AAd?$AA?3?$AA?3?$AA_?$AAT?$AAm?$AAa?$AAp?$AA_?$AAt?$AAr?$AAa?$AAi@ 0000000140077b30     engine.obj
 0003:00007d50       ??_C@_1BAE@ELAMMMBI@?$AAs?$AAt?$AAd?$AA?3?$AA?3?$AA_?$AAT?$AAr?$AAe?$AAe?$AA_?$AAv?$AAa?$AAl?$AA?$DM?$AAs?$AAt?$AAr?$AAu?$AAc?$AAt?$AA?5?$AAs?$AAt?$AAd?$AA?3?$AA?3?$AA_?$AAT?$AAr?$AAe?$AAe@ 0000000140077d50     engine.obj
 0003:00007e88       ??_C@_0BD@OLBABOEK@vector?$DMT?$DO?5too?5long?$AA@ 0000000140077e88     engine.obj
 0003:00007ea0       __real@44480000            0000000140077ea0     engine.obj
 0003:00007ea4       __real@44c80000            0000000140077ea4     engine.obj
 0003:00008f70       ??_7?$ContainerMoving@VObject@@@@6B@ 0000000140078f70     container-moving.obj
 0003:00008fb0       ??_C@_1EE@EJDKCLKB@?$AAv?$AAe?$AAc?$AAt?$AAo?$AAr?$AA?5?$AAi?$AAt?$AAe?$AAr?$AAa?$AAt?$AAo?$AAr?$AA?5?$AAn?$AAo?$AAt?$AA?5?$AAi?$AAn?$AAc?$AAr?$AAe?$AAm?$AAe?$AAn?$AAt?$AAa?$AAb?$AAl@ 0000000140078fb0     container-moving.obj
 0003:00009010       ??_C@_1BFE@NODPNJOM@?$AAs?$AAt?$AAd?$AA?3?$AA?3?$AA_?$AAV?$AAe?$AAc?$AAt?$AAo?$AAr?$AA_?$AAc?$AAo?$AAn?$AAs?$AAt?$AA_?$AAi?$AAt?$AAe?$AAr?$AAa?$AAt?$AAo?$AAr?$AA?$DM?$AAc?$AAl?$AAa?$AAs@ 0000000140079010     container-moving.obj
 0003:000091b0       ??_C@_1EI@HCADPHFC@?$AA?$CC?$AAv?$AAe?$AAc?$AAt?$AAo?$AAr?$AA?5?$AAi?$AAt?$AAe?$AAr?$AAa?$AAt?$AAo?$AAr?$AA?5?$AAn?$AAo?$AAt?$AA?5?$AAi?$AAn?$AAc?$AAr?$AAe?$AAm?$AAe?$AAn?$AAt?$AAa?$AAb@ 00000001400791b0     container-moving.obj
 0003:00009210       ??_C@_1EG@FOHJJHAC@?$AAv?$AAe?$AAc?$AAt?$AAo?$AAr?$AA?5?$AAi?$AAt?$AAe?$AAr?$AAa?$AAt?$AAo?$AAr?$AA?5?$AAn?$AAo?$AAt?$AA?5?$AAd?$AAe?$AAr?$AAe?$AAf?$AAe?$AAr?$AAe?$AAn?$AAc?$AAa?$AAb@ 0000000140079210     container-moving.obj
 0003:00009270       ??_C@_1BFC@DHKEKJBP@?$AAs?$AAt?$AAd?$AA?3?$AA?3?$AA_?$AAV?$AAe?$AAc?$AAt?$AAo?$AAr?$AA_?$AAc?$AAo?$AAn?$AAs?$AAt?$AA_?$AAi?$AAt?$AAe?$AAr?$AAa?$AAt?$AAo?$AAr?$AA?$DM?$AAc?$AAl?$AAa?$AAs@ 0000000140079270     container-moving.obj
 0003:00009410       ??_C@_1EK@FMDACDNC@?$AA?$CC?$AAv?$AAe?$AAc?$AAt?$AAo?$AAr?$AA?5?$AAi?$AAt?$AAe?$AAr?$AAa?$AAt?$AAo?$AAr?$AA?5?$AAn?$AAo?$AAt?$AA?5?$AAd?$AAe?$AAr?$AAe?$AAf?$AAe?$AAr?$AAe?$AAn?$AAc?$AAa@ 0000000140079410     container-moving.obj
 0003:00009470       ??_C@_1BGI@CEBJFIGL@?$AAs?$AAt?$AAd?$AA?3?$AA?3?$AA_?$AAV?$AAe?$AAc?$AAt?$AAo?$AAr?$AA_?$AAc?$AAo?$AAn?$AAs?$AAt?$AA_?$AAi?$AAt?$AAe?$AAr?$AAa?$AAt?$AAo?$AAr?$AA?$DM?$AAc?$AAl?$AAa?$AAs@ 0000000140079470     container-moving.obj
 0003:00009620       ??_C@_1BGG@FCIJCPGG@?$AAs?$AAt?$AAd?$AA?3?$AA?3?$AA_?$AAV?$AAe?$AAc?$AAt?$AAo?$AAr?$AA_?$AAc?$AAo?$AAn?$AAs?$AAt?$AA_?$AAi?$AAt?$AAe?$AAr?$AAa?$AAt?$AAo?$AAr?$AA?$DM?$AAc?$AAl?$AAa?$AAs@ 0000000140079620     container-moving.obj
 0003:000097d0       ??_C@_1DM@HINDPMBP@?$AAv?$AAe?$AAc?$AAt?$AAo?$AAr?$AA?5?$AAi?$AAt?$AAe?$AAr?$AAa?$AAt?$AAo?$AAr?$AAs?$AA?5?$AAi?$AAn?$AAc?$AAo?$AAm?$AAp?$AAa?$AAt?$AAi?$AAb?$AAl?$AAe?$AA?$AA@ 00000001400797d0     container-moving.obj
 0003:00009820       ??_C@_1BEM@GPNFDFEE@?$AAs?$AAt?$AAd?$AA?3?$AA?3?$AA_?$AAV?$AAe?$AAc?$AAt?$AAo?$AAr?$AA_?$AAc?$AAo?$AAn?$AAs?$AAt?$AA_?$AAi?$AAt?$AAe?$AAr?$AAa?$AAt?$AAo?$AAr?$AA?$DM?$AAc?$AAl?$AAa?$AAs@ 0000000140079820     container-moving.obj
 0003:000099b0       ??_C@_1EA@DJDGNIII@?$AA?$CC?$AAv?$AAe?$AAc?$AAt?$AAo?$AAr?$AA?5?$AAi?$AAt?$AAe?$AAr?$AAa?$AAt?$AAo?$AAr?$AAs?$AA?5?$AAi?$AAn?$AAc?$AAo?$AAm?$AAp?$AAa?$AAt?$AAi?$AAb?$AAl?$AAe?$AA?$CC?$AA?$AA@ 00000001400799b0     container-moving.obj
 0003:00009a00       ??_C@_1BGA@NKECHOLJ@?$AAs?$AAt?$AAd?$AA?3?$AA?3?$AA_?$AAV?$AAe?$AAc?$AAt?$AAo?$AAr?$AA_?$AAc?$AAo?$AAn?$AAs?$AAt?$AA_?$AAi?$AAt?$AAe?$AAr?$AAa?$AAt?$AAo?$AAr?$AA?$DM?$AAc?$AAl?$AAa?$AAs@ 0000000140079a00     container-moving.obj
 0003:00009ea8       ??_C@_0DP@KCEOKPLH@0123456789ABCDEFGHIJKLMNOPQRSTUV@ 0000000140079ea8     game-object.obj
 0003:00009f00       ??_7GameObject@@6B@        0000000140079f00     game-object.obj
 0003:00009f40       ??_C@_0BE@HJKCDIFN@Error?5create?5Object?$AA@ 0000000140079f40     game-object.obj
 0003:00009f58       ??_C@_0BA@FNFFNMKI@Invalid?5subtype?$AA@ 0000000140079f58     game-object.obj
 0003:00009f6c       __real@00000000            0000000140079f6c     game-object.obj
 0003:00009f70       __real@3f800000            0000000140079f70     game-object.obj
 0003:0000a2b0       ??_7MenuWindow@@6B@        000000014007a2b0     menu-window.obj
 0003:0000a2e8       ??_C@_1O@LLHHDKLO@?$AE?$BI?$AE3?$AE?$EA?$AE0?$AEB?$AEL?$AA?$AA@ 000000014007a2e8     menu-window.obj
 0003:0000a2f8       ??_C@_1BC@ILIDCEOG@?$AE?5?$AE5?$AE4?$AE0?$AE?3?$AEB?$AE?$DO?$AE?$EA?$AA?$AA@ 000000014007a2f8     menu-window.obj
 0003:0000a310       ??_C@_1M@MJOEHLIH@?$AE?$BC?$AEK?$AEE?$AE?$DO?$AE4?$AA?$AA@ 000000014007a310     menu-window.obj
 0003:0000a3f4       __real@41200000            000000014007a3f4     menu-window.obj
 0003:0000a3f8       __real@42200000            000000014007a3f8     menu-window.obj
 0003:0000a3fc       __real@42f00000            000000014007a3fc     menu-window.obj
 0003:0000a658       ??_7Object@@6B@            000000014007a658     object.obj
 0003:0000a680       __real@bf800000            000000014007a680     player.obj
 0003:0000a6c0       ??_7Tank@@6B@              000000014007a6c0     tank.obj
 0003:0000a738       ??_7Wall@@6B@              000000014007a738     wall.obj
 0003:0000a7b0       ??_7WidgetGame@@6B@        000000014007a7b0     widget-game.obj
 0003:0000a7e8       ??_C@_0M@KFMENBMH@level_0?4lvl?$AA@ 000000014007a7e8     widget-game.obj
 0003:0000a8e0       ??_7Widget@@6B@            000000014007a8e0     widget.obj
 0003:0000aa30       ??_7WidgetTemplates@@6B@   000000014007aa30     widget-templates.obj
 0003:0000aab8       ??_7WidgetGameEditor@@6B@  000000014007aab8     widget-game-editor.obj
 0003:0000aba0       ??_7WidgetIlluminatedObject@@6B@ 000000014007aba0     widget-illuminated-object.obj
 0003:0000abe0       ??_7?$Window@VWidget@@@@6B@ 000000014007abe0     window.obj
 0003:0000ac50       ??_7WindowGame@@6B@        000000014007ac50     window-game.obj
 0003:0000ac84       __real@44160000            000000014007ac84     window-game.obj
 0003:0000b360       ??_7WindowEditor@@6B@      000000014007b360     window-editor.obj
 0003:0000b398       ??_C@_0BF@EJLMKFML@action_forbidden?4png?$AA@ 000000014007b398     window-editor.obj
 0003:0000b568       __real@3fe999999999999a    000000014007b568     window-editor.obj
 0003:0000b580       ??_7type_info@@6B@         000000014007b580     MSVCRTD:std_type_info_static.obj
 0003:0000b670       ??_C@_0NN@NGPKDKPD@The?5value?5of?5ESP?5was?5not?5properl@ 000000014007b670     MSVCRTD:_error_.obj
 0003:0000b780       ??_C@_0BBN@GPMLNJCF@A?5cast?5to?5a?5smaller?5data?5type?5ha@ 000000014007b780     MSVCRTD:_error_.obj
 0003:0000b8d8       ??_C@_0BN@FFOINMNJ@Stack?5memory?5was?5corrupted?6?$AN?$AA@ 000000014007b8d8     MSVCRTD:_error_.obj
 0003:0000b900       ??_C@_0DG@HKJMLLLP@A?5local?5variable?5was?5used?5before@ 000000014007b900     MSVCRTD:_error_.obj
 0003:0000b940       ??_C@_0CM@NGINOKPC@Stack?5memory?5around?5_alloca?5was?5@ 000000014007b940     MSVCRTD:_error_.obj
 0003:0000b978       ??_C@_0BO@GNIAFIKK@Unknown?5Runtime?5Check?5Error?6?$AN?$AA@ 000000014007b978     MSVCRTD:_error_.obj
 0003:0000b9a0       ??_C@_1GM@OLMCBDMB@?$AAR?$AAu?$AAn?$AAt?$AAi?$AAm?$AAe?$AA?5?$AAC?$AAh?$AAe?$AAc?$AAk?$AA?5?$AAE?$AAr?$AAr?$AAo?$AAr?$AA?4?$AA?6?$AA?$AN?$AA?5?$AAU?$AAn?$AAa?$AAb?$AAl?$AAe?$AA?5?$AAt?$AAo@ 000000014007b9a0     MSVCRTD:_error_.obj
 0003:0000ba30       ??_C@_1EA@NFKNIFJP@?$AAR?$AAu?$AAn?$AA?9?$AAT?$AAi?$AAm?$AAe?$AA?5?$AAC?$AAh?$AAe?$AAc?$AAk?$AA?5?$AAF?$AAa?$AAi?$AAl?$AAu?$AAr?$AAe?$AA?5?$AA?$CD?$AA?$CF?$AAd?$AA?5?$AA?9?$AA?5?$AA?$CF?$AAs?$AA?$AA@ 000000014007ba30     MSVCRTD:_error_.obj
 0003:0000ba80       ??_C@_0BB@PFFGGCJP@Unknown?5Filename?$AA@ 000000014007ba80     MSVCRTD:_error_.obj
 0003:0000ba98       ??_C@_0BE@GNBOBNCK@Unknown?5Module?5Name?$AA@ 000000014007ba98     MSVCRTD:_error_.obj
 0003:0000bab0       ??_C@_0CA@IODNCDPG@Run?9Time?5Check?5Failure?5?$CD?$CFd?5?9?5?$CFs?$AA@ 000000014007bab0     MSVCRTD:_error_.obj
 0003:0000bad8       ??_C@_0CG@IAFNJNEE@Stack?5corrupted?5near?5unknown?5var@ 000000014007bad8     MSVCRTD:_error_.obj
 0003:0000bb08       ??_C@_05MKKEDADM@?$CF?42X?5?$AA@ 000000014007bb08     MSVCRTD:_error_.obj
 0003:0000bb10       ??_C@_0EJ@LJKNEOLN@Stack?5area?5around?5_alloca?5memory@ 000000014007bb10     MSVCRTD:_error_.obj
 0003:0000bb68       ??_C@_02LLMPMKNF@?$DO?5?$AA@ 000000014007bb68     MSVCRTD:_error_.obj
 0003:0000bb70       ??_C@_08OMAHNMHJ@?6Data?3?5?$DM?$AA@ 000000014007bb70     MSVCRTD:_error_.obj
 0003:0000bb80       ??_C@_0CK@DKGBICFE@?6Allocation?5number?5within?5this?5f@ 000000014007bb80     MSVCRTD:_error_.obj
 0003:0000bbb8       ??_C@_07DFDJCKFN@?6Size?3?5?$AA@ 000000014007bbb8     MSVCRTD:_error_.obj
 0003:0000bbc8       ??_C@_0N@MHFFIMFG@?6Address?3?50x?$AA@ 000000014007bbc8     MSVCRTD:_error_.obj
 0003:0000bbe0       ??_C@_0EI@CLEPFNGI@Stack?5area?5around?5_alloca?5memory@ 000000014007bbe0     MSVCRTD:_error_.obj
 0003:0000bc38       ??_C@_0BK@ODNDAGKB@?$CFs?$CFs?$CFp?$CFs?$CFzd?$CFs?$CFd?$CFs?$CFs?$CFs?$CFs?$CFs?$AA@ 000000014007bc38     MSVCRTD:_error_.obj
 0003:0000bc58       ??_C@_0DE@OHJBPMBP@A?5variable?5is?5being?5used?5without@ 000000014007bc58     MSVCRTD:_error_.obj
 0003:0000bca0       ??_7exception@std@@6B@     000000014007bca0     MSVCRTD:throw_bad_alloc.obj
 0003:0000bcb8       ??_C@_0BC@EOODALEL@Unknown?5exception?$AA@ 000000014007bcb8     MSVCRTD:throw_bad_alloc.obj
 0003:0000bcd8       ??_7bad_alloc@std@@6B@     000000014007bcd8     MSVCRTD:throw_bad_alloc.obj
 0003:0000bcf0       ??_C@_0P@GHFPNOJB@bad?5allocation?$AA@ 000000014007bcf0     MSVCRTD:throw_bad_alloc.obj
 0003:0000bd10       ??_7bad_array_new_length@std@@6B@ 000000014007bd10     MSVCRTD:throw_bad_alloc.obj
 0003:0000bd28       ??_C@_0BF@KINCDENJ@bad?5array?5new?5length?$AA@ 000000014007bd28     MSVCRTD:throw_bad_alloc.obj
 0003:0000bd78       ??_C@_0BJ@HEGAHDFO@Stack?5pointer?5corruption?$AA@ 000000014007bd78     MSVCRTD:_userapi_.obj
 0003:0000bd98       ??_C@_0CK@FEGOIOPB@Cast?5to?5smaller?5type?5causing?5los@ 000000014007bd98     MSVCRTD:_userapi_.obj
 0003:0000bdd0       ??_C@_0BI@CIGMDCBH@Stack?5memory?5corruption?$AA@ 000000014007bdd0     MSVCRTD:_userapi_.obj
 0003:0000bdf0       ??_C@_0CK@CNLNOEPB@Local?5variable?5used?5before?5initi@ 000000014007bdf0     MSVCRTD:_userapi_.obj
 0003:0000be28       ??_C@_0BP@OGBCLIBO@Stack?5around?5_alloca?5corrupted?$AA@ 000000014007be28     MSVCRTD:_userapi_.obj
 0003:0000bed0       ??_C@_1EI@MLPKHBGE@?$AAa?$AAp?$AAi?$AA?9?$AAm?$AAs?$AA?9?$AAw?$AAi?$AAn?$AA?9?$AAc?$AAo?$AAr?$AAe?$AA?9?$AAr?$AAe?$AAg?$AAi?$AAs?$AAt?$AAr?$AAy?$AA?9?$AAl?$AA1?$AA?9?$AA1?$AA?9?$AA0?$AA?4@ 000000014007bed0     MSVCRTD:_pdblkup_.obj
 0003:0000bf28       ??_C@_1BK@JHLNAEJL@?$AAa?$AAd?$AAv?$AAa?$AAp?$AAi?$AA3?$AA2?$AA?4?$AAd?$AAl?$AAl?$AA?$AA@ 000000014007bf28     MSVCRTD:_pdblkup_.obj
 0003:0000bf48       ??_C@_0O@COHOBMLB@RegOpenKeyExW?$AA@ 000000014007bf48     MSVCRTD:_pdblkup_.obj
 0003:0000bf58       ??_C@_0BB@GLNAEDBD@RegQueryValueExW?$AA@ 000000014007bf58     MSVCRTD:_pdblkup_.obj
 0003:0000bf70       ??_C@_0M@HLOHPNFA@RegCloseKey?$AA@ 000000014007bf70     MSVCRTD:_pdblkup_.obj
 0003:0000bf80       ??_C@_1HE@EBEAGLFB@?$AAS?$AAO?$AAF?$AAT?$AAW?$AAA?$AAR?$AAE?$AA?2?$AAW?$AAo?$AAw?$AA6?$AA4?$AA3?$AA2?$AAN?$AAo?$AAd?$AAe?$AA?2?$AAM?$AAi?$AAc?$AAr?$AAo?$AAs?$AAo?$AAf?$AAt?$AA?2?$AAV@ 000000014007bf80     MSVCRTD:_pdblkup_.obj
 0003:0000c010       ??_C@_1BG@EABPBLLF@?$AAP?$AAr?$AAo?$AAd?$AAu?$AAc?$AAt?$AAD?$AAi?$AAr?$AA?$AA@ 000000014007c010     MSVCRTD:_pdblkup_.obj
 0003:0000c058       ??_C@_1BC@JINFINNJ@?$AAM?$AAS?$AAP?$AAD?$AAB?$AA1?$AA4?$AA0?$AA?$AA@ 000000014007c058     MSVCRTD:_pdblkup_.obj
 0003:0000c070       ??_C@_0BB@KCIACLNC@PDBOpenValidate5?$AA@ 000000014007c070     MSVCRTD:_pdblkup_.obj
 0003:0000c0d0       _load_config_used          000000014007c0d0     MSVCRTD:loadcfg.obj
 0003:0000c508       ??_R4Button@@6B@           000000014007c508     button.obj
 0003:0000c538       ??_R3Button@@8             000000014007c538     button.obj
 0003:0000c550       ??_R2Button@@8             000000014007c550     button.obj
 0003:0000c578       ??_R1A@?0A@EA@Button@@8    000000014007c578     button.obj
 0003:0000c5a8       ??_R1A@?0A@EA@Widget@@8    000000014007c5a8     button.obj
 0003:0000c5d8       ??_R3Widget@@8             000000014007c5d8     button.obj
 0003:0000c5f0       ??_R2Widget@@8             000000014007c5f0     button.obj
 0003:0000c608       ??_R1A@?0A@EA@Object@@8    000000014007c608     button.obj
 0003:0000c638       ??_R3Object@@8             000000014007c638     button.obj
 0003:0000c650       ??_R2Object@@8             000000014007c650     button.obj
 0003:0000c660       ??_R4?$Container@VObject@@@@6B@ 000000014007c660     container.obj
 0003:0000c690       ??_R3?$Container@VObject@@@@8 000000014007c690     container.obj
 0003:0000c6a8       ??_R2?$Container@VObject@@@@8 000000014007c6a8     container.obj
 0003:0000c6d0       ??_R1A@?0A@EA@?$Container@VObject@@@@8 000000014007c6d0     container.obj
 0003:0000c700       ??_R4?$Container@VWidget@@@@6B@ 000000014007c700     container.obj
 0003:0000c730       ??_R3?$Container@VWidget@@@@8 000000014007c730     container.obj
 0003:0000c748       ??_R2?$Container@VWidget@@@@8 000000014007c748     container.obj
 0003:0000c770       ??_R1A@?0A@EA@?$Container@VWidget@@@@8 000000014007c770     container.obj
 0003:0000c7a0       ??_R4?$Container@VGameObject@@@@6B@ 000000014007c7a0     container.obj
 0003:0000c7d0       ??_R3?$Container@VGameObject@@@@8 000000014007c7d0     container.obj
 0003:0000c7e8       ??_R2?$Container@VGameObject@@@@8 000000014007c7e8     container.obj
 0003:0000c810       ??_R1A@?0A@EA@?$Container@VGameObject@@@@8 000000014007c810     container.obj
 0003:0000c840       ??_R4RenderWindow@sf@@6BWindow@1@@ 000000014007c840     engine.obj
 0003:0000c870       ??_R3RenderWindow@sf@@8    000000014007c870     engine.obj
 0003:0000c888       ??_R2RenderWindow@sf@@8    000000014007c888     engine.obj
 0003:0000c8c8       ??_R1A@?0A@EA@RenderWindow@sf@@8 000000014007c8c8     engine.obj
 0003:0000c8f8       ??_R1A@?0A@EA@Window@sf@@8 000000014007c8f8     engine.obj
 0003:0000c928       ??_R3Window@sf@@8          000000014007c928     engine.obj
 0003:0000c940       ??_R2Window@sf@@8          000000014007c940     engine.obj
 0003:0000c968       ??_R17?0A@EN@GlResource@sf@@8 000000014007c968     engine.obj
 0003:0000c998       ??_R3GlResource@sf@@8      000000014007c998     engine.obj
 0003:0000c9b0       ??_R2GlResource@sf@@8      000000014007c9b0     engine.obj
 0003:0000c9c0       ??_R1A@?0A@EA@GlResource@sf@@8 000000014007c9c0     engine.obj
 0003:0000c9f0       ??_R18?0A@EN@NonCopyable@sf@@8 000000014007c9f0     engine.obj
 0003:0000ca20       ??_R3NonCopyable@sf@@8     000000014007ca20     engine.obj
 0003:0000ca38       ??_R2NonCopyable@sf@@8     000000014007ca38     engine.obj
 0003:0000ca48       ??_R1A@?0A@EA@NonCopyable@sf@@8 000000014007ca48     engine.obj
 0003:0000ca78       ??_R18?0A@EP@NonCopyable@sf@@8 000000014007ca78     engine.obj
 0003:0000caa8       ??_R1DI@?0A@EA@RenderTarget@sf@@8 000000014007caa8     engine.obj
 0003:0000cad8       ??_R3RenderTarget@sf@@8    000000014007cad8     engine.obj
 0003:0000caf0       ??_R2RenderTarget@sf@@8    000000014007caf0     engine.obj
 0003:0000cb08       ??_R1A@?0A@EA@RenderTarget@sf@@8 000000014007cb08     engine.obj
 0003:0000cb38       ??_R17?0A@EN@NonCopyable@sf@@8 000000014007cb38     engine.obj
 0003:0000cb68       ??_R1EA@?0A@EP@NonCopyable@sf@@8 000000014007cb68     engine.obj
 0003:0000cb98       ??_R4RenderWindow@sf@@6BRenderTarget@1@@ 000000014007cb98     engine.obj
 0003:0000cbc8       ??_R4?$ContainerMoving@VObject@@@@6B@ 000000014007cbc8     container-moving.obj
 0003:0000cbf8       ??_R3?$ContainerMoving@VObject@@@@8 000000014007cbf8     container-moving.obj
 0003:0000cc10       ??_R2?$ContainerMoving@VObject@@@@8 000000014007cc10     container-moving.obj
 0003:0000cc40       ??_R1A@?0A@EA@?$ContainerMoving@VObject@@@@8 000000014007cc40     container-moving.obj
 0003:0000cc70       ??_R4GameObject@@6B@       000000014007cc70     game-object.obj
 0003:0000cca0       ??_R3GameObject@@8         000000014007cca0     game-object.obj
 0003:0000ccb8       ??_R2GameObject@@8         000000014007ccb8     game-object.obj
 0003:0000ccd0       ??_R1A@?0A@EA@GameObject@@8 000000014007ccd0     game-object.obj
 0003:0000cd00       ??_R3?$_Func_base@XPEAVButton@@@std@@8 000000014007cd00     menu-window.obj
 0003:0000cd18       ??_R2?$_Func_base@XPEAVButton@@@std@@8 000000014007cd18     menu-window.obj
 0003:0000cd28       ??_R1A@?0A@EA@?$_Func_base@XPEAVButton@@@std@@8 000000014007cd28     menu-window.obj
 0003:0000cd58       ??_R4MenuWindow@@6B@       000000014007cd58     menu-window.obj
 0003:0000cd88       ??_R3MenuWindow@@8         000000014007cd88     menu-window.obj
 0003:0000cda0       ??_R2MenuWindow@@8         000000014007cda0     menu-window.obj
 0003:0000cdd8       ??_R1A@?0A@EA@MenuWindow@@8 000000014007cdd8     menu-window.obj
 0003:0000ce08       ??_R1A@?0A@EA@?$Window@VWidget@@@@8 000000014007ce08     menu-window.obj
 0003:0000ce38       ??_R3?$Window@VWidget@@@@8 000000014007ce38     menu-window.obj
 0003:0000ce50       ??_R2?$Window@VWidget@@@@8 000000014007ce50     menu-window.obj
 0003:0000d030       ??_R4Object@@6B@           000000014007d030     object.obj
 0003:0000d060       ??_R4Tank@@6B@             000000014007d060     tank.obj
 0003:0000d090       ??_R3Tank@@8               000000014007d090     tank.obj
 0003:0000d0a8       ??_R2Tank@@8               000000014007d0a8     tank.obj
 0003:0000d0d0       ??_R1A@?0A@EA@Tank@@8      000000014007d0d0     tank.obj
 0003:0000d100       ??_R4Wall@@6B@             000000014007d100     wall.obj
 0003:0000d130       ??_R3Wall@@8               000000014007d130     wall.obj
 0003:0000d148       ??_R2Wall@@8               000000014007d148     wall.obj
 0003:0000d170       ??_R1A@?0A@EA@Wall@@8      000000014007d170     wall.obj
 0003:0000d1a0       ??_R4WidgetGame@@6B@       000000014007d1a0     widget-game.obj
 0003:0000d1d0       ??_R3WidgetGame@@8         000000014007d1d0     widget-game.obj
 0003:0000d1e8       ??_R2WidgetGame@@8         000000014007d1e8     widget-game.obj
 0003:0000d218       ??_R1A@?0A@EA@WidgetGame@@8 000000014007d218     widget-game.obj
 0003:0000d248       ??_R4Widget@@6B@           000000014007d248     widget.obj
 0003:0000d278       ??_R4WidgetTemplates@@6B@  000000014007d278     widget-templates.obj
 0003:0000d2a8       ??_R3WidgetTemplates@@8    000000014007d2a8     widget-templates.obj
 0003:0000d2c0       ??_R2WidgetTemplates@@8    000000014007d2c0     widget-templates.obj
 0003:0000d2f8       ??_R1A@?0A@EA@WidgetTemplates@@8 000000014007d2f8     widget-templates.obj
 0003:0000d328       ??_R3?$_Func_base@PEAVObject@@PEAV1@AEBVEvent@sf@@@std@@8 000000014007d328     widget-templates.obj
 0003:0000d340       ??_R2?$_Func_base@PEAVObject@@PEAV1@AEBVEvent@sf@@@std@@8 000000014007d340     widget-templates.obj
 0003:0000d350       ??_R1A@?0A@EA@?$_Func_base@PEAVObject@@PEAV1@AEBVEvent@sf@@@std@@8 000000014007d350     widget-templates.obj
 0003:0000d410       ??_R4WidgetGameEditor@@6B@ 000000014007d410     widget-game-editor.obj
 0003:0000d440       ??_R3WidgetGameEditor@@8   000000014007d440     widget-game-editor.obj
 0003:0000d458       ??_R2WidgetGameEditor@@8   000000014007d458     widget-game-editor.obj
 0003:0000d490       ??_R1A@?0A@EA@WidgetGameEditor@@8 000000014007d490     widget-game-editor.obj
 0003:0000d4c0       ??_R4WidgetIlluminatedObject@@6B@ 000000014007d4c0     widget-illuminated-object.obj
 0003:0000d4f0       ??_R3WidgetIlluminatedObject@@8 000000014007d4f0     widget-illuminated-object.obj
 0003:0000d508       ??_R2WidgetIlluminatedObject@@8 000000014007d508     widget-illuminated-object.obj
 0003:0000d530       ??_R1A@?0A@EA@WidgetIlluminatedObject@@8 000000014007d530     widget-illuminated-object.obj
 0003:0000d560       ??_R4?$Window@VWidget@@@@6B@ 000000014007d560     window.obj
 0003:0000d590       ??_R4WindowGame@@6B@       000000014007d590     window-game.obj
 0003:0000d5c0       ??_R3WindowGame@@8         000000014007d5c0     window-game.obj
 0003:0000d5d8       ??_R2WindowGame@@8         000000014007d5d8     window-game.obj
 0003:0000d610       ??_R1A@?0A@EA@WindowGame@@8 000000014007d610     window-game.obj
 0003:0000d640       ??_R4WindowEditor@@6B@     000000014007d640     window-editor.obj
 0003:0000d670       ??_R3WindowEditor@@8       000000014007d670     window-editor.obj
 0003:0000d688       ??_R2WindowEditor@@8       000000014007d688     window-editor.obj
 0003:0000d6c0       ??_R1A@?0A@EA@WindowEditor@@8 000000014007d6c0     window-editor.obj
 0003:0000d6f0       ??_R3?$_Func_base@XPEAVObject@@AEBVEvent@sf@@@std@@8 000000014007d6f0     window-editor.obj
 0003:0000d708       ??_R2?$_Func_base@XPEAVObject@@AEBVEvent@sf@@@std@@8 000000014007d708     window-editor.obj
 0003:0000d718       ??_R1A@?0A@EA@?$_Func_base@XPEAVObject@@AEBVEvent@sf@@@std@@8 000000014007d718     window-editor.obj
 0003:0000daa8       ??_R4type_info@@6B@        000000014007daa8     MSVCRTD:std_type_info_static.obj
 0003:0000dad8       ??_R3type_info@@8          000000014007dad8     MSVCRTD:std_type_info_static.obj
 0003:0000daf0       ??_R2type_info@@8          000000014007daf0     MSVCRTD:std_type_info_static.obj
 0003:0000db00       ??_R1A@?0A@EA@type_info@@8 000000014007db00     MSVCRTD:std_type_info_static.obj
 0003:0000db30       ??_R4exception@std@@6B@    000000014007db30     MSVCRTD:throw_bad_alloc.obj
 0003:0000db60       ??_R3exception@std@@8      000000014007db60     MSVCRTD:throw_bad_alloc.obj
 0003:0000db78       ??_R2exception@std@@8      000000014007db78     MSVCRTD:throw_bad_alloc.obj
 0003:0000db88       ??_R1A@?0A@EA@exception@std@@8 000000014007db88     MSVCRTD:throw_bad_alloc.obj
 0003:0000dbb8       ??_R4bad_alloc@std@@6B@    000000014007dbb8     MSVCRTD:throw_bad_alloc.obj
 0003:0000dbe8       ??_R3bad_alloc@std@@8      000000014007dbe8     MSVCRTD:throw_bad_alloc.obj
 0003:0000dc00       ??_R2bad_alloc@std@@8      000000014007dc00     MSVCRTD:throw_bad_alloc.obj
 0003:0000dc18       ??_R1A@?0A@EA@bad_alloc@std@@8 000000014007dc18     MSVCRTD:throw_bad_alloc.obj
 0003:0000dc48       ??_R4bad_array_new_length@std@@6B@ 000000014007dc48     MSVCRTD:throw_bad_alloc.obj
 0003:0000dc78       ??_R3bad_array_new_length@std@@8 000000014007dc78     MSVCRTD:throw_bad_alloc.obj
 0003:0000dc90       ??_R2bad_array_new_length@std@@8 000000014007dc90     MSVCRTD:throw_bad_alloc.obj
 0003:0000dcb8       ??_R1A@?0A@EA@bad_array_new_length@std@@8 000000014007dcb8     MSVCRTD:throw_bad_alloc.obj
 0003:0000dfc8       __rtc_iaa                  000000014007dfc8     MSVCRTD:_initsect_.obj
 0003:0000e370       __rtc_izz                  000000014007e370     MSVCRTD:_initsect_.obj
 0003:0000e480       __rtc_taa                  000000014007e480     MSVCRTD:_initsect_.obj
 0003:0000e828       __rtc_tzz                  000000014007e828     MSVCRTD:_initsect_.obj
 0003:00019270       _TI2PEAD                   0000000140089270     game-object.obj
 0003:00019290       _CTA2PEAD                  0000000140089290     game-object.obj
 0003:000192a8       _CT??_R0PEAD@88            00000001400892a8     game-object.obj
 0003:000192d0       _CT??_R0PEAX@88            00000001400892d0     game-object.obj
 0003:000192f8       _TI2?AVbad_alloc@std@@     00000001400892f8     MSVCRTD:throw_bad_alloc.obj
 0003:00019318       _CTA2?AVbad_alloc@std@@    0000000140089318     MSVCRTD:throw_bad_alloc.obj
 0003:00019330       _CT??_R0?AVbad_alloc@std@@@8??0bad_alloc@std@@QEAA@AEBV01@@Z24 0000000140089330     MSVCRTD:throw_bad_alloc.obj
 0003:00019358       _CT??_R0?AVexception@std@@@8??0exception@std@@QEAA@AEBV01@@Z24 0000000140089358     MSVCRTD:throw_bad_alloc.obj
 0003:00019380       _TI3?AVbad_array_new_length@std@@ 0000000140089380     MSVCRTD:throw_bad_alloc.obj
 0003:000193a0       _CTA3?AVbad_array_new_length@std@@ 00000001400893a0     MSVCRTD:throw_bad_alloc.obj
 0003:000193c0       _CT??_R0?AVbad_array_new_length@std@@@8??0bad_array_new_length@std@@QEAA@AEBV01@@Z24 00000001400893c0     MSVCRTD:throw_bad_alloc.obj
 0004:00000000       ?__LINE__Var@?0??_Adjust_manually_vector_aligned@std@@YAXAEAPEAXAEA_K@Z@4JA 000000014008a000     texture-manager.obj
 0004:00000004       ?__LINE__Var@?0??_Maklocwcs@std@@YAPEA_WPEB_W@Z@4JA 000000014008a004     texture-manager.obj
 0004:00000010       __security_cookie          000000014008a010     MSVCRTD:gs_cookie.obj
 0004:00000018       __security_cookie_complement 000000014008a018     MSVCRTD:gs_cookie.obj
 0004:00000024       __scrt_native_dllmain_reason 000000014008a024     MSVCRTD:utility.obj
 0004:00000028       _fltused                   000000014008a028     MSVCRTD:fltused.obj
 0004:00000030       ?_RTC_ErrorLevels@@3PAHA   000000014008a030     MSVCRTD:_error_.obj
 0004:00000048       __isa_available            000000014008a048     MSVCRTD:_cpu_disp_.obj
 0004:0000004c       __isa_enabled              000000014008a04c     MSVCRTD:_cpu_disp_.obj
 0004:00000050       __memcpy_nt_iters          000000014008a050     MSVCRTD:_cpu_disp_.obj
 0004:0000005c       __scrt_default_matherr     000000014008a05c     MSVCRTD:matherr.obj
 0004:00000060       __scrt_ucrt_dll_is_in_use  000000014008a060     MSVCRTD:ucrt_stubs.obj
 0004:00000170       ??_R0?AVButton@@@8         000000014008a170     button.obj
 0004:00000198       ??_R0?AVWidget@@@8         000000014008a198     button.obj
 0004:000001c0       ??_R0?AVObject@@@8         000000014008a1c0     button.obj
 0004:000001e8       ??_R0?AVGameObject@@@8     000000014008a1e8     config.obj
 0004:00000210       ??_R0?AV?$Container@VObject@@@@@8 000000014008a210     container.obj
 0004:00000248       ??_R0?AV?$Container@VWidget@@@@@8 000000014008a248     container.obj
 0004:00000280       ??_R0?AV?$Container@VGameObject@@@@@8 000000014008a280     container.obj
 0004:000002c0       ??_R0?AVRenderWindow@sf@@@8 000000014008a2c0     engine.obj
 0004:000002f0       ??_R0?AVWindow@sf@@@8      000000014008a2f0     engine.obj
 0004:00000318       ??_R0?AVGlResource@sf@@@8  000000014008a318     engine.obj
 0004:00000348       ??_R0?AVNonCopyable@sf@@@8 000000014008a348     engine.obj
 0004:00000378       ??_R0?AVRenderTarget@sf@@@8 000000014008a378     engine.obj
 0004:000003a8       ??_R0?AV?$ContainerMoving@VObject@@@@@8 000000014008a3a8     container-moving.obj
 0004:000003e8       ??_R0PEAD@8                000000014008a3e8     game-object.obj
 0004:00000408       ??_R0PEAX@8                000000014008a408     game-object.obj
 0004:00000520       ??_R0?AV?$_Func_base@XPEAVButton@@@std@@@8 000000014008a520     menu-window.obj
 0004:00000560       ??_R0?AVMenuWindow@@@8     000000014008a560     menu-window.obj
 0004:00000588       ??_R0?AV?$Window@VWidget@@@@@8 000000014008a588     menu-window.obj
 0004:00000740       ??_R0?AVTank@@@8           000000014008a740     tank.obj
 0004:00000760       ??_R0?AVWall@@@8           000000014008a760     wall.obj
 0004:00000780       ??_R0?AVWidgetGame@@@8     000000014008a780     widget-game.obj
 0004:00000800       ??_R0?AVWidgetTemplates@@@8 000000014008a800     widget-templates.obj
 0004:00000830       ??_R0?AV?$_Func_base@PEAVObject@@PEAV1@AEBVEvent@sf@@@std@@@8 000000014008a830     widget-templates.obj
 0004:00000928       ??_R0?AVWidgetGameEditor@@@8 000000014008a928     widget-game-editor.obj
 0004:00000958       ??_R0?AVWidgetIlluminatedObject@@@8 000000014008a958     widget-illuminated-object.obj
 0004:00000990       ??_R0?AVWindowGame@@@8     000000014008a990     window-game.obj
 0004:00000ba0       ??_R0?AVWindowEditor@@@8   000000014008aba0     window-editor.obj
 0004:00000bd0       ??_R0?AV?$_Func_base@XPEAVObject@@AEBVEvent@sf@@@std@@@8 000000014008abd0     window-editor.obj
 0004:00000fa0       ??_R0?AVtype_info@@@8      000000014008afa0     MSVCRTD:std_type_info_static.obj
 0004:00000fc8       ??_R0?AVbad_alloc@std@@@8  000000014008afc8     MSVCRTD:throw_bad_alloc.obj
 0004:00000ff8       ??_R0?AVexception@std@@@8  000000014008aff8     MSVCRTD:throw_bad_alloc.obj
 0004:00001028       ??_R0?AVbad_array_new_length@std@@@8 000000014008b028     MSVCRTD:throw_bad_alloc.obj
 0004:000011a0       ?m_Instance@TextureManager@@2PEAV1@EA 000000014008b1a0     texture-manager.obj
 0004:000011b0       ?font@@3VFont@sf@@A        000000014008b1b0     button.obj
 0004:00001258       ?_OptionsStorage@?1??__local_stdio_printf_options@@9@4_KA 000000014008b258     config.obj
 0004:00001268       __scrt_current_native_startup_state 000000014008b268     MSVCRTD:utility.obj
 0004:00001270       __scrt_native_startup_lock 000000014008b270     MSVCRTD:utility.obj
 0004:00001958       __favor                    000000014008b958     MSVCRTD:_cpu_disp_.obj
 0004:0000195c       __scrt_debugger_hook_flag  000000014008b95c     MSVCRTD:utility_desktop.obj
 0004:00001970       ?__type_info_root_node@@3U__type_info_node@@A 000000014008b970     MSVCRTD:tncleanup.obj
 0004:00001988       ?_OptionsStorage@?1??__local_stdio_scanf_options@@9@4_KA 000000014008b988     MSVCRTD:default_local_stdio_options.obj
 0004:00001998       __dyn_tls_dtor_callback    000000014008b998     <common>
 0004:000019b0       __dyn_tls_init_callback    000000014008b9b0     <common>
 0006:00000000       __imp_GetModuleHandleW     0000000140093000     kernel32:KERNEL32.dll
 0006:00000008       __imp_InitializeSListHead  0000000140093008     kernel32:KERNEL32.dll
 0006:00000010       __imp_GetSystemTimeAsFileTime 0000000140093010     kernel32:KERNEL32.dll
 0006:00000018       __imp_GetCurrentThreadId   0000000140093018     kernel32:KERNEL32.dll
 0006:00000020       __imp_GetCurrentProcessId  0000000140093020     kernel32:KERNEL32.dll
 0006:00000028       __imp_QueryPerformanceCounter 0000000140093028     kernel32:KERNEL32.dll
 0006:00000030       __imp_GetProcAddress       0000000140093030     kernel32:KERNEL32.dll
 0006:00000038       __imp_FreeLibrary          0000000140093038     kernel32:KERNEL32.dll
 0006:00000040       __imp_VirtualQuery         0000000140093040     kernel32:KERNEL32.dll
 0006:00000048       __imp_GetProcessHeap       0000000140093048     kernel32:KERNEL32.dll
 0006:00000050       __imp_HeapFree             0000000140093050     kernel32:KERNEL32.dll
 0006:00000058       __imp_HeapAlloc            0000000140093058     kernel32:KERNEL32.dll
 0006:00000060       __imp_GetLastError         0000000140093060     kernel32:KERNEL32.dll
 0006:00000068       __imp_IsDebuggerPresent    0000000140093068     kernel32:KERNEL32.dll
 0006:00000070       __imp_GetStartupInfoW      0000000140093070     kernel32:KERNEL32.dll
 0006:00000078       __imp_IsProcessorFeaturePresent 0000000140093078     kernel32:KERNEL32.dll
 0006:00000080       __imp_TerminateProcess     0000000140093080     kernel32:KERNEL32.dll
 0006:00000088       __imp_GetCurrentProcess    0000000140093088     kernel32:KERNEL32.dll
 0006:00000090       __imp_SetUnhandledExceptionFilter 0000000140093090     kernel32:KERNEL32.dll
 0006:00000098       __imp_UnhandledExceptionFilter 0000000140093098     kernel32:KERNEL32.dll
 0006:000000a0       __imp_RtlVirtualUnwind     00000001400930a0     kernel32:KERNEL32.dll
 0006:000000a8       __imp_RtlLookupFunctionEntry 00000001400930a8     kernel32:KERNEL32.dll
 0006:000000b0       __imp_RtlCaptureContext    00000001400930b0     kernel32:KERNEL32.dll
 0006:000000b8       __imp_WideCharToMultiByte  00000001400930b8     kernel32:KERNEL32.dll
 0006:000000c0       __imp_MultiByteToWideChar  00000001400930c0     kernel32:KERNEL32.dll
 0006:000000c8       __imp_RaiseException       00000001400930c8     kernel32:KERNEL32.dll
 0006:000000d0       \177KERNEL32_NULL_THUNK_DATA 00000001400930d0     kernel32:KERNEL32.dll
 0006:00000150       __imp_?_Xlength_error@std@@YAXPEBD@Z 0000000140093150     msvcprtd:MSVCP140D.dll
 0006:00000158       __imp_?_Xbad_alloc@std@@YAXXZ 0000000140093158     msvcprtd:MSVCP140D.dll
 0006:00000160       __imp__Mbrtowc             0000000140093160     msvcprtd:MSVCP140D.dll
 0006:00000168       __imp_?_Debug_message@std@@YAXPEB_W0I@Z 0000000140093168     msvcprtd:MSVCP140D.dll
 0006:00000170       __imp_??1_Lockit@std@@QEAA@XZ 0000000140093170     msvcprtd:MSVCP140D.dll
 0006:00000178       __imp_??0_Lockit@std@@QEAA@H@Z 0000000140093178     msvcprtd:MSVCP140D.dll
 0006:00000180       __imp_?_Getcvt@_Locinfo@std@@QEBA?AU_Cvtvec@@XZ 0000000140093180     msvcprtd:MSVCP140D.dll
 0006:00000188       __imp_?_Getdays@_Locinfo@std@@QEBAPEBDXZ 0000000140093188     msvcprtd:MSVCP140D.dll
 0006:00000190       __imp_?_Getmonths@_Locinfo@std@@QEBAPEBDXZ 0000000140093190     msvcprtd:MSVCP140D.dll
 0006:00000198       __imp_?_W_Getdays@_Locinfo@std@@QEBAPEBGXZ 0000000140093198     msvcprtd:MSVCP140D.dll
 0006:000001a0       __imp_?_W_Getmonths@_Locinfo@std@@QEBAPEBGXZ 00000001400931a0     msvcprtd:MSVCP140D.dll
 0006:000001a8       __imp_?_Xbad_function_call@std@@YAXXZ 00000001400931a8     msvcprtd:MSVCP140D.dll
 0006:000001b0       __imp_?_Xinvalid_argument@std@@YAXPEBD@Z 00000001400931b0     msvcprtd:MSVCP140D.dll
 0006:000001b8       __imp_?_Xout_of_range@std@@YAXPEBD@Z 00000001400931b8     msvcprtd:MSVCP140D.dll
 0006:000001c0       __imp_?_Init@locale@std@@CAPEAV_Locimp@12@_N@Z 00000001400931c0     msvcprtd:MSVCP140D.dll
 0006:000001c8       \177MSVCP140D_NULL_THUNK_DATA 00000001400931c8     msvcprtd:MSVCP140D.dll
 0006:00000238       __imp_memcmp               0000000140093238     vcruntimed:VCRUNTIME140D.dll
 0006:00000240       __imp_memcpy               0000000140093240     vcruntimed:VCRUNTIME140D.dll
 0006:00000248       __imp_memmove              0000000140093248     vcruntimed:VCRUNTIME140D.dll
 0006:00000250       __imp__CxxThrowException   0000000140093250     vcruntimed:VCRUNTIME140D.dll
 0006:00000258       __imp___CxxFrameHandler3   0000000140093258     vcruntimed:VCRUNTIME140D.dll
 0006:00000260       __imp_memset               0000000140093260     vcruntimed:VCRUNTIME140D.dll
 0006:00000268       __imp___RTDynamicCast      0000000140093268     vcruntimed:VCRUNTIME140D.dll
 0006:00000270       __imp__purecall            0000000140093270     vcruntimed:VCRUNTIME140D.dll
 0006:00000278       __imp___C_specific_handler 0000000140093278     vcruntimed:VCRUNTIME140D.dll
 0006:00000280       __imp___C_specific_handler_noexcept 0000000140093280     vcruntimed:VCRUNTIME140D.dll
 0006:00000288       __imp___std_exception_copy 0000000140093288     vcruntimed:VCRUNTIME140D.dll
 0006:00000290       __imp___std_exception_destroy 0000000140093290     vcruntimed:VCRUNTIME140D.dll
 0006:00000298       __imp___vcrt_GetModuleFileNameW 0000000140093298     vcruntimed:VCRUNTIME140D.dll
 0006:000002a0       __imp___vcrt_LoadLibraryExW 00000001400932a0     vcruntimed:VCRUNTIME140D.dll
 0006:000002a8       __imp___std_type_info_destroy_list 00000001400932a8     vcruntimed:VCRUNTIME140D.dll
 0006:000002b0       __imp___vcrt_GetModuleHandleW 00000001400932b0     vcruntimed:VCRUNTIME140D.dll
 0006:000002b8       \177VCRUNTIME140D_NULL_THUNK_DATA 00000001400932b8     vcruntimed:VCRUNTIME140D.dll
 0006:00000328       __imp_?setActive@RenderWindow@sf@@UEAA_N_N@Z 0000000140093328     sfml-graphics-d:sfml-graphics-d-2.dll
 0006:00000330       __imp_?onResize@RenderWindow@sf@@MEAAXXZ 0000000140093330     sfml-graphics-d:sfml-graphics-d-2.dll
 0006:00000338       __imp_?onCreate@RenderWindow@sf@@MEAAXXZ 0000000140093338     sfml-graphics-d:sfml-graphics-d-2.dll
 0006:00000340       __imp_?getSize@RenderWindow@sf@@UEBA?AV?$Vector2@I@2@XZ 0000000140093340     sfml-graphics-d:sfml-graphics-d-2.dll
 0006:00000348       __imp_??1RenderWindow@sf@@UEAA@XZ 0000000140093348     sfml-graphics-d:sfml-graphics-d-2.dll
 0006:00000350       __imp_??0RenderWindow@sf@@QEAA@VVideoMode@1@AEBVString@1@IAEBUContextSettings@1@@Z 0000000140093350     sfml-graphics-d:sfml-graphics-d-2.dll
 0006:00000358       __imp_?clear@RenderTarget@sf@@QEAAXAEBVColor@2@@Z 0000000140093358     sfml-graphics-d:sfml-graphics-d-2.dll
 0006:00000360       __imp_??0Color@sf@@QEAA@EEEE@Z 0000000140093360     sfml-graphics-d:sfml-graphics-d-2.dll
 0006:00000368       __imp_?loadFromFile@Texture@sf@@QEAA_NAEBV?$basic_string@DU?$char_traits@D@std@@V?$allocator@D@2@@std@@AEBV?$Rect@H@2@@Z 0000000140093368     sfml-graphics-d:sfml-graphics-d-2.dll
 0006:00000370       __imp_?setPosition@Transformable@sf@@QEAAXMM@Z 0000000140093370     sfml-graphics-d:sfml-graphics-d-2.dll
 0006:00000378       __imp_?setOrigin@Transformable@sf@@QEAAXAEBV?$Vector2@M@2@@Z 0000000140093378     sfml-graphics-d:sfml-graphics-d-2.dll
 0006:00000380       __imp_??0Font@sf@@QEAA@XZ  0000000140093380     sfml-graphics-d:sfml-graphics-d-2.dll
 0006:00000388       __imp_??1Font@sf@@QEAA@XZ  0000000140093388     sfml-graphics-d:sfml-graphics-d-2.dll
 0006:00000390       __imp_?loadFromFile@Font@sf@@QEAA_NAEBV?$basic_string@DU?$char_traits@D@std@@V?$allocator@D@2@@std@@@Z 0000000140093390     sfml-graphics-d:sfml-graphics-d-2.dll
 0006:00000398       __imp_?White@Color@sf@@2V12@B 0000000140093398     sfml-graphics-d:sfml-graphics-d-2.dll
 0006:000003a0       __imp_?setViewport@View@sf@@QEAAXAEBV?$Rect@M@2@@Z 00000001400933a0     sfml-graphics-d:sfml-graphics-d-2.dll
 0006:000003a8       __imp_??0View@sf@@QEAA@XZ  00000001400933a8     sfml-graphics-d:sfml-graphics-d-2.dll
 0006:000003b0       __imp_??4Sprite@sf@@QEAAAEAV01@AEBV01@@Z 00000001400933b0     sfml-graphics-d:sfml-graphics-d-2.dll
 0006:000003b8       __imp_??1Sprite@sf@@UEAA@XZ 00000001400933b8     sfml-graphics-d:sfml-graphics-d-2.dll
 0006:000003c0       __imp_?getTexture@Sprite@sf@@QEBAPEBVTexture@2@XZ 00000001400933c0     sfml-graphics-d:sfml-graphics-d-2.dll
 0006:000003c8       __imp_?setTextureRect@Sprite@sf@@QEAAXAEBV?$Rect@H@2@@Z 00000001400933c8     sfml-graphics-d:sfml-graphics-d-2.dll
 0006:000003d0       __imp_?setTexture@Sprite@sf@@QEAAXAEBVTexture@2@_N@Z 00000001400933d0     sfml-graphics-d:sfml-graphics-d-2.dll
 0006:000003d8       __imp_??0Sprite@sf@@QEAA@XZ 00000001400933d8     sfml-graphics-d:sfml-graphics-d-2.dll
 0006:000003e0       __imp_?getSize@Texture@sf@@QEBA?AV?$Vector2@I@2@XZ 00000001400933e0     sfml-graphics-d:sfml-graphics-d-2.dll
 0006:000003e8       __imp_?setScale@Transformable@sf@@QEAAXAEBV?$Vector2@M@2@@Z 00000001400933e8     sfml-graphics-d:sfml-graphics-d-2.dll
 0006:000003f0       __imp_??0Texture@sf@@QEAA@XZ 00000001400933f0     sfml-graphics-d:sfml-graphics-d-2.dll
 0006:000003f8       __imp_?draw@RenderTarget@sf@@QEAAXAEBVDrawable@2@AEBVRenderStates@2@@Z 00000001400933f8     sfml-graphics-d:sfml-graphics-d-2.dll
 0006:00000400       __imp_??0Text@sf@@QEAA@XZ  0000000140093400     sfml-graphics-d:sfml-graphics-d-2.dll
 0006:00000408       __imp_?setString@Text@sf@@QEAAXAEBVString@2@@Z 0000000140093408     sfml-graphics-d:sfml-graphics-d-2.dll
 0006:00000410       __imp_?setFont@Text@sf@@QEAAXAEBVFont@2@@Z 0000000140093410     sfml-graphics-d:sfml-graphics-d-2.dll
 0006:00000418       __imp_?setCharacterSize@Text@sf@@QEAAXI@Z 0000000140093418     sfml-graphics-d:sfml-graphics-d-2.dll
 0006:00000420       __imp_?setColor@Text@sf@@QEAAXAEBVColor@2@@Z 0000000140093420     sfml-graphics-d:sfml-graphics-d-2.dll
 0006:00000428       __imp_?getString@Text@sf@@QEBAAEBVString@2@XZ 0000000140093428     sfml-graphics-d:sfml-graphics-d-2.dll
 0006:00000430       __imp_?getLocalBounds@Text@sf@@QEBA?AV?$Rect@M@2@XZ 0000000140093430     sfml-graphics-d:sfml-graphics-d-2.dll
 0006:00000438       __imp_??1Text@sf@@UEAA@XZ  0000000140093438     sfml-graphics-d:sfml-graphics-d-2.dll
 0006:00000440       __imp_?Default@RenderStates@sf@@2V12@B 0000000140093440     sfml-graphics-d:sfml-graphics-d-2.dll
 0006:00000448       __imp_?setPosition@Transformable@sf@@QEAAXAEBV?$Vector2@M@2@@Z 0000000140093448     sfml-graphics-d:sfml-graphics-d-2.dll
 0006:00000450       \177sfml-graphics-d-2_NULL_THUNK_DATA 0000000140093450     sfml-graphics-d:sfml-graphics-d-2.dll
 0006:000004e0       __imp_??1String@sf@@QEAA@XZ 00000001400934e0     sfml-system-d:sfml-system-d-2.dll
 0006:000004e8       __imp_?asMilliseconds@Time@sf@@QEBAHXZ 00000001400934e8     sfml-system-d:sfml-system-d-2.dll
 0006:000004f0       __imp_??0String@sf@@QEAA@PEB_W@Z 00000001400934f0     sfml-system-d:sfml-system-d-2.dll
 0006:000004f8       __imp_??0Clock@sf@@QEAA@XZ 00000001400934f8     sfml-system-d:sfml-system-d-2.dll
 0006:00000500       __imp_?getElapsedTime@Clock@sf@@QEBA?AVTime@2@XZ 0000000140093500     sfml-system-d:sfml-system-d-2.dll
 0006:00000508       __imp_??0String@sf@@QEAA@PEBDAEBVlocale@std@@@Z 0000000140093508     sfml-system-d:sfml-system-d-2.dll
 0006:00000510       __imp_??Gsf@@YA?AVTime@0@V10@0@Z 0000000140093510     sfml-system-d:sfml-system-d-2.dll
 0006:00000518       __imp_?toWideString@String@sf@@QEBA?AV?$basic_string@_WU?$char_traits@_W@std@@V?$allocator@_W@2@@std@@XZ 0000000140093518     sfml-system-d:sfml-system-d-2.dll
 0006:00000520       \177sfml-system-d-2_NULL_THUNK_DATA 0000000140093520     sfml-system-d:sfml-system-d-2.dll
 0006:00000580       __imp_?display@Window@sf@@QEAAXXZ 0000000140093580     sfml-window-d:sfml-window-d-2.dll
 0006:00000588       __imp_?isOpen@Window@sf@@QEBA_NXZ 0000000140093588     sfml-window-d:sfml-window-d-2.dll
 0006:00000590       __imp_?close@Window@sf@@QEAAXXZ 0000000140093590     sfml-window-d:sfml-window-d-2.dll
 0006:00000598       __imp_??0VideoMode@sf@@QEAA@III@Z 0000000140093598     sfml-window-d:sfml-window-d-2.dll
 0006:000005a0       __imp_?pollEvent@Window@sf@@QEAA_NAEAVEvent@2@@Z 00000001400935a0     sfml-window-d:sfml-window-d-2.dll
 0006:000005a8       \177sfml-window-d-2_NULL_THUNK_DATA 00000001400935a8     sfml-window-d:sfml-window-d-2.dll
 0006:00000608       __imp__execute_onexit_table 0000000140093608     ucrtd:ucrtbased.dll
 0006:00000610       __imp__crt_atexit          0000000140093610     ucrtd:ucrtbased.dll
 0006:00000618       __imp__crt_at_quick_exit   0000000140093618     ucrtd:ucrtbased.dll
 0006:00000620       __imp__cexit               0000000140093620     ucrtd:ucrtbased.dll
 0006:00000628       __imp_strcpy_s             0000000140093628     ucrtd:ucrtbased.dll
 0006:00000630       __imp_strcat_s             0000000140093630     ucrtd:ucrtbased.dll
 0006:00000638       __imp__seh_filter_exe      0000000140093638     ucrtd:ucrtbased.dll
 0006:00000640       __imp__set_app_type        0000000140093640     ucrtd:ucrtbased.dll
 0006:00000648       __imp___setusermatherr     0000000140093648     ucrtd:ucrtbased.dll
 0006:00000650       __imp__get_narrow_winmain_command_line 0000000140093650     ucrtd:ucrtbased.dll
 0006:00000658       __imp__initterm            0000000140093658     ucrtd:ucrtbased.dll
 0006:00000660       __imp__initterm_e          0000000140093660     ucrtd:ucrtbased.dll
 0006:00000668       __imp_exit                 0000000140093668     ucrtd:ucrtbased.dll
 0006:00000670       __imp__exit                0000000140093670     ucrtd:ucrtbased.dll
 0006:00000678       __imp__set_fmode           0000000140093678     ucrtd:ucrtbased.dll
 0006:00000680       __imp__c_exit              0000000140093680     ucrtd:ucrtbased.dll
 0006:00000688       __imp__register_thread_local_exe_atexit_callback 0000000140093688     ucrtd:ucrtbased.dll
 0006:00000690       __imp__configthreadlocale  0000000140093690     ucrtd:ucrtbased.dll
 0006:00000698       __imp__set_new_mode        0000000140093698     ucrtd:ucrtbased.dll
 0006:000006a0       __imp___p__commode         00000001400936a0     ucrtd:ucrtbased.dll
 0006:000006a8       __imp__free_dbg            00000001400936a8     ucrtd:ucrtbased.dll
 0006:000006b0       __imp_terminate            00000001400936b0     ucrtd:ucrtbased.dll
 0006:000006b8       __imp__initialize_onexit_table 00000001400936b8     ucrtd:ucrtbased.dll
 0006:000006c0       __imp__wsplitpath_s        00000001400936c0     ucrtd:ucrtbased.dll
 0006:000006c8       __imp_wcscpy_s             00000001400936c8     ucrtd:ucrtbased.dll
 0006:000006d0       __imp_malloc               00000001400936d0     ucrtd:ucrtbased.dll
 0006:000006d8       __imp__callnewh            00000001400936d8     ucrtd:ucrtbased.dll
 0006:000006e0       __imp_fabs                 00000001400936e0     ucrtd:ucrtbased.dll
 0006:000006e8       __imp_rand                 00000001400936e8     ucrtd:ucrtbased.dll
 0006:000006f0       __imp___stdio_common_vsprintf_s 00000001400936f0     ucrtd:ucrtbased.dll
 0006:000006f8       __imp___stdio_common_vsprintf 00000001400936f8     ucrtd:ucrtbased.dll
 0006:00000700       __imp___stdio_common_vfprintf 0000000140093700     ucrtd:ucrtbased.dll
 0006:00000708       __imp_fwrite               0000000140093708     ucrtd:ucrtbased.dll
 0006:00000710       __imp_fread                0000000140093710     ucrtd:ucrtbased.dll
 0006:00000718       __imp_fopen                0000000140093718     ucrtd:ucrtbased.dll
 0006:00000720       __imp_feof                 0000000140093720     ucrtd:ucrtbased.dll
 0006:00000728       __imp_fclose               0000000140093728     ucrtd:ucrtbased.dll
 0006:00000730       __imp___acrt_iob_func      0000000140093730     ucrtd:ucrtbased.dll
 0006:00000738       __imp_strtol               0000000140093738     ucrtd:ucrtbased.dll
 0006:00000740       __imp_strtof               0000000140093740     ucrtd:ucrtbased.dll
 0006:00000748       __imp__errno               0000000140093748     ucrtd:ucrtbased.dll
 0006:00000750       __imp__CrtDbgReportW       0000000140093750     ucrtd:ucrtbased.dll
 0006:00000758       __imp__calloc_dbg          0000000140093758     ucrtd:ucrtbased.dll
 0006:00000760       __imp_strlen               0000000140093760     ucrtd:ucrtbased.dll
 0006:00000768       __imp_wcslen               0000000140093768     ucrtd:ucrtbased.dll
 0006:00000770       __imp__invalid_parameter   0000000140093770     ucrtd:ucrtbased.dll
 0006:00000778       __imp__initialize_narrow_environment 0000000140093778     ucrtd:ucrtbased.dll
 0006:00000780       __imp__configure_narrow_argv 0000000140093780     ucrtd:ucrtbased.dll
 0006:00000788       __imp__seh_filter_dll      0000000140093788     ucrtd:ucrtbased.dll
 0006:00000790       __imp__wmakepath_s         0000000140093790     ucrtd:ucrtbased.dll
 0006:00000798       __imp__CrtDbgReport        0000000140093798     ucrtd:ucrtbased.dll
 0006:000007a0       __imp__register_onexit_function 00000001400937a0     ucrtd:ucrtbased.dll
 0006:000007a8       \177ucrtbased_NULL_THUNK_DATA 00000001400937a8     ucrtd:ucrtbased.dll
 0006:00000850       __IMPORT_DESCRIPTOR_sfml-graphics-d-2 0000000140093850     sfml-graphics-d:sfml-graphics-d-2.dll
 0006:00000864       __IMPORT_DESCRIPTOR_sfml-window-d-2 0000000140093864     sfml-window-d:sfml-window-d-2.dll
 0006:00000878       __IMPORT_DESCRIPTOR_sfml-system-d-2 0000000140093878     sfml-system-d:sfml-system-d-2.dll
 0006:0000088c       __IMPORT_DESCRIPTOR_MSVCP140D 000000014009388c     msvcprtd:MSVCP140D.dll
 0006:000008a0       __IMPORT_DESCRIPTOR_VCRUNTIME140D 00000001400938a0     vcruntimed:VCRUNTIME140D.dll
 0006:000008b4       __IMPORT_DESCRIPTOR_ucrtbased 00000001400938b4     ucrtd:ucrtbased.dll
 0006:000008c8       __IMPORT_DESCRIPTOR_KERNEL32 00000001400938c8     kernel32:KERNEL32.dll
 0006:000008dc       __NULL_IMPORT_DESCRIPTOR   00000001400938dc     sfml-graphics-d:sfml-graphics-d-2.dll
 0007:00000000       __guard_check_icall_fptr   0000000140096000     MSVCRTD:guard_support.obj
 0007:00000010       __guard_dispatch_icall_fptr 0000000140096010     MSVCRTD:guard_support.obj

 entry point at        0002:00000730

 Static symbols

 0003:fff90000       $unwind$?deallocate@?$_Default_allocator_traits@V?$allocator@U?$_Tree_node@U?$pair@$$CBW4Object_Subtype@@PEBVGameObject@@@std@@PEAX@std@@@std@@@std@@SAXAEAV?$allocator@U?$_Tree_node@U?$pair@$$CBW4Object_Subtype@@PEBVGameObject@@@std@@PEAX@std@@@2@QEAU?$_Tree_node@U?$pair@$$CBW4Object_Subtype@@PEBVGameObject@@@std@@PEAX@2@_K@Z 0000000140000000     engine.obj
 0005:fff74000       $pdata$?_Get_second@?$_Compressed_pair@U?$less@W4Object_Subtype@@@std@@V?$_Compressed_pair@V?$allocator@U?$_Tree_node@U?$pair@$$CBW4Object_Subtype@@PEBVGameObject@@@std@@PEAX@std@@@std@@V?$_Tree_val@U?$_Tree_simple_types@U?$pair@$$CBW4Object_Subtype@@PEBVGameObject@@@std@@@std@@@2@$00@2@$00@std@@QEBAAEBV?$_Compressed_pair@V?$allocator@U?$_Tree_node@U?$pair@$$CBW4Object_Subtype@@PEBVGameObject@@@std@@PEAX@std@@@std@@V?$_Tree_val@U?$_Tree_simple_types@U?$pair@$$CBW4Object_Subtype@@PEBVGameObject@@@std@@@std@@@2@$00@2@XZ 0000000140000000     config.obj
 0005:fff74000       $pdata$?_Get_second@?$_Compressed_pair@U?$less@W4Object_Subtype@@@std@@V?$_Compressed_pair@V?$allocator@U?$_Tree_node@U?$pair@$$CBW4Object_Subtype@@PEBVGameObject@@@std@@PEAX@std@@@std@@V?$_Tree_val@U?$_Tree_simple_types@U?$pair@$$CBW4Object_Subtype@@PEBVGameObject@@@std@@@std@@@2@$00@2@$00@std@@QEAAAEAV?$_Compressed_pair@V?$allocator@U?$_Tree_node@U?$pair@$$CBW4Object_Subtype@@PEBVGameObject@@@std@@PEAX@std@@@std@@V?$_Tree_val@U?$_Tree_simple_types@U?$pair@$$CBW4Object_Subtype@@PEBVGameObject@@@std@@@std@@@2@$00@2@XZ 0000000140000000     config.obj
 0005:fff74000       $pdata$?end@?$_Tree@V?$_Tmap_traits@W4Object_Subtype@@PEBVGameObject@@U?$less@W4Object_Subtype@@@std@@V?$allocator@U?$pair@$$CBW4Object_Subtype@@PEBVGameObject@@@std@@@4@$0A@@std@@@std@@QEAA?AV?$_Tree_iterator@V?$_Tree_val@U?$_Tree_simple_types@U?$pair@$$CBW4Object_Subtype@@PEBVGameObject@@@std@@@std@@@std@@@2@XZ 0000000140000000     config.obj
 0005:fff74000       $pdata$?_Get_first@?$_Compressed_pair@U?$less@W4Object_Subtype@@@std@@V?$_Compressed_pair@V?$allocator@U?$_Tree_node@U?$pair@$$CBW4Object_Subtype@@PEBVGameObject@@@std@@PEAX@std@@@std@@V?$_Tree_val@U?$_Tree_simple_types@U?$pair@$$CBW4Object_Subtype@@PEBVGameObject@@@std@@@std@@@2@$00@2@$00@std@@QEBAAEBU?$less@W4Object_Subtype@@@2@XZ 0000000140000000     config.obj
 0005:fff74000       $pdata$?_Get_first@?$_Compressed_pair@U?$less@W4Object_Subtype@@@std@@V?$_Compressed_pair@V?$allocator@U?$_Tree_node@U?$pair@$$CBW4Object_Subtype@@PEBVGameObject@@@std@@PEAX@std@@@std@@V?$_Tree_val@U?$_Tree_simple_types@U?$pair@$$CBW4Object_Subtype@@PEBVGameObject@@@std@@@std@@@2@$00@2@$00@std@@QEAAAEAU?$less@W4Object_Subtype@@@2@XZ 0000000140000000     config.obj
 0005:fff74000       $pdata$?end@?$_Tree@V?$_Tmap_traits@W4Object_Subtype@@PEBVGameObject@@U?$less@W4Object_Subtype@@@std@@V?$allocator@U?$pair@$$CBW4Object_Subtype@@PEBVGameObject@@@std@@@4@$0A@@std@@@std@@QEBA?AV?$_Tree_const_iterator@V?$_Tree_val@U?$_Tree_simple_types@U?$pair@$$CBW4Object_Subtype@@PEBVGameObject@@@std@@@std@@@std@@@2@XZ 0000000140000000     config.obj
 0005:fff74000       $pdata$?_Get_second@?$_Compressed_pair@V?$allocator@U?$_Tree_node@U?$pair@$$CBW4Object_Subtype@@PEBVGameObject@@@std@@PEAX@std@@@std@@V?$_Tree_val@U?$_Tree_simple_types@U?$pair@$$CBW4Object_Subtype@@PEBVGameObject@@@std@@@std@@@2@$00@std@@QEBAAEBV?$_Tree_val@U?$_Tree_simple_types@U?$pair@$$CBW4Object_Subtype@@PEBVGameObject@@@std@@@std@@@2@XZ 0000000140000000     config.obj
 0005:fff74000       $pdata$?_Get_second@?$_Compressed_pair@V?$allocator@U?$_Tree_node@U?$pair@$$CBW4Object_Subtype@@PEBVGameObject@@@std@@PEAX@std@@@std@@V?$_Tree_val@U?$_Tree_simple_types@U?$pair@$$CBW4Object_Subtype@@PEBVGameObject@@@std@@@std@@@2@$00@std@@QEAAAEAV?$_Tree_val@U?$_Tree_simple_types@U?$pair@$$CBW4Object_Subtype@@PEBVGameObject@@@std@@@std@@@2@XZ 0000000140000000     config.obj
 0005:fff74000       $pdata$?size@?$_Tree@V?$_Tmap_traits@W4Object_Subtype@@PEBVGameObject@@U?$less@W4Object_Subtype@@@std@@V?$allocator@U?$pair@$$CBW4Object_Subtype@@PEBVGameObject@@@std@@@4@$0A@@std@@@std@@QEBA_KXZ 0000000140000000     config.obj
 0005:fff74000       $pdata$?_Get_first@?$_Compressed_pair@V?$allocator@U?$_Tree_node@U?$pair@$$CBW4Object_Subtype@@PEBVGameObject@@@std@@PEAX@std@@@std@@V?$_Tree_val@U?$_Tree_simple_types@U?$pair@$$CBW4Object_Subtype@@PEBVGameObject@@@std@@@std@@@2@$00@std@@QEBAAEBV?$allocator@U?$_Tree_node@U?$pair@$$CBW4Object_Subtype@@PEBVGameObject@@@std@@PEAX@std@@@2@XZ 0000000140000000     config.obj
 0005:fff74000       $pdata$?max_size@?$_Tree@V?$_Tmap_traits@W4Object_Subtype@@PEBVGameObject@@U?$less@W4Object_Subtype@@@std@@V?$allocator@U?$pair@$$CBW4Object_Subtype@@PEBVGameObject@@@std@@@4@$0A@@std@@@std@@QEBA_KXZ 0000000140000000     config.obj
 0005:fff74000       $pdata$?_Get_first@?$_Compressed_pair@V?$allocator@U?$_Tree_node@U?$pair@$$CBW4Object_Subtype@@PEBVGameObject@@@std@@PEAX@std@@@std@@V?$_Tree_val@U?$_Tree_simple_types@U?$pair@$$CBW4Object_Subtype@@PEBVGameObject@@@std@@@std@@@2@$00@std@@QEAAAEAV?$allocator@U?$_Tree_node@U?$pair@$$CBW4Object_Subtype@@PEBVGameObject@@@std@@PEAX@std@@@2@XZ 0000000140000000     config.obj
 0005:fff74000       $pdata$?find@?$_Tree@V?$_Tmap_traits@W4Object_Subtype@@PEBVGameObject@@U?$less@W4Object_Subtype@@@std@@V?$allocator@U?$pair@$$CBW4Object_Subtype@@PEBVGameObject@@@std@@@4@$0A@@std@@@std@@QEBA?AV?$_Tree_const_iterator@V?$_Tree_val@U?$_Tree_simple_types@U?$pair@$$CBW4Object_Subtype@@PEBVGameObject@@@std@@@std@@@std@@@2@AEBW4Object_Subtype@@@Z 0000000140000000     config.obj
 0005:fff74000       $pdata$?_Rrotate@?$_Tree_val@U?$_Tree_simple_types@U?$pair@$$CBW4Object_Subtype@@PEBVGameObject@@@std@@@std@@@std@@QEAAXPEAU?$_Tree_node@U?$pair@$$CBW4Object_Subtype@@PEBVGameObject@@@std@@PEAX@2@@Z 0000000140000000     config.obj
 0005:fff74000       $pdata$?_Lrotate@?$_Tree_val@U?$_Tree_simple_types@U?$pair@$$CBW4Object_Subtype@@PEBVGameObject@@@std@@@std@@@std@@QEAAXPEAU?$_Tree_node@U?$pair@$$CBW4Object_Subtype@@PEBVGameObject@@@std@@PEAX@2@@Z 0000000140000000     config.obj
 0005:fff74000       $pdata$?_Rmost@?$_Tree_val@U?$_Tree_simple_types@U?$pair@$$CBW4Object_Subtype@@PEBVGameObject@@@std@@@std@@@std@@QEBAAEAPEAU?$_Tree_node@U?$pair@$$CBW4Object_Subtype@@PEBVGameObject@@@std@@PEAX@2@XZ 0000000140000000     config.obj
 0005:fff74000       $pdata$?dtor$0@?0??find@?$_Tree@V?$_Tmap_traits@W4Object_Subtype@@PEBVGameObject@@U?$less@W4Object_Subtype@@@std@@V?$allocator@U?$pair@$$CBW4Object_Subtype@@PEBVGameObject@@@std@@@4@$0A@@std@@@std@@QEBA?AV?$_Tree_const_iterator@V?$_Tree_val@U?$_Tree_simple_types@U?$pair@$$CBW4Object_Subtype@@PEBVGameObject@@@std@@@std@@@std@@@2@AEBW4Object_Subtype@@@Z@4HA 0000000140000000     config.obj
 0005:fff74000       $pdata$?_Lmost@?$_Tree_val@U?$_Tree_simple_types@U?$pair@$$CBW4Object_Subtype@@PEBVGameObject@@@std@@@std@@@std@@QEBAAEAPEAU?$_Tree_node@U?$pair@$$CBW4Object_Subtype@@PEBVGameObject@@@std@@PEAX@2@XZ 0000000140000000     config.obj
 0005:fff74000       $pdata$?dtor$1@?0??find@?$_Tree@V?$_Tmap_traits@W4Object_Subtype@@PEBVGameObject@@U?$less@W4Object_Subtype@@@std@@V?$allocator@U?$pair@$$CBW4Object_Subtype@@PEBVGameObject@@@std@@@4@$0A@@std@@@std@@QEBA?AV?$_Tree_const_iterator@V?$_Tree_val@U?$_Tree_simple_types@U?$pair@$$CBW4Object_Subtype@@PEBVGameObject@@@std@@@std@@@std@@@2@AEBW4Object_Subtype@@@Z@4HA 0000000140000000     config.obj
 0005:fff74000       $pdata$?_Root@?$_Tree_val@U?$_Tree_simple_types@U?$pair@$$CBW4Object_Subtype@@PEBVGameObject@@@std@@@std@@@std@@QEBAAEAPEAU?$_Tree_node@U?$pair@$$CBW4Object_Subtype@@PEBVGameObject@@@std@@PEAX@2@XZ 0000000140000000     config.obj
 0005:fff74000       $pdata$?lower_bound@?$_Tree@V?$_Tmap_traits@W4Object_Subtype@@PEBVGameObject@@U?$less@W4Object_Subtype@@@std@@V?$allocator@U?$pair@$$CBW4Object_Subtype@@PEBVGameObject@@@std@@@4@$0A@@std@@@std@@QEAA?AV?$_Tree_iterator@V?$_Tree_val@U?$_Tree_simple_types@U?$pair@$$CBW4Object_Subtype@@PEBVGameObject@@@std@@@std@@@std@@@2@AEBW4Object_Subtype@@@Z 0000000140000000     config.obj
 0005:fff74000       $pdata$?_Min@?$_Tree_val@U?$_Tree_simple_types@U?$pair@$$CBW4Object_Subtype@@PEBVGameObject@@@std@@@std@@@std@@SAPEAU?$_Tree_node@U?$pair@$$CBW4Object_Subtype@@PEBVGameObject@@@std@@PEAX@2@PEAU32@@Z 0000000140000000     config.obj
 0005:fff74000       $pdata$?lower_bound@?$_Tree@V?$_Tmap_traits@W4Object_Subtype@@PEBVGameObject@@U?$less@W4Object_Subtype@@@std@@V?$allocator@U?$pair@$$CBW4Object_Subtype@@PEBVGameObject@@@std@@@4@$0A@@std@@@std@@QEBA?AV?$_Tree_const_iterator@V?$_Tree_val@U?$_Tree_simple_types@U?$pair@$$CBW4Object_Subtype@@PEBVGameObject@@@std@@@std@@@std@@@2@AEBW4Object_Subtype@@@Z 0000000140000000     config.obj
 0005:fff74000       $pdata$?_Max@?$_Tree_val@U?$_Tree_simple_types@U?$pair@$$CBW4Object_Subtype@@PEBVGameObject@@@std@@@std@@@std@@SAPEAU?$_Tree_node@U?$pair@$$CBW4Object_Subtype@@PEBVGameObject@@@std@@PEAX@2@PEAU32@@Z 0000000140000000     config.obj
 0005:fff74000       $pdata$?_Destroy_if_node@?$_Tree@V?$_Tmap_traits@W4Object_Subtype@@PEBVGameObject@@U?$less@W4Object_Subtype@@@std@@V?$allocator@U?$pair@$$CBW4Object_Subtype@@PEBVGameObject@@@std@@@4@$0A@@std@@@std@@IEAAXPEAU?$_Tree_node@U?$pair@$$CBW4Object_Subtype@@PEBVGameObject@@@std@@PEAX@2@@Z 0000000140000000     config.obj
 0005:fff74000       $pdata$??R?$less@W4Object_Subtype@@@std@@QEBA_NAEBW4Object_Subtype@@0@Z 0000000140000000     config.obj
 0005:fff74000       $pdata$?_Compare@?$_Tree@V?$_Tmap_traits@W4Object_Subtype@@PEBVGameObject@@U?$less@W4Object_Subtype@@@std@@V?$allocator@U?$pair@$$CBW4Object_Subtype@@PEBVGameObject@@@std@@@4@$0A@@std@@@std@@IEBA_NAEBW4Object_Subtype@@0@Z 0000000140000000     config.obj
 0005:fff74000       $pdata$?_Get_data@?$_Tree_comp_alloc@V?$_Tmap_traits@W4Object_Subtype@@PEBVGameObject@@U?$less@W4Object_Subtype@@@std@@V?$allocator@U?$pair@$$CBW4Object_Subtype@@PEBVGameObject@@@std@@@4@$0A@@std@@@std@@QEBAAEBV?$_Tree_val@U?$_Tree_simple_types@U?$pair@$$CBW4Object_Subtype@@PEBVGameObject@@@std@@@std@@@2@XZ 0000000140000000     config.obj
 0005:fff74000       $pdata$?_Kfn@?$_Tree@V?$_Tmap_traits@W4Object_Subtype@@PEBVGameObject@@U?$less@W4Object_Subtype@@@std@@V?$allocator@U?$pair@$$CBW4Object_Subtype@@PEBVGameObject@@@std@@@4@$0A@@std@@@std@@IEBAAEBW4Object_Subtype@@AEBU?$pair@$$CBW4Object_Subtype@@PEBVGameObject@@@2@@Z 0000000140000000     config.obj
 0005:fff74000       $pdata$?_Get_data@?$_Tree_comp_alloc@V?$_Tmap_traits@W4Object_Subtype@@PEBVGameObject@@U?$less@W4Object_Subtype@@@std@@V?$allocator@U?$pair@$$CBW4Object_Subtype@@PEBVGameObject@@@std@@@4@$0A@@std@@@std@@QEAAAEAV?$_Tree_val@U?$_Tree_simple_types@U?$pair@$$CBW4Object_Subtype@@PEBVGameObject@@@std@@@std@@@2@XZ 0000000140000000     config.obj
 0005:fff74000       $pdata$?_Key@?$_Tree@V?$_Tmap_traits@W4Object_Subtype@@PEBVGameObject@@U?$less@W4Object_Subtype@@@std@@V?$allocator@U?$pair@$$CBW4Object_Subtype@@PEBVGameObject@@@std@@@4@$0A@@std@@@std@@IEBAAEBW4Object_Subtype@@PEAU?$_Tree_node@U?$pair@$$CBW4Object_Subtype@@PEBVGameObject@@@std@@PEAX@2@@Z 0000000140000000     config.obj
 0005:fff74000       $pdata$?_Getal@?$_Tree_comp_alloc@V?$_Tmap_traits@W4Object_Subtype@@PEBVGameObject@@U?$less@W4Object_Subtype@@@std@@V?$allocator@U?$pair@$$CBW4Object_Subtype@@PEBVGameObject@@@std@@@4@$0A@@std@@@std@@QEBAAEBV?$allocator@U?$_Tree_node@U?$pair@$$CBW4Object_Subtype@@PEBVGameObject@@@std@@PEAX@std@@@2@XZ 0000000140000000     config.obj
 0005:fff74000       $pdata$??A?$map@W4Object_Subtype@@PEBVGameObject@@U?$less@W4Object_Subtype@@@std@@V?$allocator@U?$pair@$$CBW4Object_Subtype@@PEBVGameObject@@@std@@@4@@std@@QEAAAEAPEBVGameObject@@$$QEAW4Object_Subtype@@@Z 0000000140000000     config.obj
 0005:fff74000       $pdata$?_Getal@?$_Tree_comp_alloc@V?$_Tmap_traits@W4Object_Subtype@@PEBVGameObject@@U?$less@W4Object_Subtype@@@std@@V?$allocator@U?$pair@$$CBW4Object_Subtype@@PEBVGameObject@@@std@@@4@$0A@@std@@@std@@QEAAAEAV?$allocator@U?$_Tree_node@U?$pair@$$CBW4Object_Subtype@@PEBVGameObject@@@std@@PEAX@std@@@2@XZ 0000000140000000     config.obj
 0005:fff74000       $pdata$?_Getcomp@?$_Tree_comp_alloc@V?$_Tmap_traits@W4Object_Subtype@@PEBVGameObject@@U?$less@W4Object_Subtype@@@std@@V?$allocator@U?$pair@$$CBW4Object_Subtype@@PEBVGameObject@@@std@@@4@$0A@@std@@@std@@QEBAAEBU?$less@W4Object_Subtype@@@2@XZ 0000000140000000     config.obj
 0005:fff74000       $pdata$?_Getcomp@?$_Tree_comp_alloc@V?$_Tmap_traits@W4Object_Subtype@@PEBVGameObject@@U?$less@W4Object_Subtype@@@std@@V?$allocator@U?$pair@$$CBW4Object_Subtype@@PEBVGameObject@@@std@@@4@$0A@@std@@@std@@QEAAAEAU?$less@W4Object_Subtype@@@2@XZ 0000000140000000     config.obj
 0005:fff74000       $pdata$?dtor$0@?0???A?$map@W4Object_Subtype@@PEBVGameObject@@U?$less@W4Object_Subtype@@@std@@V?$allocator@U?$pair@$$CBW4Object_Subtype@@PEBVGameObject@@@std@@@4@@std@@QEAAAEAPEBVGameObject@@$$QEAW4Object_Subtype@@@Z@4HA 0000000140000000     config.obj
 0005:fff74000       $pdata$?_Freenode0@?$_Tree_comp_alloc@V?$_Tmap_traits@W4Object_Subtype@@PEBVGameObject@@U?$less@W4Object_Subtype@@@std@@V?$allocator@U?$pair@$$CBW4Object_Subtype@@PEBVGameObject@@@std@@@4@$0A@@std@@@std@@QEAAXPEAU?$_Tree_node@U?$pair@$$CBW4Object_Subtype@@PEBVGameObject@@@std@@PEAX@2@@Z 0000000140000000     config.obj
 0005:fff74000       $pdata$?Get_Word_Pos_End@Config_Parser@@YAPEBDPEBD@Z 0000000140000000     config.obj
 0005:fff74000       $pdata$?catch$0@?0??_Buynode0@?$_Tree_comp_alloc@V?$_Tmap_traits@W4Object_Subtype@@PEBVGameObject@@U?$less@W4Object_Subtype@@@std@@V?$allocator@U?$pair@$$CBW4Object_Subtype@@PEBVGameObject@@@std@@@4@$0A@@std@@@std@@QEAAPEAU?$_Tree_node@U?$pair@$$CBW4Object_Subtype@@PEBVGameObject@@@std@@PEAX@2@XZ@4HA 0000000140000000     config.obj
 0005:fff74000       $pdata$??0?$_Tree_unchecked_const_iterator@V?$_Tree_val@U?$_Tree_simple_types@U?$pair@$$CBW4Object_Subtype@@PEBVGameObject@@@std@@@std@@@std@@U_Iterator_base12@2@@std@@QEAA@XZ 0000000140000000     config.obj
 0005:fff74000       $pdata$??0?$_Tree_unchecked_const_iterator@V?$_Tree_val@U?$_Tree_simple_types@U?$pair@$$CBW4Object_Subtype@@PEBVGameObject@@@std@@@std@@@std@@U_Iterator_base12@2@@std@@QEAA@PEAU?$_Tree_node@U?$pair@$$CBW4Object_Subtype@@PEBVGameObject@@@std@@PEAX@1@PEBV?$_Tree_val@U?$_Tree_simple_types@U?$pair@$$CBW4Object_Subtype@@PEBVGameObject@@@std@@@std@@@1@@Z 0000000140000000     config.obj
 0005:fff74000       $pdata$?_Buynode0@?$_Tree_comp_alloc@V?$_Tmap_traits@W4Object_Subtype@@PEBVGameObject@@U?$less@W4Object_Subtype@@@std@@V?$allocator@U?$pair@$$CBW4Object_Subtype@@PEBVGameObject@@@std@@@4@$0A@@std@@@std@@QEAAPEAU?$_Tree_node@U?$pair@$$CBW4Object_Subtype@@PEBVGameObject@@@std@@PEAX@2@XZ 0000000140000000     config.obj
 0005:fff74000       $pdata$??$forward@AEBV<lambda_e40e34acbd84aecd5b91a71cce11a8bc>@@@std@@YAAEBV<lambda_e40e34acbd84aecd5b91a71cce11a8bc>@@AEBV1@@Z 0000000140000000     window-editor.obj
 0005:fff74000       $pdata$??E?$_Tree_unchecked_const_iterator@V?$_Tree_val@U?$_Tree_simple_types@U?$pair@$$CBW4Object_Subtype@@PEBVGameObject@@@std@@@std@@@std@@U_Iterator_base12@2@@std@@QEAAAEAV01@XZ 0000000140000000     config.obj
 0005:fff74000       $pdata$??$forward@AEBV<lambda_864b2f966be9f2ff37fd5127df0a763f>@@@std@@YAAEBV<lambda_864b2f966be9f2ff37fd5127df0a763f>@@AEBV1@@Z 0000000140000000     window-editor.obj
 0005:fff74000       $pdata$?max_size@?$_Default_allocator_traits@V?$allocator@U?$_Tree_node@U?$pair@$$CBW4Object_Subtype@@PEBVGameObject@@@std@@PEAX@std@@@std@@@std@@SA_KAEBV?$allocator@U?$_Tree_node@U?$pair@$$CBW4Object_Subtype@@PEBVGameObject@@@std@@PEAX@std@@@2@@Z 0000000140000000     config.obj
 0005:fff74000       $pdata$??$forward@AEBV<lambda_6d6ae6a21194837914a2720f23ba009a>@@@std@@YAAEBV<lambda_6d6ae6a21194837914a2720f23ba009a>@@AEBV1@@Z 0000000140000000     window-editor.obj
 0005:fff74000       $pdata$??F?$_Tree_unchecked_const_iterator@V?$_Tree_val@U?$_Tree_simple_types@U?$pair@$$CBW4Object_Subtype@@PEBVGameObject@@@std@@@std@@@std@@U_Iterator_base12@2@@std@@QEAAAEAV01@XZ 0000000140000000     config.obj
 0005:fff74000       $pdata$??$forward@AEBV<lambda_bc7c7e810611b7a6035a090fa3069526>@@@std@@YAAEBV<lambda_bc7c7e810611b7a6035a090fa3069526>@@AEBV1@@Z 0000000140000000     window-editor.obj
 0005:fff74000       $pdata$?deallocate@?$_Default_allocator_traits@V?$allocator@U?$_Tree_node@U?$pair@$$CBW4Object_Subtype@@PEBVGameObject@@@std@@PEAX@std@@@std@@@std@@SAXAEAV?$allocator@U?$_Tree_node@U?$pair@$$CBW4Object_Subtype@@PEBVGameObject@@@std@@PEAX@std@@@2@QEAU?$_Tree_node@U?$pair@$$CBW4Object_Subtype@@PEBVGameObject@@@std@@PEAX@2@_K@Z 0000000140000000     config.obj
 0005:fff74000       $pdata$??$forward@AEBV<lambda_03cd0e4fa96f3dc91d271dec8c4ef6c2>@@@std@@YAAEBV<lambda_03cd0e4fa96f3dc91d271dec8c4ef6c2>@@AEBV1@@Z 0000000140000000     window-editor.obj
 0005:fff74000       $pdata$??1?$_Tree_unchecked_const_iterator@V?$_Tree_val@U?$_Tree_simple_types@U?$pair@$$CBW4Object_Subtype@@PEBVGameObject@@@std@@@std@@@std@@U_Iterator_base12@2@@std@@QEAA@XZ 0000000140000000     config.obj
 0005:fff74000       $pdata$??$forward@AEBV<lambda_8d1efee78f7349d27a3479ce6d3e042c>@@@std@@YAAEBV<lambda_8d1efee78f7349d27a3479ce6d3e042c>@@AEBV1@@Z 0000000140000000     window-editor.obj
 0005:fff74000       $pdata$?allocate@?$allocator@U?$_Tree_node@U?$pair@$$CBW4Object_Subtype@@PEBVGameObject@@@std@@PEAX@std@@@std@@QEAAPEAU?$_Tree_node@U?$pair@$$CBW4Object_Subtype@@PEBVGameObject@@@std@@PEAX@2@_K@Z 0000000140000000     config.obj
 0005:fff74000       $pdata$??$_Call@AEAV<lambda_8d1efee78f7349d27a3479ce6d3e042c>@@PEAVObject@@AEBVEvent@sf@@@?$_Invoker_ret@X$00@std@@SAXAEAV<lambda_8d1efee78f7349d27a3479ce6d3e042c>@@$$QEAPEAVObject@@AEBVEvent@sf@@@Z 0000000140000000     window-editor.obj
 0005:fff74000       $pdata$??0?$_Tree_unchecked_const_iterator@V?$_Tree_val@U?$_Tree_simple_types@U?$pair@$$CBW4Object_Subtype@@PEBVGameObject@@@std@@@std@@@std@@U_Iterator_base12@2@@std@@QEAA@AEBV01@@Z 0000000140000000     config.obj
 0005:fff74000       $pdata$??$_Test_callable@V<lambda_8d1efee78f7349d27a3479ce6d3e042c>@@@std@@YA_NAEBV<lambda_8d1efee78f7349d27a3479ce6d3e042c>@@U?$integral_constant@_N$0A@@0@@Z 0000000140000000     window-editor.obj
 0005:fff74000       $pdata$?deallocate@?$allocator@U?$_Tree_node@U?$pair@$$CBW4Object_Subtype@@PEBVGameObject@@@std@@PEAX@std@@@std@@QEAAXQEAU?$_Tree_node@U?$pair@$$CBW4Object_Subtype@@PEBVGameObject@@@std@@PEAX@2@_K@Z 0000000140000000     config.obj
 0005:fff74000       $pdata$??$_Call@AEAV<lambda_03cd0e4fa96f3dc91d271dec8c4ef6c2>@@PEAVObject@@AEBVEvent@sf@@@?$_Invoker_ret@X$00@std@@SAXAEAV<lambda_03cd0e4fa96f3dc91d271dec8c4ef6c2>@@$$QEAPEAVObject@@AEBVEvent@sf@@@Z 0000000140000000     window-editor.obj
 0005:fff74000       $pdata$??0?$_Tree_unchecked_const_iterator@V?$_Tree_val@U?$_Tree_simple_types@U?$pair@$$CBW4Object_Subtype@@PEBVGameObject@@@std@@@std@@@std@@U_Iterator_base12@2@@std@@QEAA@$$QEAV01@@Z 0000000140000000     config.obj
 0005:fff74000       $pdata$??$_Test_callable@V<lambda_03cd0e4fa96f3dc91d271dec8c4ef6c2>@@@std@@YA_NAEBV<lambda_03cd0e4fa96f3dc91d271dec8c4ef6c2>@@U?$integral_constant@_N$0A@@0@@Z 0000000140000000     window-editor.obj
 0005:fff74000       $pdata$?loadObject@ConfigManager@@AEBA_NPEBDPEAPEAVGameObject@@@Z 0000000140000000     config.obj
 0005:fff74000       $pdata$??$_Call@AEAV<lambda_bc7c7e810611b7a6035a090fa3069526>@@PEAVObject@@AEBVEvent@sf@@@?$_Invoker_ret@PEAVObject@@$0A@@std@@SAPEAVObject@@AEAV<lambda_bc7c7e810611b7a6035a090fa3069526>@@$$QEAPEAV2@AEBVEvent@sf@@@Z 0000000140000000     window-editor.obj
 0005:fff74000       $pdata$??4?$_Tree_unchecked_const_iterator@V?$_Tree_val@U?$_Tree_simple_types@U?$pair@$$CBW4Object_Subtype@@PEBVGameObject@@@std@@@std@@@std@@U_Iterator_base12@2@@std@@QEAAAEAV01@AEBV01@@Z 0000000140000000     config.obj
 0005:fff74000       $pdata$??$_Test_callable@V<lambda_bc7c7e810611b7a6035a090fa3069526>@@@std@@YA_NAEBV<lambda_bc7c7e810611b7a6035a090fa3069526>@@U?$integral_constant@_N$0A@@0@@Z 0000000140000000     window-editor.obj
 0005:fff74000       $pdata$??0?$_Tree_const_iterator@V?$_Tree_val@U?$_Tree_simple_types@U?$pair@$$CBW4Object_Subtype@@PEBVGameObject@@@std@@@std@@@std@@@std@@QEAA@XZ 0000000140000000     config.obj
 0005:fff74000       $pdata$??$_Call@AEAV<lambda_6d6ae6a21194837914a2720f23ba009a>@@PEAVObject@@AEBVEvent@sf@@@?$_Invoker_ret@X$00@std@@SAXAEAV<lambda_6d6ae6a21194837914a2720f23ba009a>@@$$QEAPEAVObject@@AEBVEvent@sf@@@Z 0000000140000000     window-editor.obj
 0005:fff74000       $pdata$??0?$_Tree_const_iterator@V?$_Tree_val@U?$_Tree_simple_types@U?$pair@$$CBW4Object_Subtype@@PEBVGameObject@@@std@@@std@@@std@@@std@@QEAA@PEAU?$_Tree_node@U?$pair@$$CBW4Object_Subtype@@PEBVGameObject@@@std@@PEAX@1@PEBV?$_Tree_val@U?$_Tree_simple_types@U?$pair@$$CBW4Object_Subtype@@PEBVGameObject@@@std@@@std@@@1@@Z 0000000140000000     config.obj
 0005:fff74000       $pdata$??$_Test_callable@V<lambda_6d6ae6a21194837914a2720f23ba009a>@@@std@@YA_NAEBV<lambda_6d6ae6a21194837914a2720f23ba009a>@@U?$integral_constant@_N$0A@@0@@Z 0000000140000000     window-editor.obj
 0005:fff74000       $pdata$??D?$_Tree_const_iterator@V?$_Tree_val@U?$_Tree_simple_types@U?$pair@$$CBW4Object_Subtype@@PEBVGameObject@@@std@@@std@@@std@@@std@@QEBAAEBU?$pair@$$CBW4Object_Subtype@@PEBVGameObject@@@1@XZ 0000000140000000     config.obj
 0005:fff74000       $pdata$??$_Call@AEAV<lambda_864b2f966be9f2ff37fd5127df0a763f>@@PEAVObject@@AEBVEvent@sf@@@?$_Invoker_ret@X$00@std@@SAXAEAV<lambda_864b2f966be9f2ff37fd5127df0a763f>@@$$QEAPEAVObject@@AEBVEvent@sf@@@Z 0000000140000000     window-editor.obj
 0005:fff74000       $pdata$??C?$_Tree_const_iterator@V?$_Tree_val@U?$_Tree_simple_types@U?$pair@$$CBW4Object_Subtype@@PEBVGameObject@@@std@@@std@@@std@@@std@@QEBAPEBU?$pair@$$CBW4Object_Subtype@@PEBVGameObject@@@1@XZ 0000000140000000     config.obj
 0005:fff74000       $pdata$??$_Test_callable@V<lambda_864b2f966be9f2ff37fd5127df0a763f>@@@std@@YA_NAEBV<lambda_864b2f966be9f2ff37fd5127df0a763f>@@U?$integral_constant@_N$0A@@0@@Z 0000000140000000     window-editor.obj
 0005:fff74000       $pdata$?dtor$4@?0??saveObject@ConfigManager@@AEBA_NPEBVGameObject@@AEAV?$basic_string@DU?$char_traits@D@std@@V?$allocator@D@2@@std@@@Z@4HA 0000000140000000     config.obj
 0005:fff74000       $pdata$??$_Call@AEAV<lambda_e40e34acbd84aecd5b91a71cce11a8bc>@@PEAVObject@@AEBVEvent@sf@@@?$_Invoker_ret@PEAVObject@@$0A@@std@@SAPEAVObject@@AEAV<lambda_e40e34acbd84aecd5b91a71cce11a8bc>@@$$QEAPEAV2@AEBVEvent@sf@@@Z 0000000140000000     window-editor.obj
 0005:fff74000       $pdata$??E?$_Tree_const_iterator@V?$_Tree_val@U?$_Tree_simple_types@U?$pair@$$CBW4Object_Subtype@@PEBVGameObject@@@std@@@std@@@std@@@std@@QEAAAEAV01@XZ 0000000140000000     config.obj
 0005:fff74000       $pdata$??$_Test_callable@V<lambda_e40e34acbd84aecd5b91a71cce11a8bc>@@@std@@YA_NAEBV<lambda_e40e34acbd84aecd5b91a71cce11a8bc>@@U?$integral_constant@_N$0A@@0@@Z 0000000140000000     window-editor.obj
 0005:fff74000       $pdata$?dtor$3@?0??saveObject@ConfigManager@@AEBA_NPEBVGameObject@@AEAV?$basic_string@DU?$char_traits@D@std@@V?$allocator@D@2@@std@@@Z@4HA 0000000140000000     config.obj
 0005:fff74000       $pdata$??$?0AEBV<lambda_e40e34acbd84aecd5b91a71cce11a8bc>@@X@?$_Func_impl_no_alloc@V<lambda_e40e34acbd84aecd5b91a71cce11a8bc>@@PEAVObject@@PEAV2@AEBVEvent@sf@@@std@@QEAA@AEBV<lambda_e40e34acbd84aecd5b91a71cce11a8bc>@@@Z 0000000140000000     window-editor.obj
 0005:fff74000       $pdata$??F?$_Tree_const_iterator@V?$_Tree_val@U?$_Tree_simple_types@U?$pair@$$CBW4Object_Subtype@@PEBVGameObject@@@std@@@std@@@std@@@std@@QEAAAEAV01@XZ 0000000140000000     config.obj
 0005:fff74000       $pdata$??$?0AEBV<lambda_864b2f966be9f2ff37fd5127df0a763f>@@X@?$_Func_impl_no_alloc@V<lambda_864b2f966be9f2ff37fd5127df0a763f>@@XPEAVObject@@AEBVEvent@sf@@@std@@QEAA@AEBV<lambda_864b2f966be9f2ff37fd5127df0a763f>@@@Z 0000000140000000     window-editor.obj
 0005:fff74000       $pdata$?dtor$2@?0??saveObject@ConfigManager@@AEBA_NPEBVGameObject@@AEAV?$basic_string@DU?$char_traits@D@std@@V?$allocator@D@2@@std@@@Z@4HA 0000000140000000     config.obj
 0005:fff74000       $pdata$??$?0AEBV<lambda_6d6ae6a21194837914a2720f23ba009a>@@X@?$_Func_impl_no_alloc@V<lambda_6d6ae6a21194837914a2720f23ba009a>@@XPEAVObject@@AEBVEvent@sf@@@std@@QEAA@AEBV<lambda_6d6ae6a21194837914a2720f23ba009a>@@@Z 0000000140000000     window-editor.obj
 0005:fff74000       $pdata$??8?$_Tree_const_iterator@V?$_Tree_val@U?$_Tree_simple_types@U?$pair@$$CBW4Object_Subtype@@PEBVGameObject@@@std@@@std@@@std@@@std@@QEBA_NAEBV01@@Z 0000000140000000     config.obj
 0005:fff74000       $pdata$??$?0AEBV<lambda_bc7c7e810611b7a6035a090fa3069526>@@X@?$_Func_impl_no_alloc@V<lambda_bc7c7e810611b7a6035a090fa3069526>@@PEAVObject@@PEAV2@AEBVEvent@sf@@@std@@QEAA@AEBV<lambda_bc7c7e810611b7a6035a090fa3069526>@@@Z 0000000140000000     window-editor.obj
 0005:fff74000       $pdata$?dtor$1@?0??saveObject@ConfigManager@@AEBA_NPEBVGameObject@@AEAV?$basic_string@DU?$char_traits@D@std@@V?$allocator@D@2@@std@@@Z@4HA 0000000140000000     config.obj
 0005:fff74000       $pdata$??$?0AEBV<lambda_03cd0e4fa96f3dc91d271dec8c4ef6c2>@@X@?$_Func_impl_no_alloc@V<lambda_03cd0e4fa96f3dc91d271dec8c4ef6c2>@@XPEAVObject@@AEBVEvent@sf@@@std@@QEAA@AEBV<lambda_03cd0e4fa96f3dc91d271dec8c4ef6c2>@@@Z 0000000140000000     window-editor.obj
 0005:fff74000       $pdata$??1?$_Tree_const_iterator@V?$_Tree_val@U?$_Tree_simple_types@U?$pair@$$CBW4Object_Subtype@@PEBVGameObject@@@std@@@std@@@std@@@std@@QEAA@XZ 0000000140000000     config.obj
 0005:fff74000       $pdata$??$?0AEBV<lambda_8d1efee78f7349d27a3479ce6d3e042c>@@X@?$_Func_impl_no_alloc@V<lambda_8d1efee78f7349d27a3479ce6d3e042c>@@XPEAVObject@@AEBVEvent@sf@@@std@@QEAA@AEBV<lambda_8d1efee78f7349d27a3479ce6d3e042c>@@@Z 0000000140000000     window-editor.obj
 0005:fff74000       $pdata$?dtor$0@?0??saveObject@ConfigManager@@AEBA_NPEBVGameObject@@AEAV?$basic_string@DU?$char_traits@D@std@@V?$allocator@D@2@@std@@@Z@4HA 0000000140000000     config.obj
 0005:fff74000       $pdata$??$?0V<lambda_e40e34acbd84aecd5b91a71cce11a8bc>@@X@?$_Func_impl_no_alloc@V<lambda_e40e34acbd84aecd5b91a71cce11a8bc>@@PEAVObject@@PEAV2@AEBVEvent@sf@@@std@@QEAA@$$QEAV<lambda_e40e34acbd84aecd5b91a71cce11a8bc>@@@Z 0000000140000000     window-editor.obj
 0005:fff74000       $pdata$??0?$_Tree_const_iterator@V?$_Tree_val@U?$_Tree_simple_types@U?$pair@$$CBW4Object_Subtype@@PEBVGameObject@@@std@@@std@@@std@@@std@@QEAA@AEBV01@@Z 0000000140000000     config.obj
 0005:fff74000       $pdata$??$addressof@$$CBV<lambda_e40e34acbd84aecd5b91a71cce11a8bc>@@@std@@YAPEBV<lambda_e40e34acbd84aecd5b91a71cce11a8bc>@@AEBV1@@Z 0000000140000000     window-editor.obj
 0005:fff74000       $pdata$??0?$_Tree_const_iterator@V?$_Tree_val@U?$_Tree_simple_types@U?$pair@$$CBW4Object_Subtype@@PEBVGameObject@@@std@@@std@@@std@@@std@@QEAA@$$QEAV01@@Z 0000000140000000     config.obj
 0005:fff74000       $pdata$??$?0V<lambda_864b2f966be9f2ff37fd5127df0a763f>@@X@?$_Func_impl_no_alloc@V<lambda_864b2f966be9f2ff37fd5127df0a763f>@@XPEAVObject@@AEBVEvent@sf@@@std@@QEAA@$$QEAV<lambda_864b2f966be9f2ff37fd5127df0a763f>@@@Z 0000000140000000     window-editor.obj
 0005:fff74000       $pdata$?saveObject@ConfigManager@@AEBA_NPEBVGameObject@@AEAV?$basic_string@DU?$char_traits@D@std@@V?$allocator@D@2@@std@@@Z 0000000140000000     config.obj
 0005:fff74000       $pdata$??$addressof@$$CBV<lambda_864b2f966be9f2ff37fd5127df0a763f>@@@std@@YAPEBV<lambda_864b2f966be9f2ff37fd5127df0a763f>@@AEBV1@@Z 0000000140000000     window-editor.obj
 0005:fff74000       $pdata$??4?$_Tree_const_iterator@V?$_Tree_val@U?$_Tree_simple_types@U?$pair@$$CBW4Object_Subtype@@PEBVGameObject@@@std@@@std@@@std@@@std@@QEAAAEAV01@AEBV01@@Z 0000000140000000     config.obj
 0005:fff74000       $pdata$??$?0V<lambda_6d6ae6a21194837914a2720f23ba009a>@@X@?$_Func_impl_no_alloc@V<lambda_6d6ae6a21194837914a2720f23ba009a>@@XPEAVObject@@AEBVEvent@sf@@@std@@QEAA@$$QEAV<lambda_6d6ae6a21194837914a2720f23ba009a>@@@Z 0000000140000000     window-editor.obj
 0005:fff74000       $pdata$??$?HDU?$char_traits@D@std@@V?$allocator@D@1@@std@@YA?AV?$basic_string@DU?$char_traits@D@std@@V?$allocator@D@2@@0@QEBD$$QEAV10@@Z 0000000140000000     config.obj
 0005:fff74000       $pdata$??$addressof@$$CBV<lambda_6d6ae6a21194837914a2720f23ba009a>@@@std@@YAPEBV<lambda_6d6ae6a21194837914a2720f23ba009a>@@AEBV1@@Z 0000000140000000     window-editor.obj
 0005:fff74000       $pdata$?pointer_to@?$pointer_traits@PEBU?$pair@$$CBW4Object_Subtype@@PEBVGameObject@@@std@@@std@@SAPEBU?$pair@$$CBW4Object_Subtype@@PEBVGameObject@@@2@AEBU32@@Z 0000000140000000     config.obj
 0005:fff74000       $pdata$??$?0V<lambda_bc7c7e810611b7a6035a090fa3069526>@@X@?$_Func_impl_no_alloc@V<lambda_bc7c7e810611b7a6035a090fa3069526>@@PEAVObject@@PEAV2@AEBVEvent@sf@@@std@@QEAA@$$QEAV<lambda_bc7c7e810611b7a6035a090fa3069526>@@@Z 0000000140000000     window-editor.obj
 0005:fff74000       $pdata$??$_Debug_lt_pred@AEBU?$less@W4Object_Subtype@@@std@@AEBW4Object_Subtype@@AEBW43@@std@@YA_NAEBU?$less@W4Object_Subtype@@@0@AEBW4Object_Subtype@@1PEB_WI@Z 0000000140000000     config.obj
 0005:fff74000       $pdata$??$addressof@$$CBV<lambda_bc7c7e810611b7a6035a090fa3069526>@@@std@@YAPEBV<lambda_bc7c7e810611b7a6035a090fa3069526>@@AEBV1@@Z 0000000140000000     window-editor.obj
 0005:fff74000       $pdata$??$addressof@$$CBV?$_Tree_val@U?$_Tree_simple_types@U?$pair@$$CBW4Object_Subtype@@PEBVGameObject@@@std@@@std@@@std@@@std@@YAPEBV?$_Tree_val@U?$_Tree_simple_types@U?$pair@$$CBW4Object_Subtype@@PEBVGameObject@@@std@@@std@@@0@AEBV10@@Z 0000000140000000     config.obj
 0005:fff74000       $pdata$??$?0V<lambda_03cd0e4fa96f3dc91d271dec8c4ef6c2>@@X@?$_Func_impl_no_alloc@V<lambda_03cd0e4fa96f3dc91d271dec8c4ef6c2>@@XPEAVObject@@AEBVEvent@sf@@@std@@QEAA@$$QEAV<lambda_03cd0e4fa96f3dc91d271dec8c4ef6c2>@@@Z 0000000140000000     window-editor.obj
 0005:fff74000       $pdata$?dtor$1@?0??LoadLevel@ConfigManager@@QEAAXPEBDPEAV?$Container@VObject@@@@@Z@4HA 0000000140000000     config.obj
 0005:fff74000       $pdata$??$addressof@$$CBV<lambda_03cd0e4fa96f3dc91d271dec8c4ef6c2>@@@std@@YAPEBV<lambda_03cd0e4fa96f3dc91d271dec8c4ef6c2>@@AEBV1@@Z 0000000140000000     window-editor.obj
 0005:fff74000       $pdata$??$move@AEAW4Object_Subtype@@@std@@YA$$QEAW4Object_Subtype@@AEAW41@@Z 0000000140000000     config.obj
 0005:fff74000       $pdata$??$?0V<lambda_8d1efee78f7349d27a3479ce6d3e042c>@@X@?$_Func_impl_no_alloc@V<lambda_8d1efee78f7349d27a3479ce6d3e042c>@@XPEAVObject@@AEBVEvent@sf@@@std@@QEAA@$$QEAV<lambda_8d1efee78f7349d27a3479ce6d3e042c>@@@Z 0000000140000000     window-editor.obj
 0005:fff74000       $pdata$?dtor$0@?0??LoadLevel@ConfigManager@@QEAAXPEBDPEAV?$Container@VObject@@@@@Z@4HA 0000000140000000     config.obj
 0005:fff74000       $pdata$??$addressof@$$CBV<lambda_8d1efee78f7349d27a3479ce6d3e042c>@@@std@@YAPEBV<lambda_8d1efee78f7349d27a3479ce6d3e042c>@@AEBV1@@Z 0000000140000000     window-editor.obj
 0005:fff74000       $pdata$??$try_emplace@$$V@?$map@W4Object_Subtype@@PEBVGameObject@@U?$less@W4Object_Subtype@@@std@@V?$allocator@U?$pair@$$CBW4Object_Subtype@@PEBVGameObject@@@std@@@4@@std@@QEAA?AU?$pair@V?$_Tree_iterator@V?$_Tree_val@U?$_Tree_simple_types@U?$pair@$$CBW4Object_Subtype@@PEBVGameObject@@@std@@@std@@@std@@@std@@_N@1@$$QEAW4Object_Subtype@@@Z 0000000140000000     config.obj
 0005:fff74000       $pdata$??$_Deallocate@$07$0A@@std@@YAXPEAX_K@Z 0000000140000000     window-editor.obj
 0003:fff90000       $unwind$??$_Deallocate@$07$0A@@std@@YAXPEAX_K@Z 0000000140000000     window-editor.obj
 0005:fff74000       $pdata$??$_Reset_impl@V?$_Func_impl_no_alloc@V<lambda_8d1efee78f7349d27a3479ce6d3e042c>@@XPEAVObject@@AEBVEvent@sf@@@std@@V<lambda_8d1efee78f7349d27a3479ce6d3e042c>@@@?$_Func_class@XPEAVObject@@AEBVEvent@sf@@@std@@IEAAX$$QEAV<lambda_8d1efee78f7349d27a3479ce6d3e042c>@@U?$integral_constant@_N$0A@@1@@Z 0000000140000000     window-editor.obj
 0005:fff74000       $pdata$??0?$_Tree_iterator@V?$_Tree_val@U?$_Tree_simple_types@U?$pair@$$CBW4Object_Subtype@@PEBVGameObject@@@std@@@std@@@std@@@std@@QEAA@PEAU?$_Tree_node@U?$pair@$$CBW4Object_Subtype@@PEBVGameObject@@@std@@PEAX@1@PEBV?$_Tree_val@U?$_Tree_simple_types@U?$pair@$$CBW4Object_Subtype@@PEBVGameObject@@@std@@@std@@@1@@Z 0000000140000000     config.obj
 0005:fff74000       $pdata$?LoadLevel@ConfigManager@@QEAAXPEBDPEAV?$Container@VObject@@@@@Z 0000000140000000     config.obj
 0005:fff74000       $pdata$??D?$_Tree_iterator@V?$_Tree_val@U?$_Tree_simple_types@U?$pair@$$CBW4Object_Subtype@@PEBVGameObject@@@std@@@std@@@std@@@std@@QEBAAEAU?$pair@$$CBW4Object_Subtype@@PEBVGameObject@@@1@XZ 0000000140000000     config.obj
 0005:fff74000       $pdata$?_Delete_this@?$_Func_impl_no_alloc@V<lambda_8d1efee78f7349d27a3479ce6d3e042c>@@XPEAVObject@@AEBVEvent@sf@@@std@@EEAAX_N@Z 0000000140000000     window-editor.obj
 0005:fff74000       $pdata$??C?$_Tree_iterator@V?$_Tree_val@U?$_Tree_simple_types@U?$pair@$$CBW4Object_Subtype@@PEBVGameObject@@@std@@@std@@@std@@@std@@QEBAPEAU?$pair@$$CBW4Object_Subtype@@PEBVGameObject@@@1@XZ 0000000140000000     config.obj
 0005:fff74000       $pdata$?_Get@?$_Func_impl_no_alloc@V<lambda_8d1efee78f7349d27a3479ce6d3e042c>@@XPEAVObject@@AEBVEvent@sf@@@std@@EEBAPEBXXZ 0000000140000000     window-editor.obj
 0005:fff74000       $pdata$??F?$_Tree_iterator@V?$_Tree_val@U?$_Tree_simple_types@U?$pair@$$CBW4Object_Subtype@@PEBVGameObject@@@std@@@std@@@std@@@std@@QEAAAEAV01@XZ 0000000140000000     config.obj
 0005:fff74000       $pdata$?_Target_type@?$_Func_impl_no_alloc@V<lambda_8d1efee78f7349d27a3479ce6d3e042c>@@XPEAVObject@@AEBVEvent@sf@@@std@@EEBAAEBVtype_info@@XZ 0000000140000000     window-editor.obj
 0005:fff74000       $pdata$??1?$_Tree_iterator@V?$_Tree_val@U?$_Tree_simple_types@U?$pair@$$CBW4Object_Subtype@@PEBVGameObject@@@std@@@std@@@std@@@std@@QEAA@XZ 0000000140000000     config.obj
 0005:fff74000       $pdata$?_Do_call@?$_Func_impl_no_alloc@V<lambda_8d1efee78f7349d27a3479ce6d3e042c>@@XPEAVObject@@AEBVEvent@sf@@@std@@EEAAX$$QEAPEAVObject@@AEBVEvent@sf@@@Z 0000000140000000     window-editor.obj
 0005:fff74000       $pdata$??0?$_Tree_iterator@V?$_Tree_val@U?$_Tree_simple_types@U?$pair@$$CBW4Object_Subtype@@PEBVGameObject@@@std@@@std@@@std@@@std@@QEAA@AEBV01@@Z 0000000140000000     config.obj
 0005:fff74000       $pdata$?_Move@?$_Func_impl_no_alloc@V<lambda_8d1efee78f7349d27a3479ce6d3e042c>@@XPEAVObject@@AEBVEvent@sf@@@std@@EEAAPEAV?$_Func_base@XPEAVObject@@AEBVEvent@sf@@@2@PEAX@Z 0000000140000000     window-editor.obj
 0005:fff74000       $pdata$??0?$_Tree_iterator@V?$_Tree_val@U?$_Tree_simple_types@U?$pair@$$CBW4Object_Subtype@@PEBVGameObject@@@std@@@std@@@std@@@std@@QEAA@$$QEAV01@@Z 0000000140000000     config.obj
 0005:fff74000       $pdata$?_Clone@?$_Func_impl_no_alloc@V<lambda_8d1efee78f7349d27a3479ce6d3e042c>@@XPEAVObject@@AEBVEvent@sf@@@std@@AEBAPEAV?$_Func_base@XPEAVObject@@AEBVEvent@sf@@@2@PEAXU?$integral_constant@_N$0A@@2@@Z 0000000140000000     window-editor.obj
 0005:fff74000       $pdata$?dtor$1@?0??SaveLevel@ConfigManager@@QEAAXPEBDPEAV?$Container@VObject@@@@@Z@4HA 0000000140000000     config.obj
 0005:fff74000       $pdata$?_Copy@?$_Func_impl_no_alloc@V<lambda_8d1efee78f7349d27a3479ce6d3e042c>@@XPEAVObject@@AEBVEvent@sf@@@std@@EEBAPEAV?$_Func_base@XPEAVObject@@AEBVEvent@sf@@@2@PEAX@Z 0000000140000000     window-editor.obj
 0005:fff74000       $pdata$??1?$pair@V?$_Tree_iterator@V?$_Tree_val@U?$_Tree_simple_types@U?$pair@$$CBW4Object_Subtype@@PEBVGameObject@@@std@@@std@@@std@@@std@@_N@std@@QEAA@XZ 0000000140000000     config.obj
 0005:fff74000       $pdata$??$forward@V<lambda_8d1efee78f7349d27a3479ce6d3e042c>@@@std@@YA$$QEAV<lambda_8d1efee78f7349d27a3479ce6d3e042c>@@AEAV1@@Z 0000000140000000     window-editor.obj
 0003:fff90000       $unwind$??$_Min_value@_K@std@@YAAEB_KAEB_K0@Z 0000000140000000     config.obj
 0005:fff74000       $pdata$??$_Test_callable@V<lambda_8d1efee78f7349d27a3479ce6d3e042c>@@@std@@YA_NAEBV<lambda_8d1efee78f7349d27a3479ce6d3e042c>@@@Z 0000000140000000     window-editor.obj
 0005:fff74000       $pdata$??$_Min_value@_K@std@@YAAEB_KAEB_K0@Z 0000000140000000     config.obj
 0003:fff90000       $unwind$??$_Unfancy@D@std@@YAPEADPEAD@Z 0000000140000000     config.obj
 0005:fff74000       $pdata$??$_Unfancy@D@std@@YAPEADPEAD@Z 0000000140000000     config.obj
 0005:fff74000       $pdata$?dtor$0@?0??SaveLevel@ConfigManager@@QEAAXPEBDPEAV?$Container@VObject@@@@@Z@4HA 0000000140000000     config.obj
 0005:fff74000       $pdata$??$_Reset_impl@V?$_Func_impl_no_alloc@V<lambda_03cd0e4fa96f3dc91d271dec8c4ef6c2>@@XPEAVObject@@AEBVEvent@sf@@@std@@V<lambda_03cd0e4fa96f3dc91d271dec8c4ef6c2>@@@?$_Func_class@XPEAVObject@@AEBVEvent@sf@@@std@@IEAAX$$QEAV<lambda_03cd0e4fa96f3dc91d271dec8c4ef6c2>@@U?$integral_constant@_N$0A@@1@@Z 0000000140000000     window-editor.obj
 0005:fff74000       $pdata$??$addressof@V?$basic_string@DU?$char_traits@D@std@@V?$allocator@D@2@@std@@@std@@YAPEAV?$basic_string@DU?$char_traits@D@std@@V?$allocator@D@2@@0@AEAV10@@Z 0000000140000000     config.obj
 0003:fff90000       $unwind$??$move@AEAV?$basic_string@DU?$char_traits@D@std@@V?$allocator@D@2@@std@@@std@@YA$$QEAV?$basic_string@DU?$char_traits@D@std@@V?$allocator@D@2@@0@AEAV10@@Z 0000000140000000     config.obj
 0005:fff74000       $pdata$??$move@AEAV?$basic_string@DU?$char_traits@D@std@@V?$allocator@D@2@@std@@@std@@YA$$QEAV?$basic_string@DU?$char_traits@D@std@@V?$allocator@D@2@@0@AEAV10@@Z 0000000140000000     config.obj
 0005:fff74000       $pdata$?_Delete_this@?$_Func_impl_no_alloc@V<lambda_03cd0e4fa96f3dc91d271dec8c4ef6c2>@@XPEAVObject@@AEBVEvent@sf@@@std@@EEAAX_N@Z 0000000140000000     window-editor.obj
 0003:fff90000       $unwind$??$move@AEAV?$allocator@D@std@@@std@@YA$$QEAV?$allocator@D@0@AEAV10@@Z 0000000140000000     config.obj
 0005:fff74000       $pdata$?_Get@?$_Func_impl_no_alloc@V<lambda_03cd0e4fa96f3dc91d271dec8c4ef6c2>@@XPEAVObject@@AEBVEvent@sf@@@std@@EEBAPEBXXZ 0000000140000000     window-editor.obj
 0005:fff74000       $pdata$??$move@AEAV?$allocator@D@std@@@std@@YA$$QEAV?$allocator@D@0@AEAV10@@Z 0000000140000000     config.obj
 0005:fff74000       $pdata$?_Target_type@?$_Func_impl_no_alloc@V<lambda_03cd0e4fa96f3dc91d271dec8c4ef6c2>@@XPEAVObject@@AEBVEvent@sf@@@std@@EEBAAEBVtype_info@@XZ 0000000140000000     window-editor.obj
 0003:fff90000       $unwind$??$?0V?$allocator@D@std@@X@?$_String_alloc@U?$_String_base_types@DV?$allocator@D@std@@@std@@@std@@QEAA@$$QEAV?$allocator@D@1@@Z 0000000140000000     config.obj
 0005:fff74000       $pdata$?_Do_call@?$_Func_impl_no_alloc@V<lambda_03cd0e4fa96f3dc91d271dec8c4ef6c2>@@XPEAVObject@@AEBVEvent@sf@@@std@@EEAAX$$QEAPEAVObject@@AEBVEvent@sf@@@Z 0000000140000000     window-editor.obj
 0005:fff74000       $pdata$??$?0V?$allocator@D@std@@X@?$_String_alloc@U?$_String_base_types@DV?$allocator@D@std@@@std@@@std@@QEAA@$$QEAV?$allocator@D@1@@Z 0000000140000000     config.obj
 0005:fff74000       $pdata$?_Move@?$_Func_impl_no_alloc@V<lambda_03cd0e4fa96f3dc91d271dec8c4ef6c2>@@XPEAVObject@@AEBVEvent@sf@@@std@@EEAAPEAV?$_Func_base@XPEAVObject@@AEBVEvent@sf@@@2@PEAX@Z 0000000140000000     window-editor.obj
 0003:fff90000       $cppxdata$??$?0V?$allocator@D@std@@X@?$_String_alloc@U?$_String_base_types@DV?$allocator@D@std@@@std@@@std@@QEAA@$$QEAV?$allocator@D@1@@Z 0000000140000000     config.obj
 0005:fff74000       $pdata$?_Clone@?$_Func_impl_no_alloc@V<lambda_03cd0e4fa96f3dc91d271dec8c4ef6c2>@@XPEAVObject@@AEBVEvent@sf@@@std@@AEBAPEAV?$_Func_base@XPEAVObject@@AEBVEvent@sf@@@2@PEAXU?$integral_constant@_N$0A@@2@@Z 0000000140000000     window-editor.obj
 0003:fff90000       $stateUnwindMap$??$?0V?$allocator@D@std@@X@?$_String_alloc@U?$_String_base_types@DV?$allocator@D@std@@@std@@@std@@QEAA@$$QEAV?$allocator@D@1@@Z 0000000140000000     config.obj
 0005:fff74000       $pdata$?_Copy@?$_Func_impl_no_alloc@V<lambda_03cd0e4fa96f3dc91d271dec8c4ef6c2>@@XPEAVObject@@AEBVEvent@sf@@@std@@EEBAPEAV?$_Func_base@XPEAVObject@@AEBVEvent@sf@@@2@PEAX@Z 0000000140000000     window-editor.obj
 0003:fff90000       $ip2state$??$?0V?$allocator@D@std@@X@?$_String_alloc@U?$_String_base_types@DV?$allocator@D@std@@@std@@@std@@QEAA@$$QEAV?$allocator@D@1@@Z 0000000140000000     config.obj
 0005:fff74000       $pdata$??$forward@V<lambda_03cd0e4fa96f3dc91d271dec8c4ef6c2>@@@std@@YA$$QEAV<lambda_03cd0e4fa96f3dc91d271dec8c4ef6c2>@@AEAV1@@Z 0000000140000000     window-editor.obj
 0003:fff90000       $unwind$?dtor$0@?0???$?0V?$allocator@D@std@@X@?$_String_alloc@U?$_String_base_types@DV?$allocator@D@std@@@std@@@std@@QEAA@$$QEAV?$allocator@D@1@@Z@4HA 0000000140000000     config.obj
 0005:fff74000       $pdata$??$_Test_callable@V<lambda_03cd0e4fa96f3dc91d271dec8c4ef6c2>@@@std@@YA_NAEBV<lambda_03cd0e4fa96f3dc91d271dec8c4ef6c2>@@@Z 0000000140000000     window-editor.obj
 0005:fff74000       $pdata$?dtor$0@?0???$?0V?$allocator@D@std@@X@?$_String_alloc@U?$_String_base_types@DV?$allocator@D@std@@@std@@@std@@QEAA@$$QEAV?$allocator@D@1@@Z@4HA 0000000140000000     config.obj
 0005:fff74000       $pdata$??$?0AEBV?$allocator@D@std@@X@?$_String_alloc@U?$_String_base_types@DV?$allocator@D@std@@@std@@@std@@QEAA@AEBV?$allocator@D@1@@Z 0000000140000000     config.obj
 0005:fff74000       $pdata$?SaveLevel@ConfigManager@@QEAAXPEBDPEAV?$Container@VObject@@@@@Z 0000000140000000     config.obj
 0005:fff74000       $pdata$?dtor$0@?0???$?0AEBV?$allocator@D@std@@X@?$_String_alloc@U?$_String_base_types@DV?$allocator@D@std@@@std@@@std@@QEAA@AEBV?$allocator@D@1@@Z@4HA 0000000140000000     config.obj
 0005:fff74000       $pdata$??$_Reset_impl@V?$_Func_impl_no_alloc@V<lambda_bc7c7e810611b7a6035a090fa3069526>@@PEAVObject@@PEAV2@AEBVEvent@sf@@@std@@V<lambda_bc7c7e810611b7a6035a090fa3069526>@@@?$_Func_class@PEAVObject@@PEAV1@AEBVEvent@sf@@@std@@IEAAX$$QEAV<lambda_bc7c7e810611b7a6035a090fa3069526>@@U?$integral_constant@_N$0A@@1@@Z 0000000140000000     window-editor.obj
 0005:fff74000       $pdata$??$addressof@$$CBU?$pair@$$CBW4Object_Subtype@@PEBVGameObject@@@std@@@std@@YAPEBU?$pair@$$CBW4Object_Subtype@@PEBVGameObject@@@0@AEBU10@@Z 0000000140000000     config.obj
 0005:fff74000       $pdata$?pointer_to@?$pointer_traits@PEAU?$pair@$$CBW4Object_Subtype@@PEBVGameObject@@@std@@@std@@SAPEAU?$pair@$$CBW4Object_Subtype@@PEBVGameObject@@@2@AEAU32@@Z 0000000140000000     config.obj
 0005:fff74000       $pdata$?dtor$1@?0??Create_Object@ConfigManager@@QEBAPEAVGameObject@@W4Object_Subtype@@@Z@4HA 0000000140000000     config.obj
 0005:fff74000       $pdata$?_Delete_this@?$_Func_impl_no_alloc@V<lambda_bc7c7e810611b7a6035a090fa3069526>@@PEAVObject@@PEAV2@AEBVEvent@sf@@@std@@EEAAX_N@Z 0000000140000000     window-editor.obj
 0005:fff74000       $pdata$??$_Lbound@W4Object_Subtype@@@?$_Tree@V?$_Tmap_traits@W4Object_Subtype@@PEBVGameObject@@U?$less@W4Object_Subtype@@@std@@V?$allocator@U?$pair@$$CBW4Object_Subtype@@PEBVGameObject@@@std@@@4@$0A@@std@@@std@@IEBAPEAU?$_Tree_node@U?$pair@$$CBW4Object_Subtype@@PEBVGameObject@@@std@@PEAX@1@AEBW4Object_Subtype@@@Z 0000000140000000     config.obj
 0005:fff74000       $pdata$?_Get@?$_Func_impl_no_alloc@V<lambda_bc7c7e810611b7a6035a090fa3069526>@@PEAVObject@@PEAV2@AEBVEvent@sf@@@std@@EEBAPEBXXZ 0000000140000000     window-editor.obj
 0005:fff74000       $pdata$?dtor$0@?0??Create_Object@ConfigManager@@QEBAPEAVGameObject@@W4Object_Subtype@@@Z@4HA 0000000140000000     config.obj
 0005:fff74000       $pdata$?_Target_type@?$_Func_impl_no_alloc@V<lambda_bc7c7e810611b7a6035a090fa3069526>@@PEAVObject@@PEAV2@AEBVEvent@sf@@@std@@EEBAAEBVtype_info@@XZ 0000000140000000     window-editor.obj
 0005:fff74000       $pdata$??$?9DD@std@@YA_NAEBV?$allocator@D@0@0@Z 0000000140000000     config.obj
 0005:fff74000       $pdata$?_Do_call@?$_Func_impl_no_alloc@V<lambda_bc7c7e810611b7a6035a090fa3069526>@@PEAVObject@@PEAV2@AEBVEvent@sf@@@std@@EEAAPEAVObject@@$$QEAPEAV3@AEBVEvent@sf@@@Z 0000000140000000     window-editor.obj
 0005:fff74000       $pdata$??$_Pocma@V?$allocator@D@std@@@std@@YAXAEAV?$allocator@D@0@0@Z 0000000140000000     config.obj
 0005:fff74000       $pdata$?_Move@?$_Func_impl_no_alloc@V<lambda_bc7c7e810611b7a6035a090fa3069526>@@PEAVObject@@PEAV2@AEBVEvent@sf@@@std@@EEAAPEAV?$_Func_base@PEAVObject@@PEAV1@AEBVEvent@sf@@@2@PEAX@Z 0000000140000000     window-editor.obj
 0003:fff90000       $unwind$??$?0$$V@?$_Compressed_pair@V?$allocator@D@std@@V?$_String_val@U?$_Simple_types@D@std@@@2@$00@std@@QEAA@U_Zero_then_variadic_args_t@1@@Z 0000000140000000     config.obj
 0005:fff74000       $pdata$?_Clone@?$_Func_impl_no_alloc@V<lambda_bc7c7e810611b7a6035a090fa3069526>@@PEAVObject@@PEAV2@AEBVEvent@sf@@@std@@AEBAPEAV?$_Func_base@PEAVObject@@PEAV1@AEBVEvent@sf@@@2@PEAXU?$integral_constant@_N$0A@@2@@Z 0000000140000000     window-editor.obj
 0005:fff74000       $pdata$??$?0$$V@?$_Compressed_pair@V?$allocator@D@std@@V?$_String_val@U?$_Simple_types@D@std@@@2@$00@std@@QEAA@U_Zero_then_variadic_args_t@1@@Z 0000000140000000     config.obj
 0005:fff74000       $pdata$?_Copy@?$_Func_impl_no_alloc@V<lambda_bc7c7e810611b7a6035a090fa3069526>@@PEAVObject@@PEAV2@AEBVEvent@sf@@@std@@EEBAPEAV?$_Func_base@PEAVObject@@PEAV1@AEBVEvent@sf@@@2@PEAX@Z 0000000140000000     window-editor.obj
 0003:fff90000       $unwind$??$addressof@PEAD@std@@YAPEAPEADAEAPEAD@Z 0000000140000000     config.obj
 0005:fff74000       $pdata$??$forward@V<lambda_bc7c7e810611b7a6035a090fa3069526>@@@std@@YA$$QEAV<lambda_bc7c7e810611b7a6035a090fa3069526>@@AEAV1@@Z 0000000140000000     window-editor.obj
 0005:fff74000       $pdata$??$addressof@PEAD@std@@YAPEAPEADAEAPEAD@Z 0000000140000000     config.obj
 0005:fff74000       $pdata$??$_Test_callable@V<lambda_bc7c7e810611b7a6035a090fa3069526>@@@std@@YA_NAEBV<lambda_bc7c7e810611b7a6035a090fa3069526>@@@Z 0000000140000000     window-editor.obj
 0003:fff90000       $unwind$??$destroy@PEAD@?$_Default_allocator_traits@V?$allocator@D@std@@@std@@SAXAEAV?$allocator@D@1@QEAPEAD@Z 0000000140000000     config.obj
 0005:fff74000       $pdata$??$destroy@PEAD@?$_Default_allocator_traits@V?$allocator@D@std@@@std@@SAXAEAV?$allocator@D@1@QEAPEAD@Z 0000000140000000     config.obj
 0003:fff90000       $unwind$??$_Max_value@_K@std@@YAAEB_KAEB_K0@Z 0000000140000000     config.obj
 0005:fff74000       $pdata$??$_Max_value@_K@std@@YAAEB_KAEB_K0@Z 0000000140000000     config.obj
 0005:fff74000       $pdata$??$_Reset_impl@V?$_Func_impl_no_alloc@V<lambda_6d6ae6a21194837914a2720f23ba009a>@@XPEAVObject@@AEBVEvent@sf@@@std@@V<lambda_6d6ae6a21194837914a2720f23ba009a>@@@?$_Func_class@XPEAVObject@@AEBVEvent@sf@@@std@@IEAAX$$QEAV<lambda_6d6ae6a21194837914a2720f23ba009a>@@U?$integral_constant@_N$0A@@1@@Z 0000000140000000     window-editor.obj
 0005:fff74000       $pdata$?Create_Object@ConfigManager@@QEBAPEAVGameObject@@W4Object_Subtype@@@Z 0000000140000000     config.obj
 0005:fff74000       $pdata$??R<lambda_319d5e083f45f90dcdce5dce53cbb275>@@QEBAXQEADQEBD_KD@Z 0000000140000000     config.obj
 0005:fff74000       $pdata$??$_Reallocate_grow_by@V<lambda_319d5e083f45f90dcdce5dce53cbb275>@@D@?$basic_string@DU?$char_traits@D@std@@V?$allocator@D@2@@std@@QEAAAEAV01@_KV<lambda_319d5e083f45f90dcdce5dce53cbb275>@@D@Z 0000000140000000     config.obj
 0005:fff74000       $pdata$?_Delete_this@?$_Func_impl_no_alloc@V<lambda_6d6ae6a21194837914a2720f23ba009a>@@XPEAVObject@@AEBVEvent@sf@@@std@@EEAAX_N@Z 0000000140000000     window-editor.obj
 0003:fff90000       $unwind$??$addressof@V?$_String_val@U?$_Simple_types@D@std@@@std@@@std@@YAPEAV?$_String_val@U?$_Simple_types@D@std@@@0@AEAV10@@Z 0000000140000000     config.obj
 0005:fff74000       $pdata$?_Get@?$_Func_impl_no_alloc@V<lambda_6d6ae6a21194837914a2720f23ba009a>@@XPEAVObject@@AEBVEvent@sf@@@std@@EEBAPEBXXZ 0000000140000000     window-editor.obj
 0005:fff74000       $pdata$??$addressof@V?$_String_val@U?$_Simple_types@D@std@@@std@@@std@@YAPEAV?$_String_val@U?$_Simple_types@D@std@@@0@AEAV10@@Z 0000000140000000     config.obj
 0005:fff74000       $pdata$?_Target_type@?$_Func_impl_no_alloc@V<lambda_6d6ae6a21194837914a2720f23ba009a>@@XPEAVObject@@AEBVEvent@sf@@@std@@EEBAAEBVtype_info@@XZ 0000000140000000     window-editor.obj
 0005:fff74000       $pdata$??R<lambda_138c3d7c38c85abb84c7fc7bfe5747b7>@@QEBAXQEAD_KD@Z 0000000140000000     config.obj
 0005:fff74000       $pdata$?_Do_call@?$_Func_impl_no_alloc@V<lambda_6d6ae6a21194837914a2720f23ba009a>@@XPEAVObject@@AEBVEvent@sf@@@std@@EEAAX$$QEAPEAVObject@@AEBVEvent@sf@@@Z 0000000140000000     window-editor.obj
 0005:fff74000       $pdata$??$_Reallocate_for@V<lambda_138c3d7c38c85abb84c7fc7bfe5747b7>@@D@?$basic_string@DU?$char_traits@D@std@@V?$allocator@D@2@@std@@QEAAAEAV01@_KV<lambda_138c3d7c38c85abb84c7fc7bfe5747b7>@@D@Z 0000000140000000     config.obj
 0005:fff74000       $pdata$?_Move@?$_Func_impl_no_alloc@V<lambda_6d6ae6a21194837914a2720f23ba009a>@@XPEAVObject@@AEBVEvent@sf@@@std@@EEAAPEAV?$_Func_base@XPEAVObject@@AEBVEvent@sf@@@2@PEAX@Z 0000000140000000     window-editor.obj
 0005:fff74000       $pdata$?dtor$1@?0??LoadGameObjects@ConfigManager@@QEAA_NPEBD@Z@4HA 0000000140000000     config.obj
 0005:fff74000       $pdata$?_Clone@?$_Func_impl_no_alloc@V<lambda_6d6ae6a21194837914a2720f23ba009a>@@XPEAVObject@@AEBVEvent@sf@@@std@@AEBAPEAV?$_Func_base@XPEAVObject@@AEBVEvent@sf@@@2@PEAXU?$integral_constant@_N$0A@@2@@Z 0000000140000000     window-editor.obj
 0005:fff74000       $pdata$??R<lambda_66f57f934f28d61049862f64df852ff0>@@QEBAXQEAD_KQEBD@Z 0000000140000000     config.obj
 0005:fff74000       $pdata$?_Copy@?$_Func_impl_no_alloc@V<lambda_6d6ae6a21194837914a2720f23ba009a>@@XPEAVObject@@AEBVEvent@sf@@@std@@EEBAPEAV?$_Func_base@XPEAVObject@@AEBVEvent@sf@@@2@PEAX@Z 0000000140000000     window-editor.obj
 0005:fff74000       $pdata$?dtor$0@?0??LoadGameObjects@ConfigManager@@QEAA_NPEBD@Z@4HA 0000000140000000     config.obj
 0005:fff74000       $pdata$??$forward@V<lambda_6d6ae6a21194837914a2720f23ba009a>@@@std@@YA$$QEAV<lambda_6d6ae6a21194837914a2720f23ba009a>@@AEAV1@@Z 0000000140000000     window-editor.obj
 0005:fff74000       $pdata$??$_Reallocate_for@V<lambda_66f57f934f28d61049862f64df852ff0>@@PEBD@?$basic_string@DU?$char_traits@D@std@@V?$allocator@D@2@@std@@QEAAAEAV01@_KV<lambda_66f57f934f28d61049862f64df852ff0>@@PEBD@Z 0000000140000000     config.obj
 0005:fff74000       $pdata$??$_Test_callable@V<lambda_6d6ae6a21194837914a2720f23ba009a>@@@std@@YA_NAEBV<lambda_6d6ae6a21194837914a2720f23ba009a>@@@Z 0000000140000000     window-editor.obj
 0005:fff74000       $pdata$??R<lambda_e1befb086ad3257e3f042a63030725f7>@@QEBAXQEADQEBD_K2D@Z 0000000140000000     config.obj
 0005:fff74000       $pdata$?LoadGameObjects@ConfigManager@@QEAA_NPEBD@Z 0000000140000000     config.obj
 0005:fff74000       $pdata$??$_Reallocate_grow_by@V<lambda_e1befb086ad3257e3f042a63030725f7>@@_KD@?$basic_string@DU?$char_traits@D@std@@V?$allocator@D@2@@std@@QEAAAEAV01@_KV<lambda_e1befb086ad3257e3f042a63030725f7>@@_KD@Z 0000000140000000     config.obj
 0005:fff74000       $pdata$??R<lambda_65e615be2a453ca0576c979606f46740>@@QEBAXQEADQEBD_K12@Z 0000000140000000     config.obj
 0005:fff74000       $pdata$??$_Reset_impl@V?$_Func_impl_no_alloc@V<lambda_864b2f966be9f2ff37fd5127df0a763f>@@XPEAVObject@@AEBVEvent@sf@@@std@@V<lambda_864b2f966be9f2ff37fd5127df0a763f>@@@?$_Func_class@XPEAVObject@@AEBVEvent@sf@@@std@@IEAAX$$QEAV<lambda_864b2f966be9f2ff37fd5127df0a763f>@@U?$integral_constant@_N$0A@@1@@Z 0000000140000000     window-editor.obj
 0005:fff74000       $pdata$??$_Reallocate_grow_by@V<lambda_65e615be2a453ca0576c979606f46740>@@PEBD_K@?$basic_string@DU?$char_traits@D@std@@V?$allocator@D@2@@std@@QEAAAEAV01@_KV<lambda_65e615be2a453ca0576c979606f46740>@@PEBD_K@Z 0000000140000000     config.obj
 0003:fff90000       $unwind$??$construct@PEADAEBQEAD@?$_Default_allocator_traits@V?$allocator@D@std@@@std@@SAXAEAV?$allocator@D@1@QEAPEADAEBQEAD@Z 0000000140000000     config.obj
 0005:fff74000       $pdata$??$construct@PEADAEBQEAD@?$_Default_allocator_traits@V?$allocator@D@std@@@std@@SAXAEAV?$allocator@D@1@QEAPEADAEBQEAD@Z 0000000140000000     config.obj
 0005:fff74000       $pdata$?_Delete_this@?$_Func_impl_no_alloc@V<lambda_864b2f966be9f2ff37fd5127df0a763f>@@XPEAVObject@@AEBVEvent@sf@@@std@@EEAAX_N@Z 0000000140000000     window-editor.obj
 0003:fff90000       $unwind$??$_Allocate@$0BA@U_Default_allocate_traits@std@@$0A@@std@@YAPEAX_K@Z 0000000140000000     config.obj
 0005:fff74000       $pdata$?_Get@?$_Func_impl_no_alloc@V<lambda_864b2f966be9f2ff37fd5127df0a763f>@@XPEAVObject@@AEBVEvent@sf@@@std@@EEBAPEBXXZ 0000000140000000     window-editor.obj
 0005:fff74000       $pdata$??$_Allocate@$0BA@U_Default_allocate_traits@std@@$0A@@std@@YAPEAX_K@Z 0000000140000000     config.obj
 0005:fff74000       $pdata$?_Target_type@?$_Func_impl_no_alloc@V<lambda_864b2f966be9f2ff37fd5127df0a763f>@@XPEAVObject@@AEBVEvent@sf@@@std@@EEBAAEBVtype_info@@XZ 0000000140000000     window-editor.obj
 0003:fff90000       $unwind$??$_Deallocate@$0BA@$0A@@std@@YAXPEAX_K@Z 0000000140000000     config.obj
 0005:fff74000       $pdata$?_Do_call@?$_Func_impl_no_alloc@V<lambda_864b2f966be9f2ff37fd5127df0a763f>@@XPEAVObject@@AEBVEvent@sf@@@std@@EEAAX$$QEAPEAVObject@@AEBVEvent@sf@@@Z 0000000140000000     window-editor.obj
 0005:fff74000       $pdata$??$_Deallocate@$0BA@$0A@@std@@YAXPEAX_K@Z 0000000140000000     config.obj
 0005:fff74000       $pdata$?_Move@?$_Func_impl_no_alloc@V<lambda_864b2f966be9f2ff37fd5127df0a763f>@@XPEAVObject@@AEBVEvent@sf@@@std@@EEAAPEAV?$_Func_base@XPEAVObject@@AEBVEvent@sf@@@2@PEAX@Z 0000000140000000     window-editor.obj
 0005:fff74000       $pdata$??$addressof@U?$pair@$$CBW4Object_Subtype@@PEBVGameObject@@@std@@@std@@YAPEAU?$pair@$$CBW4Object_Subtype@@PEBVGameObject@@@0@AEAU10@@Z 0000000140000000     config.obj
 0005:fff74000       $pdata$?_Clone@?$_Func_impl_no_alloc@V<lambda_864b2f966be9f2ff37fd5127df0a763f>@@XPEAVObject@@AEBVEvent@sf@@@std@@AEBAPEAV?$_Func_base@XPEAVObject@@AEBVEvent@sf@@@2@PEAXU?$integral_constant@_N$0A@@2@@Z 0000000140000000     window-editor.obj
 0005:fff74000       $pdata$??$_Kfn@$$CBW4Object_Subtype@@PEBVGameObject@@@?$_Tmap_traits@W4Object_Subtype@@PEBVGameObject@@U?$less@W4Object_Subtype@@@std@@V?$allocator@U?$pair@$$CBW4Object_Subtype@@PEBVGameObject@@@std@@@4@$0A@@std@@SAAEBW4Object_Subtype@@AEBU?$pair@$$CBW4Object_Subtype@@PEBVGameObject@@@1@@Z 0000000140000000     config.obj
 0005:fff74000       $pdata$?_Copy@?$_Func_impl_no_alloc@V<lambda_864b2f966be9f2ff37fd5127df0a763f>@@XPEAVObject@@AEBVEvent@sf@@@std@@EEBAPEAV?$_Func_base@XPEAVObject@@AEBVEvent@sf@@@2@PEAX@Z 0000000140000000     window-editor.obj
 0003:fff90000       $unwind$?allocate@?$allocator@U_Container_proxy@std@@@std@@QEAAPEAU_Container_proxy@2@_K@Z 0000000140000000     config.obj
 0005:fff74000       $pdata$??$forward@V<lambda_864b2f966be9f2ff37fd5127df0a763f>@@@std@@YA$$QEAV<lambda_864b2f966be9f2ff37fd5127df0a763f>@@AEAV1@@Z 0000000140000000     window-editor.obj
 0005:fff74000       $pdata$?allocate@?$allocator@U_Container_proxy@std@@@std@@QEAAPEAU_Container_proxy@2@_K@Z 0000000140000000     config.obj
 0005:fff74000       $pdata$??$_Test_callable@V<lambda_864b2f966be9f2ff37fd5127df0a763f>@@@std@@YA_NAEBV<lambda_864b2f966be9f2ff37fd5127df0a763f>@@@Z 0000000140000000     window-editor.obj
 0003:fff90000       $unwind$?deallocate@?$_Default_allocator_traits@V?$allocator@U_Container_proxy@std@@@std@@@std@@SAXAEAV?$allocator@U_Container_proxy@std@@@2@QEAU_Container_proxy@2@_K@Z 0000000140000000     config.obj
 0005:fff74000       $pdata$?deallocate@?$_Default_allocator_traits@V?$allocator@U_Container_proxy@std@@@std@@@std@@SAXAEAV?$allocator@U_Container_proxy@std@@@2@QEAU_Container_proxy@2@_K@Z 0000000140000000     config.obj
 0003:fff90000       $unwind$??$destroy@U_Container_proxy@std@@@?$_Default_allocator_traits@V?$allocator@U_Container_proxy@std@@@std@@@std@@SAXAEAV?$allocator@U_Container_proxy@std@@@1@QEAU_Container_proxy@1@@Z 0000000140000000     config.obj
 0005:fff74000       $pdata$??$destroy@U_Container_proxy@std@@@?$_Default_allocator_traits@V?$allocator@U_Container_proxy@std@@@std@@@std@@SAXAEAV?$allocator@U_Container_proxy@std@@@1@QEAU_Container_proxy@1@@Z 0000000140000000     config.obj
 0005:fff74000       $pdata$??$_Reset_impl@V?$_Func_impl_no_alloc@V<lambda_e40e34acbd84aecd5b91a71cce11a8bc>@@PEAVObject@@PEAV2@AEBVEvent@sf@@@std@@V<lambda_e40e34acbd84aecd5b91a71cce11a8bc>@@@?$_Func_class@PEAVObject@@PEAV1@AEBVEvent@sf@@@std@@IEAAX$$QEAV<lambda_e40e34acbd84aecd5b91a71cce11a8bc>@@U?$integral_constant@_N$0A@@1@@Z 0000000140000000     window-editor.obj
 0003:fff90000       $unwind$??$_Deallocate_plain@V?$allocator@U_Container_proxy@std@@@std@@$0A@@std@@YAXAEAV?$allocator@U_Container_proxy@std@@@0@QEAU_Container_proxy@0@@Z 0000000140000000     config.obj
 0005:fff74000       $pdata$??$_Deallocate_plain@V?$allocator@U_Container_proxy@std@@@std@@$0A@@std@@YAXAEAV?$allocator@U_Container_proxy@std@@@0@QEAU_Container_proxy@0@@Z 0000000140000000     config.obj
 0003:fff90000       $unwind$??$_Unfancy@U_Container_proxy@std@@@std@@YAPEAU_Container_proxy@0@PEAU10@@Z 0000000140000000     config.obj
 0005:fff74000       $pdata$?_Delete_this@?$_Func_impl_no_alloc@V<lambda_e40e34acbd84aecd5b91a71cce11a8bc>@@PEAVObject@@PEAV2@AEBVEvent@sf@@@std@@EEAAX_N@Z 0000000140000000     window-editor.obj
 0005:fff74000       $pdata$??$_Unfancy@U_Container_proxy@std@@@std@@YAPEAU_Container_proxy@0@PEAU10@@Z 0000000140000000     config.obj
 0005:fff74000       $pdata$?_Get@?$_Func_impl_no_alloc@V<lambda_e40e34acbd84aecd5b91a71cce11a8bc>@@PEAVObject@@PEAV2@AEBVEvent@sf@@@std@@EEBAPEBXXZ 0000000140000000     window-editor.obj
 0003:fff90000       $unwind$??$construct@U_Container_proxy@std@@U12@@?$_Default_allocator_traits@V?$allocator@U_Container_proxy@std@@@std@@@std@@SAXAEAV?$allocator@U_Container_proxy@std@@@1@QEAU_Container_proxy@1@$$QEAU31@@Z 0000000140000000     config.obj
 0005:fff74000       $pdata$?_Target_type@?$_Func_impl_no_alloc@V<lambda_e40e34acbd84aecd5b91a71cce11a8bc>@@PEAVObject@@PEAV2@AEBVEvent@sf@@@std@@EEBAAEBVtype_info@@XZ 0000000140000000     window-editor.obj
 0005:fff74000       $pdata$??$construct@U_Container_proxy@std@@U12@@?$_Default_allocator_traits@V?$allocator@U_Container_proxy@std@@@std@@@std@@SAXAEAV?$allocator@U_Container_proxy@std@@@1@QEAU_Container_proxy@1@$$QEAU31@@Z 0000000140000000     config.obj
 0005:fff74000       $pdata$?_Do_call@?$_Func_impl_no_alloc@V<lambda_e40e34acbd84aecd5b91a71cce11a8bc>@@PEAVObject@@PEAV2@AEBVEvent@sf@@@std@@EEAAPEAVObject@@$$QEAPEAV3@AEBVEvent@sf@@@Z 0000000140000000     window-editor.obj
 0003:fff90000       $unwind$??$?0D@?$allocator@U_Container_proxy@std@@@std@@QEAA@AEBV?$allocator@D@1@@Z 0000000140000000     config.obj
 0005:fff74000       $pdata$?_Move@?$_Func_impl_no_alloc@V<lambda_e40e34acbd84aecd5b91a71cce11a8bc>@@PEAVObject@@PEAV2@AEBVEvent@sf@@@std@@EEAAPEAV?$_Func_base@PEAVObject@@PEAV1@AEBVEvent@sf@@@2@PEAX@Z 0000000140000000     window-editor.obj
 0005:fff74000       $pdata$??$?0D@?$allocator@U_Container_proxy@std@@@std@@QEAA@AEBV?$allocator@D@1@@Z 0000000140000000     config.obj
 0005:fff74000       $pdata$?_Clone@?$_Func_impl_no_alloc@V<lambda_e40e34acbd84aecd5b91a71cce11a8bc>@@PEAVObject@@PEAV2@AEBVEvent@sf@@@std@@AEBAPEAV?$_Func_base@PEAVObject@@PEAV1@AEBVEvent@sf@@@2@PEAXU?$integral_constant@_N$0A@@2@@Z 0000000140000000     window-editor.obj
 0003:fff90000       $unwind$??$_Get_size_of_n@$0BA@@std@@YA_K_K@Z 0000000140000000     config.obj
 0005:fff74000       $pdata$?_Copy@?$_Func_impl_no_alloc@V<lambda_e40e34acbd84aecd5b91a71cce11a8bc>@@PEAVObject@@PEAV2@AEBVEvent@sf@@@std@@EEBAPEAV?$_Func_base@PEAVObject@@PEAV1@AEBVEvent@sf@@@2@PEAX@Z 0000000140000000     window-editor.obj
 0005:fff74000       $pdata$??$_Get_size_of_n@$0BA@@std@@YA_K_K@Z 0000000140000000     config.obj
 0005:fff74000       $pdata$??$forward@V<lambda_e40e34acbd84aecd5b91a71cce11a8bc>@@@std@@YA$$QEAV<lambda_e40e34acbd84aecd5b91a71cce11a8bc>@@AEAV1@@Z 0000000140000000     window-editor.obj
 0005:fff74000       $pdata$?IsFileOpened@File@@QEBA_NXZ 0000000140000000     config.obj
 0005:fff74000       $pdata$??$_Test_callable@V<lambda_e40e34acbd84aecd5b91a71cce11a8bc>@@@std@@YA_NAEBV<lambda_e40e34acbd84aecd5b91a71cce11a8bc>@@@Z 0000000140000000     window-editor.obj
 0005:fff74000       $pdata$??$_Debug_range2@PEAD@std@@YAXPEAD0PEB_WIUrandom_access_iterator_tag@0@@Z 0000000140000000     config.obj
 0005:fff74000       $pdata$?IsFileEof@File@@QEBA_NXZ 0000000140000000     config.obj
 0005:fff74000       $pdata$??$end@D$0BF@@std@@YAPEADAEAY0BF@D@Z 0000000140000000     config.obj
 0005:fff74000       $pdata$?WriteBuf@File@@QEAA_NPEBD@Z 0000000140000000     config.obj
 0005:fff74000       $pdata$??$_Reset@V<lambda_8d1efee78f7349d27a3479ce6d3e042c>@@@?$_Func_class@XPEAVObject@@AEBVEvent@sf@@@std@@IEAAX$$QEAV<lambda_8d1efee78f7349d27a3479ce6d3e042c>@@@Z 0000000140000000     window-editor.obj
 0005:fff74000       $pdata$??$?0PEADX@?$basic_string@DU?$char_traits@D@std@@V?$allocator@D@2@@std@@QEAA@PEAD0AEBV?$allocator@D@1@@Z 0000000140000000     config.obj
 0005:fff74000       $pdata$??$move@AEAV<lambda_8d1efee78f7349d27a3479ce6d3e042c>@@@std@@YA$$QEAV<lambda_8d1efee78f7349d27a3479ce6d3e042c>@@AEAV1@@Z 0000000140000000     window-editor.obj
 0005:fff74000       $pdata$?ReadLine@File@@QEAA_NAEAV?$basic_string@DU?$char_traits@D@std@@V?$allocator@D@2@@std@@@Z 0000000140000000     config.obj
 0005:fff74000       $pdata$??$_Reset@V<lambda_03cd0e4fa96f3dc91d271dec8c4ef6c2>@@@?$_Func_class@XPEAVObject@@AEBVEvent@sf@@@std@@IEAAX$$QEAV<lambda_03cd0e4fa96f3dc91d271dec8c4ef6c2>@@@Z 0000000140000000     window-editor.obj
 0005:fff74000       $pdata$?dtor$0@?0???$?0PEADX@?$basic_string@DU?$char_traits@D@std@@V?$allocator@D@2@@std@@QEAA@PEAD0AEBV?$allocator@D@1@@Z@4HA 0000000140000000     config.obj
 0005:fff74000       $pdata$??$move@AEAV<lambda_03cd0e4fa96f3dc91d271dec8c4ef6c2>@@@std@@YA$$QEAV<lambda_03cd0e4fa96f3dc91d271dec8c4ef6c2>@@AEAV1@@Z 0000000140000000     window-editor.obj
 0005:fff74000       $pdata$??$_UIntegral_to_buff@D_K@std@@YAPEADPEAD_K@Z 0000000140000000     config.obj
 0005:fff74000       $pdata$??$_Reset@V<lambda_bc7c7e810611b7a6035a090fa3069526>@@@?$_Func_class@PEAVObject@@PEAV1@AEBVEvent@sf@@@std@@IEAAX$$QEAV<lambda_bc7c7e810611b7a6035a090fa3069526>@@@Z 0000000140000000     window-editor.obj
 0003:fff90000       $unwind$??$_Maklocstr@D@std@@YAPEADPEBDPEADAEBU_Cvtvec@@@Z 0000000140000000     config.obj
 0005:fff74000       $pdata$??$move@AEAV<lambda_bc7c7e810611b7a6035a090fa3069526>@@@std@@YA$$QEAV<lambda_bc7c7e810611b7a6035a090fa3069526>@@AEAV1@@Z 0000000140000000     window-editor.obj
 0005:fff74000       $pdata$??$_Maklocstr@D@std@@YAPEADPEBDPEADAEBU_Cvtvec@@@Z 0000000140000000     config.obj
 0005:fff74000       $pdata$??$_Reset@V<lambda_6d6ae6a21194837914a2720f23ba009a>@@@?$_Func_class@XPEAVObject@@AEBVEvent@sf@@@std@@IEAAX$$QEAV<lambda_6d6ae6a21194837914a2720f23ba009a>@@@Z 0000000140000000     window-editor.obj
 0005:fff74000       $pdata$??$_Try_emplace@W4Object_Subtype@@$$V@?$map@W4Object_Subtype@@PEBVGameObject@@U?$less@W4Object_Subtype@@@std@@V?$allocator@U?$pair@$$CBW4Object_Subtype@@PEBVGameObject@@@std@@@4@@std@@QEAA?AU?$pair@V?$_Tree_iterator@V?$_Tree_val@U?$_Tree_simple_types@U?$pair@$$CBW4Object_Subtype@@PEBVGameObject@@@std@@@std@@@std@@@std@@_N@1@$$QEAW4Object_Subtype@@@Z 0000000140000000     config.obj
 0005:fff74000       $pdata$??$move@AEAV<lambda_6d6ae6a21194837914a2720f23ba009a>@@@std@@YA$$QEAV<lambda_6d6ae6a21194837914a2720f23ba009a>@@AEAV1@@Z 0000000140000000     window-editor.obj
 0005:fff74000       $pdata$?Close@File@@QEAAXXZ 0000000140000000     config.obj
 0005:fff74000       $pdata$??$_Reset@V<lambda_864b2f966be9f2ff37fd5127df0a763f>@@@?$_Func_class@XPEAVObject@@AEBVEvent@sf@@@std@@IEAAX$$QEAV<lambda_864b2f966be9f2ff37fd5127df0a763f>@@@Z 0000000140000000     window-editor.obj
 0005:fff74000       $pdata$?Open@File@@QEAA_NPEBD0@Z 0000000140000000     config.obj
 0005:fff74000       $pdata$??$move@AEAV<lambda_864b2f966be9f2ff37fd5127df0a763f>@@@std@@YA$$QEAV<lambda_864b2f966be9f2ff37fd5127df0a763f>@@AEAV1@@Z 0000000140000000     window-editor.obj
 0005:fff74000       $pdata$?dtor$0@?0???$_Try_emplace@W4Object_Subtype@@$$V@?$map@W4Object_Subtype@@PEBVGameObject@@U?$less@W4Object_Subtype@@@std@@V?$allocator@U?$pair@$$CBW4Object_Subtype@@PEBVGameObject@@@std@@@4@@std@@QEAA?AU?$pair@V?$_Tree_iterator@V?$_Tree_val@U?$_Tree_simple_types@U?$pair@$$CBW4Object_Subtype@@PEBVGameObject@@@std@@@std@@@std@@@std@@_N@1@$$QEAW4Object_Subtype@@@Z@4HA 0000000140000000     config.obj
 0005:fff74000       $pdata$??$_Reset@V<lambda_e40e34acbd84aecd5b91a71cce11a8bc>@@@?$_Func_class@PEAVObject@@PEAV1@AEBVEvent@sf@@@std@@IEAAX$$QEAV<lambda_e40e34acbd84aecd5b91a71cce11a8bc>@@@Z 0000000140000000     window-editor.obj
 0005:fff74000       $pdata$??1File@@QEAA@XZ    0000000140000000     config.obj
 0005:fff74000       $pdata$??$move@AEAV<lambda_e40e34acbd84aecd5b91a71cce11a8bc>@@@std@@YA$$QEAV<lambda_e40e34acbd84aecd5b91a71cce11a8bc>@@AEAV1@@Z 0000000140000000     window-editor.obj
 0005:fff74000       $pdata$?dtor$1@?0???$_Try_emplace@W4Object_Subtype@@$$V@?$map@W4Object_Subtype@@PEBVGameObject@@U?$less@W4Object_Subtype@@@std@@V?$allocator@U?$pair@$$CBW4Object_Subtype@@PEBVGameObject@@@std@@@4@@std@@QEAA?AU?$pair@V?$_Tree_iterator@V?$_Tree_val@U?$_Tree_simple_types@U?$pair@$$CBW4Object_Subtype@@PEBVGameObject@@@std@@@std@@@std@@@std@@_N@1@$$QEAW4Object_Subtype@@@Z@4HA 0000000140000000     config.obj
 0005:fff74000       $pdata$??$_Maklocstr@D@std@@YAPEADPEBDPEADAEBU_Cvtvec@@@Z 0000000140000000     window-editor.obj
 0003:fff90000       $unwind$??$_Maklocstr@D@std@@YAPEADPEBDPEADAEBU_Cvtvec@@@Z 0000000140000000     window-editor.obj
 0005:fff74000       $pdata$??0?$_Func_base@PEAVObject@@PEAV1@AEBVEvent@sf@@@std@@QEAA@XZ 0000000140000000     window-editor.obj
 0003:fff90000       $unwind$??0?$_Func_base@PEAVObject@@PEAV1@AEBVEvent@sf@@@std@@QEAA@XZ 0000000140000000     window-editor.obj
 0005:fff74000       $pdata$??0?$_Func_base@XPEAVObject@@AEBVEvent@sf@@@std@@QEAA@XZ 0000000140000000     window-editor.obj
 0003:fff90000       $unwind$??$forward@V?$allocator@D@std@@@std@@YA$$QEAV?$allocator@D@0@AEAV10@@Z 0000000140000000     config.obj
 0005:fff74000       $pdata$?dtor$0@?0???$?0V<lambda_8d1efee78f7349d27a3479ce6d3e042c>@@X@?$function@$$A6AXPEAVObject@@AEBVEvent@sf@@@Z@std@@QEAA@V<lambda_8d1efee78f7349d27a3479ce6d3e042c>@@@Z@4HA 0000000140000000     window-editor.obj
 0005:fff74000       $pdata$??$forward@V?$allocator@D@std@@@std@@YA$$QEAV?$allocator@D@0@AEAV10@@Z 0000000140000000     config.obj
 0003:fff90000       $unwind$??$?0V?$allocator@D@std@@$$V@?$_Compressed_pair@V?$allocator@D@std@@V?$_String_val@U?$_Simple_types@D@std@@@2@$00@std@@QEAA@U_One_then_variadic_args_t@1@$$QEAV?$allocator@D@1@@Z 0000000140000000     config.obj
 0005:fff74000       $pdata$??$?0V?$allocator@D@std@@$$V@?$_Compressed_pair@V?$allocator@D@std@@V?$_String_val@U?$_Simple_types@D@std@@@2@$00@std@@QEAA@U_One_then_variadic_args_t@1@$$QEAV?$allocator@D@1@@Z 0000000140000000     config.obj
 0005:fff74000       $pdata$??0File@@QEAA@XZ    0000000140000000     config.obj
 0005:fff74000       $pdata$??$?0V<lambda_8d1efee78f7349d27a3479ce6d3e042c>@@X@?$function@$$A6AXPEAVObject@@AEBVEvent@sf@@@Z@std@@QEAA@V<lambda_8d1efee78f7349d27a3479ce6d3e042c>@@@Z 0000000140000000     window-editor.obj
 0005:fff74000       $pdata$??$forward@AEBV?$allocator@D@std@@@std@@YAAEBV?$allocator@D@0@AEBV10@@Z 0000000140000000     config.obj
 0005:fff74000       $pdata$??$invoke@AEAV<lambda_8d1efee78f7349d27a3479ce6d3e042c>@@PEAVObject@@AEBVEvent@sf@@@std@@YAXAEAV<lambda_8d1efee78f7349d27a3479ce6d3e042c>@@$$QEAPEAVObject@@AEBVEvent@sf@@@Z 0000000140000000     window-editor.obj
 0005:fff74000       $pdata$?dtor$1@?0??Read@Config_Parser@@YAPEBDPEBDAEAM@Z@4HA 0000000140000000     config.obj
 0005:fff74000       $pdata$??$_Call@AEAV<lambda_8d1efee78f7349d27a3479ce6d3e042c>@@PEAVObject@@AEBVEvent@sf@@@_Invoker_functor@std@@SAXAEAV<lambda_8d1efee78f7349d27a3479ce6d3e042c>@@$$QEAPEAVObject@@AEBVEvent@sf@@@Z 0000000140000000     window-editor.obj
 0005:fff74000       $pdata$??$?0AEBV?$allocator@D@std@@$$V@?$_Compressed_pair@V?$allocator@D@std@@V?$_String_val@U?$_Simple_types@D@std@@@2@$00@std@@QEAA@U_One_then_variadic_args_t@1@AEBV?$allocator@D@1@@Z 0000000140000000     config.obj
 0005:fff74000       $pdata$??$forward@AEAV<lambda_8d1efee78f7349d27a3479ce6d3e042c>@@@std@@YAAEAV<lambda_8d1efee78f7349d27a3479ce6d3e042c>@@AEAV1@@Z 0000000140000000     window-editor.obj
 0005:fff74000       $pdata$?dtor$0@?0??Read@Config_Parser@@YAPEBDPEBDAEAM@Z@4HA 0000000140000000     config.obj
 0005:fff74000       $pdata$??0<lambda_8d1efee78f7349d27a3479ce6d3e042c>@@QEAA@QEAVWindowEditor@@@Z 0000000140000000     window-editor.obj
 0005:fff74000       $pdata$??$_Pocma@V?$allocator@D@std@@@std@@YAXAEAV?$allocator@D@0@0U?$integral_constant@_N$00@0@@Z 0000000140000000     config.obj
 0005:fff74000       $pdata$??R<lambda_8d1efee78f7349d27a3479ce6d3e042c>@@QEBAXPEAVObject@@AEBVEvent@sf@@@Z 0000000140000000     window-editor.obj
 0003:fff90000       $unwind$??$forward@AEBQEAD@std@@YAAEBQEADAEBQEAD@Z 0000000140000000     config.obj
 0005:fff74000       $pdata$?dtor$0@?0???$?0V<lambda_03cd0e4fa96f3dc91d271dec8c4ef6c2>@@X@?$function@$$A6AXPEAVObject@@AEBVEvent@sf@@@Z@std@@QEAA@V<lambda_03cd0e4fa96f3dc91d271dec8c4ef6c2>@@@Z@4HA 0000000140000000     window-editor.obj
 0005:fff74000       $pdata$??$forward@AEBQEAD@std@@YAAEBQEADAEBQEAD@Z 0000000140000000     config.obj
 0003:fff90000       $unwind$??$_Allocate_manually_vector_aligned@U_Default_allocate_traits@std@@@std@@YAPEAX_K@Z 0000000140000000     config.obj
 0005:fff74000       $pdata$??$_Allocate_manually_vector_aligned@U_Default_allocate_traits@std@@@std@@YAPEAX_K@Z 0000000140000000     config.obj
 0003:fff90000       $unwind$??$forward@U_Container_proxy@std@@@std@@YA$$QEAU_Container_proxy@0@AEAU10@@Z 0000000140000000     config.obj
 0005:fff74000       $pdata$??$?0V<lambda_03cd0e4fa96f3dc91d271dec8c4ef6c2>@@X@?$function@$$A6AXPEAVObject@@AEBVEvent@sf@@@Z@std@@QEAA@V<lambda_03cd0e4fa96f3dc91d271dec8c4ef6c2>@@@Z 0000000140000000     window-editor.obj
 0005:fff74000       $pdata$??$forward@U_Container_proxy@std@@@std@@YA$$QEAU_Container_proxy@0@AEAU10@@Z 0000000140000000     config.obj
 0005:fff74000       $pdata$??$invoke@AEAV<lambda_03cd0e4fa96f3dc91d271dec8c4ef6c2>@@PEAVObject@@AEBVEvent@sf@@@std@@YAXAEAV<lambda_03cd0e4fa96f3dc91d271dec8c4ef6c2>@@$$QEAPEAVObject@@AEBVEvent@sf@@@Z 0000000140000000     window-editor.obj
 0005:fff74000       $pdata$??R<lambda_f3a66ab6a0570788f31503db83886f49>@@QEBAXQEADQEBD_K212@Z 0000000140000000     config.obj
 0005:fff74000       $pdata$??$_Call@AEAV<lambda_03cd0e4fa96f3dc91d271dec8c4ef6c2>@@PEAVObject@@AEBVEvent@sf@@@_Invoker_functor@std@@SAXAEAV<lambda_03cd0e4fa96f3dc91d271dec8c4ef6c2>@@$$QEAPEAVObject@@AEBVEvent@sf@@@Z 0000000140000000     window-editor.obj
 0005:fff74000       $pdata$?Read@Config_Parser@@YAPEBDPEBDAEAM@Z 0000000140000000     config.obj
 0005:fff74000       $pdata$??$forward@AEAV<lambda_03cd0e4fa96f3dc91d271dec8c4ef6c2>@@@std@@YAAEAV<lambda_03cd0e4fa96f3dc91d271dec8c4ef6c2>@@AEAV1@@Z 0000000140000000     window-editor.obj
 0005:fff74000       $pdata$??$_Reallocate_grow_by@V<lambda_f3a66ab6a0570788f31503db83886f49>@@_KPEBD_K@?$basic_string@DU?$char_traits@D@std@@V?$allocator@D@2@@std@@QEAAAEAV01@_KV<lambda_f3a66ab6a0570788f31503db83886f49>@@_KPEBD2@Z 0000000140000000     config.obj
 0005:fff74000       $pdata$??0<lambda_03cd0e4fa96f3dc91d271dec8c4ef6c2>@@QEAA@QEAVWindowEditor@@@Z 0000000140000000     window-editor.obj
 0005:fff74000       $pdata$?dtor$1@?0??Read@Config_Parser@@YAPEBDPEBDAEA_K@Z@4HA 0000000140000000     config.obj
 0005:fff74000       $pdata$??R<lambda_03cd0e4fa96f3dc91d271dec8c4ef6c2>@@QEBAXPEAVObject@@AEBVEvent@sf@@@Z 0000000140000000     window-editor.obj
 0005:fff74000       $pdata$??$_Unchecked@PEAD@std@@YAPEADPEAD@Z 0000000140000000     config.obj
 0005:fff74000       $pdata$?dtor$0@?0???$?0V<lambda_bc7c7e810611b7a6035a090fa3069526>@@X@?$function@$$A6APEAVObject@@PEAV1@AEBVEvent@sf@@@Z@std@@QEAA@V<lambda_bc7c7e810611b7a6035a090fa3069526>@@@Z@4HA 0000000140000000     window-editor.obj
 0005:fff74000       $pdata$?dtor$0@?0??Read@Config_Parser@@YAPEBDPEBDAEA_K@Z@4HA 0000000140000000     config.obj
 0005:fff74000       $pdata$??$_Debug_lt_pred@AEAU?$less@W4Object_Subtype@@@std@@AEAW4Object_Subtype@@AEBW43@@std@@YA_NAEAU?$less@W4Object_Subtype@@@0@AEAW4Object_Subtype@@AEBW42@PEB_WI@Z 0000000140000000     config.obj
 0005:fff74000       $pdata$??$forward@W4Object_Subtype@@@std@@YA$$QEAW4Object_Subtype@@AEAW41@@Z 0000000140000000     config.obj
 0005:fff74000       $pdata$?Read@Config_Parser@@YAPEBDPEBDAEA_K@Z 0000000140000000     config.obj
 0005:fff74000       $pdata$??$?0V<lambda_bc7c7e810611b7a6035a090fa3069526>@@X@?$function@$$A6APEAVObject@@PEAV1@AEBVEvent@sf@@@Z@std@@QEAA@V<lambda_bc7c7e810611b7a6035a090fa3069526>@@@Z 0000000140000000     window-editor.obj
 0005:fff74000       $pdata$??$forward_as_tuple@W4Object_Subtype@@@std@@YA?AV?$tuple@$$QEAW4Object_Subtype@@@0@$$QEAW4Object_Subtype@@@Z 0000000140000000     config.obj
 0005:fff74000       $pdata$??$invoke@AEAV<lambda_bc7c7e810611b7a6035a090fa3069526>@@PEAVObject@@AEBVEvent@sf@@@std@@YAPEAVObject@@AEAV<lambda_bc7c7e810611b7a6035a090fa3069526>@@$$QEAPEAV1@AEBVEvent@sf@@@Z 0000000140000000     window-editor.obj
 0005:fff74000       $pdata$?dtor$1@?0??Read@Config_Parser@@YAPEBDPEBDAEAH@Z@4HA 0000000140000000     config.obj
 0005:fff74000       $pdata$??$_Call@AEAV<lambda_bc7c7e810611b7a6035a090fa3069526>@@PEAVObject@@AEBVEvent@sf@@@_Invoker_functor@std@@SAPEAVObject@@AEAV<lambda_bc7c7e810611b7a6035a090fa3069526>@@$$QEAPEAV2@AEBVEvent@sf@@@Z 0000000140000000     window-editor.obj
 0005:fff74000       $pdata$?dtor$0@?0??Read@Config_Parser@@YAPEBDPEBDAEAH@Z@4HA 0000000140000000     config.obj
 0005:fff74000       $pdata$??$forward@AEAV<lambda_bc7c7e810611b7a6035a090fa3069526>@@@std@@YAAEAV<lambda_bc7c7e810611b7a6035a090fa3069526>@@AEAV1@@Z 0000000140000000     window-editor.obj
 0005:fff74000       $pdata$??0?$tuple@$$QEAW4Object_Subtype@@@std@@QEAA@$$QEAV01@@Z 0000000140000000     config.obj
 0005:fff74000       $pdata$??0<lambda_bc7c7e810611b7a6035a090fa3069526>@@QEAA@QEAVWindowEditor@@@Z 0000000140000000     window-editor.obj
 0003:fff90000       $unwind$??$forward_as_tuple@$$V@std@@YA?AV?$tuple@$$V@0@XZ 0000000140000000     config.obj
 0005:fff74000       $pdata$??R<lambda_bc7c7e810611b7a6035a090fa3069526>@@QEBAPEAVObject@@PEAV1@AEBVEvent@sf@@@Z 0000000140000000     window-editor.obj
 0005:fff74000       $pdata$??$forward_as_tuple@$$V@std@@YA?AV?$tuple@$$V@0@XZ 0000000140000000     config.obj
 0005:fff74000       $pdata$?dtor$0@?0???$?0V<lambda_6d6ae6a21194837914a2720f23ba009a>@@X@?$function@$$A6AXPEAVObject@@AEBVEvent@sf@@@Z@std@@QEAA@V<lambda_6d6ae6a21194837914a2720f23ba009a>@@@Z@4HA 0000000140000000     window-editor.obj
 0005:fff74000       $pdata$??$emplace_hint@AEBUpiecewise_construct_t@std@@V?$tuple@$$QEAW4Object_Subtype@@@2@V?$tuple@$$V@2@@?$_Tree@V?$_Tmap_traits@W4Object_Subtype@@PEBVGameObject@@U?$less@W4Object_Subtype@@@std@@V?$allocator@U?$pair@$$CBW4Object_Subtype@@PEBVGameObject@@@std@@@4@$0A@@std@@@std@@QEAA?AV?$_Tree_iterator@V?$_Tree_val@U?$_Tree_simple_types@U?$pair@$$CBW4Object_Subtype@@PEBVGameObject@@@std@@@std@@@std@@@1@V?$_Tree_const_iterator@V?$_Tree_val@U?$_Tree_simple_types@U?$pair@$$CBW4Object_Subtype@@PEBVGameObject@@@std@@@std@@@std@@@1@AEBUpiecewise_construct_t@1@$$QEAV?$tuple@$$QEAW4Object_Subtype@@@1@$$QEAV?$tuple@$$V@1@@Z 0000000140000000     config.obj
 0005:fff74000       $pdata$?Read@Config_Parser@@YAPEBDPEBDAEAH@Z 0000000140000000     config.obj
 0005:fff74000       $pdata$?dtor$0@?0??Read@Config_Parser@@YAPEBDPEBDAEAV?$basic_string@DU?$char_traits@D@std@@V?$allocator@D@2@@std@@@Z@4HA 0000000140000000     config.obj
 0005:fff74000       $pdata$?dtor$0@?0???$emplace_hint@AEBUpiecewise_construct_t@std@@V?$tuple@$$QEAW4Object_Subtype@@@2@V?$tuple@$$V@2@@?$_Tree@V?$_Tmap_traits@W4Object_Subtype@@PEBVGameObject@@U?$less@W4Object_Subtype@@@std@@V?$allocator@U?$pair@$$CBW4Object_Subtype@@PEBVGameObject@@@std@@@4@$0A@@std@@@std@@QEAA?AV?$_Tree_iterator@V?$_Tree_val@U?$_Tree_simple_types@U?$pair@$$CBW4Object_Subtype@@PEBVGameObject@@@std@@@std@@@std@@@1@V?$_Tree_const_iterator@V?$_Tree_val@U?$_Tree_simple_types@U?$pair@$$CBW4Object_Subtype@@PEBVGameObject@@@std@@@std@@@std@@@1@AEBUpiecewise_construct_t@1@$$QEAV?$tuple@$$QEAW4Object_Subtype@@@1@$$QEAV?$tuple@$$V@1@@Z@4HA 0000000140000000     config.obj
 0005:fff74000       $pdata$??$?0V<lambda_6d6ae6a21194837914a2720f23ba009a>@@X@?$function@$$A6AXPEAVObject@@AEBVEvent@sf@@@Z@std@@QEAA@V<lambda_6d6ae6a21194837914a2720f23ba009a>@@@Z 0000000140000000     window-editor.obj
 0005:fff74000       $pdata$?Read@Config_Parser@@YAPEBDPEBDAEAV?$basic_string@DU?$char_traits@D@std@@V?$allocator@D@2@@std@@@Z 0000000140000000     config.obj
 0005:fff74000       $pdata$??$invoke@AEAV<lambda_6d6ae6a21194837914a2720f23ba009a>@@PEAVObject@@AEBVEvent@sf@@@std@@YAXAEAV<lambda_6d6ae6a21194837914a2720f23ba009a>@@$$QEAPEAVObject@@AEBVEvent@sf@@@Z 0000000140000000     window-editor.obj
 0005:fff74000       $pdata$??$?0V?$_Tree_iterator@V?$_Tree_val@U?$_Tree_simple_types@U?$pair@$$CBW4Object_Subtype@@PEBVGameObject@@@std@@@std@@@std@@@std@@_N$0A@@?$pair@V?$_Tree_iterator@V?$_Tree_val@U?$_Tree_simple_types@U?$pair@$$CBW4Object_Subtype@@PEBVGameObject@@@std@@@std@@@std@@@std@@_N@std@@QEAA@$$QEAV?$_Tree_iterator@V?$_Tree_val@U?$_Tree_simple_types@U?$pair@$$CBW4Object_Subtype@@PEBVGameObject@@@std@@@std@@@std@@@1@$$QEA_N@Z 0000000140000000     config.obj
 0005:fff74000       $pdata$??$_Call@AEAV<lambda_6d6ae6a21194837914a2720f23ba009a>@@PEAVObject@@AEBVEvent@sf@@@_Invoker_functor@std@@SAXAEAV<lambda_6d6ae6a21194837914a2720f23ba009a>@@$$QEAPEAVObject@@AEBVEvent@sf@@@Z 0000000140000000     window-editor.obj
 0005:fff74000       $pdata$?Is_Comment_Line@Config_Parser@@YA_NPEBD@Z 0000000140000000     config.obj
 0005:fff74000       $pdata$??$forward@AEAV<lambda_6d6ae6a21194837914a2720f23ba009a>@@@std@@YAAEAV<lambda_6d6ae6a21194837914a2720f23ba009a>@@AEAV1@@Z 0000000140000000     window-editor.obj
 0005:fff74000       $pdata$??$?0AEAV?$_Tree_iterator@V?$_Tree_val@U?$_Tree_simple_types@U?$pair@$$CBW4Object_Subtype@@PEBVGameObject@@@std@@@std@@@std@@@std@@_N$0A@@?$pair@V?$_Tree_iterator@V?$_Tree_val@U?$_Tree_simple_types@U?$pair@$$CBW4Object_Subtype@@PEBVGameObject@@@std@@@std@@@std@@@std@@_N@std@@QEAA@AEAV?$_Tree_iterator@V?$_Tree_val@U?$_Tree_simple_types@U?$pair@$$CBW4Object_Subtype@@PEBVGameObject@@@std@@@std@@@std@@@1@$$QEA_N@Z 0000000140000000     config.obj
 0005:fff74000       $pdata$??0<lambda_6d6ae6a21194837914a2720f23ba009a>@@QEAA@QEAVWindowEditor@@@Z 0000000140000000     window-editor.obj
 0005:fff74000       $pdata$??0?$Vector2@M@sf@@QEAA@XZ 0000000140000000     config.obj
 0005:fff74000       $pdata$??R<lambda_6d6ae6a21194837914a2720f23ba009a>@@QEBAXPEAVObject@@AEBVEvent@sf@@@Z 0000000140000000     window-editor.obj
 0005:fff74000       $pdata$??$addressof@V?$_Tree_val@U?$_Tree_simple_types@U?$pair@$$CBW4Object_Subtype@@PEBVGameObject@@@std@@@std@@@std@@@std@@YAPEAV?$_Tree_val@U?$_Tree_simple_types@U?$pair@$$CBW4Object_Subtype@@PEBVGameObject@@@std@@@std@@@0@AEAV10@@Z 0000000140000000     config.obj
 0005:fff74000       $pdata$?dtor$0@?0???$?0V<lambda_864b2f966be9f2ff37fd5127df0a763f>@@X@?$function@$$A6AXPEAVObject@@AEBVEvent@sf@@@Z@std@@QEAA@V<lambda_864b2f966be9f2ff37fd5127df0a763f>@@@Z@4HA 0000000140000000     window-editor.obj
 0005:fff74000       $pdata$??$_Getvals@_W@?$time_get@_WV?$istreambuf_iterator@_WU?$char_traits@_W@std@@@std@@@std@@IEAAX_WAEBV_Locinfo@1@@Z 0000000140000000     config.obj
 0005:fff74000       $pdata$??$?0W4Object_Subtype@@$$V$0A@@?$tuple@$$QEAW4Object_Subtype@@@std@@QEAA@$$QEAW4Object_Subtype@@@Z 0000000140000000     config.obj
 0003:fff90000       $unwind$??$forward@AEBUpiecewise_construct_t@std@@@std@@YAAEBUpiecewise_construct_t@0@AEBU10@@Z 0000000140000000     config.obj
 0005:fff74000       $pdata$??$forward@AEBUpiecewise_construct_t@std@@@std@@YAAEBUpiecewise_construct_t@0@AEBU10@@Z 0000000140000000     config.obj
 0005:fff74000       $pdata$??$?0V<lambda_864b2f966be9f2ff37fd5127df0a763f>@@X@?$function@$$A6AXPEAVObject@@AEBVEvent@sf@@@Z@std@@QEAA@V<lambda_864b2f966be9f2ff37fd5127df0a763f>@@@Z 0000000140000000     window-editor.obj
 0003:fff90000       $unwind$??$_Getvals@_W@?$time_get@_WV?$istreambuf_iterator@_WU?$char_traits@_W@std@@@std@@@std@@IEAAX_WAEBV_Locinfo@1@@Z 0000000140000000     config.obj
 0005:fff74000       $pdata$??$invoke@AEAV<lambda_864b2f966be9f2ff37fd5127df0a763f>@@PEAVObject@@AEBVEvent@sf@@@std@@YAXAEAV<lambda_864b2f966be9f2ff37fd5127df0a763f>@@$$QEAPEAVObject@@AEBVEvent@sf@@@Z 0000000140000000     window-editor.obj
 0005:fff74000       $pdata$??$forward@V?$tuple@$$QEAW4Object_Subtype@@@std@@@std@@YA$$QEAV?$tuple@$$QEAW4Object_Subtype@@@0@AEAV10@@Z 0000000140000000     config.obj
 0005:fff74000       $pdata$??$_Call@AEAV<lambda_864b2f966be9f2ff37fd5127df0a763f>@@PEAVObject@@AEBVEvent@sf@@@_Invoker_functor@std@@SAXAEAV<lambda_864b2f966be9f2ff37fd5127df0a763f>@@$$QEAPEAVObject@@AEBVEvent@sf@@@Z 0000000140000000     window-editor.obj
 0003:fff90000       $unwind$??$forward@V?$tuple@$$V@std@@@std@@YA$$QEAV?$tuple@$$V@0@AEAV10@@Z 0000000140000000     config.obj
 0005:fff74000       $pdata$??$forward@AEAV<lambda_864b2f966be9f2ff37fd5127df0a763f>@@@std@@YAAEAV<lambda_864b2f966be9f2ff37fd5127df0a763f>@@AEAV1@@Z 0000000140000000     window-editor.obj
 0005:fff74000       $pdata$??$forward@V?$tuple@$$V@std@@@std@@YA$$QEAV?$tuple@$$V@0@AEAV10@@Z 0000000140000000     config.obj
 0005:fff74000       $pdata$?_Getspace@?$_Func_class@XPEAVObject@@AEBVEvent@sf@@@std@@AEBAPEBXXZ 0000000140000000     window-editor.obj
 0003:fff90000       $unwind$?_Getspace@?$_Func_class@XPEAVObject@@AEBVEvent@sf@@@std@@AEBAPEBXXZ 0000000140000000     window-editor.obj
 0005:fff74000       $pdata$?_Getspace@?$_Func_class@XPEAVObject@@AEBVEvent@sf@@@std@@AEAAPEAXXZ 0000000140000000     window-editor.obj
 0003:fff90000       $unwind$?_Getspace@?$_Func_class@XPEAVObject@@AEBVEvent@sf@@@std@@AEAAPEAXXZ 0000000140000000     window-editor.obj
 0005:fff74000       $pdata$?_Set@?$_Func_class@XPEAVObject@@AEBVEvent@sf@@@std@@AEAAXPEAV?$_Func_base@XPEAVObject@@AEBVEvent@sf@@@2@@Z 0000000140000000     window-editor.obj
 0003:fff90000       $unwind$?_Set@?$_Func_class@XPEAVObject@@AEBVEvent@sf@@@std@@AEAAXPEAV?$_Func_base@XPEAVObject@@AEBVEvent@sf@@@2@@Z 0000000140000000     window-editor.obj
 0005:fff74000       $pdata$?_Getimpl@?$_Func_class@XPEAVObject@@AEBVEvent@sf@@@std@@AEBAPEAV?$_Func_base@XPEAVObject@@AEBVEvent@sf@@@2@XZ 0000000140000000     window-editor.obj
 0003:fff90000       $unwind$?_Getimpl@?$_Func_class@XPEAVObject@@AEBVEvent@sf@@@std@@AEBAPEAV?$_Func_base@XPEAVObject@@AEBVEvent@sf@@@2@XZ 0000000140000000     window-editor.obj
 0005:fff74000       $pdata$?_Local@?$_Func_class@XPEAVObject@@AEBVEvent@sf@@@std@@AEBA_NXZ 0000000140000000     window-editor.obj
 0003:fff90000       $unwind$?_Local@?$_Func_class@XPEAVObject@@AEBVEvent@sf@@@std@@AEBA_NXZ 0000000140000000     window-editor.obj
 0005:fff74000       $pdata$?_Tidy@?$_Func_class@XPEAVObject@@AEBVEvent@sf@@@std@@IEAAXXZ 0000000140000000     window-editor.obj
 0003:fff90000       $unwind$?_Tidy@?$_Func_class@XPEAVObject@@AEBVEvent@sf@@@std@@IEAAXXZ 0000000140000000     window-editor.obj
 0005:fff74000       $pdata$?_Empty@?$_Func_class@XPEAVObject@@AEBVEvent@sf@@@std@@IEBA_NXZ 0000000140000000     window-editor.obj
 0003:fff90000       $unwind$?_Empty@?$_Func_class@XPEAVObject@@AEBVEvent@sf@@@std@@IEBA_NXZ 0000000140000000     window-editor.obj
 0005:fff74000       $pdata$??1?$_Func_class@XPEAVObject@@AEBVEvent@sf@@@std@@QEAA@XZ 0000000140000000     window-editor.obj
 0003:fff90000       $unwind$??1?$_Func_class@XPEAVObject@@AEBVEvent@sf@@@std@@QEAA@XZ 0000000140000000     window-editor.obj
 0005:fff74000       $pdata$??0?$_Func_class@XPEAVObject@@AEBVEvent@sf@@@std@@QEAA@XZ 0000000140000000     window-editor.obj
 0003:fff90000       $unwind$??0?$_Func_class@XPEAVObject@@AEBVEvent@sf@@@std@@QEAA@XZ 0000000140000000     window-editor.obj
 0005:fff74000       $pdata$??0<lambda_864b2f966be9f2ff37fd5127df0a763f>@@QEAA@QEAVWindowEditor@@@Z 0000000140000000     window-editor.obj
 0005:fff74000       $pdata$??$_Getvals@_W@?$time_get@DV?$istreambuf_iterator@DU?$char_traits@D@std@@@std@@@std@@IEAAX_WAEBV_Locinfo@1@@Z 0000000140000000     config.obj
 0005:fff74000       $pdata$??R<lambda_864b2f966be9f2ff37fd5127df0a763f>@@QEBAXPEAVObject@@AEBVEvent@sf@@@Z 0000000140000000     window-editor.obj
 0005:fff74000       $pdata$??$_Buynode@AEBUpiecewise_construct_t@std@@V?$tuple@$$QEAW4Object_Subtype@@@2@V?$tuple@$$V@2@@?$_Tree_comp_alloc@V?$_Tmap_traits@W4Object_Subtype@@PEBVGameObject@@U?$less@W4Object_Subtype@@@std@@V?$allocator@U?$pair@$$CBW4Object_Subtype@@PEBVGameObject@@@std@@@4@$0A@@std@@@std@@QEAAPEAU?$_Tree_node@U?$pair@$$CBW4Object_Subtype@@PEBVGameObject@@@std@@PEAX@1@AEBUpiecewise_construct_t@1@$$QEAV?$tuple@$$QEAW4Object_Subtype@@@1@$$QEAV?$tuple@$$V@1@@Z 0000000140000000     config.obj
 0005:fff74000       $pdata$?dtor$0@?0???$?0V<lambda_e40e34acbd84aecd5b91a71cce11a8bc>@@X@?$function@$$A6APEAVObject@@PEAV1@AEBVEvent@sf@@@Z@std@@QEAA@V<lambda_e40e34acbd84aecd5b91a71cce11a8bc>@@@Z@4HA 0000000140000000     window-editor.obj
 0003:fff90000       $unwind$??$_Getvals@_W@?$time_get@DV?$istreambuf_iterator@DU?$char_traits@D@std@@@std@@@std@@IEAAX_WAEBV_Locinfo@1@@Z 0000000140000000     config.obj
 0005:fff74000       $pdata$?dtor$0@?0???$_Floating_to_string@M@std@@YA?AV?$basic_string@DU?$char_traits@D@std@@V?$allocator@D@2@@0@PEBDM@Z@4HA 0000000140000000     config.obj
 0005:fff74000       $pdata$??$_Floating_to_string@M@std@@YA?AV?$basic_string@DU?$char_traits@D@std@@V?$allocator@D@2@@0@PEBDM@Z 0000000140000000     config.obj
 0005:fff74000       $pdata$?catch$0@?0???$_Buynode@AEBUpiecewise_construct_t@std@@V?$tuple@$$QEAW4Object_Subtype@@@2@V?$tuple@$$V@2@@?$_Tree_comp_alloc@V?$_Tmap_traits@W4Object_Subtype@@PEBVGameObject@@U?$less@W4Object_Subtype@@@std@@V?$allocator@U?$pair@$$CBW4Object_Subtype@@PEBVGameObject@@@std@@@4@$0A@@std@@@std@@QEAAPEAU?$_Tree_node@U?$pair@$$CBW4Object_Subtype@@PEBVGameObject@@@std@@PEAX@1@AEBUpiecewise_construct_t@1@$$QEAV?$tuple@$$QEAW4Object_Subtype@@@1@$$QEAV?$tuple@$$V@1@@Z@4HA 0000000140000000     config.obj
 0005:fff74000       $pdata$??$?0V<lambda_e40e34acbd84aecd5b91a71cce11a8bc>@@X@?$function@$$A6APEAVObject@@PEAV1@AEBVEvent@sf@@@Z@std@@QEAA@V<lambda_e40e34acbd84aecd5b91a71cce11a8bc>@@@Z 0000000140000000     window-editor.obj
 0005:fff74000       $pdata$??$_Insert_hint@AEAU?$pair@$$CBW4Object_Subtype@@PEBVGameObject@@@std@@PEAU?$_Tree_node@U?$pair@$$CBW4Object_Subtype@@PEBVGameObject@@@std@@PEAX@2@@?$_Tree@V?$_Tmap_traits@W4Object_Subtype@@PEBVGameObject@@U?$less@W4Object_Subtype@@@std@@V?$allocator@U?$pair@$$CBW4Object_Subtype@@PEBVGameObject@@@std@@@4@$0A@@std@@@std@@IEAA?AV?$_Tree_iterator@V?$_Tree_val@U?$_Tree_simple_types@U?$pair@$$CBW4Object_Subtype@@PEBVGameObject@@@std@@@std@@@std@@@1@V?$_Tree_const_iterator@V?$_Tree_val@U?$_Tree_simple_types@U?$pair@$$CBW4Object_Subtype@@PEBVGameObject@@@std@@@std@@@std@@@1@AEAU?$pair@$$CBW4Object_Subtype@@PEBVGameObject@@@1@PEAU?$_Tree_node@U?$pair@$$CBW4Object_Subtype@@PEBVGameObject@@@std@@PEAX@1@@Z 0000000140000000     config.obj
 0005:fff74000       $pdata$??$invoke@AEAV<lambda_e40e34acbd84aecd5b91a71cce11a8bc>@@PEAVObject@@AEBVEvent@sf@@@std@@YAPEAVObject@@AEAV<lambda_e40e34acbd84aecd5b91a71cce11a8bc>@@$$QEAPEAV1@AEBVEvent@sf@@@Z 0000000140000000     window-editor.obj
 0005:fff74000       $pdata$?to_string@std@@YA?AV?$basic_string@DU?$char_traits@D@std@@V?$allocator@D@2@@1@M@Z 0000000140000000     config.obj
 0005:fff74000       $pdata$??$_Call@AEAV<lambda_e40e34acbd84aecd5b91a71cce11a8bc>@@PEAVObject@@AEBVEvent@sf@@@_Invoker_functor@std@@SAPEAVObject@@AEAV<lambda_e40e34acbd84aecd5b91a71cce11a8bc>@@$$QEAPEAV2@AEBVEvent@sf@@@Z 0000000140000000     window-editor.obj
 0005:fff74000       $pdata$??$_Integral_to_string@D_K@std@@YA?AV?$basic_string@DU?$char_traits@D@std@@V?$allocator@D@2@@0@_K@Z 0000000140000000     config.obj
 0005:fff74000       $pdata$??$forward@AEBVEvent@sf@@@std@@YAAEBVEvent@sf@@AEBV12@@Z 0000000140000000     window-editor.obj
 0003:fff90000       $unwind$??$forward@AEBVEvent@sf@@@std@@YAAEBVEvent@sf@@AEBV12@@Z 0000000140000000     window-editor.obj
 0005:fff74000       $pdata$??$forward@PEAVObject@@@std@@YA$$QEAPEAVObject@@AEAPEAV1@@Z 0000000140000000     window-editor.obj
 0003:fff90000       $unwind$??$forward@PEAVObject@@@std@@YA$$QEAPEAVObject@@AEAPEAV1@@Z 0000000140000000     window-editor.obj
 0005:fff74000       $pdata$??$forward@AEAV<lambda_e40e34acbd84aecd5b91a71cce11a8bc>@@@std@@YAAEAV<lambda_e40e34acbd84aecd5b91a71cce11a8bc>@@AEAV1@@Z 0000000140000000     window-editor.obj
 0005:fff74000       $pdata$?dtor$0@?0???$_Insert_hint@AEAU?$pair@$$CBW4Object_Subtype@@PEBVGameObject@@@std@@PEAU?$_Tree_node@U?$pair@$$CBW4Object_Subtype@@PEBVGameObject@@@std@@PEAX@2@@?$_Tree@V?$_Tmap_traits@W4Object_Subtype@@PEBVGameObject@@U?$less@W4Object_Subtype@@@std@@V?$allocator@U?$pair@$$CBW4Object_Subtype@@PEBVGameObject@@@std@@@4@$0A@@std@@@std@@IEAA?AV?$_Tree_iterator@V?$_Tree_val@U?$_Tree_simple_types@U?$pair@$$CBW4Object_Subtype@@PEBVGameObject@@@std@@@std@@@std@@@1@V?$_Tree_const_iterator@V?$_Tree_val@U?$_Tree_simple_types@U?$pair@$$CBW4Object_Subtype@@PEBVGameObject@@@std@@@std@@@std@@@1@AEAU?$pair@$$CBW4Object_Subtype@@PEBVGameObject@@@1@PEAU?$_Tree_node@U?$pair@$$CBW4Object_Subtype@@PEBVGameObject@@@std@@PEAX@1@@Z@4HA 0000000140000000     config.obj
 0005:fff74000       $pdata$?_Getspace@?$_Func_class@PEAVObject@@PEAV1@AEBVEvent@sf@@@std@@AEBAPEBXXZ 0000000140000000     window-editor.obj
 0003:fff90000       $unwind$?_Getspace@?$_Func_class@PEAVObject@@PEAV1@AEBVEvent@sf@@@std@@AEBAPEBXXZ 0000000140000000     window-editor.obj
 0005:fff74000       $pdata$?_Getspace@?$_Func_class@PEAVObject@@PEAV1@AEBVEvent@sf@@@std@@AEAAPEAXXZ 0000000140000000     window-editor.obj
 0003:fff90000       $unwind$?_Getspace@?$_Func_class@PEAVObject@@PEAV1@AEBVEvent@sf@@@std@@AEAAPEAXXZ 0000000140000000     window-editor.obj
 0005:fff74000       $pdata$?_Set@?$_Func_class@PEAVObject@@PEAV1@AEBVEvent@sf@@@std@@AEAAXPEAV?$_Func_base@PEAVObject@@PEAV1@AEBVEvent@sf@@@2@@Z 0000000140000000     window-editor.obj
 0003:fff90000       $unwind$?_Set@?$_Func_class@PEAVObject@@PEAV1@AEBVEvent@sf@@@std@@AEAAXPEAV?$_Func_base@PEAVObject@@PEAV1@AEBVEvent@sf@@@2@@Z 0000000140000000     window-editor.obj
 0005:fff74000       $pdata$?_Getimpl@?$_Func_class@PEAVObject@@PEAV1@AEBVEvent@sf@@@std@@AEBAPEAV?$_Func_base@PEAVObject@@PEAV1@AEBVEvent@sf@@@2@XZ 0000000140000000     window-editor.obj
 0003:fff90000       $unwind$?_Getimpl@?$_Func_class@PEAVObject@@PEAV1@AEBVEvent@sf@@@std@@AEBAPEAV?$_Func_base@PEAVObject@@PEAV1@AEBVEvent@sf@@@2@XZ 0000000140000000     window-editor.obj
 0005:fff74000       $pdata$?_Local@?$_Func_class@PEAVObject@@PEAV1@AEBVEvent@sf@@@std@@AEBA_NXZ 0000000140000000     window-editor.obj
 0003:fff90000       $unwind$?_Local@?$_Func_class@PEAVObject@@PEAV1@AEBVEvent@sf@@@std@@AEBA_NXZ 0000000140000000     window-editor.obj
 0005:fff74000       $pdata$?_Tidy@?$_Func_class@PEAVObject@@PEAV1@AEBVEvent@sf@@@std@@IEAAXXZ 0000000140000000     window-editor.obj
 0003:fff90000       $unwind$?_Tidy@?$_Func_class@PEAVObject@@PEAV1@AEBVEvent@sf@@@std@@IEAAXXZ 0000000140000000     window-editor.obj
 0005:fff74000       $pdata$?_Empty@?$_Func_class@PEAVObject@@PEAV1@AEBVEvent@sf@@@std@@IEBA_NXZ 0000000140000000     window-editor.obj
 0003:fff90000       $unwind$?_Empty@?$_Func_class@PEAVObject@@PEAV1@AEBVEvent@sf@@@std@@IEBA_NXZ 0000000140000000     window-editor.obj
 0005:fff74000       $pdata$??1?$_Func_class@PEAVObject@@PEAV1@AEBVEvent@sf@@@std@@QEAA@XZ 0000000140000000     window-editor.obj
 0003:fff90000       $unwind$??1?$_Func_class@PEAVObject@@PEAV1@AEBVEvent@sf@@@std@@QEAA@XZ 0000000140000000     window-editor.obj
 0005:fff74000       $pdata$??0?$_Func_class@PEAVObject@@PEAV1@AEBVEvent@sf@@@std@@QEAA@XZ 0000000140000000     window-editor.obj
 0003:fff90000       $unwind$??0?$_Func_class@PEAVObject@@PEAV1@AEBVEvent@sf@@@std@@QEAA@XZ 0000000140000000     window-editor.obj
 0005:fff74000       $pdata$??0<lambda_e40e34acbd84aecd5b91a71cce11a8bc>@@QEAA@QEAVWindowEditor@@@Z 0000000140000000     window-editor.obj
 0005:fff74000       $pdata$?dtor$1@?0???$_Insert_hint@AEAU?$pair@$$CBW4Object_Subtype@@PEBVGameObject@@@std@@PEAU?$_Tree_node@U?$pair@$$CBW4Object_Subtype@@PEBVGameObject@@@std@@PEAX@2@@?$_Tree@V?$_Tmap_traits@W4Object_Subtype@@PEBVGameObject@@U?$less@W4Object_Subtype@@@std@@V?$allocator@U?$pair@$$CBW4Object_Subtype@@PEBVGameObject@@@std@@@4@$0A@@std@@@std@@IEAA?AV?$_Tree_iterator@V?$_Tree_val@U?$_Tree_simple_types@U?$pair@$$CBW4Object_Subtype@@PEBVGameObject@@@std@@@std@@@std@@@1@V?$_Tree_const_iterator@V?$_Tree_val@U?$_Tree_simple_types@U?$pair@$$CBW4Object_Subtype@@PEBVGameObject@@@std@@@std@@@std@@@1@AEAU?$pair@$$CBW4Object_Subtype@@PEBVGameObject@@@1@PEAU?$_Tree_node@U?$pair@$$CBW4Object_Subtype@@PEBVGameObject@@@std@@PEAX@1@@Z@4HA 0000000140000000     config.obj
 0005:fff74000       $pdata$??R<lambda_e40e34acbd84aecd5b91a71cce11a8bc>@@QEBAPEAVObject@@PEAV1@AEBVEvent@sf@@@Z 0000000140000000     window-editor.obj
 0005:fff74000       $pdata$?to_string@std@@YA?AV?$basic_string@DU?$char_traits@D@std@@V?$allocator@D@2@@1@_K@Z 0000000140000000     config.obj
 0005:fff74000       $pdata$??_GWindowEditor@@UEAAPEAXI@Z 0000000140000000     window-editor.obj
 0005:fff74000       $pdata$?dtor$3@?0???$_Insert_hint@AEAU?$pair@$$CBW4Object_Subtype@@PEBVGameObject@@@std@@PEAU?$_Tree_node@U?$pair@$$CBW4Object_Subtype@@PEBVGameObject@@@std@@PEAX@2@@?$_Tree@V?$_Tmap_traits@W4Object_Subtype@@PEBVGameObject@@U?$less@W4Object_Subtype@@@std@@V?$allocator@U?$pair@$$CBW4Object_Subtype@@PEBVGameObject@@@std@@@4@$0A@@std@@@std@@IEAA?AV?$_Tree_iterator@V?$_Tree_val@U?$_Tree_simple_types@U?$pair@$$CBW4Object_Subtype@@PEBVGameObject@@@std@@@std@@@std@@@1@V?$_Tree_const_iterator@V?$_Tree_val@U?$_Tree_simple_types@U?$pair@$$CBW4Object_Subtype@@PEBVGameObject@@@std@@@std@@@std@@@1@AEAU?$pair@$$CBW4Object_Subtype@@PEBVGameObject@@@1@PEAU?$_Tree_node@U?$pair@$$CBW4Object_Subtype@@PEBVGameObject@@@std@@PEAX@1@@Z@4HA 0000000140000000     config.obj
 0005:fff74000       $pdata$?isShiftPressed@WindowEditor@@AEBA_NXZ 0000000140000000     window-editor.obj
 0005:fff74000       $pdata$?stof@std@@YAMAEBV?$basic_string@DU?$char_traits@D@std@@V?$allocator@D@2@@1@PEA_K@Z 0000000140000000     config.obj
 0005:fff74000       $pdata$?setShiftPressed@WindowEditor@@AEAAX_N@Z 0000000140000000     window-editor.obj
 0005:fff74000       $pdata$?dtor$4@?0???$_Insert_hint@AEAU?$pair@$$CBW4Object_Subtype@@PEBVGameObject@@@std@@PEAU?$_Tree_node@U?$pair@$$CBW4Object_Subtype@@PEBVGameObject@@@std@@PEAX@2@@?$_Tree@V?$_Tmap_traits@W4Object_Subtype@@PEBVGameObject@@U?$less@W4Object_Subtype@@@std@@V?$allocator@U?$pair@$$CBW4Object_Subtype@@PEBVGameObject@@@std@@@4@$0A@@std@@@std@@IEAA?AV?$_Tree_iterator@V?$_Tree_val@U?$_Tree_simple_types@U?$pair@$$CBW4Object_Subtype@@PEBVGameObject@@@std@@@std@@@std@@@1@V?$_Tree_const_iterator@V?$_Tree_val@U?$_Tree_simple_types@U?$pair@$$CBW4Object_Subtype@@PEBVGameObject@@@std@@@std@@@std@@@1@AEAU?$pair@$$CBW4Object_Subtype@@PEBVGameObject@@@1@PEAU?$_Tree_node@U?$pair@$$CBW4Object_Subtype@@PEBVGameObject@@@std@@PEAX@1@@Z@4HA 0000000140000000     config.obj
 0005:fff74000       $pdata$?saveLevel@WindowEditor@@AEAAXXZ 0000000140000000     window-editor.obj
 0005:fff74000       $pdata$?dtor$5@?0???$_Insert_hint@AEAU?$pair@$$CBW4Object_Subtype@@PEBVGameObject@@@std@@PEAU?$_Tree_node@U?$pair@$$CBW4Object_Subtype@@PEBVGameObject@@@std@@PEAX@2@@?$_Tree@V?$_Tmap_traits@W4Object_Subtype@@PEBVGameObject@@U?$less@W4Object_Subtype@@@std@@V?$allocator@U?$pair@$$CBW4Object_Subtype@@PEBVGameObject@@@std@@@4@$0A@@std@@@std@@IEAA?AV?$_Tree_iterator@V?$_Tree_val@U?$_Tree_simple_types@U?$pair@$$CBW4Object_Subtype@@PEBVGameObject@@@std@@@std@@@std@@@1@V?$_Tree_const_iterator@V?$_Tree_val@U?$_Tree_simple_types@U?$pair@$$CBW4Object_Subtype@@PEBVGameObject@@@std@@@std@@@std@@@1@AEAU?$pair@$$CBW4Object_Subtype@@PEBVGameObject@@@1@PEAU?$_Tree_node@U?$pair@$$CBW4Object_Subtype@@PEBVGameObject@@@std@@PEAX@1@@Z@4HA 0000000140000000     config.obj
 0005:fff74000       $pdata$?loadLevel@WindowEditor@@AEAAXXZ 0000000140000000     window-editor.obj
 0005:fff74000       $pdata$?dtor$6@?0???$_Insert_hint@AEAU?$pair@$$CBW4Object_Subtype@@PEBVGameObject@@@std@@PEAU?$_Tree_node@U?$pair@$$CBW4Object_Subtype@@PEBVGameObject@@@std@@PEAX@2@@?$_Tree@V?$_Tmap_traits@W4Object_Subtype@@PEBVGameObject@@U?$less@W4Object_Subtype@@@std@@V?$allocator@U?$pair@$$CBW4Object_Subtype@@PEBVGameObject@@@std@@@4@$0A@@std@@@std@@IEAA?AV?$_Tree_iterator@V?$_Tree_val@U?$_Tree_simple_types@U?$pair@$$CBW4Object_Subtype@@PEBVGameObject@@@std@@@std@@@std@@@1@V?$_Tree_const_iterator@V?$_Tree_val@U?$_Tree_simple_types@U?$pair@$$CBW4Object_Subtype@@PEBVGameObject@@@std@@@std@@@std@@@1@AEAU?$pair@$$CBW4Object_Subtype@@PEBVGameObject@@@1@PEAU?$_Tree_node@U?$pair@$$CBW4Object_Subtype@@PEBVGameObject@@@std@@PEAX@1@@Z@4HA 0000000140000000     config.obj
 0005:fff74000       $pdata$?onMoveListener@WindowEditor@@AEAAXPEAVObject@@AEBVEvent@sf@@@Z 0000000140000000     window-editor.obj
 0005:fff74000       $pdata$?dtor$7@?0???$_Insert_hint@AEAU?$pair@$$CBW4Object_Subtype@@PEBVGameObject@@@std@@PEAU?$_Tree_node@U?$pair@$$CBW4Object_Subtype@@PEBVGameObject@@@std@@PEAX@2@@?$_Tree@V?$_Tmap_traits@W4Object_Subtype@@PEBVGameObject@@U?$less@W4Object_Subtype@@@std@@V?$allocator@U?$pair@$$CBW4Object_Subtype@@PEBVGameObject@@@std@@@4@$0A@@std@@@std@@IEAA?AV?$_Tree_iterator@V?$_Tree_val@U?$_Tree_simple_types@U?$pair@$$CBW4Object_Subtype@@PEBVGameObject@@@std@@@std@@@std@@@1@V?$_Tree_const_iterator@V?$_Tree_val@U?$_Tree_simple_types@U?$pair@$$CBW4Object_Subtype@@PEBVGameObject@@@std@@@std@@@std@@@1@AEAU?$pair@$$CBW4Object_Subtype@@PEBVGameObject@@@1@PEAU?$_Tree_node@U?$pair@$$CBW4Object_Subtype@@PEBVGameObject@@@std@@PEAX@1@@Z@4HA 0000000140000000     config.obj
 0005:fff74000       $pdata$?stoi@std@@YAHAEBV?$basic_string@DU?$char_traits@D@std@@V?$allocator@D@2@@1@PEA_KH@Z 0000000140000000     config.obj
 0005:fff74000       $pdata$?dtor$8@?0???$_Insert_hint@AEAU?$pair@$$CBW4Object_Subtype@@PEBVGameObject@@@std@@PEAU?$_Tree_node@U?$pair@$$CBW4Object_Subtype@@PEBVGameObject@@@std@@PEAX@2@@?$_Tree@V?$_Tmap_traits@W4Object_Subtype@@PEBVGameObject@@U?$less@W4Object_Subtype@@@std@@V?$allocator@U?$pair@$$CBW4Object_Subtype@@PEBVGameObject@@@std@@@4@$0A@@std@@@std@@IEAA?AV?$_Tree_iterator@V?$_Tree_val@U?$_Tree_simple_types@U?$pair@$$CBW4Object_Subtype@@PEBVGameObject@@@std@@@std@@@std@@@1@V?$_Tree_const_iterator@V?$_Tree_val@U?$_Tree_simple_types@U?$pair@$$CBW4Object_Subtype@@PEBVGameObject@@@std@@@std@@@std@@@1@AEAU?$pair@$$CBW4Object_Subtype@@PEBVGameObject@@@1@PEAU?$_Tree_node@U?$pair@$$CBW4Object_Subtype@@PEBVGameObject@@@std@@PEAX@1@@Z@4HA 0000000140000000     config.obj
 0005:fff74000       $pdata$?catch$10@?0???$_Insert_hint@AEAU?$pair@$$CBW4Object_Subtype@@PEBVGameObject@@@std@@PEAU?$_Tree_node@U?$pair@$$CBW4Object_Subtype@@PEBVGameObject@@@std@@PEAX@2@@?$_Tree@V?$_Tmap_traits@W4Object_Subtype@@PEBVGameObject@@U?$less@W4Object_Subtype@@@std@@V?$allocator@U?$pair@$$CBW4Object_Subtype@@PEBVGameObject@@@std@@@4@$0A@@std@@@std@@IEAA?AV?$_Tree_iterator@V?$_Tree_val@U?$_Tree_simple_types@U?$pair@$$CBW4Object_Subtype@@PEBVGameObject@@@std@@@std@@@std@@@1@V?$_Tree_const_iterator@V?$_Tree_val@U?$_Tree_simple_types@U?$pair@$$CBW4Object_Subtype@@PEBVGameObject@@@std@@@std@@@std@@@1@AEAU?$pair@$$CBW4Object_Subtype@@PEBVGameObject@@@1@PEAU?$_Tree_node@U?$pair@$$CBW4Object_Subtype@@PEBVGameObject@@@std@@PEAX@1@@Z@4HA 0000000140000000     config.obj
 0005:fff74000       $pdata$?onMovingEndListener@WindowEditor@@AEAAXPEAVObject@@AEBVEvent@sf@@@Z 0000000140000000     window-editor.obj
 0005:fff74000       $pdata$??$forward@V?$_Tree_iterator@V?$_Tree_val@U?$_Tree_simple_types@U?$pair@$$CBW4Object_Subtype@@PEBVGameObject@@@std@@@std@@@std@@@std@@@std@@YA$$QEAV?$_Tree_iterator@V?$_Tree_val@U?$_Tree_simple_types@U?$pair@$$CBW4Object_Subtype@@PEBVGameObject@@@std@@@std@@@std@@@0@AEAV10@@Z 0000000140000000     config.obj
 0003:fff90000       $unwind$??$forward@_N@std@@YA$$QEA_NAEA_N@Z 0000000140000000     config.obj
 0005:fff74000       $pdata$??$forward@_N@std@@YA$$QEA_NAEA_N@Z 0000000140000000     config.obj
 0005:fff74000       $pdata$??$forward@AEAV?$_Tree_iterator@V?$_Tree_val@U?$_Tree_simple_types@U?$pair@$$CBW4Object_Subtype@@PEBVGameObject@@@std@@@std@@@std@@@std@@@std@@YAAEAV?$_Tree_iterator@V?$_Tree_val@U?$_Tree_simple_types@U?$pair@$$CBW4Object_Subtype@@PEBVGameObject@@@std@@@std@@@std@@@0@AEAV10@@Z 0000000140000000     config.obj
 0005:fff74000       $pdata$?dtor$0@?0??onMoveBeginListener@WindowEditor@@AEAAPEAVObject@@PEAV2@AEBVEvent@sf@@@Z@4HA 0000000140000000     window-editor.obj
 0005:fff74000       $pdata$?_Maklocwcs@std@@YAPEA_WPEB_W@Z 0000000140000000     config.obj
 0005:fff74000       $pdata$??$?0U_Exact_args_t@std@@W4Object_Subtype@@$$V$0A@@?$tuple@$$QEAW4Object_Subtype@@@std@@QEAA@U_Exact_args_t@1@$$QEAW4Object_Subtype@@@Z 0000000140000000     config.obj
 0003:fff90000       $unwind$?_Maklocwcs@std@@YAPEA_WPEB_W@Z 0000000140000000     config.obj
 0005:fff74000       $pdata$??$construct@U?$pair@$$CBW4Object_Subtype@@PEBVGameObject@@@std@@AEBUpiecewise_construct_t@2@V?$tuple@$$QEAW4Object_Subtype@@@2@V?$tuple@$$V@2@@?$_Default_allocator_traits@V?$allocator@U?$_Tree_node@U?$pair@$$CBW4Object_Subtype@@PEBVGameObject@@@std@@PEAX@std@@@std@@@std@@SAXAEAV?$allocator@U?$_Tree_node@U?$pair@$$CBW4Object_Subtype@@PEBVGameObject@@@std@@PEAX@std@@@1@QEAU?$pair@$$CBW4Object_Subtype@@PEBVGameObject@@@1@AEBUpiecewise_construct_t@1@$$QEAV?$tuple@$$QEAW4Object_Subtype@@@1@$$QEAV?$tuple@$$V@1@@Z 0000000140000000     config.obj
 0005:fff74000       $pdata$?onMoveBeginListener@WindowEditor@@AEAAPEAVObject@@PEAV2@AEBVEvent@sf@@@Z 0000000140000000     window-editor.obj
 0005:fff74000       $pdata$??$_Debug_range@PEAD@std@@YAXPEAD0PEB_WI@Z 0000000140000000     config.obj
 0005:fff74000       $pdata$?HandleEvent@WindowEditor@@UEAAXAEBVEvent@sf@@@Z 0000000140000000     window-editor.obj
 0005:fff74000       $pdata$??$forward@AEAU?$pair@$$CBW4Object_Subtype@@PEBVGameObject@@@std@@@std@@YAAEAU?$pair@$$CBW4Object_Subtype@@PEBVGameObject@@@0@AEAU10@@Z 0000000140000000     config.obj
 0005:fff74000       $pdata$??$_Maklocstr@_W@std@@YAPEA_WPEBDPEA_WAEBU_Cvtvec@@@Z 0000000140000000     config.obj
 0005:fff74000       $pdata$??$_Insert_at@AEAU?$pair@$$CBW4Object_Subtype@@PEBVGameObject@@@std@@PEAU?$_Tree_node@U?$pair@$$CBW4Object_Subtype@@PEBVGameObject@@@std@@PEAX@2@@?$_Tree@V?$_Tmap_traits@W4Object_Subtype@@PEBVGameObject@@U?$less@W4Object_Subtype@@@std@@V?$allocator@U?$pair@$$CBW4Object_Subtype@@PEBVGameObject@@@std@@@4@$0A@@std@@@std@@IEAA?AV?$_Tree_iterator@V?$_Tree_val@U?$_Tree_simple_types@U?$pair@$$CBW4Object_Subtype@@PEBVGameObject@@@std@@@std@@@std@@@1@_NPEAU?$_Tree_node@U?$pair@$$CBW4Object_Subtype@@PEBVGameObject@@@std@@PEAX@1@AEAU?$pair@$$CBW4Object_Subtype@@PEBVGameObject@@@1@1@Z 0000000140000000     config.obj
 0005:fff74000       $pdata$??1WindowEditor@@UEAA@XZ 0000000140000000     window-editor.obj
 0003:fff90000       $unwind$??$_Maklocstr@_W@std@@YAPEA_WPEBDPEA_WAEBU_Cvtvec@@@Z 0000000140000000     config.obj
 0005:fff74000       $pdata$?dtor$5@?0???0WindowEditor@@QEAA@PEAVEngine@@AEBV?$Vector2@M@sf@@1@Z@4HA 0000000140000000     window-editor.obj
 0005:fff74000       $pdata$??$_Debug_lt_pred@AEAU?$less@W4Object_Subtype@@@std@@AEBW4Object_Subtype@@AEBW43@@std@@YA_NAEAU?$less@W4Object_Subtype@@@0@AEBW4Object_Subtype@@1PEB_WI@Z 0000000140000000     config.obj
 0005:fff74000       $pdata$?dtor$1@?0???0WindowEditor@@QEAA@PEAVEngine@@AEBV?$Vector2@M@sf@@1@Z@4HA 0000000140000000     window-editor.obj
 0005:fff74000       $pdata$??$_Insert_nohint@AEAU?$pair@$$CBW4Object_Subtype@@PEBVGameObject@@@std@@PEAU?$_Tree_node@U?$pair@$$CBW4Object_Subtype@@PEBVGameObject@@@std@@PEAX@2@@?$_Tree@V?$_Tmap_traits@W4Object_Subtype@@PEBVGameObject@@U?$less@W4Object_Subtype@@@std@@V?$allocator@U?$pair@$$CBW4Object_Subtype@@PEBVGameObject@@@std@@@4@$0A@@std@@@std@@IEAA?AU?$pair@V?$_Tree_iterator@V?$_Tree_val@U?$_Tree_simple_types@U?$pair@$$CBW4Object_Subtype@@PEBVGameObject@@@std@@@std@@@std@@@std@@_N@1@_NAEAU?$pair@$$CBW4Object_Subtype@@PEBVGameObject@@@1@PEAU?$_Tree_node@U?$pair@$$CBW4Object_Subtype@@PEBVGameObject@@@std@@PEAX@1@@Z 0000000140000000     config.obj
 0005:fff74000       $pdata$?dtor$0@?0???0WindowEditor@@QEAA@PEAVEngine@@AEBV?$Vector2@M@sf@@1@Z@4HA 0000000140000000     window-editor.obj
 0003:fff90000       ??$_Maklocstr@_W@std@@YAPEA_WPEBDPEA_WAEBU_Cvtvec@@@Z$rtcName$0 0000000140000000     config.obj
 0005:fff74000       $pdata$?_Xlen@?$basic_string@DU?$char_traits@D@std@@V?$allocator@D@2@@std@@SAXXZ 0000000140000000     config.obj
 0005:fff74000       $pdata$?dtor$2@?0???$_Insert_nohint@AEAU?$pair@$$CBW4Object_Subtype@@PEBVGameObject@@@std@@PEAU?$_Tree_node@U?$pair@$$CBW4Object_Subtype@@PEBVGameObject@@@std@@PEAX@2@@?$_Tree@V?$_Tmap_traits@W4Object_Subtype@@PEBVGameObject@@U?$less@W4Object_Subtype@@@std@@V?$allocator@U?$pair@$$CBW4Object_Subtype@@PEBVGameObject@@@std@@@4@$0A@@std@@@std@@IEAA?AU?$pair@V?$_Tree_iterator@V?$_Tree_val@U?$_Tree_simple_types@U?$pair@$$CBW4Object_Subtype@@PEBVGameObject@@@std@@@std@@@std@@@std@@_N@1@_NAEAU?$pair@$$CBW4Object_Subtype@@PEBVGameObject@@@1@PEAU?$_Tree_node@U?$pair@$$CBW4Object_Subtype@@PEBVGameObject@@@std@@PEAX@1@@Z@4HA 0000000140000000     config.obj
 0003:fff90000       $unwind$?_Xlen@?$basic_string@DU?$char_traits@D@std@@V?$allocator@D@2@@std@@SAXXZ 0000000140000000     config.obj
 0005:fff74000       $pdata$??0WindowEditor@@QEAA@PEAVEngine@@AEBV?$Vector2@M@sf@@1@Z 0000000140000000     window-editor.obj
 0005:fff74000       $pdata$?dtor$3@?0???$_Insert_nohint@AEAU?$pair@$$CBW4Object_Subtype@@PEBVGameObject@@@std@@PEAU?$_Tree_node@U?$pair@$$CBW4Object_Subtype@@PEBVGameObject@@@std@@PEAX@2@@?$_Tree@V?$_Tmap_traits@W4Object_Subtype@@PEBVGameObject@@U?$less@W4Object_Subtype@@@std@@V?$allocator@U?$pair@$$CBW4Object_Subtype@@PEBVGameObject@@@std@@@4@$0A@@std@@@std@@IEAA?AU?$pair@V?$_Tree_iterator@V?$_Tree_val@U?$_Tree_simple_types@U?$pair@$$CBW4Object_Subtype@@PEBVGameObject@@@std@@@std@@@std@@@std@@_N@1@_NAEAU?$pair@$$CBW4Object_Subtype@@PEBVGameObject@@@1@PEAU?$_Tree_node@U?$pair@$$CBW4Object_Subtype@@PEBVGameObject@@@std@@PEAX@1@@Z@4HA 0000000140000000     config.obj
 0005:fff74000       $pdata$??0?$Vector2@M@sf@@QEAA@MM@Z 0000000140000000     window-editor.obj
 0003:fff90000       $unwind$??0?$Vector2@M@sf@@QEAA@MM@Z 0000000140000000     window-editor.obj
 0005:fff74000       $pdata$??0?$Vector2@M@sf@@QEAA@XZ 0000000140000000     window-editor.obj
 0003:fff90000       $unwind$??0?$Vector2@M@sf@@QEAA@XZ 0000000140000000     window-editor.obj
 0005:fff74000       $pdata$??$_Getvals@_W@?$time_get@_WV?$istreambuf_iterator@_WU?$char_traits@_W@std@@@std@@@std@@IEAAX_WAEBV_Locinfo@1@@Z 0000000140000000     window-editor.obj
 0003:fff90000       $unwind$??$_Getvals@_W@?$time_get@_WV?$istreambuf_iterator@_WU?$char_traits@_W@std@@@std@@@std@@IEAAX_WAEBV_Locinfo@1@@Z 0000000140000000     window-editor.obj
 0005:fff74000       $pdata$??$_Getvals@_W@?$time_get@DV?$istreambuf_iterator@DU?$char_traits@D@std@@@std@@@std@@IEAAX_WAEBV_Locinfo@1@@Z 0000000140000000     window-editor.obj
 0003:fff90000       $unwind$??$_Getvals@_W@?$time_get@DV?$istreambuf_iterator@DU?$char_traits@D@std@@@std@@@std@@IEAAX_WAEBV_Locinfo@1@@Z 0000000140000000     window-editor.obj
 0005:fff74000       $pdata$?_Maklocwcs@std@@YAPEA_WPEB_W@Z 0000000140000000     window-editor.obj
 0003:fff90000       $unwind$?_Maklocwcs@std@@YAPEA_WPEB_W@Z 0000000140000000     window-editor.obj
 0005:fff74000       $pdata$??$_Maklocstr@_W@std@@YAPEA_WPEBDPEA_WAEBU_Cvtvec@@@Z 0000000140000000     window-editor.obj
 0003:fff90000       $unwind$??$_Maklocstr@_W@std@@YAPEA_WPEBDPEA_WAEBU_Cvtvec@@@Z 0000000140000000     window-editor.obj
 0005:fff74000       $pdata$?_Tidy_deallocate@?$basic_string@DU?$char_traits@D@std@@V?$allocator@D@2@@std@@QEAAXXZ 0000000140000000     config.obj
 0005:fff74000       $pdata$?catch$6@?0???$_Insert_nohint@AEAU?$pair@$$CBW4Object_Subtype@@PEBVGameObject@@@std@@PEAU?$_Tree_node@U?$pair@$$CBW4Object_Subtype@@PEBVGameObject@@@std@@PEAX@2@@?$_Tree@V?$_Tmap_traits@W4Object_Subtype@@PEBVGameObject@@U?$less@W4Object_Subtype@@@std@@V?$allocator@U?$pair@$$CBW4Object_Subtype@@PEBVGameObject@@@std@@@4@$0A@@std@@@std@@IEAA?AU?$pair@V?$_Tree_iterator@V?$_Tree_val@U?$_Tree_simple_types@U?$pair@$$CBW4Object_Subtype@@PEBVGameObject@@@std@@@std@@@std@@@std@@_N@1@_NAEAU?$pair@$$CBW4Object_Subtype@@PEBVGameObject@@@1@PEAU?$_Tree_node@U?$pair@$$CBW4Object_Subtype@@PEBVGameObject@@@std@@PEAX@1@@Z@4HA 0000000140000000     config.obj
 0003:fff90000       $unwind$?_Tidy_deallocate@?$basic_string@DU?$char_traits@D@std@@V?$allocator@D@2@@std@@QEAAXXZ 0000000140000000     config.obj
 0005:fff74000       $pdata$??$_Freenode0@V?$allocator@U?$_Tree_node@U?$pair@$$CBW4Object_Subtype@@PEBVGameObject@@@std@@PEAX@std@@@std@@@?$_Tree_node@U?$pair@$$CBW4Object_Subtype@@PEBVGameObject@@@std@@PEAX@std@@SAXAEAV?$allocator@U?$_Tree_node@U?$pair@$$CBW4Object_Subtype@@PEBVGameObject@@@std@@PEAX@std@@@1@PEAU01@@Z 0000000140000000     config.obj
 0003:fff90000       ??$_Maklocstr@_W@std@@YAPEA_WPEBDPEA_WAEBU_Cvtvec@@@Z$rtcName$0 0000000140000000     window-editor.obj
 0005:fff74000       $pdata$?_Adjust_manually_vector_aligned@std@@YAXAEAPEAXAEA_K@Z 0000000140000000     window-editor.obj
 0003:fff90000       $unwind$?_Adjust_manually_vector_aligned@std@@YAXAEAPEAXAEA_K@Z 0000000140000000     window-editor.obj
 0005:fff74000       $pdata$??2@YAPEAX_KPEAX@Z  0000000140000000     window-editor.obj
 0003:fff90000       $unwind$??2@YAPEAX_KPEAX@Z 0000000140000000     window-editor.obj
 0005:fff74000       $pdata$wmemcpy             0000000140000000     window-editor.obj
 0003:fff90000       $unwind$wmemcpy            0000000140000000     window-editor.obj
 0005:fff74000       $pdata$?fabs@@YAMM@Z       0000000140000000     window-editor.obj
 0003:fff90000       $unwind$?fabs@@YAMM@Z      0000000140000000     window-editor.obj
 0005:fff74000       $pdata$fabsf               0000000140000000     window-editor.obj
 0003:fff90000       $unwind$fabsf              0000000140000000     window-editor.obj
 0005:fff74000       $pdata$?__empty_global_delete@@YAXPEAX_K@Z 0000000140000000     window-editor.obj
 0003:fff90000       $unwind$?__empty_global_delete@@YAXPEAX_K@Z 0000000140000000     window-editor.obj
 0005:fff74000       $pdata$?__empty_global_delete@@YAXPEAX@Z 0000000140000000     window-editor.obj
 0003:fff90000       $unwind$?__empty_global_delete@@YAXPEAX@Z 0000000140000000     window-editor.obj
 0005:fff74000       $pdata$?_Tidy_init@?$basic_string@DU?$char_traits@D@std@@V?$allocator@D@2@@std@@QEAAXXZ 0000000140000000     config.obj
 0003:fff90000       $unwind$?_Tidy_init@?$basic_string@DU?$char_traits@D@std@@V?$allocator@D@2@@std@@QEAAXXZ 0000000140000000     config.obj
 0005:fff74000       $pdata$??$addressof@PEAU?$_Tree_node@U?$pair@$$CBW4Object_Subtype@@PEBVGameObject@@@std@@PEAX@std@@@std@@YAPEAPEAU?$_Tree_node@U?$pair@$$CBW4Object_Subtype@@PEBVGameObject@@@std@@PEAX@0@AEAPEAU10@@Z 0000000140000000     config.obj
 0005:fff74000       $pdata$?_Eos@?$basic_string@DU?$char_traits@D@std@@V?$allocator@D@2@@std@@QEAAX_K@Z 0000000140000000     config.obj
 0005:fff74000       $pdata$??$construct@PEAU?$_Tree_node@U?$pair@$$CBW4Object_Subtype@@PEBVGameObject@@@std@@PEAX@std@@AEAPEAU12@@?$_Default_allocator_traits@V?$allocator@U?$_Tree_node@U?$pair@$$CBW4Object_Subtype@@PEBVGameObject@@@std@@PEAX@std@@@std@@@std@@SAXAEAV?$allocator@U?$_Tree_node@U?$pair@$$CBW4Object_Subtype@@PEBVGameObject@@@std@@PEAX@std@@@1@QEAPEAU?$_Tree_node@U?$pair@$$CBW4Object_Subtype@@PEBVGameObject@@@std@@PEAX@1@AEAPEAU31@@Z 0000000140000000     config.obj
 0005:fff74000       $pdata$?_Calculate_growth@?$basic_string@DU?$char_traits@D@std@@V?$allocator@D@2@@std@@QEBA_K_K@Z 0000000140000000     config.obj
 0005:fff74000       $pdata$??$destroy@U?$pair@$$CBW4Object_Subtype@@PEBVGameObject@@@std@@@?$_Default_allocator_traits@V?$allocator@U?$_Tree_node@U?$pair@$$CBW4Object_Subtype@@PEBVGameObject@@@std@@PEAX@std@@@std@@@std@@SAXAEAV?$allocator@U?$_Tree_node@U?$pair@$$CBW4Object_Subtype@@PEBVGameObject@@@std@@PEAX@std@@@1@QEAU?$pair@$$CBW4Object_Subtype@@PEBVGameObject@@@1@@Z 0000000140000000     config.obj
 0003:fff90000       $unwind$?_Calculate_growth@?$basic_string@DU?$char_traits@D@std@@V?$allocator@D@2@@std@@QEBA_K_K@Z 0000000140000000     config.obj
 0005:fff74000       $pdata$??$_Get_size_of_n@$0DA@@std@@YA_K_K@Z 0000000140000000     config.obj
 0003:fff90000       $unwind$??$?0U_Exact_args_t@std@@$0A@@?$tuple@$$V@std@@QEAA@U_Exact_args_t@1@@Z 0000000140000000     config.obj
 0005:fff74000       $pdata$??$?0U_Exact_args_t@std@@$0A@@?$tuple@$$V@std@@QEAA@U_Exact_args_t@1@@Z 0000000140000000     config.obj
 0005:fff74000       $pdata$??$?0W4Object_Subtype@@@?$_Tuple_val@$$QEAW4Object_Subtype@@@std@@QEAA@$$QEAW4Object_Subtype@@@Z 0000000140000000     config.obj
 0005:fff74000       $pdata$??$?0$$QEAW4Object_Subtype@@$$Z$$V@?$pair@$$CBW4Object_Subtype@@PEBVGameObject@@@std@@QEAA@Upiecewise_construct_t@1@V?$tuple@$$QEAW4Object_Subtype@@@1@V?$tuple@$$V@1@@Z 0000000140000000     config.obj
 0003:fff90000       ?_Calculate_growth@?$basic_string@DU?$char_traits@D@std@@V?$allocator@D@2@@std@@QEBA_K_K@Z$rtcName$0 0000000140000000     config.obj
 0005:fff74000       $pdata$??$_Buy_if_not_node@AEAU?$pair@$$CBW4Object_Subtype@@PEBVGameObject@@@std@@@?$_Tree@V?$_Tmap_traits@W4Object_Subtype@@PEBVGameObject@@U?$less@W4Object_Subtype@@@std@@V?$allocator@U?$pair@$$CBW4Object_Subtype@@PEBVGameObject@@@std@@@4@$0A@@std@@@std@@IEAAPEAU?$_Tree_node@U?$pair@$$CBW4Object_Subtype@@PEBVGameObject@@@std@@PEAX@1@PEAU21@AEAU?$pair@$$CBW4Object_Subtype@@PEBVGameObject@@@1@@Z 0000000140000000     config.obj
 0005:fff74000       $pdata$?resize@?$basic_string@DU?$char_traits@D@std@@V?$allocator@D@2@@std@@QEAAX_KD@Z 0000000140000000     config.obj
 0005:fff74000       $pdata$??$destroy@PEAU?$_Tree_node@U?$pair@$$CBW4Object_Subtype@@PEBVGameObject@@@std@@PEAX@std@@@?$_Default_allocator_traits@V?$allocator@U?$_Tree_node@U?$pair@$$CBW4Object_Subtype@@PEBVGameObject@@@std@@PEAX@std@@@std@@@std@@SAXAEAV?$allocator@U?$_Tree_node@U?$pair@$$CBW4Object_Subtype@@PEBVGameObject@@@std@@PEAX@std@@@1@QEAPEAU?$_Tree_node@U?$pair@$$CBW4Object_Subtype@@PEBVGameObject@@@std@@PEAX@1@@Z 0000000140000000     config.obj
 0005:fff74000       $pdata$?max_size@?$basic_string@DU?$char_traits@D@std@@V?$allocator@D@2@@std@@QEBA_KXZ 0000000140000000     config.obj
 0005:fff74000       $pdata$??$forward@AEAPEAU?$_Tree_node@U?$pair@$$CBW4Object_Subtype@@PEBVGameObject@@@std@@PEAX@std@@@std@@YAAEAPEAU?$_Tree_node@U?$pair@$$CBW4Object_Subtype@@PEBVGameObject@@@std@@PEAX@0@AEAPEAU10@@Z 0000000140000000     config.obj
 0003:fff90000       $unwind$?max_size@?$basic_string@DU?$char_traits@D@std@@V?$allocator@D@2@@std@@QEBA_KXZ 0000000140000000     config.obj
 0005:fff74000       $pdata$??$?0V?$tuple@$$QEAW4Object_Subtype@@@std@@V?$tuple@$$V@1@$0A@$$Z$S@?$pair@$$CBW4Object_Subtype@@PEBVGameObject@@@std@@QEAA@AEAV?$tuple@$$QEAW4Object_Subtype@@@1@AEAV?$tuple@$$V@1@U?$integer_sequence@_K$0A@@1@U?$integer_sequence@_K$S@1@@Z 0000000140000000     config.obj
 0005:fff74000       $pdata$??$move@AEAV?$tuple@$$QEAW4Object_Subtype@@@std@@@std@@YA$$QEAV?$tuple@$$QEAW4Object_Subtype@@@0@AEAV10@@Z 0000000140000000     config.obj
 0005:fff74000       $pdata$??$get@$0A@$$QEAW4Object_Subtype@@@std@@YA$$QEAW4Object_Subtype@@$$QEAV?$tuple@$$QEAW4Object_Subtype@@@0@@Z 0000000140000000     config.obj
 0003:fff90000       ?max_size@?$basic_string@DU?$char_traits@D@std@@V?$allocator@D@2@@std@@QEBA_KXZ$rtcName$0 0000000140000000     config.obj
 0005:fff74000       $pdata$??$forward@$$QEAW4Object_Subtype@@@std@@YA$$QEAW4Object_Subtype@@AEAW41@@Z 0000000140000000     config.obj
 0003:fff90000       $unwind$?__empty_global_delete@@YAXPEAX@Z 0000000140000000     container.obj
 0005:fff74000       $pdata$?__empty_global_delete@@YAXPEAX@Z 0000000140000000     container.obj
 0003:fff90000       $unwind$?__empty_global_delete@@YAXPEAX_K@Z 0000000140000000     container.obj
 0005:fff74000       $pdata$?__empty_global_delete@@YAXPEAX_K@Z 0000000140000000     container.obj
 0003:fff90000       $unwind$wmemcpy            0000000140000000     container.obj
 0005:fff74000       $pdata$wmemcpy             0000000140000000     container.obj
 0003:fff90000       ??$_Maklocstr@_W@std@@YAPEA_WPEBDPEA_WAEBU_Cvtvec@@@Z$rtcName$0 0000000140000000     container.obj
 0003:fff90000       $unwind$??$_Maklocstr@_W@std@@YAPEA_WPEBDPEA_WAEBU_Cvtvec@@@Z 0000000140000000     container.obj
 0005:fff74000       $pdata$??$_Maklocstr@_W@std@@YAPEA_WPEBDPEA_WAEBU_Cvtvec@@@Z 0000000140000000     container.obj
 0003:fff90000       $unwind$?_Maklocwcs@std@@YAPEA_WPEB_W@Z 0000000140000000     container.obj
 0005:fff74000       $pdata$?_Maklocwcs@std@@YAPEA_WPEB_W@Z 0000000140000000     container.obj
 0003:fff90000       $unwind$??$_Getvals@_W@?$time_get@DV?$istreambuf_iterator@DU?$char_traits@D@std@@@std@@@std@@IEAAX_WAEBV_Locinfo@1@@Z 0000000140000000     container.obj
 0005:fff74000       $pdata$??$_Getvals@_W@?$time_get@DV?$istreambuf_iterator@DU?$char_traits@D@std@@@std@@@std@@IEAAX_WAEBV_Locinfo@1@@Z 0000000140000000     container.obj
 0003:fff90000       $unwind$??$_Getvals@_W@?$time_get@_WV?$istreambuf_iterator@_WU?$char_traits@_W@std@@@std@@@std@@IEAAX_WAEBV_Locinfo@1@@Z 0000000140000000     container.obj
 0005:fff74000       $pdata$??$_Getvals@_W@?$time_get@_WV?$istreambuf_iterator@_WU?$char_traits@_W@std@@@std@@@std@@IEAAX_WAEBV_Locinfo@1@@Z 0000000140000000     container.obj
 0005:fff74000       $pdata$?size@?$basic_string@DU?$char_traits@D@std@@V?$allocator@D@2@@std@@QEBA_KXZ 0000000140000000     config.obj
 0005:fff74000       $pdata$??0?$Container@VObject@@@@QEAA@AEBV?$Vector2@M@sf@@0@Z 0000000140000000     container.obj
 0005:fff74000       $pdata$??1?$Container@VObject@@@@UEAA@XZ 0000000140000000     container.obj
 0005:fff74000       $pdata$?c_str@?$basic_string@DU?$char_traits@D@std@@V?$allocator@D@2@@std@@QEBAPEBDXZ 0000000140000000     config.obj
 0005:fff74000       $pdata$?SetPos@?$Container@VObject@@@@UEAAXAEBV?$Vector2@M@sf@@@Z 0000000140000000     container.obj
 0005:fff74000       $pdata$?push_back@?$basic_string@DU?$char_traits@D@std@@V?$allocator@D@2@@std@@QEAAXD@Z 0000000140000000     config.obj
 0005:fff74000       $pdata$?AddWidget@?$Container@VObject@@@@UEAAXPEAVObject@@@Z 0000000140000000     container.obj
 0005:fff74000       $pdata$??A?$basic_string@DU?$char_traits@D@std@@V?$allocator@D@2@@std@@QEAAAEAD_K@Z 0000000140000000     config.obj
 0005:fff74000       $pdata$?RemoveWidget@?$Container@VObject@@@@QEAA_NPEAVObject@@_N@Z 0000000140000000     container.obj
 0005:fff74000       $pdata$?GetWidget@?$Container@VObject@@@@QEBAPEAVObject@@_K@Z 0000000140000000     container.obj
 0005:fff74000       $pdata$?clear@?$basic_string@DU?$char_traits@D@std@@V?$allocator@D@2@@std@@QEAAXXZ 0000000140000000     config.obj
 0005:fff74000       $pdata$?GetWidgetsCount@?$Container@VObject@@@@QEBA_KXZ 0000000140000000     container.obj
 0005:fff74000       $pdata$?insert@?$basic_string@DU?$char_traits@D@std@@V?$allocator@D@2@@std@@QEAAAEAV12@_KQEBD@Z 0000000140000000     config.obj
 0005:fff74000       $pdata$?Draw@?$Container@VObject@@@@UEAAXPEAVRenderWindow@sf@@@Z 0000000140000000     container.obj
 0005:fff74000       $pdata$?insert@?$basic_string@DU?$char_traits@D@std@@V?$allocator@D@2@@std@@QEAAAEAV12@_KQEBD0@Z 0000000140000000     config.obj
 0005:fff74000       $pdata$?Update@?$Container@VObject@@@@UEAAXAEBVTime@sf@@@Z 0000000140000000     container.obj
 0005:fff74000       $pdata$?assign@?$basic_string@DU?$char_traits@D@std@@V?$allocator@D@2@@std@@QEAAAEAV12@_KD@Z 0000000140000000     config.obj
 0005:fff74000       $pdata$?HandleEvent@?$Container@VObject@@@@UEAAXAEBVEvent@sf@@@Z 0000000140000000     container.obj
 0005:fff74000       $pdata$?assign@?$basic_string@DU?$char_traits@D@std@@V?$allocator@D@2@@std@@QEAAAEAV12@QEBD@Z 0000000140000000     config.obj
 0005:fff74000       $pdata$??_G?$Container@VObject@@@@UEAAPEAXI@Z 0000000140000000     container.obj
 0003:fff90000       $unwind$?assign@?$basic_string@DU?$char_traits@D@std@@V?$allocator@D@2@@std@@QEAAAEAV12@QEBD@Z 0000000140000000     config.obj
 0005:fff74000       $pdata$??0?$Container@VWidget@@@@QEAA@AEBV?$Vector2@M@sf@@0@Z 0000000140000000     container.obj
 0005:fff74000       $pdata$?assign@?$basic_string@DU?$char_traits@D@std@@V?$allocator@D@2@@std@@QEAAAEAV12@QEBD_K@Z 0000000140000000     config.obj
 0005:fff74000       $pdata$??1?$Container@VWidget@@@@UEAA@XZ 0000000140000000     container.obj
 0003:fff90000       $unwind$?assign@?$basic_string@DU?$char_traits@D@std@@V?$allocator@D@2@@std@@QEAAAEAV12@QEBD_K@Z 0000000140000000     config.obj
 0005:fff74000       $pdata$?SetPos@?$Container@VWidget@@@@UEAAXAEBV?$Vector2@M@sf@@@Z 0000000140000000     container.obj
 0005:fff74000       $pdata$?assign@?$basic_string@DU?$char_traits@D@std@@V?$allocator@D@2@@std@@QEAAAEAV12@AEBV12@_K_K@Z 0000000140000000     config.obj
 0005:fff74000       $pdata$?AddWidget@?$Container@VWidget@@@@UEAAXPEAVWidget@@@Z 0000000140000000     container.obj
 0005:fff74000       $pdata$?append@?$basic_string@DU?$char_traits@D@std@@V?$allocator@D@2@@std@@QEAAAEAV12@_KD@Z 0000000140000000     config.obj
 0005:fff74000       $pdata$?RemoveWidget@?$Container@VWidget@@@@QEAA_NPEAVWidget@@_N@Z 0000000140000000     container.obj
 0005:fff74000       $pdata$?append@?$basic_string@DU?$char_traits@D@std@@V?$allocator@D@2@@std@@QEAAAEAV12@QEBD_K@Z 0000000140000000     config.obj
 0005:fff74000       $pdata$?GetWidget@?$Container@VWidget@@@@QEBAPEAVWidget@@_K@Z 0000000140000000     container.obj
 0003:fff90000       $unwind$?append@?$basic_string@DU?$char_traits@D@std@@V?$allocator@D@2@@std@@QEAAAEAV12@QEBD_K@Z 0000000140000000     config.obj
 0005:fff74000       $pdata$?GetWidgetsCount@?$Container@VWidget@@@@QEBA_KXZ 0000000140000000     container.obj
 0005:fff74000       $pdata$?append@?$basic_string@DU?$char_traits@D@std@@V?$allocator@D@2@@std@@QEAAAEAV12@AEBV12@@Z 0000000140000000     config.obj
 0005:fff74000       $pdata$?Draw@?$Container@VWidget@@@@UEAAXPEAVRenderWindow@sf@@@Z 0000000140000000     container.obj
 0005:fff74000       $pdata$??Y?$basic_string@DU?$char_traits@D@std@@V?$allocator@D@2@@std@@QEAAAEAV01@D@Z 0000000140000000     config.obj
 0005:fff74000       $pdata$?Update@?$Container@VWidget@@@@UEAAXAEBVTime@sf@@@Z 0000000140000000     container.obj
 0005:fff74000       $pdata$??Y?$basic_string@DU?$char_traits@D@std@@V?$allocator@D@2@@std@@QEAAAEAV01@AEBV01@@Z 0000000140000000     config.obj
 0005:fff74000       $pdata$?HandleEvent@?$Container@VWidget@@@@UEAAXAEBVEvent@sf@@@Z 0000000140000000     container.obj
 0003:fff90000       $ip2state$??1?$basic_string@DU?$char_traits@D@std@@V?$allocator@D@2@@std@@QEAA@XZ 0000000140000000     config.obj
 0005:fff74000       $pdata$??_G?$Container@VWidget@@@@UEAAPEAXI@Z 0000000140000000     container.obj
 0003:fff90000       $cppxdata$??1?$basic_string@DU?$char_traits@D@std@@V?$allocator@D@2@@std@@QEAA@XZ 0000000140000000     config.obj
 0005:fff74000       $pdata$??0?$Container@VGameObject@@@@QEAA@AEBV?$Vector2@M@sf@@0@Z 0000000140000000     container.obj
 0005:fff74000       $pdata$??1?$basic_string@DU?$char_traits@D@std@@V?$allocator@D@2@@std@@QEAA@XZ 0000000140000000     config.obj
 0005:fff74000       $pdata$??1?$Container@VGameObject@@@@UEAA@XZ 0000000140000000     container.obj
 0003:fff90000       $unwind$??1?$basic_string@DU?$char_traits@D@std@@V?$allocator@D@2@@std@@QEAA@XZ 0000000140000000     config.obj
 0005:fff74000       $pdata$?SetPos@?$Container@VGameObject@@@@UEAAXAEBV?$Vector2@M@sf@@@Z 0000000140000000     container.obj
 0003:fff90000       $ip2state$?_Assign_rv_contents_with_alloc_always_equal@?$basic_string@DU?$char_traits@D@std@@V?$allocator@D@2@@std@@QEAAX$$QEAV12@U?$integral_constant@_N$00@2@@Z 0000000140000000     config.obj
 0005:fff74000       $pdata$?AddWidget@?$Container@VGameObject@@@@UEAAXPEAVGameObject@@@Z 0000000140000000     container.obj
 0003:fff90000       $cppxdata$?_Assign_rv_contents_with_alloc_always_equal@?$basic_string@DU?$char_traits@D@std@@V?$allocator@D@2@@std@@QEAAX$$QEAV12@U?$integral_constant@_N$00@2@@Z 0000000140000000     config.obj
 0005:fff74000       $pdata$?RemoveWidget@?$Container@VGameObject@@@@QEAA_NPEAVGameObject@@_N@Z 0000000140000000     container.obj
 0005:fff74000       $pdata$?_Assign_rv_contents_with_alloc_always_equal@?$basic_string@DU?$char_traits@D@std@@V?$allocator@D@2@@std@@QEAAX$$QEAV12@U?$integral_constant@_N$00@2@@Z 0000000140000000     config.obj
 0005:fff74000       $pdata$?GetWidget@?$Container@VGameObject@@@@QEBAPEAVGameObject@@_K@Z 0000000140000000     container.obj
 0003:fff90000       $unwind$?_Assign_rv_contents_with_alloc_always_equal@?$basic_string@DU?$char_traits@D@std@@V?$allocator@D@2@@std@@QEAAX$$QEAV12@U?$integral_constant@_N$00@2@@Z 0000000140000000     config.obj
 0005:fff74000       $pdata$?GetWidgetsCount@?$Container@VGameObject@@@@QEBA_KXZ 0000000140000000     container.obj
 0005:fff74000       $pdata$?_Assign_rv_contents@?$basic_string@DU?$char_traits@D@std@@V?$allocator@D@2@@std@@QEAAX$$QEAV12@U?$integral_constant@_N$00@2@@Z 0000000140000000     config.obj
 0005:fff74000       $pdata$?Draw@?$Container@VGameObject@@@@UEAAXPEAVRenderWindow@sf@@@Z 0000000140000000     container.obj
 0005:fff74000       $pdata$?Update@?$Container@VGameObject@@@@UEAAXAEBVTime@sf@@@Z 0000000140000000     container.obj
 0005:fff74000       $pdata$??4?$basic_string@DU?$char_traits@D@std@@V?$allocator@D@2@@std@@QEAAAEAV01@$$QEAV01@@Z 0000000140000000     config.obj
 0005:fff74000       $pdata$?HandleEvent@?$Container@VGameObject@@@@UEAAXAEBVEvent@sf@@@Z 0000000140000000     container.obj
 0003:fff90000       $ip2state$??0?$basic_string@DU?$char_traits@D@std@@V?$allocator@D@2@@std@@QEAA@$$QEAV01@@Z 0000000140000000     config.obj
 0005:fff74000       $pdata$??_G?$Container@VGameObject@@@@UEAAPEAXI@Z 0000000140000000     container.obj
 0003:fff90000       $unwind$??$_Maklocstr@D@std@@YAPEADPEBDPEADAEBU_Cvtvec@@@Z 0000000140000000     container.obj
 0005:fff74000       $pdata$??$_Maklocstr@D@std@@YAPEADPEBDPEADAEBU_Cvtvec@@@Z 0000000140000000     container.obj
 0003:fff90000       $unwind$?__empty_global_delete@@YAXPEAX@Z 0000000140000000     engine.obj
 0005:fff74000       $pdata$?__empty_global_delete@@YAXPEAX@Z 0000000140000000     engine.obj
 0003:fff90000       $unwind$?__empty_global_delete@@YAXPEAX_K@Z 0000000140000000     engine.obj
 0005:fff74000       $pdata$?__empty_global_delete@@YAXPEAX_K@Z 0000000140000000     engine.obj
 0003:fff90000       $unwind$??2@YAPEAX_KPEAX@Z 0000000140000000     engine.obj
 0005:fff74000       $pdata$??2@YAPEAX_KPEAX@Z  0000000140000000     engine.obj
 0003:fff90000       $unwind$wmemcpy            0000000140000000     engine.obj
 0005:fff74000       $pdata$wmemcpy             0000000140000000     engine.obj
 0003:fff90000       $unwind$??0_Container_proxy@std@@QEAA@XZ 0000000140000000     engine.obj
 0005:fff74000       $pdata$??0_Container_proxy@std@@QEAA@XZ 0000000140000000     engine.obj
 0003:fff90000       $unwind$??0_Container_base12@std@@QEAA@XZ 0000000140000000     engine.obj
 0005:fff74000       $pdata$??0_Container_base12@std@@QEAA@XZ 0000000140000000     engine.obj
 0003:fff90000       $unwind$?_Getpfirst@_Container_base12@std@@QEBAPEAPEAU_Iterator_base12@2@XZ 0000000140000000     engine.obj
 0005:fff74000       $pdata$?_Getpfirst@_Container_base12@std@@QEBAPEAPEAU_Iterator_base12@2@XZ 0000000140000000     engine.obj
 0003:fff90000       ?_Orphan_all@_Container_base12@std@@QEAAXXZ$rtcName$0 0000000140000000     engine.obj
 0003:fff90000       $unwind$?_Orphan_all@_Container_base12@std@@QEAAXXZ 0000000140000000     engine.obj
 0005:fff74000       $pdata$?_Orphan_all@_Container_base12@std@@QEAAXXZ 0000000140000000     engine.obj
 0003:fff90000       $ip2state$?_Orphan_all@_Container_base12@std@@QEAAXXZ 0000000140000000     engine.obj
 0003:fff90000       $unwind$??0_Iterator_base12@std@@QEAA@XZ 0000000140000000     engine.obj
 0005:fff74000       $pdata$??0_Iterator_base12@std@@QEAA@XZ 0000000140000000     engine.obj
 0003:fff90000       $unwind$??0_Iterator_base12@std@@QEAA@AEBU01@@Z 0000000140000000     engine.obj
 0005:fff74000       $pdata$??0_Iterator_base12@std@@QEAA@AEBU01@@Z 0000000140000000     engine.obj
 0003:fff90000       ??4_Iterator_base12@std@@QEAAAEAU01@AEBU01@@Z$rtcName$0 0000000140000000     engine.obj
 0003:fff90000       $unwind$??4_Iterator_base12@std@@QEAAAEAU01@AEBU01@@Z 0000000140000000     engine.obj
 0005:fff74000       $pdata$??4_Iterator_base12@std@@QEAAAEAU01@AEBU01@@Z 0000000140000000     engine.obj
 0003:fff90000       $ip2state$??4_Iterator_base12@std@@QEAAAEAU01@AEBU01@@Z 0000000140000000     engine.obj
 0003:fff90000       ??1_Iterator_base12@std@@QEAA@XZ$rtcName$0 0000000140000000     engine.obj
 0003:fff90000       $unwind$??1_Iterator_base12@std@@QEAA@XZ 0000000140000000     engine.obj
 0005:fff74000       $pdata$??1_Iterator_base12@std@@QEAA@XZ 0000000140000000     engine.obj
 0003:fff90000       $ip2state$??1_Iterator_base12@std@@QEAA@XZ 0000000140000000     engine.obj
 0003:fff90000       ?_Adopt@_Iterator_base12@std@@QEAAXPEBU_Container_base12@2@@Z$rtcName$0 0000000140000000     engine.obj
 0003:fff90000       $unwind$?_Adopt@_Iterator_base12@std@@QEAAXPEBU_Container_base12@2@@Z 0000000140000000     engine.obj
 0005:fff74000       $pdata$?_Adopt@_Iterator_base12@std@@QEAAXPEBU_Container_base12@2@@Z 0000000140000000     engine.obj
 0003:fff90000       $ip2state$?_Adopt@_Iterator_base12@std@@QEAAXPEBU_Container_base12@2@@Z 0000000140000000     engine.obj
 0003:fff90000       $unwind$?_Clrcont@_Iterator_base12@std@@QEAAXXZ 0000000140000000     engine.obj
 0005:fff74000       $pdata$?_Clrcont@_Iterator_base12@std@@QEAAXXZ 0000000140000000     engine.obj
 0003:fff90000       $unwind$?_Getcont@_Iterator_base12@std@@QEBAPEBU_Container_base12@2@XZ 0000000140000000     engine.obj
 0005:fff74000       $pdata$?_Getcont@_Iterator_base12@std@@QEBAPEBU_Container_base12@2@XZ 0000000140000000     engine.obj
 0003:fff90000       $unwind$?_Getpnext@_Iterator_base12@std@@QEAAPEAPEAU12@XZ 0000000140000000     engine.obj
 0005:fff74000       $pdata$?_Getpnext@_Iterator_base12@std@@QEAAPEAPEAU12@XZ 0000000140000000     engine.obj
 0003:fff90000       $unwind$?_Orphan_me@_Iterator_base12@std@@QEAAXXZ 0000000140000000     engine.obj
 0005:fff74000       $pdata$?_Orphan_me@_Iterator_base12@std@@QEAAXXZ 0000000140000000     engine.obj
 0003:fff90000       $cppxdata$?_Orphan_me@_Iterator_base12@std@@QEAAXXZ 0000000140000000     engine.obj
 0003:fff90000       $ip2state$?_Orphan_me@_Iterator_base12@std@@QEAAXXZ 0000000140000000     engine.obj
 0003:fff90000       $unwind$?max@?$numeric_limits@_J@std@@SA_JXZ 0000000140000000     engine.obj
 0005:fff74000       $pdata$?max@?$numeric_limits@_J@std@@SA_JXZ 0000000140000000     engine.obj
 0003:fff90000       $unwind$?_Allocate@_Default_allocate_traits@std@@SAPEAX_K@Z 0000000140000000     engine.obj
 0005:fff74000       $pdata$?_Allocate@_Default_allocate_traits@std@@SAPEAX_K@Z 0000000140000000     engine.obj
 0003:fff90000       $unwind$?_Adjust_manually_vector_aligned@std@@YAXAEAPEAXAEA_K@Z 0000000140000000     engine.obj
 0005:fff74000       $pdata$?_Adjust_manually_vector_aligned@std@@YAXAEAPEAXAEA_K@Z 0000000140000000     engine.obj
 0003:fff90000       $cppxdata$??0?$basic_string@DU?$char_traits@D@std@@V?$allocator@D@2@@std@@QEAA@$$QEAV01@@Z 0000000140000000     config.obj
 0005:fff74000       $pdata$??$_Maklocstr@D@std@@YAPEADPEBDPEADAEBU_Cvtvec@@@Z 0000000140000000     window-game.obj
 0003:fff90000       $unwind$??$_Maklocstr@D@std@@YAPEADPEBDPEADAEBU_Cvtvec@@@Z 0000000140000000     window-game.obj
 0005:fff74000       $pdata$??_GWindowGame@@UEAAPEAXI@Z 0000000140000000     window-game.obj
 0005:fff74000       $pdata$??0locale@std@@QEAA@XZ 0000000140000000     engine.obj
 0005:fff74000       $pdata$?HandleEvent@WindowGame@@UEAAXAEBVEvent@sf@@@Z 0000000140000000     window-game.obj
 0005:fff74000       $pdata$??0?$basic_string@DU?$char_traits@D@std@@V?$allocator@D@2@@std@@QEAA@$$QEAV01@@Z 0000000140000000     config.obj
 0005:fff74000       $pdata$??1WindowGame@@UEAA@XZ 0000000140000000     window-game.obj
 0003:fff90000       $unwind$??0?$basic_string@DU?$char_traits@D@std@@V?$allocator@D@2@@std@@QEAA@$$QEAV01@@Z 0000000140000000     config.obj
 0005:fff74000       $pdata$?dtor$1@?0???0WindowGame@@QEAA@PEAVEngine@@AEBV?$Vector2@M@sf@@1@Z@4HA 0000000140000000     window-game.obj
 0005:fff74000       $pdata$??1locale@std@@QEAA@XZ 0000000140000000     engine.obj
 0005:fff74000       $pdata$?dtor$0@?0???0WindowGame@@QEAA@PEAVEngine@@AEBV?$Vector2@M@sf@@1@Z@4HA 0000000140000000     window-game.obj
 0005:fff74000       $pdata$?_Construct@?$basic_string@DU?$char_traits@D@std@@V?$allocator@D@2@@std@@QEAAXQEAD0Urandom_access_iterator_tag@2@@Z 0000000140000000     config.obj
 0003:fff90000       ??$_Maklocstr@_W@std@@YAPEA_WPEBDPEA_WAEBU_Cvtvec@@@Z$rtcName$0 0000000140000000     engine.obj
 0003:fff90000       $unwind$??$_Maklocstr@_W@std@@YAPEA_WPEBDPEA_WAEBU_Cvtvec@@@Z 0000000140000000     engine.obj
 0005:fff74000       $pdata$??$_Maklocstr@_W@std@@YAPEA_WPEBDPEA_WAEBU_Cvtvec@@@Z 0000000140000000     engine.obj
 0005:fff74000       $pdata$??0WindowGame@@QEAA@PEAVEngine@@AEBV?$Vector2@M@sf@@1@Z 0000000140000000     window-game.obj
 0003:fff90000       $unwind$?_Maklocwcs@std@@YAPEA_WPEB_W@Z 0000000140000000     engine.obj
 0005:fff74000       $pdata$??0?$Vector2@M@sf@@QEAA@MM@Z 0000000140000000     window-game.obj
 0003:fff90000       $unwind$??0?$Vector2@M@sf@@QEAA@MM@Z 0000000140000000     window-game.obj
 0005:fff74000       $pdata$??$_Getvals@_W@?$time_get@_WV?$istreambuf_iterator@_WU?$char_traits@_W@std@@@std@@@std@@IEAAX_WAEBV_Locinfo@1@@Z 0000000140000000     window-game.obj
 0003:fff90000       $unwind$??$_Getvals@_W@?$time_get@_WV?$istreambuf_iterator@_WU?$char_traits@_W@std@@@std@@@std@@IEAAX_WAEBV_Locinfo@1@@Z 0000000140000000     window-game.obj
 0005:fff74000       $pdata$??$_Getvals@_W@?$time_get@DV?$istreambuf_iterator@DU?$char_traits@D@std@@@std@@@std@@IEAAX_WAEBV_Locinfo@1@@Z 0000000140000000     window-game.obj
 0003:fff90000       $unwind$??$_Getvals@_W@?$time_get@DV?$istreambuf_iterator@DU?$char_traits@D@std@@@std@@@std@@IEAAX_WAEBV_Locinfo@1@@Z 0000000140000000     window-game.obj
 0005:fff74000       $pdata$?_Maklocwcs@std@@YAPEA_WPEB_W@Z 0000000140000000     window-game.obj
 0003:fff90000       $unwind$?_Maklocwcs@std@@YAPEA_WPEB_W@Z 0000000140000000     window-game.obj
 0005:fff74000       $pdata$??$_Maklocstr@_W@std@@YAPEA_WPEBDPEA_WAEBU_Cvtvec@@@Z 0000000140000000     window-game.obj
 0003:fff90000       $unwind$??$_Maklocstr@_W@std@@YAPEA_WPEBDPEA_WAEBU_Cvtvec@@@Z 0000000140000000     window-game.obj
 0005:fff74000       $pdata$?_Maklocwcs@std@@YAPEA_WPEB_W@Z 0000000140000000     engine.obj
 0003:fff90000       $unwind$??$_Getvals@_W@?$time_get@DV?$istreambuf_iterator@DU?$char_traits@D@std@@@std@@@std@@IEAAX_WAEBV_Locinfo@1@@Z 0000000140000000     engine.obj
 0005:fff74000       $pdata$??$_Getvals@_W@?$time_get@DV?$istreambuf_iterator@DU?$char_traits@D@std@@@std@@@std@@IEAAX_WAEBV_Locinfo@1@@Z 0000000140000000     engine.obj
 0003:fff90000       $unwind$??$_Getvals@_W@?$time_get@_WV?$istreambuf_iterator@_WU?$char_traits@_W@std@@@std@@@std@@IEAAX_WAEBV_Locinfo@1@@Z 0000000140000000     engine.obj
 0003:fff90000       ??$_Maklocstr@_W@std@@YAPEA_WPEBDPEA_WAEBU_Cvtvec@@@Z$rtcName$0 0000000140000000     window-game.obj
 0005:fff74000       $pdata$wmemcpy             0000000140000000     window-game.obj
 0003:fff90000       $unwind$wmemcpy            0000000140000000     window-game.obj
 0005:fff74000       $pdata$?__empty_global_delete@@YAXPEAX_K@Z 0000000140000000     window-game.obj
 0003:fff90000       $unwind$?__empty_global_delete@@YAXPEAX_K@Z 0000000140000000     window-game.obj
 0005:fff74000       $pdata$?__empty_global_delete@@YAXPEAX@Z 0000000140000000     window-game.obj
 0003:fff90000       $unwind$?__empty_global_delete@@YAXPEAX@Z 0000000140000000     window-game.obj
 0005:fff74000       $pdata$??$_Getvals@_W@?$time_get@_WV?$istreambuf_iterator@_WU?$char_traits@_W@std@@@std@@@std@@IEAAX_WAEBV_Locinfo@1@@Z 0000000140000000     engine.obj
 0005:fff74000       $pdata$?dtor$0@?0???0?$basic_string@DU?$char_traits@D@std@@V?$allocator@D@2@@std@@QEAA@_KD@Z@4HA 0000000140000000     config.obj
 0005:fff74000       $pdata$??0ContextSettings@sf@@QEAA@IIIIII_N@Z 0000000140000000     engine.obj
 0003:fff90000       $unwind$??0?$Vector2@M@sf@@QEAA@MM@Z 0000000140000000     engine.obj
 0005:fff74000       $pdata$??$_Maklocstr@D@std@@YAPEADPEBDPEADAEBU_Cvtvec@@@Z 0000000140000000     window.obj
 0003:fff90000       $unwind$??$_Maklocstr@D@std@@YAPEADPEBDPEADAEBU_Cvtvec@@@Z 0000000140000000     window.obj
 0005:fff74000       $pdata$??_G?$Window@VWidget@@@@UEAAPEAXI@Z 0000000140000000     window.obj
 0005:fff74000       $pdata$??0?$Vector2@M@sf@@QEAA@MM@Z 0000000140000000     engine.obj
 0005:fff74000       $pdata$??1?$Window@VWidget@@@@UEAA@XZ 0000000140000000     window.obj
 0005:fff74000       $pdata$??_GRenderWindow@sf@@UEAAPEAXI@Z 0000000140000000     engine.obj
 0005:fff74000       $pdata$??0?$Window@VWidget@@@@QEAA@AEBV?$Vector2@M@sf@@0@Z 0000000140000000     window.obj
 0005:fff74000       $pdata$??0?$basic_string@DU?$char_traits@D@std@@V?$allocator@D@2@@std@@QEAA@_KD@Z 0000000140000000     config.obj
 0005:fff74000       $pdata$??$_Getvals@_W@?$time_get@_WV?$istreambuf_iterator@_WU?$char_traits@_W@std@@@std@@@std@@IEAAX_WAEBV_Locinfo@1@@Z 0000000140000000     window.obj
 0003:fff90000       $unwind$??$_Getvals@_W@?$time_get@_WV?$istreambuf_iterator@_WU?$char_traits@_W@std@@@std@@@std@@IEAAX_WAEBV_Locinfo@1@@Z 0000000140000000     window.obj
 0005:fff74000       $pdata$??$_Getvals@_W@?$time_get@DV?$istreambuf_iterator@DU?$char_traits@D@std@@@std@@@std@@IEAAX_WAEBV_Locinfo@1@@Z 0000000140000000     window.obj
 0003:fff90000       $unwind$??$_Getvals@_W@?$time_get@DV?$istreambuf_iterator@DU?$char_traits@D@std@@@std@@@std@@IEAAX_WAEBV_Locinfo@1@@Z 0000000140000000     window.obj
 0005:fff74000       $pdata$?_Maklocwcs@std@@YAPEA_WPEB_W@Z 0000000140000000     window.obj
 0003:fff90000       $unwind$?_Maklocwcs@std@@YAPEA_WPEB_W@Z 0000000140000000     window.obj
 0005:fff74000       $pdata$??$_Maklocstr@_W@std@@YAPEA_WPEBDPEA_WAEBU_Cvtvec@@@Z 0000000140000000     window.obj
 0003:fff90000       $unwind$??$_Maklocstr@_W@std@@YAPEA_WPEBDPEA_WAEBU_Cvtvec@@@Z 0000000140000000     window.obj
 0005:fff74000       $pdata$??0?$allocator@U?$_Tree_node@U?$pair@$$CBW4Object_Subtype@@PEBVGameObject@@@std@@PEAX@std@@@std@@QEAA@XZ 0000000140000000     engine.obj
 0003:fff90000       $unwind$?deallocate@?$allocator@U?$_Tree_node@U?$pair@$$CBW4Object_Subtype@@PEBVGameObject@@@std@@PEAX@std@@@std@@QEAAXQEAU?$_Tree_node@U?$pair@$$CBW4Object_Subtype@@PEBVGameObject@@@std@@PEAX@2@_K@Z 0000000140000000     engine.obj
 0005:fff74000       $pdata$?deallocate@?$allocator@U?$_Tree_node@U?$pair@$$CBW4Object_Subtype@@PEBVGameObject@@@std@@PEAX@std@@@std@@QEAAXQEAU?$_Tree_node@U?$pair@$$CBW4Object_Subtype@@PEBVGameObject@@@std@@PEAX@2@_K@Z 0000000140000000     engine.obj
 0003:fff90000       $unwind$?allocate@?$allocator@U?$_Tree_node@U?$pair@$$CBW4Object_Subtype@@PEBVGameObject@@@std@@PEAX@std@@@std@@QEAAPEAU?$_Tree_node@U?$pair@$$CBW4Object_Subtype@@PEBVGameObject@@@std@@PEAX@2@_K@Z 0000000140000000     engine.obj
 0003:fff90000       ??$_Maklocstr@_W@std@@YAPEA_WPEBDPEA_WAEBU_Cvtvec@@@Z$rtcName$0 0000000140000000     window.obj
 0005:fff74000       $pdata$wmemcpy             0000000140000000     window.obj
 0003:fff90000       $unwind$wmemcpy            0000000140000000     window.obj
 0005:fff74000       $pdata$?__empty_global_delete@@YAXPEAX_K@Z 0000000140000000     window.obj
 0003:fff90000       $unwind$?__empty_global_delete@@YAXPEAX_K@Z 0000000140000000     window.obj
 0005:fff74000       $pdata$?__empty_global_delete@@YAXPEAX@Z 0000000140000000     window.obj
 0003:fff90000       $unwind$?__empty_global_delete@@YAXPEAX@Z 0000000140000000     window.obj
 0005:fff74000       $pdata$?allocate@?$allocator@U?$_Tree_node@U?$pair@$$CBW4Object_Subtype@@PEBVGameObject@@@std@@PEAX@std@@@std@@QEAAPEAU?$_Tree_node@U?$pair@$$CBW4Object_Subtype@@PEBVGameObject@@@std@@PEAX@2@_K@Z 0000000140000000     engine.obj
 0005:fff74000       $pdata$?deallocate@?$_Default_allocator_traits@V?$allocator@U?$_Tree_node@U?$pair@$$CBW4Object_Subtype@@PEBVGameObject@@@std@@PEAX@std@@@std@@@std@@SAXAEAV?$allocator@U?$_Tree_node@U?$pair@$$CBW4Object_Subtype@@PEBVGameObject@@@std@@PEAX@std@@@2@QEAU?$_Tree_node@U?$pair@$$CBW4Object_Subtype@@PEBVGameObject@@@std@@PEAX@2@_K@Z 0000000140000000     engine.obj
 0005:fff74000       $pdata$??$_Maklocstr@D@std@@YAPEADPEBDPEADAEBU_Cvtvec@@@Z 0000000140000000     widget-game-editor.obj
 0003:fff90000       $unwind$??$_Maklocstr@D@std@@YAPEADPEBDPEADAEBU_Cvtvec@@@Z 0000000140000000     widget-game-editor.obj
 0005:fff74000       $pdata$??_GWidgetGameEditor@@UEAAPEAXI@Z 0000000140000000     widget-game-editor.obj
 0005:fff74000       $pdata$?dtor$0@?0???0?$basic_string@DU?$char_traits@D@std@@V?$allocator@D@2@@std@@QEAA@QEBD@Z@4HA 0000000140000000     config.obj
 0005:fff74000       $pdata$??1WidgetGameEditor@@UEAA@XZ 0000000140000000     widget-game-editor.obj
 0005:fff74000       $pdata$??0?$_Tree_comp_alloc@V?$_Tmap_traits@W4Object_Subtype@@PEBVGameObject@@U?$less@W4Object_Subtype@@@std@@V?$allocator@U?$pair@$$CBW4Object_Subtype@@PEBVGameObject@@@std@@@4@$0A@@std@@@std@@QEAA@AEBU?$less@W4Object_Subtype@@@1@@Z 0000000140000000     engine.obj
 0005:fff74000       $pdata$??0WidgetGameEditor@@QEAA@PEAVEngine@@AEBV?$Vector2@M@sf@@1@Z 0000000140000000     widget-game-editor.obj
 0003:fff90000       $unwind$?dtor$0@?0???0?$basic_string@DU?$char_traits@D@std@@V?$allocator@D@2@@std@@QEAA@QEBD@Z@4HA 0000000140000000     config.obj
 0005:fff74000       $pdata$??$_Getvals@_W@?$time_get@_WV?$istreambuf_iterator@_WU?$char_traits@_W@std@@@std@@@std@@IEAAX_WAEBV_Locinfo@1@@Z 0000000140000000     widget-game-editor.obj
 0003:fff90000       $unwind$??$_Getvals@_W@?$time_get@_WV?$istreambuf_iterator@_WU?$char_traits@_W@std@@@std@@@std@@IEAAX_WAEBV_Locinfo@1@@Z 0000000140000000     widget-game-editor.obj
 0005:fff74000       $pdata$??$_Getvals@_W@?$time_get@DV?$istreambuf_iterator@DU?$char_traits@D@std@@@std@@@std@@IEAAX_WAEBV_Locinfo@1@@Z 0000000140000000     widget-game-editor.obj
 0003:fff90000       $unwind$??$_Getvals@_W@?$time_get@DV?$istreambuf_iterator@DU?$char_traits@D@std@@@std@@@std@@IEAAX_WAEBV_Locinfo@1@@Z 0000000140000000     widget-game-editor.obj
 0005:fff74000       $pdata$?_Maklocwcs@std@@YAPEA_WPEB_W@Z 0000000140000000     widget-game-editor.obj
 0003:fff90000       $unwind$?_Maklocwcs@std@@YAPEA_WPEB_W@Z 0000000140000000     widget-game-editor.obj
 0005:fff74000       $pdata$??$_Maklocstr@_W@std@@YAPEA_WPEBDPEA_WAEBU_Cvtvec@@@Z 0000000140000000     widget-game-editor.obj
 0003:fff90000       $unwind$??$_Maklocstr@_W@std@@YAPEA_WPEBDPEA_WAEBU_Cvtvec@@@Z 0000000140000000     widget-game-editor.obj
 0005:fff74000       $pdata$?_Construct@?$_Tree_comp_alloc@V?$_Tmap_traits@W4Object_Subtype@@PEBVGameObject@@U?$less@W4Object_Subtype@@@std@@V?$allocator@U?$pair@$$CBW4Object_Subtype@@PEBVGameObject@@@std@@@4@$0A@@std@@@std@@QEAAXXZ 0000000140000000     engine.obj
 0003:fff90000       $ip2state$??0?$basic_string@DU?$char_traits@D@std@@V?$allocator@D@2@@std@@QEAA@QEBD@Z 0000000140000000     config.obj
 0003:fff90000       $stateUnwindMap$??0?$basic_string@DU?$char_traits@D@std@@V?$allocator@D@2@@std@@QEAA@QEBD@Z 0000000140000000     config.obj
 0003:fff90000       $cppxdata$??0?$basic_string@DU?$char_traits@D@std@@V?$allocator@D@2@@std@@QEAA@QEBD@Z 0000000140000000     config.obj
 0003:fff90000       ??$_Maklocstr@_W@std@@YAPEA_WPEBDPEA_WAEBU_Cvtvec@@@Z$rtcName$0 0000000140000000     widget-game-editor.obj
 0005:fff74000       $pdata$wmemcpy             0000000140000000     widget-game-editor.obj
 0003:fff90000       $unwind$wmemcpy            0000000140000000     widget-game-editor.obj
 0005:fff74000       $pdata$?__empty_global_delete@@YAXPEAX_K@Z 0000000140000000     widget-game-editor.obj
 0003:fff90000       $unwind$?__empty_global_delete@@YAXPEAX_K@Z 0000000140000000     widget-game-editor.obj
 0005:fff74000       $pdata$?__empty_global_delete@@YAXPEAX@Z 0000000140000000     widget-game-editor.obj
 0003:fff90000       $unwind$?__empty_global_delete@@YAXPEAX@Z 0000000140000000     widget-game-editor.obj
 0005:fff74000       $pdata$??0?$basic_string@DU?$char_traits@D@std@@V?$allocator@D@2@@std@@QEAA@QEBD@Z 0000000140000000     config.obj
 0003:fff90000       $unwind$??0?$basic_string@DU?$char_traits@D@std@@V?$allocator@D@2@@std@@QEAA@QEBD@Z 0000000140000000     config.obj
 0005:fff74000       $pdata$?catch$0@?0??_Construct@?$_Tree_comp_alloc@V?$_Tmap_traits@W4Object_Subtype@@PEBVGameObject@@U?$less@W4Object_Subtype@@@std@@V?$allocator@U?$pair@$$CBW4Object_Subtype@@PEBVGameObject@@@std@@@4@$0A@@std@@@std@@QEAAXXZ@4HA 0000000140000000     engine.obj
 0005:fff74000       $pdata$?dtor$0@?0???0?$basic_string@DU?$char_traits@D@std@@V?$allocator@D@2@@std@@QEAA@AEBV01@_K1AEBV?$allocator@D@1@@Z@4HA 0000000140000000     config.obj
 0005:fff74000       $pdata$??1?$_Tree_comp_alloc@V?$_Tmap_traits@W4Object_Subtype@@PEBVGameObject@@U?$less@W4Object_Subtype@@@std@@V?$allocator@U?$pair@$$CBW4Object_Subtype@@PEBVGameObject@@@std@@@4@$0A@@std@@@std@@QEAA@XZ 0000000140000000     engine.obj
 0005:fff74000       $pdata$??0?$basic_string@DU?$char_traits@D@std@@V?$allocator@D@2@@std@@QEAA@AEBV01@_K1AEBV?$allocator@D@1@@Z 0000000140000000     config.obj
 0005:fff74000       $pdata$?_Alloc_proxy@?$_Tree_comp_alloc@V?$_Tmap_traits@W4Object_Subtype@@PEBVGameObject@@U?$less@W4Object_Subtype@@@std@@V?$allocator@U?$pair@$$CBW4Object_Subtype@@PEBVGameObject@@@std@@@4@$0A@@std@@@std@@QEAAXXZ 0000000140000000     engine.obj
 0003:fff90000       $ip2state$??0?$basic_string@DU?$char_traits@D@std@@V?$allocator@D@2@@std@@QEAA@XZ 0000000140000000     config.obj
 0005:fff74000       $pdata$?_Free_proxy@?$_Tree_comp_alloc@V?$_Tmap_traits@W4Object_Subtype@@PEBVGameObject@@U?$less@W4Object_Subtype@@@std@@V?$allocator@U?$pair@$$CBW4Object_Subtype@@PEBVGameObject@@@std@@@4@$0A@@std@@@std@@QEAAXXZ 0000000140000000     engine.obj
 0005:fff74000       $pdata$??$forward@AEBV<lambda_a10df31f242f60abda41a45eba8bd395>@@@std@@YAAEBV<lambda_a10df31f242f60abda41a45eba8bd395>@@AEBV1@@Z 0000000140000000     widget-templates.obj
 0003:fff90000       $cppxdata$??0?$basic_string@DU?$char_traits@D@std@@V?$allocator@D@2@@std@@QEAA@XZ 0000000140000000     config.obj
 0005:fff74000       $pdata$??$_Call@AEAV<lambda_a10df31f242f60abda41a45eba8bd395>@@PEAVObject@@AEBVEvent@sf@@@?$_Invoker_ret@PEAVObject@@$0A@@std@@SAPEAVObject@@AEAV<lambda_a10df31f242f60abda41a45eba8bd395>@@$$QEAPEAV2@AEBVEvent@sf@@@Z 0000000140000000     widget-templates.obj
 0005:fff74000       $pdata$?_Getpfirst@?$_Tree_comp_alloc@V?$_Tmap_traits@W4Object_Subtype@@PEBVGameObject@@U?$less@W4Object_Subtype@@@std@@V?$allocator@U?$pair@$$CBW4Object_Subtype@@PEBVGameObject@@@std@@@4@$0A@@std@@@std@@QEBAPEAPEAU_Iterator_base12@2@XZ 0000000140000000     engine.obj
 0005:fff74000       $pdata$??$_Test_callable@V<lambda_a10df31f242f60abda41a45eba8bd395>@@@std@@YA_NAEBV<lambda_a10df31f242f60abda41a45eba8bd395>@@U?$integral_constant@_N$0A@@0@@Z 0000000140000000     widget-templates.obj
 0005:fff74000       $pdata$??0?$basic_string@DU?$char_traits@D@std@@V?$allocator@D@2@@std@@QEAA@XZ 0000000140000000     config.obj
 0005:fff74000       $pdata$??$?0AEBV<lambda_a10df31f242f60abda41a45eba8bd395>@@X@?$_Func_impl_no_alloc@V<lambda_a10df31f242f60abda41a45eba8bd395>@@PEAVObject@@PEAV2@AEBVEvent@sf@@@std@@QEAA@AEBV<lambda_a10df31f242f60abda41a45eba8bd395>@@@Z 0000000140000000     widget-templates.obj
 0005:fff74000       $pdata$?_Myproxy@?$_Tree_comp_alloc@V?$_Tmap_traits@W4Object_Subtype@@PEBVGameObject@@U?$less@W4Object_Subtype@@@std@@V?$allocator@U?$pair@$$CBW4Object_Subtype@@PEBVGameObject@@@std@@@4@$0A@@std@@@std@@QEAAAEAPEAU_Container_proxy@2@XZ 0000000140000000     engine.obj
 0005:fff74000       $pdata$??$?0V<lambda_a10df31f242f60abda41a45eba8bd395>@@X@?$_Func_impl_no_alloc@V<lambda_a10df31f242f60abda41a45eba8bd395>@@PEAVObject@@PEAV2@AEBVEvent@sf@@@std@@QEAA@$$QEAV<lambda_a10df31f242f60abda41a45eba8bd395>@@@Z 0000000140000000     widget-templates.obj
 0003:fff90000       $unwind$??0?$basic_string@DU?$char_traits@D@std@@V?$allocator@D@2@@std@@QEAA@XZ 0000000140000000     config.obj
 0005:fff74000       $pdata$??$addressof@$$CBV<lambda_a10df31f242f60abda41a45eba8bd395>@@@std@@YAPEBV<lambda_a10df31f242f60abda41a45eba8bd395>@@AEBV1@@Z 0000000140000000     widget-templates.obj
 0005:fff74000       $pdata$?_Orphan_all@?$_Tree_comp_alloc@V?$_Tmap_traits@W4Object_Subtype@@PEBVGameObject@@U?$less@W4Object_Subtype@@@std@@V?$allocator@U?$pair@$$CBW4Object_Subtype@@PEBVGameObject@@@std@@@4@$0A@@std@@@std@@QEAAXXZ 0000000140000000     engine.obj
 0005:fff74000       $pdata$??$_Deallocate@$07$0A@@std@@YAXPEAX_K@Z 0000000140000000     widget-templates.obj
 0003:fff90000       $unwind$??$_Deallocate@$07$0A@@std@@YAXPEAX_K@Z 0000000140000000     widget-templates.obj
 0005:fff74000       $pdata$??$_Reset_impl@V?$_Func_impl_no_alloc@V<lambda_a10df31f242f60abda41a45eba8bd395>@@PEAVObject@@PEAV2@AEBVEvent@sf@@@std@@V<lambda_a10df31f242f60abda41a45eba8bd395>@@@?$_Func_class@PEAVObject@@PEAV1@AEBVEvent@sf@@@std@@IEAAX$$QEAV<lambda_a10df31f242f60abda41a45eba8bd395>@@U?$integral_constant@_N$0A@@1@@Z 0000000140000000     widget-templates.obj
 0005:fff74000       $pdata$??1?$_Compressed_pair@V?$allocator@D@std@@V?$_String_val@U?$_Simple_types@D@std@@@2@$00@std@@QEAA@XZ 0000000140000000     config.obj
 0005:fff74000       $pdata$?_Buyheadnode@?$_Tree_comp_alloc@V?$_Tmap_traits@W4Object_Subtype@@PEBVGameObject@@U?$less@W4Object_Subtype@@@std@@V?$allocator@U?$pair@$$CBW4Object_Subtype@@PEBVGameObject@@@std@@@4@$0A@@std@@@std@@QEAAPEAU?$_Tree_node@U?$pair@$$CBW4Object_Subtype@@PEBVGameObject@@@std@@PEAX@2@XZ 0000000140000000     engine.obj
 0003:fff90000       $unwind$??1?$_Compressed_pair@V?$allocator@D@std@@V?$_String_val@U?$_Simple_types@D@std@@@2@$00@std@@QEAA@XZ 0000000140000000     config.obj
 0005:fff74000       $pdata$?_Delete_this@?$_Func_impl_no_alloc@V<lambda_a10df31f242f60abda41a45eba8bd395>@@PEAVObject@@PEAV2@AEBVEvent@sf@@@std@@EEAAX_N@Z 0000000140000000     widget-templates.obj
 0005:fff74000       $pdata$?_Get_second@?$_Compressed_pair@V?$allocator@D@std@@V?$_String_val@U?$_Simple_types@D@std@@@2@$00@std@@QEBAAEBV?$_String_val@U?$_Simple_types@D@std@@@2@XZ 0000000140000000     config.obj
 0005:fff74000       $pdata$?_Get@?$_Func_impl_no_alloc@V<lambda_a10df31f242f60abda41a45eba8bd395>@@PEAVObject@@PEAV2@AEBVEvent@sf@@@std@@EEBAPEBXXZ 0000000140000000     widget-templates.obj
 0003:fff90000       $unwind$?_Get_second@?$_Compressed_pair@V?$allocator@D@std@@V?$_String_val@U?$_Simple_types@D@std@@@2@$00@std@@QEBAAEBV?$_String_val@U?$_Simple_types@D@std@@@2@XZ 0000000140000000     config.obj
 0005:fff74000       $pdata$?_Target_type@?$_Func_impl_no_alloc@V<lambda_a10df31f242f60abda41a45eba8bd395>@@PEAVObject@@PEAV2@AEBVEvent@sf@@@std@@EEBAAEBVtype_info@@XZ 0000000140000000     widget-templates.obj
 0005:fff74000       $pdata$?_Get_second@?$_Compressed_pair@V?$allocator@D@std@@V?$_String_val@U?$_Simple_types@D@std@@@2@$00@std@@QEAAAEAV?$_String_val@U?$_Simple_types@D@std@@@2@XZ 0000000140000000     config.obj
 0005:fff74000       $pdata$?_Do_call@?$_Func_impl_no_alloc@V<lambda_a10df31f242f60abda41a45eba8bd395>@@PEAVObject@@PEAV2@AEBVEvent@sf@@@std@@EEAAPEAVObject@@$$QEAPEAV3@AEBVEvent@sf@@@Z 0000000140000000     widget-templates.obj
 0003:fff90000       $unwind$?_Get_second@?$_Compressed_pair@V?$allocator@D@std@@V?$_String_val@U?$_Simple_types@D@std@@@2@$00@std@@QEAAAEAV?$_String_val@U?$_Simple_types@D@std@@@2@XZ 0000000140000000     config.obj
 0005:fff74000       $pdata$?_Move@?$_Func_impl_no_alloc@V<lambda_a10df31f242f60abda41a45eba8bd395>@@PEAVObject@@PEAV2@AEBVEvent@sf@@@std@@EEAAPEAV?$_Func_base@PEAVObject@@PEAV1@AEBVEvent@sf@@@2@PEAX@Z 0000000140000000     widget-templates.obj
 0005:fff74000       $pdata$?catch$0@?0??_Buyheadnode@?$_Tree_comp_alloc@V?$_Tmap_traits@W4Object_Subtype@@PEBVGameObject@@U?$less@W4Object_Subtype@@@std@@V?$allocator@U?$pair@$$CBW4Object_Subtype@@PEBVGameObject@@@std@@@4@$0A@@std@@@std@@QEAAPEAU?$_Tree_node@U?$pair@$$CBW4Object_Subtype@@PEBVGameObject@@@std@@PEAX@2@XZ@4HA 0000000140000000     engine.obj
 0005:fff74000       $pdata$?_Clone@?$_Func_impl_no_alloc@V<lambda_a10df31f242f60abda41a45eba8bd395>@@PEAVObject@@PEAV2@AEBVEvent@sf@@@std@@AEBAPEAV?$_Func_base@PEAVObject@@PEAV1@AEBVEvent@sf@@@2@PEAXU?$integral_constant@_N$0A@@2@@Z 0000000140000000     widget-templates.obj
 0005:fff74000       $pdata$?_Get_first@?$_Compressed_pair@V?$allocator@D@std@@V?$_String_val@U?$_Simple_types@D@std@@@2@$00@std@@QEBAAEBV?$allocator@D@2@XZ 0000000140000000     config.obj
 0005:fff74000       $pdata$?_Copy@?$_Func_impl_no_alloc@V<lambda_a10df31f242f60abda41a45eba8bd395>@@PEAVObject@@PEAV2@AEBVEvent@sf@@@std@@EEBAPEAV?$_Func_base@PEAVObject@@PEAV1@AEBVEvent@sf@@@2@PEAX@Z 0000000140000000     widget-templates.obj
 0005:fff74000       $pdata$?_Freeheadnode@?$_Tree_comp_alloc@V?$_Tmap_traits@W4Object_Subtype@@PEBVGameObject@@U?$less@W4Object_Subtype@@@std@@V?$allocator@U?$pair@$$CBW4Object_Subtype@@PEBVGameObject@@@std@@@4@$0A@@std@@@std@@QEAAXPEAU?$_Tree_node@U?$pair@$$CBW4Object_Subtype@@PEBVGameObject@@@std@@PEAX@2@@Z 0000000140000000     engine.obj
 0005:fff74000       $pdata$??$forward@V<lambda_a10df31f242f60abda41a45eba8bd395>@@@std@@YA$$QEAV<lambda_a10df31f242f60abda41a45eba8bd395>@@AEAV1@@Z 0000000140000000     widget-templates.obj
 0003:fff90000       $unwind$?_Getal@?$_Tree_comp_alloc@V?$_Tmap_traits@W4Object_Subtype@@PEBVGameObject@@U?$less@W4Object_Subtype@@@std@@V?$allocator@U?$pair@$$CBW4Object_Subtype@@PEBVGameObject@@@std@@@4@$0A@@std@@@std@@QEAAAEAV?$allocator@U?$_Tree_node@U?$pair@$$CBW4Object_Subtype@@PEBVGameObject@@@std@@PEAX@std@@@2@XZ 0000000140000000     engine.obj
 0005:fff74000       $pdata$??$_Test_callable@V<lambda_a10df31f242f60abda41a45eba8bd395>@@@std@@YA_NAEBV<lambda_a10df31f242f60abda41a45eba8bd395>@@@Z 0000000140000000     widget-templates.obj
 0005:fff74000       $pdata$?_Getal@?$_Tree_comp_alloc@V?$_Tmap_traits@W4Object_Subtype@@PEBVGameObject@@U?$less@W4Object_Subtype@@@std@@V?$allocator@U?$pair@$$CBW4Object_Subtype@@PEBVGameObject@@@std@@@4@$0A@@std@@@std@@QEAAAEAV?$allocator@U?$_Tree_node@U?$pair@$$CBW4Object_Subtype@@PEBVGameObject@@@std@@PEAX@std@@@2@XZ 0000000140000000     engine.obj
 0003:fff90000       $unwind$?_Get_data@?$_Tree_comp_alloc@V?$_Tmap_traits@W4Object_Subtype@@PEBVGameObject@@U?$less@W4Object_Subtype@@@std@@V?$allocator@U?$pair@$$CBW4Object_Subtype@@PEBVGameObject@@@std@@@4@$0A@@std@@@std@@QEAAAEAV?$_Tree_val@U?$_Tree_simple_types@U?$pair@$$CBW4Object_Subtype@@PEBVGameObject@@@std@@@std@@@2@XZ 0000000140000000     engine.obj
 0005:fff74000       $pdata$?_Get_data@?$_Tree_comp_alloc@V?$_Tmap_traits@W4Object_Subtype@@PEBVGameObject@@U?$less@W4Object_Subtype@@@std@@V?$allocator@U?$pair@$$CBW4Object_Subtype@@PEBVGameObject@@@std@@@4@$0A@@std@@@std@@QEAAAEAV?$_Tree_val@U?$_Tree_simple_types@U?$pair@$$CBW4Object_Subtype@@PEBVGameObject@@@std@@@std@@@2@XZ 0000000140000000     engine.obj
 0003:fff90000       $unwind$?_Get_data@?$_Tree_comp_alloc@V?$_Tmap_traits@W4Object_Subtype@@PEBVGameObject@@U?$less@W4Object_Subtype@@@std@@V?$allocator@U?$pair@$$CBW4Object_Subtype@@PEBVGameObject@@@std@@@4@$0A@@std@@@std@@QEBAAEBV?$_Tree_val@U?$_Tree_simple_types@U?$pair@$$CBW4Object_Subtype@@PEBVGameObject@@@std@@@std@@@2@XZ 0000000140000000     engine.obj
 0005:fff74000       $pdata$??$_Reset@V<lambda_a10df31f242f60abda41a45eba8bd395>@@@?$_Func_class@PEAVObject@@PEAV1@AEBVEvent@sf@@@std@@IEAAX$$QEAV<lambda_a10df31f242f60abda41a45eba8bd395>@@@Z 0000000140000000     widget-templates.obj
 0005:fff74000       $pdata$?_Get_data@?$_Tree_comp_alloc@V?$_Tmap_traits@W4Object_Subtype@@PEBVGameObject@@U?$less@W4Object_Subtype@@@std@@V?$allocator@U?$pair@$$CBW4Object_Subtype@@PEBVGameObject@@@std@@@4@$0A@@std@@@std@@QEBAAEBV?$_Tree_val@U?$_Tree_simple_types@U?$pair@$$CBW4Object_Subtype@@PEBVGameObject@@@std@@@std@@@2@XZ 0000000140000000     engine.obj
 0005:fff74000       $pdata$??$move@AEAV<lambda_a10df31f242f60abda41a45eba8bd395>@@@std@@YA$$QEAV<lambda_a10df31f242f60abda41a45eba8bd395>@@AEAV1@@Z 0000000140000000     widget-templates.obj
 0003:fff90000       $unwind$?_Get_first@?$_Compressed_pair@V?$allocator@D@std@@V?$_String_val@U?$_Simple_types@D@std@@@2@$00@std@@QEBAAEBV?$allocator@D@2@XZ 0000000140000000     config.obj
 0005:fff74000       $pdata$??$_Maklocstr@D@std@@YAPEADPEBDPEADAEBU_Cvtvec@@@Z 0000000140000000     widget-templates.obj
 0003:fff90000       $unwind$??$_Maklocstr@D@std@@YAPEADPEBDPEADAEBU_Cvtvec@@@Z 0000000140000000     widget-templates.obj
 0005:fff74000       $pdata$??0?$_Func_base@PEAVObject@@PEAV1@AEBVEvent@sf@@@std@@QEAA@XZ 0000000140000000     widget-templates.obj
 0005:fff74000       $pdata$??0?$_Tree_val@U?$_Tree_simple_types@U?$pair@$$CBW4Object_Subtype@@PEBVGameObject@@@std@@@std@@@std@@QEAA@XZ 0000000140000000     engine.obj
 0005:fff74000       $pdata$?dtor$0@?0???$?0V<lambda_a10df31f242f60abda41a45eba8bd395>@@X@?$function@$$A6APEAVObject@@PEAV1@AEBVEvent@sf@@@Z@std@@QEAA@V<lambda_a10df31f242f60abda41a45eba8bd395>@@@Z@4HA 0000000140000000     widget-templates.obj
 0003:fff90000       $unwind$?_Max@?$_Tree_val@U?$_Tree_simple_types@U?$pair@$$CBW4Object_Subtype@@PEBVGameObject@@@std@@@std@@@std@@SAPEAU?$_Tree_node@U?$pair@$$CBW4Object_Subtype@@PEBVGameObject@@@std@@PEAX@2@PEAU32@@Z 0000000140000000     engine.obj
 0005:fff74000       $pdata$?_Max@?$_Tree_val@U?$_Tree_simple_types@U?$pair@$$CBW4Object_Subtype@@PEBVGameObject@@@std@@@std@@@std@@SAPEAU?$_Tree_node@U?$pair@$$CBW4Object_Subtype@@PEBVGameObject@@@std@@PEAX@2@PEAU32@@Z 0000000140000000     engine.obj
 0003:fff90000       $unwind$?_Min@?$_Tree_val@U?$_Tree_simple_types@U?$pair@$$CBW4Object_Subtype@@PEBVGameObject@@@std@@@std@@@std@@SAPEAU?$_Tree_node@U?$pair@$$CBW4Object_Subtype@@PEBVGameObject@@@std@@PEAX@2@PEAU32@@Z 0000000140000000     engine.obj
 0005:fff74000       $pdata$?_Min@?$_Tree_val@U?$_Tree_simple_types@U?$pair@$$CBW4Object_Subtype@@PEBVGameObject@@@std@@@std@@@std@@SAPEAU?$_Tree_node@U?$pair@$$CBW4Object_Subtype@@PEBVGameObject@@@std@@PEAX@2@PEAU32@@Z 0000000140000000     engine.obj
 0005:fff74000       $pdata$??$?0V<lambda_a10df31f242f60abda41a45eba8bd395>@@X@?$function@$$A6APEAVObject@@PEAV1@AEBVEvent@sf@@@Z@std@@QEAA@V<lambda_a10df31f242f60abda41a45eba8bd395>@@@Z 0000000140000000     widget-templates.obj
 0003:fff90000       $unwind$?_Root@?$_Tree_val@U?$_Tree_simple_types@U?$pair@$$CBW4Object_Subtype@@PEBVGameObject@@@std@@@std@@@std@@QEBAAEAPEAU?$_Tree_node@U?$pair@$$CBW4Object_Subtype@@PEBVGameObject@@@std@@PEAX@2@XZ 0000000140000000     engine.obj
 0005:fff74000       $pdata$??$invoke@AEAV<lambda_a10df31f242f60abda41a45eba8bd395>@@PEAVObject@@AEBVEvent@sf@@@std@@YAPEAVObject@@AEAV<lambda_a10df31f242f60abda41a45eba8bd395>@@$$QEAPEAV1@AEBVEvent@sf@@@Z 0000000140000000     widget-templates.obj
 0005:fff74000       $pdata$?_Root@?$_Tree_val@U?$_Tree_simple_types@U?$pair@$$CBW4Object_Subtype@@PEBVGameObject@@@std@@@std@@@std@@QEBAAEAPEAU?$_Tree_node@U?$pair@$$CBW4Object_Subtype@@PEBVGameObject@@@std@@PEAX@2@XZ 0000000140000000     engine.obj
 0005:fff74000       $pdata$??$_Call@AEAV<lambda_a10df31f242f60abda41a45eba8bd395>@@PEAVObject@@AEBVEvent@sf@@@_Invoker_functor@std@@SAPEAVObject@@AEAV<lambda_a10df31f242f60abda41a45eba8bd395>@@$$QEAPEAV2@AEBVEvent@sf@@@Z 0000000140000000     widget-templates.obj
 0003:fff90000       $unwind$?_Lmost@?$_Tree_val@U?$_Tree_simple_types@U?$pair@$$CBW4Object_Subtype@@PEBVGameObject@@@std@@@std@@@std@@QEBAAEAPEAU?$_Tree_node@U?$pair@$$CBW4Object_Subtype@@PEBVGameObject@@@std@@PEAX@2@XZ 0000000140000000     engine.obj
 0005:fff74000       $pdata$??$forward@AEBVEvent@sf@@@std@@YAAEBVEvent@sf@@AEBV12@@Z 0000000140000000     widget-templates.obj
 0003:fff90000       $unwind$??$forward@AEBVEvent@sf@@@std@@YAAEBVEvent@sf@@AEBV12@@Z 0000000140000000     widget-templates.obj
 0005:fff74000       $pdata$??$forward@PEAVObject@@@std@@YA$$QEAPEAVObject@@AEAPEAV1@@Z 0000000140000000     widget-templates.obj
 0003:fff90000       $unwind$??$forward@PEAVObject@@@std@@YA$$QEAPEAVObject@@AEAPEAV1@@Z 0000000140000000     widget-templates.obj
 0005:fff74000       $pdata$??$forward@AEAV<lambda_a10df31f242f60abda41a45eba8bd395>@@@std@@YAAEAV<lambda_a10df31f242f60abda41a45eba8bd395>@@AEAV1@@Z 0000000140000000     widget-templates.obj
 0005:fff74000       $pdata$?_Lmost@?$_Tree_val@U?$_Tree_simple_types@U?$pair@$$CBW4Object_Subtype@@PEBVGameObject@@@std@@@std@@@std@@QEBAAEAPEAU?$_Tree_node@U?$pair@$$CBW4Object_Subtype@@PEBVGameObject@@@std@@PEAX@2@XZ 0000000140000000     engine.obj
 0005:fff74000       $pdata$?_Getspace@?$_Func_class@PEAVObject@@PEAV1@AEBVEvent@sf@@@std@@AEBAPEBXXZ 0000000140000000     widget-templates.obj
 0003:fff90000       $unwind$?_Getspace@?$_Func_class@PEAVObject@@PEAV1@AEBVEvent@sf@@@std@@AEBAPEBXXZ 0000000140000000     widget-templates.obj
 0005:fff74000       $pdata$?_Getspace@?$_Func_class@PEAVObject@@PEAV1@AEBVEvent@sf@@@std@@AEAAPEAXXZ 0000000140000000     widget-templates.obj
 0003:fff90000       $unwind$?_Getspace@?$_Func_class@PEAVObject@@PEAV1@AEBVEvent@sf@@@std@@AEAAPEAXXZ 0000000140000000     widget-templates.obj
 0005:fff74000       $pdata$?_Set@?$_Func_class@PEAVObject@@PEAV1@AEBVEvent@sf@@@std@@AEAAXPEAV?$_Func_base@PEAVObject@@PEAV1@AEBVEvent@sf@@@2@@Z 0000000140000000     widget-templates.obj
 0003:fff90000       $unwind$?_Set@?$_Func_class@PEAVObject@@PEAV1@AEBVEvent@sf@@@std@@AEAAXPEAV?$_Func_base@PEAVObject@@PEAV1@AEBVEvent@sf@@@2@@Z 0000000140000000     widget-templates.obj
 0005:fff74000       $pdata$?_Getimpl@?$_Func_class@PEAVObject@@PEAV1@AEBVEvent@sf@@@std@@AEBAPEAV?$_Func_base@PEAVObject@@PEAV1@AEBVEvent@sf@@@2@XZ 0000000140000000     widget-templates.obj
 0003:fff90000       $unwind$?_Getimpl@?$_Func_class@PEAVObject@@PEAV1@AEBVEvent@sf@@@std@@AEBAPEAV?$_Func_base@PEAVObject@@PEAV1@AEBVEvent@sf@@@2@XZ 0000000140000000     widget-templates.obj
 0005:fff74000       $pdata$?_Local@?$_Func_class@PEAVObject@@PEAV1@AEBVEvent@sf@@@std@@AEBA_NXZ 0000000140000000     widget-templates.obj
 0003:fff90000       $unwind$?_Local@?$_Func_class@PEAVObject@@PEAV1@AEBVEvent@sf@@@std@@AEBA_NXZ 0000000140000000     widget-templates.obj
 0005:fff74000       $pdata$?_Tidy@?$_Func_class@PEAVObject@@PEAV1@AEBVEvent@sf@@@std@@IEAAXXZ 0000000140000000     widget-templates.obj
 0003:fff90000       $unwind$?_Tidy@?$_Func_class@PEAVObject@@PEAV1@AEBVEvent@sf@@@std@@IEAAXXZ 0000000140000000     widget-templates.obj
 0005:fff74000       $pdata$?_Empty@?$_Func_class@PEAVObject@@PEAV1@AEBVEvent@sf@@@std@@IEBA_NXZ 0000000140000000     widget-templates.obj
 0003:fff90000       $unwind$?_Empty@?$_Func_class@PEAVObject@@PEAV1@AEBVEvent@sf@@@std@@IEBA_NXZ 0000000140000000     widget-templates.obj
 0005:fff74000       $pdata$??1?$_Func_class@PEAVObject@@PEAV1@AEBVEvent@sf@@@std@@QEAA@XZ 0000000140000000     widget-templates.obj
 0003:fff90000       $unwind$??1?$_Func_class@PEAVObject@@PEAV1@AEBVEvent@sf@@@std@@QEAA@XZ 0000000140000000     widget-templates.obj
 0005:fff74000       $pdata$??0?$_Func_class@PEAVObject@@PEAV1@AEBVEvent@sf@@@std@@QEAA@XZ 0000000140000000     widget-templates.obj
 0003:fff90000       $unwind$??0?$_Func_class@PEAVObject@@PEAV1@AEBVEvent@sf@@@std@@QEAA@XZ 0000000140000000     widget-templates.obj
 0005:fff74000       $pdata$??0<lambda_a10df31f242f60abda41a45eba8bd395>@@QEAA@QEAVWidgetTemplates@@@Z 0000000140000000     widget-templates.obj
 0003:fff90000       $unwind$?_Rmost@?$_Tree_val@U?$_Tree_simple_types@U?$pair@$$CBW4Object_Subtype@@PEBVGameObject@@@std@@@std@@@std@@QEBAAEAPEAU?$_Tree_node@U?$pair@$$CBW4Object_Subtype@@PEBVGameObject@@@std@@PEAX@2@XZ 0000000140000000     engine.obj
 0005:fff74000       $pdata$??R<lambda_a10df31f242f60abda41a45eba8bd395>@@QEBAPEAVObject@@PEAV1@AEBVEvent@sf@@@Z 0000000140000000     widget-templates.obj
 0005:fff74000       $pdata$?_Rmost@?$_Tree_val@U?$_Tree_simple_types@U?$pair@$$CBW4Object_Subtype@@PEBVGameObject@@@std@@@std@@@std@@QEBAAEAPEAU?$_Tree_node@U?$pair@$$CBW4Object_Subtype@@PEBVGameObject@@@std@@PEAX@2@XZ 0000000140000000     engine.obj
 0005:fff74000       $pdata$??_GWidgetTemplates@@UEAAPEAXI@Z 0000000140000000     widget-templates.obj
 0003:fff90000       $unwind$?_Lrotate@?$_Tree_val@U?$_Tree_simple_types@U?$pair@$$CBW4Object_Subtype@@PEBVGameObject@@@std@@@std@@@std@@QEAAXPEAU?$_Tree_node@U?$pair@$$CBW4Object_Subtype@@PEBVGameObject@@@std@@PEAX@2@@Z 0000000140000000     engine.obj
 0005:fff74000       $pdata$?onMoveBegin@WidgetTemplates@@AEAAPEAVObject@@PEAV2@AEBVEvent@sf@@@Z 0000000140000000     widget-templates.obj
 0005:fff74000       $pdata$?_Lrotate@?$_Tree_val@U?$_Tree_simple_types@U?$pair@$$CBW4Object_Subtype@@PEBVGameObject@@@std@@@std@@@std@@QEAAXPEAU?$_Tree_node@U?$pair@$$CBW4Object_Subtype@@PEBVGameObject@@@std@@PEAX@2@@Z 0000000140000000     engine.obj
 0005:fff74000       $pdata$?AddWidget@WidgetTemplates@@UEAAXPEAVObject@@@Z 0000000140000000     widget-templates.obj
 0003:fff90000       $unwind$?_Rrotate@?$_Tree_val@U?$_Tree_simple_types@U?$pair@$$CBW4Object_Subtype@@PEBVGameObject@@@std@@@std@@@std@@QEAAXPEAU?$_Tree_node@U?$pair@$$CBW4Object_Subtype@@PEBVGameObject@@@std@@PEAX@2@@Z 0000000140000000     engine.obj
 0005:fff74000       $pdata$?_Rrotate@?$_Tree_val@U?$_Tree_simple_types@U?$pair@$$CBW4Object_Subtype@@PEBVGameObject@@@std@@@std@@@std@@QEAAXPEAU?$_Tree_node@U?$pair@$$CBW4Object_Subtype@@PEBVGameObject@@@std@@PEAX@2@@Z 0000000140000000     engine.obj
 0005:fff74000       $pdata$?_Get_first@?$_Compressed_pair@V?$allocator@D@std@@V?$_String_val@U?$_Simple_types@D@std@@@2@$00@std@@QEAAAEAV?$allocator@D@2@XZ 0000000140000000     config.obj
 0005:fff74000       $pdata$?_Extract@?$_Tree_val@U?$_Tree_simple_types@U?$pair@$$CBW4Object_Subtype@@PEBVGameObject@@@std@@@std@@@std@@QEAAPEAU?$_Tree_node@U?$pair@$$CBW4Object_Subtype@@PEBVGameObject@@@std@@PEAX@2@V?$_Tree_const_iterator@V?$_Tree_val@U?$_Tree_simple_types@U?$pair@$$CBW4Object_Subtype@@PEBVGameObject@@@std@@@std@@@std@@@2@@Z 0000000140000000     engine.obj
 0005:fff74000       $pdata$??1WidgetTemplates@@UEAA@XZ 0000000140000000     widget-templates.obj
 0003:fff90000       $unwind$?_Get_first@?$_Compressed_pair@V?$allocator@D@std@@V?$_String_val@U?$_Simple_types@D@std@@@2@$00@std@@QEAAAEAV?$allocator@D@2@XZ 0000000140000000     config.obj
 0005:fff74000       $pdata$?dtor$0@?0???0WidgetTemplates@@QEAA@PEAVEngine@@AEBV?$Vector2@M@sf@@1@Z@4HA 0000000140000000     widget-templates.obj
 0005:fff74000       $pdata$?_Get_data@?$_String_alloc@U?$_String_base_types@DV?$allocator@D@std@@@std@@@std@@QEBAAEBV?$_String_val@U?$_Simple_types@D@std@@@2@XZ 0000000140000000     config.obj
 0003:fff90000       $unwind$?_Get_data@?$_String_alloc@U?$_String_base_types@DV?$allocator@D@std@@@std@@@std@@QEBAAEBV?$_String_val@U?$_Simple_types@D@std@@@2@XZ 0000000140000000     config.obj
 0005:fff74000       $pdata$?dtor$0@?0??_Extract@?$_Tree_val@U?$_Tree_simple_types@U?$pair@$$CBW4Object_Subtype@@PEBVGameObject@@@std@@@std@@@std@@QEAAPEAU?$_Tree_node@U?$pair@$$CBW4Object_Subtype@@PEBVGameObject@@@std@@PEAX@2@V?$_Tree_const_iterator@V?$_Tree_val@U?$_Tree_simple_types@U?$pair@$$CBW4Object_Subtype@@PEBVGameObject@@@std@@@std@@@std@@@2@@Z@4HA 0000000140000000     engine.obj
 0003:fff90000       $unwind$?_Get_first@?$_Compressed_pair@V?$allocator@U?$_Tree_node@U?$pair@$$CBW4Object_Subtype@@PEBVGameObject@@@std@@PEAX@std@@@std@@V?$_Tree_val@U?$_Tree_simple_types@U?$pair@$$CBW4Object_Subtype@@PEBVGameObject@@@std@@@std@@@2@$00@std@@QEAAAEAV?$allocator@U?$_Tree_node@U?$pair@$$CBW4Object_Subtype@@PEBVGameObject@@@std@@PEAX@std@@@2@XZ 0000000140000000     engine.obj
 0005:fff74000       $pdata$??0WidgetTemplates@@QEAA@PEAVEngine@@AEBV?$Vector2@M@sf@@1@Z 0000000140000000     widget-templates.obj
 0005:fff74000       $pdata$?_Get_first@?$_Compressed_pair@V?$allocator@U?$_Tree_node@U?$pair@$$CBW4Object_Subtype@@PEBVGameObject@@@std@@PEAX@std@@@std@@V?$_Tree_val@U?$_Tree_simple_types@U?$pair@$$CBW4Object_Subtype@@PEBVGameObject@@@std@@@std@@@2@$00@std@@QEAAAEAV?$allocator@U?$_Tree_node@U?$pair@$$CBW4Object_Subtype@@PEBVGameObject@@@std@@PEAX@std@@@2@XZ 0000000140000000     engine.obj
 0005:fff74000       $pdata$??$_Getvals@_W@?$time_get@_WV?$istreambuf_iterator@_WU?$char_traits@_W@std@@@std@@@std@@IEAAX_WAEBV_Locinfo@1@@Z 0000000140000000     widget-templates.obj
 0003:fff90000       $unwind$??$_Getvals@_W@?$time_get@_WV?$istreambuf_iterator@_WU?$char_traits@_W@std@@@std@@@std@@IEAAX_WAEBV_Locinfo@1@@Z 0000000140000000     widget-templates.obj
 0005:fff74000       $pdata$??$_Getvals@_W@?$time_get@DV?$istreambuf_iterator@DU?$char_traits@D@std@@@std@@@std@@IEAAX_WAEBV_Locinfo@1@@Z 0000000140000000     widget-templates.obj
 0003:fff90000       $unwind$??$_Getvals@_W@?$time_get@DV?$istreambuf_iterator@DU?$char_traits@D@std@@@std@@@std@@IEAAX_WAEBV_Locinfo@1@@Z 0000000140000000     widget-templates.obj
 0005:fff74000       $pdata$?_Maklocwcs@std@@YAPEA_WPEB_W@Z 0000000140000000     widget-templates.obj
 0003:fff90000       $unwind$?_Maklocwcs@std@@YAPEA_WPEB_W@Z 0000000140000000     widget-templates.obj
 0005:fff74000       $pdata$??$_Maklocstr@_W@std@@YAPEA_WPEBDPEA_WAEBU_Cvtvec@@@Z 0000000140000000     widget-templates.obj
 0003:fff90000       $unwind$??$_Maklocstr@_W@std@@YAPEA_WPEBDPEA_WAEBU_Cvtvec@@@Z 0000000140000000     widget-templates.obj
 0003:fff90000       $unwind$?_Get_second@?$_Compressed_pair@V?$allocator@U?$_Tree_node@U?$pair@$$CBW4Object_Subtype@@PEBVGameObject@@@std@@PEAX@std@@@std@@V?$_Tree_val@U?$_Tree_simple_types@U?$pair@$$CBW4Object_Subtype@@PEBVGameObject@@@std@@@std@@@2@$00@std@@QEAAAEAV?$_Tree_val@U?$_Tree_simple_types@U?$pair@$$CBW4Object_Subtype@@PEBVGameObject@@@std@@@std@@@2@XZ 0000000140000000     engine.obj
 0005:fff74000       $pdata$?_Get_second@?$_Compressed_pair@V?$allocator@U?$_Tree_node@U?$pair@$$CBW4Object_Subtype@@PEBVGameObject@@@std@@PEAX@std@@@std@@V?$_Tree_val@U?$_Tree_simple_types@U?$pair@$$CBW4Object_Subtype@@PEBVGameObject@@@std@@@std@@@2@$00@std@@QEAAAEAV?$_Tree_val@U?$_Tree_simple_types@U?$pair@$$CBW4Object_Subtype@@PEBVGameObject@@@std@@@std@@@2@XZ 0000000140000000     engine.obj
 0003:fff90000       $unwind$?_Get_second@?$_Compressed_pair@V?$allocator@U?$_Tree_node@U?$pair@$$CBW4Object_Subtype@@PEBVGameObject@@@std@@PEAX@std@@@std@@V?$_Tree_val@U?$_Tree_simple_types@U?$pair@$$CBW4Object_Subtype@@PEBVGameObject@@@std@@@std@@@2@$00@std@@QEBAAEBV?$_Tree_val@U?$_Tree_simple_types@U?$pair@$$CBW4Object_Subtype@@PEBVGameObject@@@std@@@std@@@2@XZ 0000000140000000     engine.obj
 0005:fff74000       $pdata$?_Get_second@?$_Compressed_pair@V?$allocator@U?$_Tree_node@U?$pair@$$CBW4Object_Subtype@@PEBVGameObject@@@std@@PEAX@std@@@std@@V?$_Tree_val@U?$_Tree_simple_types@U?$pair@$$CBW4Object_Subtype@@PEBVGameObject@@@std@@@std@@@2@$00@std@@QEBAAEBV?$_Tree_val@U?$_Tree_simple_types@U?$pair@$$CBW4Object_Subtype@@PEBVGameObject@@@std@@@std@@@2@XZ 0000000140000000     engine.obj
 0003:fff90000       ??$_Maklocstr@_W@std@@YAPEA_WPEBDPEA_WAEBU_Cvtvec@@@Z$rtcName$0 0000000140000000     widget-templates.obj
 0005:fff74000       $pdata$?_Adjust_manually_vector_aligned@std@@YAXAEAPEAXAEA_K@Z 0000000140000000     widget-templates.obj
 0003:fff90000       $unwind$?_Adjust_manually_vector_aligned@std@@YAXAEAPEAXAEA_K@Z 0000000140000000     widget-templates.obj
 0005:fff74000       $pdata$??2@YAPEAX_KPEAX@Z  0000000140000000     widget-templates.obj
 0003:fff90000       $unwind$??2@YAPEAX_KPEAX@Z 0000000140000000     widget-templates.obj
 0005:fff74000       $pdata$wmemcpy             0000000140000000     widget-templates.obj
 0003:fff90000       $unwind$wmemcpy            0000000140000000     widget-templates.obj
 0005:fff74000       $pdata$?__empty_global_delete@@YAXPEAX_K@Z 0000000140000000     widget-templates.obj
 0003:fff90000       $unwind$?__empty_global_delete@@YAXPEAX_K@Z 0000000140000000     widget-templates.obj
 0005:fff74000       $pdata$?__empty_global_delete@@YAXPEAX@Z 0000000140000000     widget-templates.obj
 0003:fff90000       $unwind$?__empty_global_delete@@YAXPEAX@Z 0000000140000000     widget-templates.obj
 0003:fff90000       $unwind$?_Get_second@?$_Compressed_pair@U?$less@W4Object_Subtype@@@std@@V?$_Compressed_pair@V?$allocator@U?$_Tree_node@U?$pair@$$CBW4Object_Subtype@@PEBVGameObject@@@std@@PEAX@std@@@std@@V?$_Tree_val@U?$_Tree_simple_types@U?$pair@$$CBW4Object_Subtype@@PEBVGameObject@@@std@@@std@@@2@$00@2@$00@std@@QEAAAEAV?$_Compressed_pair@V?$allocator@U?$_Tree_node@U?$pair@$$CBW4Object_Subtype@@PEBVGameObject@@@std@@PEAX@std@@@std@@V?$_Tree_val@U?$_Tree_simple_types@U?$pair@$$CBW4Object_Subtype@@PEBVGameObject@@@std@@@std@@@2@$00@2@XZ 0000000140000000     engine.obj
