 Tanks

 Timestamp is 5b88592f (Thu Aug 30 23:53:03 2018)

 Preferred load address is 0000000140000000

 Start         Length     Name                   Class
 0001:00000000 000110c1H .textbss                DATA
 0002:00000000 00003930H .text$di                CODE
 0002:00003930 00022290H .text$mn                CODE
 0002:00025bc0 00001020H .text$mn$00             CODE
 0002:00026be0 00002640H .text$x                 CODE
 0002:00029220 00001042H .text$yd                CODE
 0003:00000000 00000110H .CRT$XCA                DATA
 0003:00000110 00000110H .CRT$XCAA               DATA
 0003:00000220 00000110H .CRT$XCU                DATA
 0003:00000330 00000110H .CRT$XCZ                DATA
 0003:00000440 00000110H .CRT$XIA                DATA
 0003:00000550 00000110H .CRT$XIAA               DATA
 0003:00000660 00000110H .CRT$XIAC               DATA
 0003:00000770 00000110H .CRT$XIZ                DATA
 0003:00000880 00000110H .CRT$XPA                DATA
 0003:00000990 00000110H .CRT$XPZ                DATA
 0003:00000aa0 00000110H .CRT$XTA                DATA
 0003:00000bb0 00000110H .CRT$XTZ                DATA
 0003:00000cc0 00005f78H .rdata                  DATA
 0003:00006c38 000012a0H .rdata$r                DATA
 0003:00007ed8 00000160H .rdata$zzzdbg           DATA
 0003:00008038 00000110H .rtc$IAA                DATA
 0003:00008148 00000250H .rtc$IMZ                DATA
 0003:00008398 00000110H .rtc$IZZ                DATA
 0003:000084a8 00000110H .rtc$TAA                DATA
 0003:000085b8 00000250H .rtc$TMZ                DATA
 0003:00008808 00000118H .rtc$TZZ                DATA
 0003:00008920 000055d0H .xdata                  DATA
 0003:0000def0 000002a1H .xdata$x                DATA
 0003:0000e191 00000000H .edata                  DATA
 0004:00000000 00000170H .data                   DATA
 0004:00000170 00000870H .data$r                 DATA
 0004:000009e0 00000821H .bss                    DATA
 0005:00000000 0000462cH .pdata                  DATA
 0006:00000000 00000820H .idata$5                DATA
 0006:00000820 0000008cH .idata$2                DATA
 0006:000008ac 00000014H .idata$3                DATA
 0006:000008c0 00000820H .idata$4                DATA
 0006:000010e0 00001446H .idata$6                DATA
 0007:00000000 0000011bH .00cfg                  DATA
 0008:00000000 00000170H .rsrc$01                DATA
 0008:00000170 000002ccH .rsrc$02                DATA

  Address         Publics by Value              Rva+Base               Lib:Object

 0000:00000000       __dynamic_value_reloc_table 0000000000000000     <absolute>
 0000:00000000       __guard_fids_count         0000000000000000     <absolute>
 0000:00000000       __hybrid_auxiliary_iat     0000000000000000     <absolute>
 0000:00000000       __enclave_config           0000000000000000     <absolute>
 0000:00000000       __hybrid_code_map_count    0000000000000000     <absolute>
 0000:00000000       __guard_iat_table          0000000000000000     <absolute>
 0000:00000000       __guard_iat_count          0000000000000000     <absolute>
 0000:00000000       __hybrid_code_map          0000000000000000     <absolute>
 0000:00000000       ___safe_se_handler_table   0000000000000000     <absolute>
 0000:00000000       ___safe_se_handler_count   0000000000000000     <absolute>
 0000:00000000       __guard_fids_table         0000000000000000     <absolute>
 0000:00000000       __guard_longjmp_table      0000000000000000     <absolute>
 0000:00000000       __guard_longjmp_count      0000000000000000     <absolute>
 0000:00000100       __guard_flags              0000000000000100     <absolute>
 0000:00000000       __ImageBase                0000000140000000     <linker-defined>
 0001:00000000       __enc$textbss$begin        0000000140001000     <linker-defined>
 0001:000110c1       __enc$textbss$end          00000001400120c1     <linker-defined>
 0002:00003930       ??$?0$$V@?$_Compressed_pair@V?$allocator@D@std@@V?$_String_val@U?$_Simple_types@D@std@@@2@$00@std@@QEAA@U_Zero_then_variadic_args_t@1@@Z 0000000140016930 f i button.obj
 0002:0000398a       ?setCharacterSize@Text@sf@@QEAAXI@Z 000000014001698a f   sfml-graphics-d:sfml-graphics-d-2.dll
 0002:000039a0       ??$?0D@?$allocator@U_Container_proxy@std@@@std@@QEAA@AEBV?$allocator@D@1@@Z 00000001400169a0 f i button.obj
 0002:000039f0       ??$?0_W@?$allocator@U_Container_proxy@std@@@std@@QEAA@AEBV?$allocator@_W@1@@Z 00000001400169f0 f i button.obj
 0002:00003a40       ??$_Allocate@$0BA@U_Default_allocate_traits@std@@$0A@@std@@YAPEAX_K@Z 0000000140016a40 f i button.obj
 0002:00003ad0       ??$_Allocate_manually_vector_aligned@U_Default_allocate_traits@std@@@std@@YAPEAX_K@Z 0000000140016ad0 f i button.obj
 0002:00003c40       ??$_Convert_size@_K@std@@YA_K_K@Z 0000000140016c40 f i button.obj
 0002:00003c90       ??$_Deallocate@$0BA@$0A@@std@@YAXPEAX_K@Z 0000000140016c90 f i button.obj
 0002:00003d20       ??$_Deallocate_plain@V?$allocator@U_Container_proxy@std@@@std@@$0A@@std@@YAXAEAV?$allocator@U_Container_proxy@std@@@0@QEAU_Container_proxy@0@@Z 0000000140016d20 f i button.obj
 0002:00003d90       ??$_Get_size_of_n@$00@std@@YA_K_K@Z 0000000140016d90 f i button.obj
 0002:00003de0       ??$_Get_size_of_n@$0BA@@std@@YA_K_K@Z 0000000140016de0 f i button.obj
 0002:00003e70       ??$_Getvals@_W@?$time_get@DV?$istreambuf_iterator@DU?$char_traits@D@std@@@std@@@std@@IEAAX_WAEBV_Locinfo@1@@Z 0000000140016e70 f i button.obj
 0002:00004070       ??$_Getvals@_W@?$time_get@_WV?$istreambuf_iterator@_WU?$char_traits@_W@std@@@std@@@std@@IEAAX_WAEBV_Locinfo@1@@Z 0000000140017070 f i button.obj
 0002:00004270       ??$_Maklocstr@D@std@@YAPEADPEBDPEADAEBU_Cvtvec@@@Z 0000000140017270 f i button.obj
 0002:00004380       ??$_Maklocstr@_W@std@@YAPEA_WPEBDPEA_WAEBU_Cvtvec@@@Z 0000000140017380 f i button.obj
 0002:00004630       ??$_Max_value@_K@std@@YAAEB_KAEB_K0@Z 0000000140017630 f i button.obj
 0002:000046d0       ??$_Min_value@_K@std@@YAAEB_KAEB_K0@Z 00000001400176d0 f i button.obj
 0002:00004950       ??$_Unfancy@D@std@@YAPEADPEAD@Z 0000000140017950 f i button.obj
 0002:000049a0       ??$_Unfancy@U_Container_proxy@std@@@std@@YAPEAU_Container_proxy@0@PEAU10@@Z 00000001400179a0 f i button.obj
 0002:000049f0       ??$_Unfancy@_W@std@@YAPEA_WPEA_W@Z 00000001400179f0 f i button.obj
 0002:00004a40       ??$addressof@PEAD@std@@YAPEAPEADAEAPEAD@Z 0000000140017a40 f i button.obj
 0002:00004a90       ??$addressof@PEA_W@std@@YAPEAPEA_WAEAPEA_W@Z 0000000140017a90 f i button.obj
 0002:00004ae0       ??$addressof@V?$_String_val@U?$_Simple_types@D@std@@@std@@@std@@YAPEAV?$_String_val@U?$_Simple_types@D@std@@@0@AEAV10@@Z 0000000140017ae0 f i button.obj
 0002:00004b30       ??$construct@PEADAEBQEAD@?$_Default_allocator_traits@V?$allocator@D@std@@@std@@SAXAEAV?$allocator@D@1@QEAPEADAEBQEAD@Z 0000000140017b30 f i button.obj
 0002:00004bc0       ??$construct@U_Container_proxy@std@@U12@@?$_Default_allocator_traits@V?$allocator@U_Container_proxy@std@@@std@@@std@@SAXAEAV?$allocator@U_Container_proxy@std@@@1@QEAU_Container_proxy@1@$$QEAU31@@Z 0000000140017bc0 f i button.obj
 0002:00004c60       ??$destroy@PEAD@?$_Default_allocator_traits@V?$allocator@D@std@@@std@@SAXAEAV?$allocator@D@1@QEAPEAD@Z 0000000140017c60 f i button.obj
 0002:00004cb0       ??$destroy@PEA_W@?$_Default_allocator_traits@V?$allocator@_W@std@@@std@@SAXAEAV?$allocator@_W@1@QEAPEA_W@Z 0000000140017cb0 f i button.obj
 0002:00004d00       ??$destroy@U_Container_proxy@std@@@?$_Default_allocator_traits@V?$allocator@U_Container_proxy@std@@@std@@@std@@SAXAEAV?$allocator@U_Container_proxy@std@@@1@QEAU_Container_proxy@1@@Z 0000000140017d00 f i button.obj
 0002:00004d50       ??$forward@AEBQEAD@std@@YAAEBQEADAEBQEAD@Z 0000000140017d50 f i button.obj
 0002:00004da0       ??$forward@PEAVButton@@@std@@YA$$QEAPEAVButton@@AEAPEAV1@@Z 0000000140017da0 f i button.obj
 0002:00004df0       ??$forward@U_Container_proxy@std@@@std@@YA$$QEAU_Container_proxy@0@AEAU10@@Z 0000000140017df0 f i button.obj
 0002:00004e40       ??$move@AEAV?$_Func_class@XPEAVButton@@@std@@@std@@YA$$QEAV?$_Func_class@XPEAVButton@@@0@AEAV10@@Z 0000000140017e40 f i button.obj
 0002:00004e90       ??0?$Vector2@M@sf@@QEAA@MM@Z 0000000140017e90 f i button.obj
 0002:00004f20       ??0?$_Func_class@XPEAVButton@@@std@@QEAA@XZ 0000000140017f20 f i button.obj
 0002:00004f80       ??0?$_String_alloc@U?$_String_base_types@DV?$allocator@D@std@@@std@@@std@@QEAA@XZ 0000000140017f80 f i button.obj
 0002:00005010       ??0?$_String_val@U?$_Simple_types@D@std@@@std@@QEAA@XZ 0000000140018010 f i button.obj
 0002:000050b0       ??0?$allocator@D@std@@QEAA@XZ 00000001400180b0 f i button.obj
 0002:00005100       ??0?$basic_string@DU?$char_traits@D@std@@V?$allocator@D@2@@std@@QEAA@QEBD@Z 0000000140018100 f i button.obj
 0002:000051a0       ??0?$function@$$A6AXPEAVButton@@@Z@std@@QEAA@$$T@Z 00000001400181a0 f i button.obj
 0002:00005200       ??0?$function@$$A6AXPEAVButton@@@Z@std@@QEAA@AEBV01@@Z 0000000140018200 f i button.obj
 0002:00005290       ??0Button@@QEAA@AEBV?$Vector2@M@sf@@0@Z 0000000140018290 f   button.obj
 0002:00005440       ??0_Bxty@?$_String_val@U?$_Simple_types@D@std@@@std@@QEAA@XZ 0000000140018440 f i button.obj
 0002:00005490       ??0_Container_base12@std@@QEAA@XZ 0000000140018490 f i button.obj
 0002:000054f0       ??0_Container_proxy@std@@QEAA@XZ 00000001400184f0 f i button.obj
 0002:00005560       ??1?$_Compressed_pair@V?$allocator@D@std@@V?$_String_val@U?$_Simple_types@D@std@@@2@$00@std@@QEAA@XZ 0000000140018560 f i button.obj
 0002:000055c0       ??1?$_Compressed_pair@V?$allocator@_W@std@@V?$_String_val@U?$_Simple_types@_W@std@@@2@$00@std@@QEAA@XZ 00000001400185c0 f i button.obj
 0002:00005620       ??1?$_Func_class@XPEAVButton@@@std@@QEAA@XZ 0000000140018620 f i button.obj
 0002:00005670       ??1?$_String_alloc@U?$_String_base_types@DV?$allocator@D@std@@@std@@@std@@QEAA@XZ 0000000140018670 f i button.obj
 0002:000056f0       ??1?$_String_alloc@U?$_String_base_types@_WV?$allocator@_W@std@@@std@@@std@@QEAA@XZ 00000001400186f0 f i button.obj
 0002:00005770       ??1?$_String_val@U?$_Simple_types@D@std@@@std@@QEAA@XZ 0000000140018770 f i button.obj
 0002:000057d0       ??1?$_String_val@U?$_Simple_types@_W@std@@@std@@QEAA@XZ 00000001400187d0 f i button.obj
 0002:00005830       ??1?$basic_string@DU?$char_traits@D@std@@V?$allocator@D@2@@std@@QEAA@XZ 0000000140018830 f i button.obj
 0002:000058a0       ??1?$basic_string@_WU?$char_traits@_W@std@@V?$allocator@_W@2@@std@@QEAA@XZ 00000001400188a0 f i button.obj
 0002:00005910       ??1?$function@$$A6AXPEAVButton@@@Z@std@@QEAA@XZ 0000000140018910 f i button.obj
 0002:00005960       ??1Button@@UEAA@XZ         0000000140018960 f   button.obj
 0002:00005a00       ??1_Bxty@?$_String_val@U?$_Simple_types@D@std@@@std@@QEAA@XZ 0000000140018a00 f i button.obj
 0002:00005a40       ??1_Bxty@?$_String_val@U?$_Simple_types@_W@std@@@std@@QEAA@XZ 0000000140018a40 f i button.obj
 0002:00005a80       ??2@YAPEAX_KPEAX@Z         0000000140018a80 f i button.obj
 0002:00005ad0       ??4?$function@$$A6AXPEAVButton@@@Z@std@@QEAAAEAV01@AEBV01@@Z 0000000140018ad0 f i button.obj
 0002:00005b90       ??B?$function@$$A6AXPEAVButton@@@Z@std@@QEBA_NXZ 0000000140018b90 f i button.obj
 0002:00005cc0       ??R?$_Func_class@XPEAVButton@@@std@@QEBAXPEAVButton@@@Z 0000000140018cc0 f i button.obj
 0002:00005d70       ??_EButton@@UEAAPEAXI@Z    0000000140018d70 f i button.obj
 0002:00005d70       ??_GButton@@UEAAPEAXI@Z    0000000140018d70 f i button.obj
 0002:00005e00       ?Draw@Button@@UEAAXPEAVRenderWindow@sf@@@Z 0000000140018e00 f   button.obj
 0002:00005ea0       ?GetText@Button@@QEBAPEB_WXZ 0000000140018ea0 f   button.obj
 0002:00005f70       ?HandleEvent@Button@@UEAAXAEBVEvent@sf@@@Z 0000000140018f70 f   button.obj
 0002:000060b0       ?SetOnClickedListener@Button@@QEAAXV?$function@$$A6AXPEAVButton@@@Z@std@@@Z 00000001400190b0 f   button.obj
 0002:00006140       ?SetPos@Button@@UEAAXAEBV?$Vector2@M@sf@@@Z 0000000140019140 f   button.obj
 0002:000061b0       ?SetText@Button@@QEAAXPEB_W@Z 00000001400191b0 f   button.obj
 0002:000063c0       ?Update@Button@@UEAAXAEBVTime@sf@@@Z 00000001400193c0 f   button.obj
 0002:00006410       ?_Adjust_manually_vector_aligned@std@@YAXAEAPEAXAEA_K@Z 0000000140019410 f i button.obj
 0002:00006590       ?_Alloc_proxy@?$_String_alloc@U?$_String_base_types@DV?$allocator@D@std@@@std@@@std@@QEAAXXZ 0000000140019590 f i button.obj
 0002:000066d0       ?_Allocate@_Default_allocate_traits@std@@SAPEAX_K@Z 00000001400196d0 f i button.obj
 0002:00006720       ?_Calculate_growth@?$basic_string@DU?$char_traits@D@std@@V?$allocator@D@2@@std@@QEBA_K_K@Z 0000000140019720 f i button.obj
 0002:00006850       ?_Empty@?$_Func_class@XPEAVButton@@@std@@IEBA_NXZ 0000000140019850 f i button.obj
 0002:000068d0       ?_Free_proxy@?$_String_alloc@U?$_String_base_types@DV?$allocator@D@std@@@std@@@std@@QEAAXXZ 00000001400198d0 f i button.obj
 0002:000069b0       ?_Free_proxy@?$_String_alloc@U?$_String_base_types@_WV?$allocator@_W@std@@@std@@@std@@QEAAXXZ 00000001400199b0 f i button.obj
 0002:00006a90       ?_Get_data@?$_String_alloc@U?$_String_base_types@DV?$allocator@D@std@@@std@@@std@@QEAAAEAV?$_String_val@U?$_Simple_types@D@std@@@2@XZ 0000000140019a90 f i button.obj
 0002:00006af0       ?_Get_data@?$_String_alloc@U?$_String_base_types@DV?$allocator@D@std@@@std@@@std@@QEBAAEBV?$_String_val@U?$_Simple_types@D@std@@@2@XZ 0000000140019af0 f i button.obj
 0002:00006b50       ?_Get_data@?$_String_alloc@U?$_String_base_types@_WV?$allocator@_W@std@@@std@@@std@@QEAAAEAV?$_String_val@U?$_Simple_types@_W@std@@@2@XZ 0000000140019b50 f i button.obj
 0002:00006bb0       ?_Get_data@?$_String_alloc@U?$_String_base_types@_WV?$allocator@_W@std@@@std@@@std@@QEBAAEBV?$_String_val@U?$_Simple_types@_W@std@@@2@XZ 0000000140019bb0 f i button.obj
 0002:00006c10       ?_Get_first@?$_Compressed_pair@V?$allocator@D@std@@V?$_String_val@U?$_Simple_types@D@std@@@2@$00@std@@QEAAAEAV?$allocator@D@2@XZ 0000000140019c10 f i button.obj
 0002:00006c60       ?_Get_first@?$_Compressed_pair@V?$allocator@D@std@@V?$_String_val@U?$_Simple_types@D@std@@@2@$00@std@@QEBAAEBV?$allocator@D@2@XZ 0000000140019c60 f i button.obj
 0002:00006cb0       ?_Get_first@?$_Compressed_pair@V?$allocator@_W@std@@V?$_String_val@U?$_Simple_types@_W@std@@@2@$00@std@@QEAAAEAV?$allocator@_W@2@XZ 0000000140019cb0 f i button.obj
 0002:00006d00       ?_Get_second@?$_Compressed_pair@V?$allocator@D@std@@V?$_String_val@U?$_Simple_types@D@std@@@2@$00@std@@QEAAAEAV?$_String_val@U?$_Simple_types@D@std@@@2@XZ 0000000140019d00 f i button.obj
 0002:00006d50       ?_Get_second@?$_Compressed_pair@V?$allocator@D@std@@V?$_String_val@U?$_Simple_types@D@std@@@2@$00@std@@QEBAAEBV?$_String_val@U?$_Simple_types@D@std@@@2@XZ 0000000140019d50 f i button.obj
 0002:00006da0       ?_Get_second@?$_Compressed_pair@V?$allocator@_W@std@@V?$_String_val@U?$_Simple_types@_W@std@@@2@$00@std@@QEAAAEAV?$_String_val@U?$_Simple_types@_W@std@@@2@XZ 0000000140019da0 f i button.obj
 0002:00006df0       ?_Get_second@?$_Compressed_pair@V?$allocator@_W@std@@V?$_String_val@U?$_Simple_types@_W@std@@@2@$00@std@@QEBAAEBV?$_String_val@U?$_Simple_types@_W@std@@@2@XZ 0000000140019df0 f i button.obj
 0002:00006e40       ?_Getal@?$_String_alloc@U?$_String_base_types@DV?$allocator@D@std@@@std@@@std@@QEAAAEAV?$allocator@D@2@XZ 0000000140019e40 f i button.obj
 0002:00006ea0       ?_Getal@?$_String_alloc@U?$_String_base_types@DV?$allocator@D@std@@@std@@@std@@QEBAAEBV?$allocator@D@2@XZ 0000000140019ea0 f i button.obj
 0002:00006f00       ?_Getal@?$_String_alloc@U?$_String_base_types@_WV?$allocator@_W@std@@@std@@@std@@QEAAAEAV?$allocator@_W@2@XZ 0000000140019f00 f i button.obj
 0002:00006f60       ?_Getimpl@?$_Func_class@XPEAVButton@@@std@@AEBAPEAV?$_Func_base@XPEAVButton@@@2@XZ 0000000140019f60 f i button.obj
 0002:00006fc0       ?_Getspace@?$_Func_class@XPEAVButton@@@std@@AEAAPEAXXZ 0000000140019fc0 f i button.obj
 0002:00007010       ?_Getspace@?$_Func_class@XPEAVButton@@@std@@AEBAPEBXXZ 000000014001a010 f i button.obj
 0002:00007060       ?_Large_string_engaged@?$_String_val@U?$_Simple_types@D@std@@@std@@QEBA_NXZ 000000014001a060 f i button.obj
 0002:000070e0       ?_Large_string_engaged@?$_String_val@U?$_Simple_types@_W@std@@@std@@QEBA_NXZ 000000014001a0e0 f i button.obj
 0002:00007160       ?_Local@?$_Func_class@XPEAVButton@@@std@@AEBA_NXZ 000000014001a160 f i button.obj
 0002:00007200       ?_Maklocwcs@std@@YAPEA_WPEB_W@Z 000000014001a200 f i button.obj
 0002:000072c0       ?_Myproxy@?$_String_alloc@U?$_String_base_types@DV?$allocator@D@std@@@std@@@std@@QEAAAEAPEAU_Container_proxy@2@XZ 000000014001a2c0 f i button.obj
 0002:00007310       ?_Myproxy@?$_String_alloc@U?$_String_base_types@_WV?$allocator@_W@std@@@std@@@std@@QEAAAEAPEAU_Container_proxy@2@XZ 000000014001a310 f i button.obj
 0002:00007360       ?_Myptr@?$_String_val@U?$_Simple_types@D@std@@@std@@QEAAPEADXZ 000000014001a360 f i button.obj
 0002:000073f0       ?_Myptr@?$_String_val@U?$_Simple_types@_W@std@@@std@@QEBAPEB_WXZ 000000014001a3f0 f i button.obj
 0002:00007480       ?_Orphan_all@?$_String_alloc@U?$_String_base_types@DV?$allocator@D@std@@@std@@@std@@QEAAXXZ 000000014001a480 f i button.obj
 0002:000074e0       ?_Orphan_all@?$_String_alloc@U?$_String_base_types@_WV?$allocator@_W@std@@@std@@@std@@QEAAXXZ 000000014001a4e0 f i button.obj
 0002:00007540       ?_Orphan_all@_Container_base12@std@@QEAAXXZ 000000014001a540 f i button.obj
 0002:00007640       ?_Reset_copy@?$_Func_class@XPEAVButton@@@std@@IEAAXAEBV12@@Z 000000014001a640 f i button.obj
 0002:00007710       ?_Reset_move@?$_Func_class@XPEAVButton@@@std@@IEAAX$$QEAV12@@Z 000000014001a710 f i button.obj
 0002:00007840       ?_Set@?$_Func_class@XPEAVButton@@@std@@AEAAXPEAV?$_Func_base@XPEAVButton@@@2@@Z 000000014001a840 f i button.obj
 0002:000078b0       ?_Swap@?$_Func_class@XPEAVButton@@@std@@IEAAXAEAV12@@Z 000000014001a8b0 f i button.obj
 0002:00007a50       ?_Tidy@?$_Func_class@XPEAVButton@@@std@@IEAAXXZ 000000014001aa50 f i button.obj
 0002:00007b20       ?_Tidy_deallocate@?$basic_string@DU?$char_traits@D@std@@V?$allocator@D@2@@std@@QEAAXXZ 000000014001ab20 f i button.obj
 0002:00007c50       ?_Tidy_deallocate@?$basic_string@_WU?$char_traits@_W@std@@V?$allocator@_W@2@@std@@QEAAXXZ 000000014001ac50 f i button.obj
 0002:00007d90       ?_Tidy_init@?$basic_string@DU?$char_traits@D@std@@V?$allocator@D@2@@std@@QEAAXXZ 000000014001ad90 f i button.obj
 0002:00007e40       ?_Xlen@?$basic_string@DU?$char_traits@D@std@@V?$allocator@D@2@@std@@SAXXZ 000000014001ae40 f i button.obj
 0002:00007e90       ?__empty_global_delete@@YAXPEAX@Z 000000014001ae90 f i button.obj
 0002:00007ed0       ?__empty_global_delete@@YAXPEAX_K@Z 000000014001aed0 f i button.obj
 0002:00007f20       ?allocate@?$allocator@D@std@@QEAAPEAD_K@Z 000000014001af20 f i button.obj
 0002:00007f80       ?allocate@?$allocator@U_Container_proxy@std@@@std@@QEAAPEAU_Container_proxy@2@_K@Z 000000014001af80 f i button.obj
 0002:00007fe0       ?assign@?$_WChar_traits@_W@std@@SAXAEA_WAEB_W@Z 000000014001afe0 f i button.obj
 0002:00008040       ?assign@?$basic_string@DU?$char_traits@D@std@@V?$allocator@D@2@@std@@QEAAAEAV12@QEBD@Z 000000014001b040 f i button.obj
 0002:000080c0       ?assign@?$basic_string@DU?$char_traits@D@std@@V?$allocator@D@2@@std@@QEAAAEAV12@QEBD_K@Z 000000014001b0c0 f i button.obj
 0002:00008200       ?assign@?$char_traits@D@std@@SAXAEADAEBD@Z 000000014001b200 f i button.obj
 0002:00008260       ?c_str@?$basic_string@_WU?$char_traits@_W@std@@V?$allocator@_W@2@@std@@QEBAPEB_WXZ 000000014001b260 f i button.obj
 0002:000082d0       ?calculatePosText@Button@@AEAAXXZ 000000014001b2d0 f   button.obj
 0002:00008410       ?copy@?$char_traits@D@std@@SAPEADQEADQEBD_K@Z 000000014001b410 f i button.obj
 0002:00008480       ?deallocate@?$_Default_allocator_traits@V?$allocator@U_Container_proxy@std@@@std@@@std@@SAXAEAV?$allocator@U_Container_proxy@std@@@2@QEAU_Container_proxy@2@_K@Z 000000014001b480 f i button.obj
 0002:000084f0       ?deallocate@?$allocator@D@std@@QEAAXQEAD_K@Z 000000014001b4f0 f i button.obj
 0002:00008560       ?deallocate@?$allocator@_W@std@@QEAAXQEA_W_K@Z 000000014001b560 f i button.obj
 0002:000085d0       ?length@?$char_traits@D@std@@SA_KQEBD@Z 000000014001b5d0 f i button.obj
 0002:00008620       ?max@?$numeric_limits@_J@std@@SA_JXZ 000000014001b620 f i button.obj
 0002:00008660       ?max_size@?$_Default_allocator_traits@V?$allocator@D@std@@@std@@SA_KAEBV?$allocator@D@2@@Z 000000014001b660 f i button.obj
 0002:000086b0       ?max_size@?$basic_string@DU?$char_traits@D@std@@V?$allocator@D@2@@std@@QEBA_KXZ 000000014001b6b0 f i button.obj
 0002:000087a0       ?move@?$char_traits@D@std@@SAPEADQEADQEBD_K@Z 000000014001b7a0 f i button.obj
 0002:00008810       ?swap@?$function@$$A6AXPEAVButton@@@Z@std@@QEAAXAEAV12@@Z 000000014001b810 f i button.obj
 0002:00008870       wmemcpy                    000000014001b870 f i button.obj
 0002:000088f0       ??$?0$$QEAW4Object_Type@@$$Z$$V@?$pair@$$CBW4Object_Type@@PEBVGameObject@@@std@@QEAA@Upiecewise_construct_t@1@V?$tuple@$$QEAW4Object_Type@@@1@V?$tuple@$$V@1@@Z 000000014001b8f0 f i config.obj
 0002:00008990       ??$?0AEAV?$_Tree_iterator@V?$_Tree_val@U?$_Tree_simple_types@U?$pair@$$CBW4Object_Type@@PEBVGameObject@@@std@@@std@@@std@@@std@@_N$0A@@?$pair@V?$_Tree_iterator@V?$_Tree_val@U?$_Tree_simple_types@U?$pair@$$CBW4Object_Type@@PEBVGameObject@@@std@@@std@@@std@@@std@@_N@std@@QEAA@AEAV?$_Tree_iterator@V?$_Tree_val@U?$_Tree_simple_types@U?$pair@$$CBW4Object_Type@@PEBVGameObject@@@std@@@std@@@std@@@1@$$QEA_N@Z 000000014001b990 f i config.obj
 0002:00008a30       ??$?0AEBV?$allocator@D@std@@$$V@?$_Compressed_pair@V?$allocator@D@std@@V?$_String_val@U?$_Simple_types@D@std@@@2@$00@std@@QEAA@U_One_then_variadic_args_t@1@AEBV?$allocator@D@1@@Z 000000014001ba30 f i config.obj
 0002:00008ab0       ??$?0AEBV?$allocator@D@std@@X@?$_String_alloc@U?$_String_base_types@DV?$allocator@D@std@@@std@@@std@@QEAA@AEBV?$allocator@D@1@@Z 000000014001bab0 f i config.obj
 0002:00008b50       ??$?0U_Exact_args_t@std@@$0A@@?$tuple@$$V@std@@QEAA@U_Exact_args_t@1@@Z 000000014001bb50 f i config.obj
 0002:00008ba0       ??$?0U_Exact_args_t@std@@W4Object_Type@@$$V$0A@@?$tuple@$$QEAW4Object_Type@@@std@@QEAA@U_Exact_args_t@1@$$QEAW4Object_Type@@@Z 000000014001bba0 f i config.obj
 0002:00008c50       ??$?0V?$_Tree_iterator@V?$_Tree_val@U?$_Tree_simple_types@U?$pair@$$CBW4Object_Type@@PEBVGameObject@@@std@@@std@@@std@@@std@@_N$0A@@?$pair@V?$_Tree_iterator@V?$_Tree_val@U?$_Tree_simple_types@U?$pair@$$CBW4Object_Type@@PEBVGameObject@@@std@@@std@@@std@@@std@@_N@std@@QEAA@$$QEAV?$_Tree_iterator@V?$_Tree_val@U?$_Tree_simple_types@U?$pair@$$CBW4Object_Type@@PEBVGameObject@@@std@@@std@@@std@@@1@$$QEA_N@Z 000000014001bc50 f i config.obj
 0002:00008cf0       ??$?0V?$tuple@$$QEAW4Object_Type@@@std@@V?$tuple@$$V@1@$0A@$$Z$S@?$pair@$$CBW4Object_Type@@PEBVGameObject@@@std@@QEAA@AEAV?$tuple@$$QEAW4Object_Type@@@1@AEAV?$tuple@$$V@1@U?$integer_sequence@_K$0A@@1@U?$integer_sequence@_K$S@1@@Z 000000014001bcf0 f i config.obj
 0002:00008d90       ??$?0W4Object_Type@@$$V$0A@@?$tuple@$$QEAW4Object_Type@@@std@@QEAA@$$QEAW4Object_Type@@@Z 000000014001bd90 f i config.obj
 0002:00008e30       ??$?0W4Object_Type@@@?$_Tuple_val@$$QEAW4Object_Type@@@std@@QEAA@$$QEAW4Object_Type@@@Z 000000014001be30 f i config.obj
 0002:00008ea0       ??$?9DD@std@@YA_NAEBV?$allocator@D@0@0@Z 000000014001bea0 f i config.obj
 0002:00008ef0       ??$_Buy_if_not_node@AEAU?$pair@$$CBW4Object_Type@@PEBVGameObject@@@std@@@?$_Tree@V?$_Tmap_traits@W4Object_Type@@PEBVGameObject@@U?$less@W4Object_Type@@@std@@V?$allocator@U?$pair@$$CBW4Object_Type@@PEBVGameObject@@@std@@@4@$0A@@std@@@std@@IEAAPEAU?$_Tree_node@U?$pair@$$CBW4Object_Type@@PEBVGameObject@@@std@@PEAX@1@PEAU21@AEAU?$pair@$$CBW4Object_Type@@PEBVGameObject@@@1@@Z 000000014001bef0 f i config.obj
 0002:00008f50       ??$_Buynode@AEBUpiecewise_construct_t@std@@V?$tuple@$$QEAW4Object_Type@@@2@V?$tuple@$$V@2@@?$_Tree_comp_alloc@V?$_Tmap_traits@W4Object_Type@@PEBVGameObject@@U?$less@W4Object_Type@@@std@@V?$allocator@U?$pair@$$CBW4Object_Type@@PEBVGameObject@@@std@@@4@$0A@@std@@@std@@QEAAPEAU?$_Tree_node@U?$pair@$$CBW4Object_Type@@PEBVGameObject@@@std@@PEAX@1@AEBUpiecewise_construct_t@1@$$QEAV?$tuple@$$QEAW4Object_Type@@@1@$$QEAV?$tuple@$$V@1@@Z 000000014001bf50 f i config.obj
 0002:00009090       ??$_Debug_lt_pred@AEAU?$less@W4Object_Type@@@std@@AEAW4Object_Type@@AEBW43@@std@@YA_NAEAU?$less@W4Object_Type@@@0@AEAW4Object_Type@@AEBW42@PEB_WI@Z 000000014001c090 f i config.obj
 0002:000091d0       ??$_Debug_lt_pred@AEAU?$less@W4Object_Type@@@std@@AEBW4Object_Type@@AEBW43@@std@@YA_NAEAU?$less@W4Object_Type@@@0@AEBW4Object_Type@@1PEB_WI@Z 000000014001c1d0 f i config.obj
 0002:00009310       ??$_Debug_lt_pred@AEBU?$less@W4Object_Type@@@std@@AEBW4Object_Type@@AEBW43@@std@@YA_NAEBU?$less@W4Object_Type@@@0@AEBW4Object_Type@@1PEB_WI@Z 000000014001c310 f i config.obj
 0002:00009450       ??$_Freenode0@V?$allocator@U?$_Tree_node@U?$pair@$$CBW4Object_Type@@PEBVGameObject@@@std@@PEAX@std@@@std@@@?$_Tree_node@U?$pair@$$CBW4Object_Type@@PEBVGameObject@@@std@@PEAX@std@@SAXAEAV?$allocator@U?$_Tree_node@U?$pair@$$CBW4Object_Type@@PEBVGameObject@@@std@@PEAX@std@@@1@PEAU01@@Z 000000014001c450 f i config.obj
 0002:00009550       ??$_Get_size_of_n@$0DA@@std@@YA_K_K@Z 000000014001c550 f i config.obj
 0002:000095e0       ??$_Insert_at@AEAU?$pair@$$CBW4Object_Type@@PEBVGameObject@@@std@@PEAU?$_Tree_node@U?$pair@$$CBW4Object_Type@@PEBVGameObject@@@std@@PEAX@2@@?$_Tree@V?$_Tmap_traits@W4Object_Type@@PEBVGameObject@@U?$less@W4Object_Type@@@std@@V?$allocator@U?$pair@$$CBW4Object_Type@@PEBVGameObject@@@std@@@4@$0A@@std@@@std@@IEAA?AV?$_Tree_iterator@V?$_Tree_val@U?$_Tree_simple_types@U?$pair@$$CBW4Object_Type@@PEBVGameObject@@@std@@@std@@@std@@@1@_NPEAU?$_Tree_node@U?$pair@$$CBW4Object_Type@@PEBVGameObject@@@std@@PEAX@1@AEAU?$pair@$$CBW4Object_Type@@PEBVGameObject@@@1@1@Z 000000014001c5e0 f i config.obj
 0002:00009a50       ??$_Insert_hint@AEAU?$pair@$$CBW4Object_Type@@PEBVGameObject@@@std@@PEAU?$_Tree_node@U?$pair@$$CBW4Object_Type@@PEBVGameObject@@@std@@PEAX@2@@?$_Tree@V?$_Tmap_traits@W4Object_Type@@PEBVGameObject@@U?$less@W4Object_Type@@@std@@V?$allocator@U?$pair@$$CBW4Object_Type@@PEBVGameObject@@@std@@@4@$0A@@std@@@std@@IEAA?AV?$_Tree_iterator@V?$_Tree_val@U?$_Tree_simple_types@U?$pair@$$CBW4Object_Type@@PEBVGameObject@@@std@@@std@@@std@@@1@V?$_Tree_const_iterator@V?$_Tree_val@U?$_Tree_simple_types@U?$pair@$$CBW4Object_Type@@PEBVGameObject@@@std@@@std@@@std@@@1@AEAU?$pair@$$CBW4Object_Type@@PEBVGameObject@@@1@PEAU?$_Tree_node@U?$pair@$$CBW4Object_Type@@PEBVGameObject@@@std@@PEAX@1@@Z 000000014001ca50 f i config.obj
 0002:0000afc0       ??$_Insert_nohint@AEAU?$pair@$$CBW4Object_Type@@PEBVGameObject@@@std@@PEAU?$_Tree_node@U?$pair@$$CBW4Object_Type@@PEBVGameObject@@@std@@PEAX@2@@?$_Tree@V?$_Tmap_traits@W4Object_Type@@PEBVGameObject@@U?$less@W4Object_Type@@@std@@V?$allocator@U?$pair@$$CBW4Object_Type@@PEBVGameObject@@@std@@@4@$0A@@std@@@std@@IEAA?AU?$pair@V?$_Tree_iterator@V?$_Tree_val@U?$_Tree_simple_types@U?$pair@$$CBW4Object_Type@@PEBVGameObject@@@std@@@std@@@std@@@std@@_N@1@_NAEAU?$pair@$$CBW4Object_Type@@PEBVGameObject@@@1@PEAU?$_Tree_node@U?$pair@$$CBW4Object_Type@@PEBVGameObject@@@std@@PEAX@1@@Z 000000014001dfc0 f i config.obj
 0002:0000b660       ??$_Kfn@$$CBW4Object_Type@@PEBVGameObject@@@?$_Tmap_traits@W4Object_Type@@PEBVGameObject@@U?$less@W4Object_Type@@@std@@V?$allocator@U?$pair@$$CBW4Object_Type@@PEBVGameObject@@@std@@@4@$0A@@std@@SAAEBW4Object_Type@@AEBU?$pair@$$CBW4Object_Type@@PEBVGameObject@@@1@@Z 000000014001e660 f i config.obj
 0002:0000b6b0       ??$_Lbound@W4Object_Type@@@?$_Tree@V?$_Tmap_traits@W4Object_Type@@PEBVGameObject@@U?$less@W4Object_Type@@@std@@V?$allocator@U?$pair@$$CBW4Object_Type@@PEBVGameObject@@@std@@@4@$0A@@std@@@std@@IEBAPEAU?$_Tree_node@U?$pair@$$CBW4Object_Type@@PEBVGameObject@@@std@@PEAX@1@AEBW4Object_Type@@@Z 000000014001e6b0 f i config.obj
 0002:0000b7a0       ??$_Pocma@V?$allocator@D@std@@@std@@YAXAEAV?$allocator@D@0@0@Z 000000014001e7a0 f i config.obj
 0002:0000b820       ??$_Pocma@V?$allocator@D@std@@@std@@YAXAEAV?$allocator@D@0@0U?$integral_constant@_N$00@0@@Z 000000014001e820 f i config.obj
 0002:0000ba60       ??$_Try_emplace@W4Object_Type@@$$V@?$map@W4Object_Type@@PEBVGameObject@@U?$less@W4Object_Type@@@std@@V?$allocator@U?$pair@$$CBW4Object_Type@@PEBVGameObject@@@std@@@4@@std@@QEAA?AU?$pair@V?$_Tree_iterator@V?$_Tree_val@U?$_Tree_simple_types@U?$pair@$$CBW4Object_Type@@PEBVGameObject@@@std@@@std@@@std@@@std@@_N@1@$$QEAW4Object_Type@@@Z 000000014001ea60 f i config.obj
 0002:0000bdb0       ??$addressof@$$CBU?$pair@$$CBW4Object_Type@@PEBVGameObject@@@std@@@std@@YAPEBU?$pair@$$CBW4Object_Type@@PEBVGameObject@@@0@AEBU10@@Z 000000014001edb0 f i config.obj
 0002:0000be00       ??$addressof@$$CBV?$_Tree_val@U?$_Tree_simple_types@U?$pair@$$CBW4Object_Type@@PEBVGameObject@@@std@@@std@@@std@@@std@@YAPEBV?$_Tree_val@U?$_Tree_simple_types@U?$pair@$$CBW4Object_Type@@PEBVGameObject@@@std@@@std@@@0@AEBV10@@Z 000000014001ee00 f i config.obj
 0002:0000be50       ??$addressof@PEAU?$_Tree_node@U?$pair@$$CBW4Object_Type@@PEBVGameObject@@@std@@PEAX@std@@@std@@YAPEAPEAU?$_Tree_node@U?$pair@$$CBW4Object_Type@@PEBVGameObject@@@std@@PEAX@0@AEAPEAU10@@Z 000000014001ee50 f i config.obj
 0002:0000bea0       ??$addressof@U?$pair@$$CBW4Object_Type@@PEBVGameObject@@@std@@@std@@YAPEAU?$pair@$$CBW4Object_Type@@PEBVGameObject@@@0@AEAU10@@Z 000000014001eea0 f i config.obj
 0002:0000bef0       ??$addressof@V?$_Tree_val@U?$_Tree_simple_types@U?$pair@$$CBW4Object_Type@@PEBVGameObject@@@std@@@std@@@std@@@std@@YAPEAV?$_Tree_val@U?$_Tree_simple_types@U?$pair@$$CBW4Object_Type@@PEBVGameObject@@@std@@@std@@@0@AEAV10@@Z 000000014001eef0 f i config.obj
 0002:0000bf40       ??$addressof@V?$basic_string@DU?$char_traits@D@std@@V?$allocator@D@2@@std@@@std@@YAPEAV?$basic_string@DU?$char_traits@D@std@@V?$allocator@D@2@@0@AEAV10@@Z 000000014001ef40 f i config.obj
 0002:0000bf90       ??$construct@PEAU?$_Tree_node@U?$pair@$$CBW4Object_Type@@PEBVGameObject@@@std@@PEAX@std@@AEAPEAU12@@?$_Default_allocator_traits@V?$allocator@U?$_Tree_node@U?$pair@$$CBW4Object_Type@@PEBVGameObject@@@std@@PEAX@std@@@std@@@std@@SAXAEAV?$allocator@U?$_Tree_node@U?$pair@$$CBW4Object_Type@@PEBVGameObject@@@std@@PEAX@std@@@1@QEAPEAU?$_Tree_node@U?$pair@$$CBW4Object_Type@@PEBVGameObject@@@std@@PEAX@1@AEAPEAU31@@Z 000000014001ef90 f i config.obj
 0002:0000c020       ??$construct@U?$pair@$$CBW4Object_Type@@PEBVGameObject@@@std@@AEBUpiecewise_construct_t@2@V?$tuple@$$QEAW4Object_Type@@@2@V?$tuple@$$V@2@@?$_Default_allocator_traits@V?$allocator@U?$_Tree_node@U?$pair@$$CBW4Object_Type@@PEBVGameObject@@@std@@PEAX@std@@@std@@@std@@SAXAEAV?$allocator@U?$_Tree_node@U?$pair@$$CBW4Object_Type@@PEBVGameObject@@@std@@PEAX@std@@@1@QEAU?$pair@$$CBW4Object_Type@@PEBVGameObject@@@1@AEBUpiecewise_construct_t@1@$$QEAV?$tuple@$$QEAW4Object_Type@@@1@$$QEAV?$tuple@$$V@1@@Z 000000014001f020 f i config.obj
 0002:0000c150       ??$destroy@PEAU?$_Tree_node@U?$pair@$$CBW4Object_Type@@PEBVGameObject@@@std@@PEAX@std@@@?$_Default_allocator_traits@V?$allocator@U?$_Tree_node@U?$pair@$$CBW4Object_Type@@PEBVGameObject@@@std@@PEAX@std@@@std@@@std@@SAXAEAV?$allocator@U?$_Tree_node@U?$pair@$$CBW4Object_Type@@PEBVGameObject@@@std@@PEAX@std@@@1@QEAPEAU?$_Tree_node@U?$pair@$$CBW4Object_Type@@PEBVGameObject@@@std@@PEAX@1@@Z 000000014001f150 f i config.obj
 0002:0000c1a0       ??$destroy@U?$pair@$$CBW4Object_Type@@PEBVGameObject@@@std@@@?$_Default_allocator_traits@V?$allocator@U?$_Tree_node@U?$pair@$$CBW4Object_Type@@PEBVGameObject@@@std@@PEAX@std@@@std@@@std@@SAXAEAV?$allocator@U?$_Tree_node@U?$pair@$$CBW4Object_Type@@PEBVGameObject@@@std@@PEAX@std@@@1@QEAU?$pair@$$CBW4Object_Type@@PEBVGameObject@@@1@@Z 000000014001f1a0 f i config.obj
 0002:0000c1f0       ??$emplace_hint@AEBUpiecewise_construct_t@std@@V?$tuple@$$QEAW4Object_Type@@@2@V?$tuple@$$V@2@@?$_Tree@V?$_Tmap_traits@W4Object_Type@@PEBVGameObject@@U?$less@W4Object_Type@@@std@@V?$allocator@U?$pair@$$CBW4Object_Type@@PEBVGameObject@@@std@@@4@$0A@@std@@@std@@QEAA?AV?$_Tree_iterator@V?$_Tree_val@U?$_Tree_simple_types@U?$pair@$$CBW4Object_Type@@PEBVGameObject@@@std@@@std@@@std@@@1@V?$_Tree_const_iterator@V?$_Tree_val@U?$_Tree_simple_types@U?$pair@$$CBW4Object_Type@@PEBVGameObject@@@std@@@std@@@std@@@1@AEBUpiecewise_construct_t@1@$$QEAV?$tuple@$$QEAW4Object_Type@@@1@$$QEAV?$tuple@$$V@1@@Z 000000014001f1f0 f i config.obj
 0002:0000c380       ??$forward@$$QEAW4Object_Type@@@std@@YA$$QEAW4Object_Type@@AEAW41@@Z 000000014001f380 f i config.obj
 0002:0000c3d0       ??$forward@AEAPEAU?$_Tree_node@U?$pair@$$CBW4Object_Type@@PEBVGameObject@@@std@@PEAX@std@@@std@@YAAEAPEAU?$_Tree_node@U?$pair@$$CBW4Object_Type@@PEBVGameObject@@@std@@PEAX@0@AEAPEAU10@@Z 000000014001f3d0 f i config.obj
 0002:0000c420       ??$forward@AEAU?$pair@$$CBW4Object_Type@@PEBVGameObject@@@std@@@std@@YAAEAU?$pair@$$CBW4Object_Type@@PEBVGameObject@@@0@AEAU10@@Z 000000014001f420 f i config.obj
 0002:0000c470       ??$forward@AEAV?$_Tree_iterator@V?$_Tree_val@U?$_Tree_simple_types@U?$pair@$$CBW4Object_Type@@PEBVGameObject@@@std@@@std@@@std@@@std@@@std@@YAAEAV?$_Tree_iterator@V?$_Tree_val@U?$_Tree_simple_types@U?$pair@$$CBW4Object_Type@@PEBVGameObject@@@std@@@std@@@std@@@0@AEAV10@@Z 000000014001f470 f i config.obj
 0002:0000c4c0       ??$forward@AEBUpiecewise_construct_t@std@@@std@@YAAEBUpiecewise_construct_t@0@AEBU10@@Z 000000014001f4c0 f i config.obj
 0002:0000c510       ??$forward@AEBV?$allocator@D@std@@@std@@YAAEBV?$allocator@D@0@AEBV10@@Z 000000014001f510 f i config.obj
 0002:0000c560       ??$forward@V?$_Tree_iterator@V?$_Tree_val@U?$_Tree_simple_types@U?$pair@$$CBW4Object_Type@@PEBVGameObject@@@std@@@std@@@std@@@std@@@std@@YA$$QEAV?$_Tree_iterator@V?$_Tree_val@U?$_Tree_simple_types@U?$pair@$$CBW4Object_Type@@PEBVGameObject@@@std@@@std@@@std@@@0@AEAV10@@Z 000000014001f560 f i config.obj
 0002:0000c5b0       ??$forward@V?$tuple@$$QEAW4Object_Type@@@std@@@std@@YA$$QEAV?$tuple@$$QEAW4Object_Type@@@0@AEAV10@@Z 000000014001f5b0 f i config.obj
 0002:0000c600       ??$forward@V?$tuple@$$V@std@@@std@@YA$$QEAV?$tuple@$$V@0@AEAV10@@Z 000000014001f600 f i config.obj
 0002:0000c650       ??$forward@W4Object_Type@@@std@@YA$$QEAW4Object_Type@@AEAW41@@Z 000000014001f650 f i config.obj
 0002:0000c6a0       ??$forward@_N@std@@YA$$QEA_NAEA_N@Z 000000014001f6a0 f i config.obj
 0002:0000c6f0       ??$forward_as_tuple@$$V@std@@YA?AV?$tuple@$$V@0@XZ 000000014001f6f0 f i config.obj
 0002:0000c750       ??$forward_as_tuple@W4Object_Type@@@std@@YA?AV?$tuple@$$QEAW4Object_Type@@@0@$$QEAW4Object_Type@@@Z 000000014001f750 f i config.obj
 0002:0000c7e0       ??$get@$0A@$$QEAW4Object_Type@@@std@@YA$$QEAW4Object_Type@@$$QEAV?$tuple@$$QEAW4Object_Type@@@0@@Z 000000014001f7e0 f i config.obj
 0002:0000c840       ??$move@AEAV?$allocator@D@std@@@std@@YA$$QEAV?$allocator@D@0@AEAV10@@Z 000000014001f840 f i config.obj
 0002:0000c890       ??$move@AEAV?$basic_string@DU?$char_traits@D@std@@V?$allocator@D@2@@std@@@std@@YA$$QEAV?$basic_string@DU?$char_traits@D@std@@V?$allocator@D@2@@0@AEAV10@@Z 000000014001f890 f i config.obj
 0002:0000c8e0       ??$move@AEAV?$tuple@$$QEAW4Object_Type@@@std@@@std@@YA$$QEAV?$tuple@$$QEAW4Object_Type@@@0@AEAV10@@Z 000000014001f8e0 f i config.obj
 0002:0000c930       ??$move@AEAW4Object_Type@@@std@@YA$$QEAW4Object_Type@@AEAW41@@Z 000000014001f930 f i config.obj
 0002:0000c980       ??$try_emplace@$$V@?$map@W4Object_Type@@PEBVGameObject@@U?$less@W4Object_Type@@@std@@V?$allocator@U?$pair@$$CBW4Object_Type@@PEBVGameObject@@@std@@@4@@std@@QEAA?AU?$pair@V?$_Tree_iterator@V?$_Tree_val@U?$_Tree_simple_types@U?$pair@$$CBW4Object_Type@@PEBVGameObject@@@std@@@std@@@std@@@std@@_N@1@$$QEAW4Object_Type@@@Z 000000014001f980 f i config.obj
 0002:0000ca20       ??0?$_Tree_const_iterator@V?$_Tree_val@U?$_Tree_simple_types@U?$pair@$$CBW4Object_Type@@PEBVGameObject@@@std@@@std@@@std@@@std@@QEAA@$$QEAV01@@Z 000000014001fa20 f i config.obj
 0002:0000ca90       ??0?$_Tree_const_iterator@V?$_Tree_val@U?$_Tree_simple_types@U?$pair@$$CBW4Object_Type@@PEBVGameObject@@@std@@@std@@@std@@@std@@QEAA@AEBV01@@Z 000000014001fa90 f i config.obj
 0002:0000cb00       ??0?$_Tree_const_iterator@V?$_Tree_val@U?$_Tree_simple_types@U?$pair@$$CBW4Object_Type@@PEBVGameObject@@@std@@@std@@@std@@@std@@QEAA@PEAU?$_Tree_node@U?$pair@$$CBW4Object_Type@@PEBVGameObject@@@std@@PEAX@1@PEBV?$_Tree_val@U?$_Tree_simple_types@U?$pair@$$CBW4Object_Type@@PEBVGameObject@@@std@@@std@@@1@@Z 000000014001fb00 f i config.obj
 0002:0000cb80       ??0?$_Tree_const_iterator@V?$_Tree_val@U?$_Tree_simple_types@U?$pair@$$CBW4Object_Type@@PEBVGameObject@@@std@@@std@@@std@@@std@@QEAA@XZ 000000014001fb80 f i config.obj
 0002:0000cbe0       ??0?$_Tree_iterator@V?$_Tree_val@U?$_Tree_simple_types@U?$pair@$$CBW4Object_Type@@PEBVGameObject@@@std@@@std@@@std@@@std@@QEAA@$$QEAV01@@Z 000000014001fbe0 f i config.obj
 0002:0000cc50       ??0?$_Tree_iterator@V?$_Tree_val@U?$_Tree_simple_types@U?$pair@$$CBW4Object_Type@@PEBVGameObject@@@std@@@std@@@std@@@std@@QEAA@AEBV01@@Z 000000014001fc50 f i config.obj
 0002:0000ccc0       ??0?$_Tree_iterator@V?$_Tree_val@U?$_Tree_simple_types@U?$pair@$$CBW4Object_Type@@PEBVGameObject@@@std@@@std@@@std@@@std@@QEAA@PEAU?$_Tree_node@U?$pair@$$CBW4Object_Type@@PEBVGameObject@@@std@@PEAX@1@PEBV?$_Tree_val@U?$_Tree_simple_types@U?$pair@$$CBW4Object_Type@@PEBVGameObject@@@std@@@std@@@1@@Z 000000014001fcc0 f i config.obj
 0002:0000cd40       ??0?$_Tree_unchecked_const_iterator@V?$_Tree_val@U?$_Tree_simple_types@U?$pair@$$CBW4Object_Type@@PEBVGameObject@@@std@@@std@@@std@@U_Iterator_base12@2@@std@@QEAA@$$QEAV01@@Z 000000014001fd40 f i config.obj
 0002:0000cdd0       ??0?$_Tree_unchecked_const_iterator@V?$_Tree_val@U?$_Tree_simple_types@U?$pair@$$CBW4Object_Type@@PEBVGameObject@@@std@@@std@@@std@@U_Iterator_base12@2@@std@@QEAA@AEBV01@@Z 000000014001fdd0 f i config.obj
 0002:0000ce60       ??0?$_Tree_unchecked_const_iterator@V?$_Tree_val@U?$_Tree_simple_types@U?$pair@$$CBW4Object_Type@@PEBVGameObject@@@std@@@std@@@std@@U_Iterator_base12@2@@std@@QEAA@PEAU?$_Tree_node@U?$pair@$$CBW4Object_Type@@PEBVGameObject@@@std@@PEAX@1@PEBV?$_Tree_val@U?$_Tree_simple_types@U?$pair@$$CBW4Object_Type@@PEBVGameObject@@@std@@@std@@@1@@Z 000000014001fe60 f i config.obj
 0002:0000cf00       ??0?$_Tree_unchecked_const_iterator@V?$_Tree_val@U?$_Tree_simple_types@U?$pair@$$CBW4Object_Type@@PEBVGameObject@@@std@@@std@@@std@@U_Iterator_base12@2@@std@@QEAA@XZ 000000014001ff00 f i config.obj
 0002:0000cf70       ??0?$basic_string@DU?$char_traits@D@std@@V?$allocator@D@2@@std@@QEAA@AEBV01@_K1AEBV?$allocator@D@1@@Z 000000014001ff70 f i config.obj
 0002:0000d030       ??0?$tuple@$$QEAW4Object_Type@@@std@@QEAA@$$QEAV01@@Z 0000000140020030 f i config.obj
 0002:0000d0b0       ??0?$tuple@$$V@std@@QEAA@AEBV01@@Z 00000001400200b0 f i config.obj
 0002:0000d100       ??0?$tuple@$$V@std@@QEAA@XZ 0000000140020100 f i config.obj
 0002:0000d150       ??0_Iterator_base12@std@@QEAA@AEBU01@@Z 0000000140020150 f i config.obj
 0002:0000d1e0       ??0_Iterator_base12@std@@QEAA@XZ 00000001400201e0 f i config.obj
 0002:0000d250       ??1?$_Tree_const_iterator@V?$_Tree_val@U?$_Tree_simple_types@U?$pair@$$CBW4Object_Type@@PEBVGameObject@@@std@@@std@@@std@@@std@@QEAA@XZ 0000000140020250 f i config.obj
 0002:0000d2a0       ??1?$_Tree_iterator@V?$_Tree_val@U?$_Tree_simple_types@U?$pair@$$CBW4Object_Type@@PEBVGameObject@@@std@@@std@@@std@@@std@@QEAA@XZ 00000001400202a0 f i config.obj
 0002:0000d2f0       ??1?$_Tree_unchecked_const_iterator@V?$_Tree_val@U?$_Tree_simple_types@U?$pair@$$CBW4Object_Type@@PEBVGameObject@@@std@@@std@@@std@@U_Iterator_base12@2@@std@@QEAA@XZ 00000001400202f0 f i config.obj
 0002:0000d340       ??1?$pair@V?$_Tree_iterator@V?$_Tree_val@U?$_Tree_simple_types@U?$pair@$$CBW4Object_Type@@PEBVGameObject@@@std@@@std@@@std@@@std@@_N@std@@QEAA@XZ 0000000140020340 f i config.obj
 0002:0000d3a0       ??1_Iterator_base12@std@@QEAA@XZ 00000001400203a0 f i config.obj
 0002:0000d440       ??4?$_Tree_const_iterator@V?$_Tree_val@U?$_Tree_simple_types@U?$pair@$$CBW4Object_Type@@PEBVGameObject@@@std@@@std@@@std@@@std@@QEAAAEAV01@AEBV01@@Z 0000000140020440 f i config.obj
 0002:0000d4b0       ??4?$_Tree_unchecked_const_iterator@V?$_Tree_val@U?$_Tree_simple_types@U?$pair@$$CBW4Object_Type@@PEBVGameObject@@@std@@@std@@@std@@U_Iterator_base12@2@@std@@QEAAAEAV01@AEBV01@@Z 00000001400204b0 f i config.obj
 0002:0000d540       ??4?$basic_string@DU?$char_traits@D@std@@V?$allocator@D@2@@std@@QEAAAEAV01@$$QEAV01@@Z 0000000140020540 f i config.obj
 0002:0000d640       ??4_Iterator_base12@std@@QEAAAEAU01@AEBU01@@Z 0000000140020640 f i config.obj
 0002:0000d740       ??8?$_Tree_const_iterator@V?$_Tree_val@U?$_Tree_simple_types@U?$pair@$$CBW4Object_Type@@PEBVGameObject@@@std@@@std@@@std@@@std@@QEBA_NAEBV01@@Z 0000000140020740 f i config.obj
 0002:0000d860       ??A?$map@W4Object_Type@@PEBVGameObject@@U?$less@W4Object_Type@@@std@@V?$allocator@U?$pair@$$CBW4Object_Type@@PEBVGameObject@@@std@@@4@@std@@QEAAAEAPEBVGameObject@@$$QEAW4Object_Type@@@Z 0000000140020860 f i config.obj
 0002:0000d940       ??C?$_Tree_const_iterator@V?$_Tree_val@U?$_Tree_simple_types@U?$pair@$$CBW4Object_Type@@PEBVGameObject@@@std@@@std@@@std@@@std@@QEBAPEBU?$pair@$$CBW4Object_Type@@PEBVGameObject@@@1@XZ 0000000140020940 f i config.obj
 0002:0000d9a0       ??C?$_Tree_iterator@V?$_Tree_val@U?$_Tree_simple_types@U?$pair@$$CBW4Object_Type@@PEBVGameObject@@@std@@@std@@@std@@@std@@QEBAPEAU?$pair@$$CBW4Object_Type@@PEBVGameObject@@@1@XZ 00000001400209a0 f i config.obj
 0002:0000da00       ??D?$_Tree_const_iterator@V?$_Tree_val@U?$_Tree_simple_types@U?$pair@$$CBW4Object_Type@@PEBVGameObject@@@std@@@std@@@std@@@std@@QEBAAEBU?$pair@$$CBW4Object_Type@@PEBVGameObject@@@1@XZ 0000000140020a00 f i config.obj
 0002:0000daf0       ??D?$_Tree_iterator@V?$_Tree_val@U?$_Tree_simple_types@U?$pair@$$CBW4Object_Type@@PEBVGameObject@@@std@@@std@@@std@@@std@@QEBAAEAU?$pair@$$CBW4Object_Type@@PEBVGameObject@@@1@XZ 0000000140020af0 f i config.obj
 0002:0000db40       ??E?$_Tree_const_iterator@V?$_Tree_val@U?$_Tree_simple_types@U?$pair@$$CBW4Object_Type@@PEBVGameObject@@@std@@@std@@@std@@@std@@QEAAAEAV01@XZ 0000000140020b40 f i config.obj
 0002:0000dc30       ??E?$_Tree_unchecked_const_iterator@V?$_Tree_val@U?$_Tree_simple_types@U?$pair@$$CBW4Object_Type@@PEBVGameObject@@@std@@@std@@@std@@U_Iterator_base12@2@@std@@QEAAAEAV01@XZ 0000000140020c30 f i config.obj
 0002:0000dd50       ??F?$_Tree_const_iterator@V?$_Tree_val@U?$_Tree_simple_types@U?$pair@$$CBW4Object_Type@@PEBVGameObject@@@std@@@std@@@std@@@std@@QEAAAEAV01@XZ 0000000140020d50 f i config.obj
 0002:0000dea0       ??F?$_Tree_iterator@V?$_Tree_val@U?$_Tree_simple_types@U?$pair@$$CBW4Object_Type@@PEBVGameObject@@@std@@@std@@@std@@@std@@QEAAAEAV01@XZ 0000000140020ea0 f i config.obj
 0002:0000df00       ??F?$_Tree_unchecked_const_iterator@V?$_Tree_val@U?$_Tree_simple_types@U?$pair@$$CBW4Object_Type@@PEBVGameObject@@@std@@@std@@@std@@U_Iterator_base12@2@@std@@QEAAAEAV01@XZ 0000000140020f00 f i config.obj
 0002:0000e100       ??R?$less@W4Object_Type@@@std@@QEBA_NAEBW4Object_Type@@0@Z 0000000140021100 f i config.obj
 0002:0000e190       ?Create_Object@ConfigManager@@QEBAPEAVGameObject@@W4Object_Type@@@Z 0000000140021190 f   config.obj
 0002:0000e320       ?Get_Word_Pos_End@Config_Parser@@YAPEBDPEBD@Z 0000000140021320 f   config.obj
 0002:0000e400       ?Is_Comment_Line@Config_Parser@@YA_NPEBD@Z 0000000140021400 f   config.obj
 0002:0000e490       ?Load@ConfigManager@@QEAA_NPEBD@Z 0000000140021490 f   config.obj
 0002:0000e620       ?Read@Config_Parser@@YAPEBDPEBDAEAH@Z 0000000140021620 f   config.obj
 0002:0000e7b0       ?Read@Config_Parser@@YAPEBDPEBDAEAM@Z 00000001400217b0 f   config.obj
 0002:0000e940       ?Read@Config_Parser@@YAPEBDPEBDAEAV?$basic_string@DU?$char_traits@D@std@@V?$allocator@D@2@@std@@@Z 0000000140021940 f   config.obj
 0002:0000eab0       ?Read_Line@ConfigManager@@AEBA_KPEAU_iobuf@@PEAD_K@Z 0000000140021ab0 f   config.obj
 0002:0000ec00       ?_Adopt@_Iterator_base12@std@@QEAAXPEBU_Container_base12@2@@Z 0000000140021c00 f i config.obj
 0002:0000ed40       ?_Assign_rv_contents@?$basic_string@DU?$char_traits@D@std@@V?$allocator@D@2@@std@@QEAAX$$QEAV12@U?$integral_constant@_N$00@2@@Z 0000000140021d40 f i config.obj
 0002:0000ede0       ?_Assign_rv_contents_with_alloc_always_equal@?$basic_string@DU?$char_traits@D@std@@V?$allocator@D@2@@std@@QEAAX$$QEAV12@U?$integral_constant@_N$00@2@@Z 0000000140021de0 f i config.obj
 0002:0000ef00       ?_Buynode0@?$_Tree_comp_alloc@V?$_Tmap_traits@W4Object_Type@@PEBVGameObject@@U?$less@W4Object_Type@@@std@@V?$allocator@U?$pair@$$CBW4Object_Type@@PEBVGameObject@@@std@@@4@$0A@@std@@@std@@QEAAPEAU?$_Tree_node@U?$pair@$$CBW4Object_Type@@PEBVGameObject@@@std@@PEAX@2@XZ 0000000140021f00 f i config.obj
 0002:0000f050       ?_Check_offset@?$_String_val@U?$_Simple_types@D@std@@@std@@QEBAX_K@Z 0000000140022050 f i config.obj
 0002:0000f0c0       ?_Clamp_suffix_size@?$_String_val@U?$_Simple_types@D@std@@@std@@QEBA_K_K0@Z 00000001400220c0 f i config.obj
 0002:0000f150       ?_Compare@?$_Tree@V?$_Tmap_traits@W4Object_Type@@PEBVGameObject@@U?$less@W4Object_Type@@@std@@V?$allocator@U?$pair@$$CBW4Object_Type@@PEBVGameObject@@@std@@@4@$0A@@std@@@std@@IEBA_NAEBW4Object_Type@@0@Z 0000000140022150 f i config.obj
 0002:0000f1e0       ?_Destroy_if_node@?$_Tree@V?$_Tmap_traits@W4Object_Type@@PEBVGameObject@@U?$less@W4Object_Type@@@std@@V?$allocator@U?$pair@$$CBW4Object_Type@@PEBVGameObject@@@std@@@4@$0A@@std@@@std@@IEAAXPEAU?$_Tree_node@U?$pair@$$CBW4Object_Type@@PEBVGameObject@@@std@@PEAX@2@@Z 00000001400221e0 f i config.obj
 0002:0000f280       ?_Freenode0@?$_Tree_comp_alloc@V?$_Tmap_traits@W4Object_Type@@PEBVGameObject@@U?$less@W4Object_Type@@@std@@V?$allocator@U?$pair@$$CBW4Object_Type@@PEBVGameObject@@@std@@@4@$0A@@std@@@std@@QEAAXPEAU?$_Tree_node@U?$pair@$$CBW4Object_Type@@PEBVGameObject@@@std@@PEAX@2@@Z 0000000140022280 f i config.obj
 0002:0000f2f0       ?_Get_data@?$_Tree_comp_alloc@V?$_Tmap_traits@W4Object_Type@@PEBVGameObject@@U?$less@W4Object_Type@@@std@@V?$allocator@U?$pair@$$CBW4Object_Type@@PEBVGameObject@@@std@@@4@$0A@@std@@@std@@QEAAAEAV?$_Tree_val@U?$_Tree_simple_types@U?$pair@$$CBW4Object_Type@@PEBVGameObject@@@std@@@std@@@2@XZ 00000001400222f0 f i config.obj
 0002:0000f350       ?_Get_data@?$_Tree_comp_alloc@V?$_Tmap_traits@W4Object_Type@@PEBVGameObject@@U?$less@W4Object_Type@@@std@@V?$allocator@U?$pair@$$CBW4Object_Type@@PEBVGameObject@@@std@@@4@$0A@@std@@@std@@QEBAAEBV?$_Tree_val@U?$_Tree_simple_types@U?$pair@$$CBW4Object_Type@@PEBVGameObject@@@std@@@std@@@2@XZ 0000000140022350 f i config.obj
 0002:0000f3b0       ?_Get_first@?$_Compressed_pair@U?$less@W4Object_Type@@@std@@V?$_Compressed_pair@V?$allocator@U?$_Tree_node@U?$pair@$$CBW4Object_Type@@PEBVGameObject@@@std@@PEAX@std@@@std@@V?$_Tree_val@U?$_Tree_simple_types@U?$pair@$$CBW4Object_Type@@PEBVGameObject@@@std@@@std@@@2@$00@2@$00@std@@QEAAAEAU?$less@W4Object_Type@@@2@XZ 00000001400223b0 f i config.obj
 0002:0000f400       ?_Get_first@?$_Compressed_pair@U?$less@W4Object_Type@@@std@@V?$_Compressed_pair@V?$allocator@U?$_Tree_node@U?$pair@$$CBW4Object_Type@@PEBVGameObject@@@std@@PEAX@std@@@std@@V?$_Tree_val@U?$_Tree_simple_types@U?$pair@$$CBW4Object_Type@@PEBVGameObject@@@std@@@std@@@2@$00@2@$00@std@@QEBAAEBU?$less@W4Object_Type@@@2@XZ 0000000140022400 f i config.obj
 0002:0000f450       ?_Get_first@?$_Compressed_pair@V?$allocator@U?$_Tree_node@U?$pair@$$CBW4Object_Type@@PEBVGameObject@@@std@@PEAX@std@@@std@@V?$_Tree_val@U?$_Tree_simple_types@U?$pair@$$CBW4Object_Type@@PEBVGameObject@@@std@@@std@@@2@$00@std@@QEAAAEAV?$allocator@U?$_Tree_node@U?$pair@$$CBW4Object_Type@@PEBVGameObject@@@std@@PEAX@std@@@2@XZ 0000000140022450 f i config.obj
 0002:0000f4a0       ?_Get_first@?$_Compressed_pair@V?$allocator@U?$_Tree_node@U?$pair@$$CBW4Object_Type@@PEBVGameObject@@@std@@PEAX@std@@@std@@V?$_Tree_val@U?$_Tree_simple_types@U?$pair@$$CBW4Object_Type@@PEBVGameObject@@@std@@@std@@@2@$00@std@@QEBAAEBV?$allocator@U?$_Tree_node@U?$pair@$$CBW4Object_Type@@PEBVGameObject@@@std@@PEAX@std@@@2@XZ 00000001400224a0 f i config.obj
 0002:0000f4f0       ?_Get_second@?$_Compressed_pair@U?$less@W4Object_Type@@@std@@V?$_Compressed_pair@V?$allocator@U?$_Tree_node@U?$pair@$$CBW4Object_Type@@PEBVGameObject@@@std@@PEAX@std@@@std@@V?$_Tree_val@U?$_Tree_simple_types@U?$pair@$$CBW4Object_Type@@PEBVGameObject@@@std@@@std@@@2@$00@2@$00@std@@QEAAAEAV?$_Compressed_pair@V?$allocator@U?$_Tree_node@U?$pair@$$CBW4Object_Type@@PEBVGameObject@@@std@@PEAX@std@@@std@@V?$_Tree_val@U?$_Tree_simple_types@U?$pair@$$CBW4Object_Type@@PEBVGameObject@@@std@@@std@@@2@$00@2@XZ 00000001400224f0 f i config.obj
 0002:0000f540       ?_Get_second@?$_Compressed_pair@U?$less@W4Object_Type@@@std@@V?$_Compressed_pair@V?$allocator@U?$_Tree_node@U?$pair@$$CBW4Object_Type@@PEBVGameObject@@@std@@PEAX@std@@@std@@V?$_Tree_val@U?$_Tree_simple_types@U?$pair@$$CBW4Object_Type@@PEBVGameObject@@@std@@@std@@@2@$00@2@$00@std@@QEBAAEBV?$_Compressed_pair@V?$allocator@U?$_Tree_node@U?$pair@$$CBW4Object_Type@@PEBVGameObject@@@std@@PEAX@std@@@std@@V?$_Tree_val@U?$_Tree_simple_types@U?$pair@$$CBW4Object_Type@@PEBVGameObject@@@std@@@std@@@2@$00@2@XZ 0000000140022540 f i config.obj
 0002:0000f590       ?_Get_second@?$_Compressed_pair@V?$allocator@U?$_Tree_node@U?$pair@$$CBW4Object_Type@@PEBVGameObject@@@std@@PEAX@std@@@std@@V?$_Tree_val@U?$_Tree_simple_types@U?$pair@$$CBW4Object_Type@@PEBVGameObject@@@std@@@std@@@2@$00@std@@QEAAAEAV?$_Tree_val@U?$_Tree_simple_types@U?$pair@$$CBW4Object_Type@@PEBVGameObject@@@std@@@std@@@2@XZ 0000000140022590 f i config.obj
 0002:0000f5e0       ?_Get_second@?$_Compressed_pair@V?$allocator@U?$_Tree_node@U?$pair@$$CBW4Object_Type@@PEBVGameObject@@@std@@PEAX@std@@@std@@V?$_Tree_val@U?$_Tree_simple_types@U?$pair@$$CBW4Object_Type@@PEBVGameObject@@@std@@@std@@@2@$00@std@@QEBAAEBV?$_Tree_val@U?$_Tree_simple_types@U?$pair@$$CBW4Object_Type@@PEBVGameObject@@@std@@@std@@@2@XZ 00000001400225e0 f i config.obj
 0002:0000f630       ?_Getal@?$_Tree_comp_alloc@V?$_Tmap_traits@W4Object_Type@@PEBVGameObject@@U?$less@W4Object_Type@@@std@@V?$allocator@U?$pair@$$CBW4Object_Type@@PEBVGameObject@@@std@@@4@$0A@@std@@@std@@QEAAAEAV?$allocator@U?$_Tree_node@U?$pair@$$CBW4Object_Type@@PEBVGameObject@@@std@@PEAX@std@@@2@XZ 0000000140022630 f i config.obj
 0002:0000f690       ?_Getal@?$_Tree_comp_alloc@V?$_Tmap_traits@W4Object_Type@@PEBVGameObject@@U?$less@W4Object_Type@@@std@@V?$allocator@U?$pair@$$CBW4Object_Type@@PEBVGameObject@@@std@@@4@$0A@@std@@@std@@QEBAAEBV?$allocator@U?$_Tree_node@U?$pair@$$CBW4Object_Type@@PEBVGameObject@@@std@@PEAX@std@@@2@XZ 0000000140022690 f i config.obj
 0002:0000f6f0       ?_Getcomp@?$_Tree_comp_alloc@V?$_Tmap_traits@W4Object_Type@@PEBVGameObject@@U?$less@W4Object_Type@@@std@@V?$allocator@U?$pair@$$CBW4Object_Type@@PEBVGameObject@@@std@@@4@$0A@@std@@@std@@QEAAAEAU?$less@W4Object_Type@@@2@XZ 00000001400226f0 f i config.obj
 0002:0000f750       ?_Getcomp@?$_Tree_comp_alloc@V?$_Tmap_traits@W4Object_Type@@PEBVGameObject@@U?$less@W4Object_Type@@@std@@V?$allocator@U?$pair@$$CBW4Object_Type@@PEBVGameObject@@@std@@@4@$0A@@std@@@std@@QEBAAEBU?$less@W4Object_Type@@@2@XZ 0000000140022750 f i config.obj
 0002:0000f7b0       ?_Getcont@_Iterator_base12@std@@QEBAPEBU_Container_base12@2@XZ 00000001400227b0 f i config.obj
 0002:0000f830       ?_Key@?$_Tree@V?$_Tmap_traits@W4Object_Type@@PEBVGameObject@@U?$less@W4Object_Type@@@std@@V?$allocator@U?$pair@$$CBW4Object_Type@@PEBVGameObject@@@std@@@4@$0A@@std@@@std@@IEBAAEBW4Object_Type@@PEAU?$_Tree_node@U?$pair@$$CBW4Object_Type@@PEBVGameObject@@@std@@PEAX@2@@Z 0000000140022830 f i config.obj
 0002:0000f8a0       ?_Kfn@?$_Tree@V?$_Tmap_traits@W4Object_Type@@PEBVGameObject@@U?$less@W4Object_Type@@@std@@V?$allocator@U?$pair@$$CBW4Object_Type@@PEBVGameObject@@@std@@@4@$0A@@std@@@std@@IEBAAEBW4Object_Type@@AEBU?$pair@$$CBW4Object_Type@@PEBVGameObject@@@2@@Z 00000001400228a0 f i config.obj
 0002:0000f900       ?_Lmost@?$_Tree_val@U?$_Tree_simple_types@U?$pair@$$CBW4Object_Type@@PEBVGameObject@@@std@@@std@@@std@@QEBAAEAPEAU?$_Tree_node@U?$pair@$$CBW4Object_Type@@PEBVGameObject@@@std@@PEAX@2@XZ 0000000140022900 f i config.obj
 0002:0000f950       ?_Lrotate@?$_Tree_val@U?$_Tree_simple_types@U?$pair@$$CBW4Object_Type@@PEBVGameObject@@@std@@@std@@@std@@QEAAXPEAU?$_Tree_node@U?$pair@$$CBW4Object_Type@@PEBVGameObject@@@std@@PEAX@2@@Z 0000000140022950 f i config.obj
 0002:0000fab0       ?_Max@?$_Tree_val@U?$_Tree_simple_types@U?$pair@$$CBW4Object_Type@@PEBVGameObject@@@std@@@std@@@std@@SAPEAU?$_Tree_node@U?$pair@$$CBW4Object_Type@@PEBVGameObject@@@std@@PEAX@2@PEAU32@@Z 0000000140022ab0 f i config.obj
 0002:0000fb30       ?_Min@?$_Tree_val@U?$_Tree_simple_types@U?$pair@$$CBW4Object_Type@@PEBVGameObject@@@std@@@std@@@std@@SAPEAU?$_Tree_node@U?$pair@$$CBW4Object_Type@@PEBVGameObject@@@std@@PEAX@2@PEAU32@@Z 0000000140022b30 f i config.obj
 0002:0000fbb0       ?_Move_alloc@?$_String_alloc@U?$_String_base_types@DV?$allocator@D@std@@@std@@@std@@QEAAXAEAV?$allocator@D@2@@Z 0000000140022bb0 f i config.obj
 0002:0000fca0       ?_Myptr@?$_String_val@U?$_Simple_types@D@std@@@std@@QEBAPEBDXZ 0000000140022ca0 f i config.obj
 0002:0000fd30       ?_Orphan_me@_Iterator_base12@std@@QEAAXXZ 0000000140022d30 f i config.obj
 0002:0000fe70       ?_Rmost@?$_Tree_val@U?$_Tree_simple_types@U?$pair@$$CBW4Object_Type@@PEBVGameObject@@@std@@@std@@@std@@QEBAAEAPEAU?$_Tree_node@U?$pair@$$CBW4Object_Type@@PEBVGameObject@@@std@@PEAX@2@XZ 0000000140022e70 f i config.obj
 0002:0000fed0       ?_Root@?$_Tree_val@U?$_Tree_simple_types@U?$pair@$$CBW4Object_Type@@PEBVGameObject@@@std@@@std@@@std@@QEBAAEAPEAU?$_Tree_node@U?$pair@$$CBW4Object_Type@@PEBVGameObject@@@std@@PEAX@2@XZ 0000000140022ed0 f i config.obj
 0002:0000ff30       ?_Rrotate@?$_Tree_val@U?$_Tree_simple_types@U?$pair@$$CBW4Object_Type@@PEBVGameObject@@@std@@@std@@@std@@QEAAXPEAU?$_Tree_node@U?$pair@$$CBW4Object_Type@@PEBVGameObject@@@std@@PEAX@2@@Z 0000000140022f30 f i config.obj
 0002:00010090       ?_Swap_all@?$_String_alloc@U?$_String_base_types@DV?$allocator@D@std@@@std@@@std@@QEAAXAEAV12@@Z 0000000140023090 f i config.obj
 0002:00010120       ?_Swap_all@_Container_base12@std@@QEAAXAEAU12@@Z 0000000140023120 f i config.obj
 0002:00010240       ?_Xran@?$_String_val@U?$_Simple_types@D@std@@@std@@SAXXZ 0000000140023240 f i config.obj
 0002:00010290       ?allocate@?$allocator@U?$_Tree_node@U?$pair@$$CBW4Object_Type@@PEBVGameObject@@@std@@PEAX@std@@@std@@QEAAPEAU?$_Tree_node@U?$pair@$$CBW4Object_Type@@PEBVGameObject@@@std@@PEAX@2@_K@Z 0000000140023290 f i config.obj
 0002:000102f0       ?assign@?$basic_string@DU?$char_traits@D@std@@V?$allocator@D@2@@std@@QEAAAEAV12@AEBV12@_K_K@Z 00000001400232f0 f i config.obj
 0002:000103c0       ?begin@?$_Tree@V?$_Tmap_traits@W4Object_Type@@PEBVGameObject@@U?$less@W4Object_Type@@@std@@V?$allocator@U?$pair@$$CBW4Object_Type@@PEBVGameObject@@@std@@@4@$0A@@std@@@std@@QEAA?AV?$_Tree_iterator@V?$_Tree_val@U?$_Tree_simple_types@U?$pair@$$CBW4Object_Type@@PEBVGameObject@@@std@@@std@@@std@@@2@XZ 00000001400233c0 f i config.obj
 0002:00010480       ?c_str@?$basic_string@DU?$char_traits@D@std@@V?$allocator@D@2@@std@@QEBAPEBDXZ 0000000140023480 f i config.obj
 0002:000104f0       ?deallocate@?$_Default_allocator_traits@V?$allocator@U?$_Tree_node@U?$pair@$$CBW4Object_Type@@PEBVGameObject@@@std@@PEAX@std@@@std@@@std@@SAXAEAV?$allocator@U?$_Tree_node@U?$pair@$$CBW4Object_Type@@PEBVGameObject@@@std@@PEAX@std@@@2@QEAU?$_Tree_node@U?$pair@$$CBW4Object_Type@@PEBVGameObject@@@std@@PEAX@2@_K@Z 00000001400234f0 f i config.obj
 0002:00010560       ?deallocate@?$allocator@U?$_Tree_node@U?$pair@$$CBW4Object_Type@@PEBVGameObject@@@std@@PEAX@std@@@std@@QEAAXQEAU?$_Tree_node@U?$pair@$$CBW4Object_Type@@PEBVGameObject@@@std@@PEAX@2@_K@Z 0000000140023560 f i config.obj
 0002:000105d0       ?end@?$_Tree@V?$_Tmap_traits@W4Object_Type@@PEBVGameObject@@U?$less@W4Object_Type@@@std@@V?$allocator@U?$pair@$$CBW4Object_Type@@PEBVGameObject@@@std@@@4@$0A@@std@@@std@@QEAA?AV?$_Tree_iterator@V?$_Tree_val@U?$_Tree_simple_types@U?$pair@$$CBW4Object_Type@@PEBVGameObject@@@std@@@std@@@std@@@2@XZ 00000001400235d0 f i config.obj
 0002:00010670       ?end@?$_Tree@V?$_Tmap_traits@W4Object_Type@@PEBVGameObject@@U?$less@W4Object_Type@@@std@@V?$allocator@U?$pair@$$CBW4Object_Type@@PEBVGameObject@@@std@@@4@$0A@@std@@@std@@QEBA?AV?$_Tree_const_iterator@V?$_Tree_val@U?$_Tree_simple_types@U?$pair@$$CBW4Object_Type@@PEBVGameObject@@@std@@@std@@@std@@@2@XZ 0000000140023670 f i config.obj
 0002:00010710       ?find@?$_Tree@V?$_Tmap_traits@W4Object_Type@@PEBVGameObject@@U?$less@W4Object_Type@@@std@@V?$allocator@U?$pair@$$CBW4Object_Type@@PEBVGameObject@@@std@@@4@$0A@@std@@@std@@QEBA?AV?$_Tree_const_iterator@V?$_Tree_val@U?$_Tree_simple_types@U?$pair@$$CBW4Object_Type@@PEBVGameObject@@@std@@@std@@@std@@@2@AEBW4Object_Type@@@Z 0000000140023710 f i config.obj
 0002:000109e0       ?lower_bound@?$_Tree@V?$_Tmap_traits@W4Object_Type@@PEBVGameObject@@U?$less@W4Object_Type@@@std@@V?$allocator@U?$pair@$$CBW4Object_Type@@PEBVGameObject@@@std@@@4@$0A@@std@@@std@@QEAA?AV?$_Tree_iterator@V?$_Tree_val@U?$_Tree_simple_types@U?$pair@$$CBW4Object_Type@@PEBVGameObject@@@std@@@std@@@std@@@2@AEBW4Object_Type@@@Z 00000001400239e0 f i config.obj
 0002:00010ab0       ?lower_bound@?$_Tree@V?$_Tmap_traits@W4Object_Type@@PEBVGameObject@@U?$less@W4Object_Type@@@std@@V?$allocator@U?$pair@$$CBW4Object_Type@@PEBVGameObject@@@std@@@4@$0A@@std@@@std@@QEBA?AV?$_Tree_const_iterator@V?$_Tree_val@U?$_Tree_simple_types@U?$pair@$$CBW4Object_Type@@PEBVGameObject@@@std@@@std@@@std@@@2@AEBW4Object_Type@@@Z 0000000140023ab0 f i config.obj
 0002:00010b80       ?max_size@?$_Default_allocator_traits@V?$allocator@U?$_Tree_node@U?$pair@$$CBW4Object_Type@@PEBVGameObject@@@std@@PEAX@std@@@std@@@std@@SA_KAEBV?$allocator@U?$_Tree_node@U?$pair@$$CBW4Object_Type@@PEBVGameObject@@@std@@PEAX@std@@@2@@Z 0000000140023b80 f i config.obj
 0002:00010bd0       ?max_size@?$_Tree@V?$_Tmap_traits@W4Object_Type@@PEBVGameObject@@U?$less@W4Object_Type@@@std@@V?$allocator@U?$pair@$$CBW4Object_Type@@PEBVGameObject@@@std@@@4@$0A@@std@@@std@@QEBA_KXZ 0000000140023bd0 f i config.obj
 0002:00010c30       ?pointer_to@?$pointer_traits@PEAU?$pair@$$CBW4Object_Type@@PEBVGameObject@@@std@@@std@@SAPEAU?$pair@$$CBW4Object_Type@@PEBVGameObject@@@2@AEAU32@@Z 0000000140023c30 f i config.obj
 0002:00010c80       ?pointer_to@?$pointer_traits@PEBU?$pair@$$CBW4Object_Type@@PEBVGameObject@@@std@@@std@@SAPEBU?$pair@$$CBW4Object_Type@@PEBVGameObject@@@2@AEBU32@@Z 0000000140023c80 f i config.obj
 0002:00010cd0       ?size@?$_Tree@V?$_Tmap_traits@W4Object_Type@@PEBVGameObject@@U?$less@W4Object_Type@@@std@@V?$allocator@U?$pair@$$CBW4Object_Type@@PEBVGameObject@@@std@@@4@$0A@@std@@@std@@QEBA_KXZ 0000000140023cd0 f i config.obj
 0002:00010d30       ?stof@std@@YAMAEBV?$basic_string@DU?$char_traits@D@std@@V?$allocator@D@2@@1@PEA_K@Z 0000000140023d30 f i config.obj
 0002:00010e50       ?stoi@std@@YAHAEBV?$basic_string@DU?$char_traits@D@std@@V?$allocator@D@2@@1@PEA_KH@Z 0000000140023e50 f i config.obj
 0002:00010f80       __local_stdio_printf_options 0000000140023f80 f i config.obj
 0002:00010fc0       _vfprintf_l                0000000140023fc0 f i config.obj
 0002:00011050       printf                     0000000140024050 f i config.obj
 0002:00011110       ??0?$Container@VGameObject@@@@QEAA@AEBV?$Vector2@M@sf@@0@Z 0000000140024110 f i container.obj
 0002:000111d0       ??0?$Container@VWidget@@@@QEAA@AEBV?$Vector2@M@sf@@0@Z 00000001400241d0 f i container.obj
 0002:00011290       ??1?$Container@VGameObject@@@@UEAA@XZ 0000000140024290 f i container.obj
 0002:00011350       ??1?$Container@VWidget@@@@UEAA@XZ 0000000140024350 f i container.obj
 0002:00011410       ??_G?$Container@VGameObject@@@@UEAAPEAXI@Z 0000000140024410 f i container.obj
 0002:00011410       ??_E?$Container@VGameObject@@@@UEAAPEAXI@Z 0000000140024410 f i container.obj
 0002:000114a0       ??_E?$Container@VWidget@@@@UEAAPEAXI@Z 00000001400244a0 f i container.obj
 0002:000114a0       ??_G?$Container@VWidget@@@@UEAAPEAXI@Z 00000001400244a0 f i container.obj
 0002:00011530       ?AddWidget@?$Container@VGameObject@@@@QEAAXPEAVGameObject@@@Z 0000000140024530 f i container.obj
 0002:000116e0       ?AddWidget@?$Container@VWidget@@@@QEAAXPEAVWidget@@@Z 00000001400246e0 f i container.obj
 0002:00011890       ?Draw@?$Container@VGameObject@@@@UEAAXPEAVRenderWindow@sf@@@Z 0000000140024890 f i container.obj
 0002:00011970       ?Draw@?$Container@VWidget@@@@UEAAXPEAVRenderWindow@sf@@@Z 0000000140024970 f i container.obj
 0002:00011a50       ?GetWidget@?$Container@VGameObject@@@@QEBAPEAVGameObject@@_K@Z 0000000140024a50 f i container.obj
 0002:00011af0       ?GetWidget@?$Container@VWidget@@@@QEBAPEAVWidget@@_K@Z 0000000140024af0 f i container.obj
 0002:00011b90       ?GetWidgetsCount@?$Container@VGameObject@@@@QEBA_KXZ 0000000140024b90 f i container.obj
 0002:00011be0       ?GetWidgetsCount@?$Container@VWidget@@@@QEBA_KXZ 0000000140024be0 f i container.obj
 0002:00011c30       ?HandleEvent@?$Container@VGameObject@@@@UEAAXAEBVEvent@sf@@@Z 0000000140024c30 f i container.obj
 0002:00011c80       ?HandleEvent@?$Container@VWidget@@@@UEAAXAEBVEvent@sf@@@Z 0000000140024c80 f   container.obj
 0002:00011d50       ?RemoveWidget@?$Container@VGameObject@@@@QEAA_NPEAVGameObject@@@Z 0000000140024d50 f i container.obj
 0002:00011f10       ?RemoveWidget@?$Container@VWidget@@@@QEAA_NPEAVWidget@@@Z 0000000140024f10 f i container.obj
 0002:000120d0       ?SetPos@?$Container@VGameObject@@@@UEAAXAEBV?$Vector2@M@sf@@@Z 00000001400250d0 f i container.obj
 0002:00012190       ?SetPos@?$Container@VWidget@@@@UEAAXAEBV?$Vector2@M@sf@@@Z 0000000140025190 f i container.obj
 0002:00012250       ?Update@?$Container@VGameObject@@@@UEAAXAEBVTime@sf@@@Z 0000000140025250 f i container.obj
 0002:00012320       ?Update@?$Container@VWidget@@@@UEAAXAEBVTime@sf@@@Z 0000000140025320 f i container.obj
 0002:000123f0       ??$?0$$V@?$_Compressed_pair@V?$allocator@PEAV?$Container@VWidget@@@@@std@@V?$_Vector_val@U?$_Simple_types@PEAV?$Container@VWidget@@@@@std@@@2@$00@std@@QEAA@U_Zero_then_variadic_args_t@1@@Z 00000001400253f0 f i engine.obj
 0002:00012460       ??$?0$$V@?$_Compressed_pair@V?$allocator@U?$_Tree_node@U?$pair@$$CBW4Object_Type@@PEBVGameObject@@@std@@PEAX@std@@@std@@V?$_Tree_val@U?$_Tree_simple_types@U?$pair@$$CBW4Object_Type@@PEBVGameObject@@@std@@@std@@@2@$00@std@@QEAA@U_Zero_then_variadic_args_t@1@@Z 0000000140025460 f i engine.obj
 0002:000124d0       ??$?0AEBU?$less@W4Object_Type@@@std@@U_Zero_then_variadic_args_t@1@@?$_Compressed_pair@U?$less@W4Object_Type@@@std@@V?$_Compressed_pair@V?$allocator@U?$_Tree_node@U?$pair@$$CBW4Object_Type@@PEBVGameObject@@@std@@PEAX@std@@@std@@V?$_Tree_val@U?$_Tree_simple_types@U?$pair@$$CBW4Object_Type@@PEBVGameObject@@@std@@@std@@@2@$00@2@$00@std@@QEAA@U_One_then_variadic_args_t@1@AEBU?$less@W4Object_Type@@@1@$$QEAU_Zero_then_variadic_args_t@1@@Z 00000001400254d0 f i engine.obj
 0002:00012560       ??$?0PEAV?$Container@VWidget@@@@@?$allocator@U_Container_proxy@std@@@std@@QEAA@AEBV?$allocator@PEAV?$Container@VWidget@@@@@1@@Z 0000000140025560 f i engine.obj
 0002:000125b0       ??$?0U?$_Tree_node@U?$pair@$$CBW4Object_Type@@PEBVGameObject@@@std@@PEAX@std@@@?$allocator@U_Container_proxy@std@@@std@@QEAA@AEBV?$allocator@U?$_Tree_node@U?$pair@$$CBW4Object_Type@@PEBVGameObject@@@std@@PEAX@std@@@1@@Z 00000001400255b0 f i engine.obj
 0002:00012600       ??$_Copy_memmove@PEAPEAV?$Container@VWidget@@@@PEAPEAV1@@std@@YAPEAPEAV?$Container@VWidget@@@@PEAPEAV1@00@Z 0000000140025600 f i engine.obj
 0002:000126c0       ??$_Destroy_range1@V?$allocator@PEAV?$Container@VWidget@@@@@std@@@std@@YAXPEAPEAV?$Container@VWidget@@@@0AEAV?$allocator@PEAV?$Container@VWidget@@@@@0@U?$integral_constant@_N$00@0@@Z 00000001400256c0 f i engine.obj
 0002:00012720       ??$_Destroy_range@V?$allocator@PEAV?$Container@VWidget@@@@@std@@@std@@YAXPEAPEAV?$Container@VWidget@@@@0AEAV?$allocator@PEAV?$Container@VWidget@@@@@0@@Z 0000000140025720 f i engine.obj
 0002:000127a0       ??$_Emplace_back_with_unused_capacity@AEBQEAV?$Container@VWidget@@@@@?$vector@PEAV?$Container@VWidget@@@@V?$allocator@PEAV?$Container@VWidget@@@@@std@@@std@@AEAA@AEBQEAV?$Container@VWidget@@@@@Z 00000001400257a0 f i engine.obj
 0002:000128f0       ??$_Emplace_reallocate@AEBQEAV?$Container@VWidget@@@@@?$vector@PEAV?$Container@VWidget@@@@V?$allocator@PEAV?$Container@VWidget@@@@@std@@@std@@QEAAPEAPEAV?$Container@VWidget@@@@QEAPEAV2@AEBQEAV2@@Z 00000001400258f0 f i engine.obj
 0002:00012bf0       ??$_Get_size_of_n@$07@std@@YA_K_K@Z 0000000140025bf0 f i engine.obj
 0002:00012c80       ??$_Ptr_move_cat@PEAV?$Container@VWidget@@@@PEAV1@@std@@YA?AU_Really_trivial_ptr_iterator_tag@0@AEBQEAPEAV?$Container@VWidget@@@@0@Z 0000000140025c80 f i engine.obj
 0002:00012ce0       ??$_Rechecked@PEAPEAV?$Container@VWidget@@@@PEAPEAV1@@std@@YAAEAPEAPEAV?$Container@VWidget@@@@AEAPEAPEAV1@QEAPEAV1@@Z 0000000140025ce0 f i engine.obj
 0002:00012d50       ??$_Unchecked@PEAPEAV?$Container@VWidget@@@@@std@@YAPEAPEAV?$Container@VWidget@@@@PEAPEAV1@@Z 0000000140025d50 f i engine.obj
 0002:00012da0       ??$_Unfancy@PEAV?$Container@VWidget@@@@@std@@YAPEAPEAV?$Container@VWidget@@@@PEAPEAV1@@Z 0000000140025da0 f i engine.obj
 0002:00012df0       ??$_Uninitialized_move@PEAPEAV?$Container@VWidget@@@@PEAPEAV1@V?$allocator@PEAV?$Container@VWidget@@@@@std@@@std@@YAPEAPEAV?$Container@VWidget@@@@QEAPEAV1@0PEAPEAV1@AEAV?$allocator@PEAV?$Container@VWidget@@@@@0@@Z 0000000140025df0 f i engine.obj
 0002:00012f00       ??$_Uninitialized_move_al_unchecked@PEAV?$Container@VWidget@@@@PEAV1@V?$allocator@PEAV?$Container@VWidget@@@@@std@@@std@@YAPEAPEAV?$Container@VWidget@@@@QEAPEAV1@00AEAV?$allocator@PEAV?$Container@VWidget@@@@@0@U_Really_trivial_ptr_iterator_tag@0@U?$integral_constant@_N$00@0@@Z 0000000140025f00 f i engine.obj
 0002:00012f80       ??$addressof@V?$_Vector_val@U?$_Simple_types@PEAV?$Container@VWidget@@@@@std@@@std@@@std@@YAPEAV?$_Vector_val@U?$_Simple_types@PEAV?$Container@VWidget@@@@@std@@@0@AEAV10@@Z 0000000140025f80 f i engine.obj
 0002:00012fd0       ??$construct@PEAV?$Container@VWidget@@@@AEBQEAV1@@?$_Default_allocator_traits@V?$allocator@PEAV?$Container@VWidget@@@@@std@@@std@@SAXAEAV?$allocator@PEAV?$Container@VWidget@@@@@1@QEAPEAV?$Container@VWidget@@@@AEBQEAV3@@Z 0000000140025fd0 f i engine.obj
 0002:00013060       ??$emplace_back@AEBQEAV?$Container@VWidget@@@@@?$vector@PEAV?$Container@VWidget@@@@V?$allocator@PEAV?$Container@VWidget@@@@@std@@@std@@QEAA@AEBQEAV?$Container@VWidget@@@@@Z 0000000140026060 f i engine.obj
 0002:00013130       ??$forward@AEBQEAV?$Container@VWidget@@@@@std@@YAAEBQEAV?$Container@VWidget@@@@AEBQEAV1@@Z 0000000140026130 f i engine.obj
 0002:00013180       ??$forward@AEBU?$less@W4Object_Type@@@std@@@std@@YAAEBU?$less@W4Object_Type@@@0@AEBU10@@Z 0000000140026180 f i engine.obj
 0002:000131d0       ??$forward@U_Zero_then_variadic_args_t@std@@@std@@YA$$QEAU_Zero_then_variadic_args_t@0@AEAU10@@Z 00000001400261d0 f i engine.obj
 0002:00013220       ??$move@AEAD@std@@YA$$QEADAEAD@Z 0000000140026220 f i engine.obj
 0002:00013270       ??$swap@DX@std@@YAXAEAD0@Z 0000000140026270 f i engine.obj
 0002:00013320       ??0?$_Tree@V?$_Tmap_traits@W4Object_Type@@PEBVGameObject@@U?$less@W4Object_Type@@@std@@V?$allocator@U?$pair@$$CBW4Object_Type@@PEBVGameObject@@@std@@@4@$0A@@std@@@std@@QEAA@AEBU?$less@W4Object_Type@@@1@@Z 0000000140026320 f i engine.obj
 0002:00013390       ??0?$_Tree_comp_alloc@V?$_Tmap_traits@W4Object_Type@@PEBVGameObject@@U?$less@W4Object_Type@@@std@@V?$allocator@U?$pair@$$CBW4Object_Type@@PEBVGameObject@@@std@@@4@$0A@@std@@@std@@QEAA@AEBU?$less@W4Object_Type@@@1@@Z 0000000140026390 f i engine.obj
 0002:00013420       ??0?$_Tree_val@U?$_Tree_simple_types@U?$pair@$$CBW4Object_Type@@PEBVGameObject@@@std@@@std@@@std@@QEAA@XZ 0000000140026420 f i engine.obj
 0002:000134a0       ??0?$_Vector_alloc@U?$_Vec_base_types@PEAV?$Container@VWidget@@@@V?$allocator@PEAV?$Container@VWidget@@@@@std@@@std@@@std@@QEAA@XZ 00000001400264a0 f i engine.obj
 0002:00013520       ??0?$_Vector_val@U?$_Simple_types@PEAV?$Container@VWidget@@@@@std@@@std@@QEAA@XZ 0000000140026520 f i engine.obj
 0002:000135c0       ??0?$allocator@PEAV?$Container@VWidget@@@@@std@@QEAA@XZ 00000001400265c0 f i engine.obj
 0002:00013610       ??0?$allocator@U?$_Tree_node@U?$pair@$$CBW4Object_Type@@PEBVGameObject@@@std@@PEAX@std@@@std@@QEAA@XZ 0000000140026610 f i engine.obj
 0002:00013660       ??0?$map@W4Object_Type@@PEBVGameObject@@U?$less@W4Object_Type@@@std@@V?$allocator@U?$pair@$$CBW4Object_Type@@PEBVGameObject@@@std@@@4@@std@@QEAA@XZ 0000000140026660 f i engine.obj
 0002:000136d0       ??0?$vector@PEAV?$Container@VWidget@@@@V?$allocator@PEAV?$Container@VWidget@@@@@std@@@std@@QEAA@XZ 00000001400266d0 f i engine.obj
 0002:00013740       ??0ConfigManager@@QEAA@XZ  0000000140026740 f i engine.obj
 0002:000137a0       ??0ContextSettings@sf@@QEAA@IIIIII_N@Z 00000001400267a0 f i engine.obj
 0002:00013890       ??0Engine@@QEAA@XZ         0000000140026890 f   engine.obj
 0002:00013c00       ??0locale@std@@QEAA@XZ     0000000140026c00 f i engine.obj
 0002:00013c70       ??1?$_Tree@V?$_Tmap_traits@W4Object_Type@@PEBVGameObject@@U?$less@W4Object_Type@@@std@@V?$allocator@U?$pair@$$CBW4Object_Type@@PEBVGameObject@@@std@@@4@$0A@@std@@@std@@QEAA@XZ 0000000140026c70 f i engine.obj
 0002:00013ce0       ??1?$_Tree_comp_alloc@V?$_Tmap_traits@W4Object_Type@@PEBVGameObject@@U?$less@W4Object_Type@@@std@@V?$allocator@U?$pair@$$CBW4Object_Type@@PEBVGameObject@@@std@@@4@$0A@@std@@@std@@QEAA@XZ 0000000140026ce0 f i engine.obj
 0002:00013d70       ??1?$_Vector_alloc@U?$_Vec_base_types@PEAV?$Container@VWidget@@@@V?$allocator@PEAV?$Container@VWidget@@@@@std@@@std@@@std@@QEAA@XZ 0000000140026d70 f i engine.obj
 0002:00013dd0       ??1?$map@W4Object_Type@@PEBVGameObject@@U?$less@W4Object_Type@@@std@@V?$allocator@U?$pair@$$CBW4Object_Type@@PEBVGameObject@@@std@@@4@@std@@QEAA@XZ 0000000140026dd0 f i engine.obj
 0002:00013e20       ??1?$vector@PEAV?$Container@VWidget@@@@V?$allocator@PEAV?$Container@VWidget@@@@@std@@@std@@QEAA@XZ 0000000140026e20 f i engine.obj
 0002:00013e90       ??1ConfigManager@@QEAA@XZ  0000000140026e90 f i engine.obj
 0002:00013ef0       ??1Engine@@QEAA@XZ         0000000140026ef0 f   engine.obj
 0002:00013ff0       ??1locale@std@@QEAA@XZ     0000000140026ff0 f i engine.obj
 0002:000140e0       ??9?$_Tree_const_iterator@V?$_Tree_val@U?$_Tree_simple_types@U?$pair@$$CBW4Object_Type@@PEBVGameObject@@@std@@@std@@@std@@@std@@QEBA_NAEBV01@@Z 00000001400270e0 f i engine.obj
 0002:00014170       ??A?$vector@PEAV?$Container@VWidget@@@@V?$allocator@PEAV?$Container@VWidget@@@@@std@@@std@@QEAAAEAPEAV?$Container@VWidget@@@@_K@Z 0000000140027170 f i engine.obj
 0002:00014250       ??E?$_Tree_const_iterator@V?$_Tree_val@U?$_Tree_simple_types@U?$pair@$$CBW4Object_Type@@PEBVGameObject@@@std@@@std@@@std@@@std@@QEAA?AV01@H@Z 0000000140027250 f i engine.obj
 0002:00014334       ??_ERenderWindow@sf@@WDI@EAAPEAXI@Z 0000000140027334 f i engine.obj
 0002:00014340       ??_GRenderWindow@sf@@UEAAPEAXI@Z 0000000140027340 f i engine.obj
 0002:00014340       ??_ERenderWindow@sf@@UEAAPEAXI@Z 0000000140027340 f i engine.obj
 0002:000143d0       ?Draw@Engine@@QEAAXXZ      00000001400273d0 f   engine.obj
 0002:00014530       ?Execute@Engine@@QEAAXXZ   0000000140027530 f   engine.obj
 0002:00014740       ?GetConfigManager@Engine@@QEAAPEAVConfigManager@@XZ 0000000140027740 f   engine.obj
 0002:00014790       ?GetSize@Engine@@QEBA?AV?$Vector2@M@sf@@XZ 0000000140027790 f   engine.obj
 0002:00014800       ?HandleEvents@Engine@@QEAAXXZ 0000000140027800 f   engine.obj
 0002:00014920       ?SetSize@Engine@@QEAAXAEBV?$Vector2@M@sf@@@Z 0000000140027920 f   engine.obj
 0002:00014980       ?Update@Engine@@QEAAXAEBVTime@sf@@@Z 0000000140027980 f   engine.obj
 0002:00014a50       ?_Alloc_proxy@?$_Tree_comp_alloc@V?$_Tmap_traits@W4Object_Type@@PEBVGameObject@@U?$less@W4Object_Type@@@std@@V?$allocator@U?$pair@$$CBW4Object_Type@@PEBVGameObject@@@std@@@4@$0A@@std@@@std@@QEAAXXZ 0000000140027a50 f i engine.obj
 0002:00014b90       ?_Alloc_proxy@?$_Vector_alloc@U?$_Vec_base_types@PEAV?$Container@VWidget@@@@V?$allocator@PEAV?$Container@VWidget@@@@@std@@@std@@@std@@QEAAXXZ 0000000140027b90 f i engine.obj
 0002:00014cd0       ?_Buyheadnode@?$_Tree_comp_alloc@V?$_Tmap_traits@W4Object_Type@@PEBVGameObject@@U?$less@W4Object_Type@@@std@@V?$allocator@U?$pair@$$CBW4Object_Type@@PEBVGameObject@@@std@@@4@$0A@@std@@@std@@QEAAPEAU?$_Tree_node@U?$pair@$$CBW4Object_Type@@PEBVGameObject@@@std@@PEAX@2@XZ 0000000140027cd0 f i engine.obj
 0002:00014e00       ?_Calculate_growth@?$vector@PEAV?$Container@VWidget@@@@V?$allocator@PEAV?$Container@VWidget@@@@@std@@@std@@AEBA_K_K@Z 0000000140027e00 f i engine.obj
 0002:00014ef0       ?_Change_array@?$vector@PEAV?$Container@VWidget@@@@V?$allocator@PEAV?$Container@VWidget@@@@@std@@@std@@AEAAXQEAPEAV?$Container@VWidget@@@@_K1@Z 0000000140027ef0 f i engine.obj
 0002:000150b0       ?_Clrcont@_Iterator_base12@std@@QEAAXXZ 00000001400280b0 f i engine.obj
 0002:00015100       ?_Construct@?$_Tree_comp_alloc@V?$_Tmap_traits@W4Object_Type@@PEBVGameObject@@U?$less@W4Object_Type@@@std@@V?$allocator@U?$pair@$$CBW4Object_Type@@PEBVGameObject@@@std@@@4@$0A@@std@@@std@@QEAAXXZ 0000000140028100 f i engine.obj
 0002:00015190       ?_Destroy@?$vector@PEAV?$Container@VWidget@@@@V?$allocator@PEAV?$Container@VWidget@@@@@std@@@std@@AEAAXPEAPEAV?$Container@VWidget@@@@0@Z 0000000140028190 f i engine.obj
 0002:00015210       ?_Erase@?$_Tree@V?$_Tmap_traits@W4Object_Type@@PEBVGameObject@@U?$less@W4Object_Type@@@std@@V?$allocator@U?$pair@$$CBW4Object_Type@@PEBVGameObject@@@std@@@4@$0A@@std@@@std@@IEAAXPEAU?$_Tree_node@U?$pair@$$CBW4Object_Type@@PEBVGameObject@@@std@@PEAX@2@@Z 0000000140028210 f i engine.obj
 0002:00015300       ?_Extract@?$_Tree_val@U?$_Tree_simple_types@U?$pair@$$CBW4Object_Type@@PEBVGameObject@@@std@@@std@@@std@@QEAAPEAU?$_Tree_node@U?$pair@$$CBW4Object_Type@@PEBVGameObject@@@std@@PEAX@2@V?$_Tree_const_iterator@V?$_Tree_val@U?$_Tree_simple_types@U?$pair@$$CBW4Object_Type@@PEBVGameObject@@@std@@@std@@@std@@@2@@Z 0000000140028300 f i engine.obj
 0002:00015aa0       ?_Free_proxy@?$_Tree_comp_alloc@V?$_Tmap_traits@W4Object_Type@@PEBVGameObject@@U?$less@W4Object_Type@@@std@@V?$allocator@U?$pair@$$CBW4Object_Type@@PEBVGameObject@@@std@@@4@$0A@@std@@@std@@QEAAXXZ 0000000140028aa0 f i engine.obj
 0002:00015b80       ?_Free_proxy@?$_Vector_alloc@U?$_Vec_base_types@PEAV?$Container@VWidget@@@@V?$allocator@PEAV?$Container@VWidget@@@@@std@@@std@@@std@@QEAAXXZ 0000000140028b80 f i engine.obj
 0002:00015c60       ?_Freeheadnode@?$_Tree_comp_alloc@V?$_Tmap_traits@W4Object_Type@@PEBVGameObject@@U?$less@W4Object_Type@@@std@@V?$allocator@U?$pair@$$CBW4Object_Type@@PEBVGameObject@@@std@@@4@$0A@@std@@@std@@QEAAXPEAU?$_Tree_node@U?$pair@$$CBW4Object_Type@@PEBVGameObject@@@std@@PEAX@2@@Z 0000000140028c60 f i engine.obj
 0002:00015cd0       ?_Get_data@?$_Vector_alloc@U?$_Vec_base_types@PEAV?$Container@VWidget@@@@V?$allocator@PEAV?$Container@VWidget@@@@@std@@@std@@@std@@QEAAAEAV?$_Vector_val@U?$_Simple_types@PEAV?$Container@VWidget@@@@@std@@@2@XZ 0000000140028cd0 f i engine.obj
 0002:00015d30       ?_Get_data@?$_Vector_alloc@U?$_Vec_base_types@PEAV?$Container@VWidget@@@@V?$allocator@PEAV?$Container@VWidget@@@@@std@@@std@@@std@@QEBAAEBV?$_Vector_val@U?$_Simple_types@PEAV?$Container@VWidget@@@@@std@@@2@XZ 0000000140028d30 f i engine.obj
 0002:00015d90       ?_Get_first@?$_Compressed_pair@V?$allocator@PEAV?$Container@VWidget@@@@@std@@V?$_Vector_val@U?$_Simple_types@PEAV?$Container@VWidget@@@@@std@@@2@$00@std@@QEAAAEAV?$allocator@PEAV?$Container@VWidget@@@@@2@XZ 0000000140028d90 f i engine.obj
 0002:00015de0       ?_Get_first@?$_Compressed_pair@V?$allocator@PEAV?$Container@VWidget@@@@@std@@V?$_Vector_val@U?$_Simple_types@PEAV?$Container@VWidget@@@@@std@@@2@$00@std@@QEBAAEBV?$allocator@PEAV?$Container@VWidget@@@@@2@XZ 0000000140028de0 f i engine.obj
 0002:00015e30       ?_Get_second@?$_Compressed_pair@V?$allocator@PEAV?$Container@VWidget@@@@@std@@V?$_Vector_val@U?$_Simple_types@PEAV?$Container@VWidget@@@@@std@@@2@$00@std@@QEAAAEAV?$_Vector_val@U?$_Simple_types@PEAV?$Container@VWidget@@@@@std@@@2@XZ 0000000140028e30 f i engine.obj
 0002:00015e80       ?_Get_second@?$_Compressed_pair@V?$allocator@PEAV?$Container@VWidget@@@@@std@@V?$_Vector_val@U?$_Simple_types@PEAV?$Container@VWidget@@@@@std@@@2@$00@std@@QEBAAEBV?$_Vector_val@U?$_Simple_types@PEAV?$Container@VWidget@@@@@std@@@2@XZ 0000000140028e80 f i engine.obj
 0002:00015ed0       ?_Getal@?$_Vector_alloc@U?$_Vec_base_types@PEAV?$Container@VWidget@@@@V?$allocator@PEAV?$Container@VWidget@@@@@std@@@std@@@std@@QEAAAEAV?$allocator@PEAV?$Container@VWidget@@@@@2@XZ 0000000140028ed0 f i engine.obj
 0002:00015f30       ?_Getal@?$_Vector_alloc@U?$_Vec_base_types@PEAV?$Container@VWidget@@@@V?$allocator@PEAV?$Container@VWidget@@@@@std@@@std@@@std@@QEBAAEBV?$allocator@PEAV?$Container@VWidget@@@@@2@XZ 0000000140028f30 f i engine.obj
 0002:00015f90       ?_Getpfirst@?$_Tree_comp_alloc@V?$_Tmap_traits@W4Object_Type@@PEBVGameObject@@U?$less@W4Object_Type@@@std@@V?$allocator@U?$pair@$$CBW4Object_Type@@PEBVGameObject@@@std@@@4@$0A@@std@@@std@@QEBAPEAPEAU_Iterator_base12@2@XZ 0000000140028f90 f i engine.obj
 0002:00015ff0       ?_Getpfirst@?$_Vector_alloc@U?$_Vec_base_types@PEAV?$Container@VWidget@@@@V?$allocator@PEAV?$Container@VWidget@@@@@std@@@std@@@std@@QEBAPEAPEAU_Iterator_base12@2@XZ 0000000140028ff0 f i engine.obj
 0002:00016050       ?_Getpfirst@_Container_base12@std@@QEBAPEAPEAU_Iterator_base12@2@XZ 0000000140029050 f i engine.obj
 0002:000160e0       ?_Getpnext@_Iterator_base12@std@@QEAAPEAPEAU12@XZ 00000001400290e0 f i engine.obj
 0002:00016130       ?_Has_unused_capacity@?$vector@PEAV?$Container@VWidget@@@@V?$allocator@PEAV?$Container@VWidget@@@@@std@@@std@@AEBA_NXZ 0000000140029130 f i engine.obj
 0002:000161d0       ?_Myend@?$_Vector_alloc@U?$_Vec_base_types@PEAV?$Container@VWidget@@@@V?$allocator@PEAV?$Container@VWidget@@@@@std@@@std@@@std@@QEAAAEAPEAPEAV?$Container@VWidget@@@@XZ 00000001400291d0 f i engine.obj
 0002:00016230       ?_Myend@?$_Vector_alloc@U?$_Vec_base_types@PEAV?$Container@VWidget@@@@V?$allocator@PEAV?$Container@VWidget@@@@@std@@@std@@@std@@QEBAAEBQEAPEAV?$Container@VWidget@@@@XZ 0000000140029230 f i engine.obj
 0002:00016290       ?_Myfirst@?$_Vector_alloc@U?$_Vec_base_types@PEAV?$Container@VWidget@@@@V?$allocator@PEAV?$Container@VWidget@@@@@std@@@std@@@std@@QEAAAEAPEAPEAV?$Container@VWidget@@@@XZ 0000000140029290 f i engine.obj
 0002:000162f0       ?_Myfirst@?$_Vector_alloc@U?$_Vec_base_types@PEAV?$Container@VWidget@@@@V?$allocator@PEAV?$Container@VWidget@@@@@std@@@std@@@std@@QEBAAEBQEAPEAV?$Container@VWidget@@@@XZ 00000001400292f0 f i engine.obj
 0002:00016350       ?_Mylast@?$_Vector_alloc@U?$_Vec_base_types@PEAV?$Container@VWidget@@@@V?$allocator@PEAV?$Container@VWidget@@@@@std@@@std@@@std@@QEAAAEAPEAPEAV?$Container@VWidget@@@@XZ 0000000140029350 f i engine.obj
 0002:000163b0       ?_Mylast@?$_Vector_alloc@U?$_Vec_base_types@PEAV?$Container@VWidget@@@@V?$allocator@PEAV?$Container@VWidget@@@@@std@@@std@@@std@@QEBAAEBQEAPEAV?$Container@VWidget@@@@XZ 00000001400293b0 f i engine.obj
 0002:00016410       ?_Myproxy@?$_Tree_comp_alloc@V?$_Tmap_traits@W4Object_Type@@PEBVGameObject@@U?$less@W4Object_Type@@@std@@V?$allocator@U?$pair@$$CBW4Object_Type@@PEBVGameObject@@@std@@@4@$0A@@std@@@std@@QEAAAEAPEAU_Container_proxy@2@XZ 0000000140029410 f i engine.obj
 0002:00016460       ?_Myproxy@?$_Vector_alloc@U?$_Vec_base_types@PEAV?$Container@VWidget@@@@V?$allocator@PEAV?$Container@VWidget@@@@@std@@@std@@@std@@QEAAAEAPEAU_Container_proxy@2@XZ 0000000140029460 f i engine.obj
 0002:000164b0       ?_Orphan_all@?$_Tree_comp_alloc@V?$_Tmap_traits@W4Object_Type@@PEBVGameObject@@U?$less@W4Object_Type@@@std@@V?$allocator@U?$pair@$$CBW4Object_Type@@PEBVGameObject@@@std@@@4@$0A@@std@@@std@@QEAAXXZ 00000001400294b0 f i engine.obj
 0002:00016510       ?_Orphan_all@?$_Vector_alloc@U?$_Vec_base_types@PEAV?$Container@VWidget@@@@V?$allocator@PEAV?$Container@VWidget@@@@@std@@@std@@@std@@QEAAXXZ 0000000140029510 f i engine.obj
 0002:00016570       ?_Orphan_ptr@?$_Tree@V?$_Tmap_traits@W4Object_Type@@PEBVGameObject@@U?$less@W4Object_Type@@@std@@V?$allocator@U?$pair@$$CBW4Object_Type@@PEBVGameObject@@@std@@@4@$0A@@std@@@std@@IEAAXPEAU?$_Tree_node@U?$pair@$$CBW4Object_Type@@PEBVGameObject@@@std@@PEAX@2@@Z 0000000140029570 f i engine.obj
 0002:000166d0       ?_Orphan_range@?$vector@PEAV?$Container@VWidget@@@@V?$allocator@PEAV?$Container@VWidget@@@@@std@@@std@@AEBAXPEAPEAV?$Container@VWidget@@@@0@Z 00000001400296d0 f i engine.obj
 0002:00016800       ?_Tidy@?$_Tree@V?$_Tmap_traits@W4Object_Type@@PEBVGameObject@@U?$less@W4Object_Type@@@std@@V?$allocator@U?$pair@$$CBW4Object_Type@@PEBVGameObject@@@std@@@4@$0A@@std@@@std@@IEAAXXZ 0000000140029800 f i engine.obj
 0002:00016970       ?_Tidy@?$vector@PEAV?$Container@VWidget@@@@V?$allocator@PEAV?$Container@VWidget@@@@@std@@@std@@AEAAXXZ 0000000140029970 f i engine.obj
 0002:00016ad0       ?_Umove@?$vector@PEAV?$Container@VWidget@@@@V?$allocator@PEAV?$Container@VWidget@@@@@std@@@std@@AEAAPEAPEAV?$Container@VWidget@@@@PEAPEAV3@00@Z 0000000140029ad0 f i engine.obj
 0002:00016b60       ?_Umove_if_noexcept1@?$vector@PEAV?$Container@VWidget@@@@V?$allocator@PEAV?$Container@VWidget@@@@@std@@@std@@AEAAXPEAPEAV?$Container@VWidget@@@@00U?$integral_constant@_N$00@2@@Z 0000000140029b60 f i engine.obj
 0002:00016bf0       ?_Umove_if_noexcept@?$vector@PEAV?$Container@VWidget@@@@V?$allocator@PEAV?$Container@VWidget@@@@@std@@@std@@AEAAXPEAPEAV?$Container@VWidget@@@@00@Z 0000000140029bf0 f i engine.obj
 0002:00016ca0       ?_Xlength@?$vector@PEAV?$Container@VWidget@@@@V?$allocator@PEAV?$Container@VWidget@@@@@std@@@std@@CAXXZ 0000000140029ca0 f i engine.obj
 0002:00016cf0       ?allocate@?$allocator@PEAV?$Container@VWidget@@@@@std@@QEAAPEAPEAV?$Container@VWidget@@@@_K@Z 0000000140029cf0 f i engine.obj
 0002:00016d50       ?capacity@?$vector@PEAV?$Container@VWidget@@@@V?$allocator@PEAV?$Container@VWidget@@@@@std@@@std@@QEBA_KXZ 0000000140029d50 f i engine.obj
 0002:00016de0       ?clear@?$_Tree@V?$_Tmap_traits@W4Object_Type@@PEBVGameObject@@U?$less@W4Object_Type@@@std@@V?$allocator@U?$pair@$$CBW4Object_Type@@PEBVGameObject@@@std@@@4@$0A@@std@@@std@@QEAAXXZ 0000000140029de0 f i engine.obj
 0002:00016ee0       ?deallocate@?$allocator@PEAV?$Container@VWidget@@@@@std@@QEAAXQEAPEAV?$Container@VWidget@@@@_K@Z 0000000140029ee0 f i engine.obj
 0002:00016f50       ?erase@?$_Tree@V?$_Tmap_traits@W4Object_Type@@PEBVGameObject@@U?$less@W4Object_Type@@@std@@V?$allocator@U?$pair@$$CBW4Object_Type@@PEBVGameObject@@@std@@@4@$0A@@std@@@std@@QEAA?AV?$_Tree_iterator@V?$_Tree_val@U?$_Tree_simple_types@U?$pair@$$CBW4Object_Type@@PEBVGameObject@@@std@@@std@@@std@@@2@V?$_Tree_const_iterator@V?$_Tree_val@U?$_Tree_simple_types@U?$pair@$$CBW4Object_Type@@PEBVGameObject@@@std@@@std@@@std@@@2@0@Z 0000000140029f50 f i engine.obj
 0002:000172a0       ?erase@?$_Tree@V?$_Tmap_traits@W4Object_Type@@PEBVGameObject@@U?$less@W4Object_Type@@@std@@V?$allocator@U?$pair@$$CBW4Object_Type@@PEBVGameObject@@@std@@@4@$0A@@std@@@std@@QEAA?AV?$_Tree_iterator@V?$_Tree_val@U?$_Tree_simple_types@U?$pair@$$CBW4Object_Type@@PEBVGameObject@@@std@@@std@@@std@@@2@V?$_Tree_const_iterator@V?$_Tree_val@U?$_Tree_simple_types@U?$pair@$$CBW4Object_Type@@PEBVGameObject@@@std@@@std@@@std@@@2@@Z 000000014002a2a0 f i engine.obj
 0002:00017500       ?max_size@?$_Default_allocator_traits@V?$allocator@PEAV?$Container@VWidget@@@@@std@@@std@@SA_KAEBV?$allocator@PEAV?$Container@VWidget@@@@@2@@Z 000000014002a500 f i engine.obj
 0002:00017550       ?max_size@?$vector@PEAV?$Container@VWidget@@@@V?$allocator@PEAV?$Container@VWidget@@@@@std@@@std@@QEBA_KXZ 000000014002a550 f i engine.obj
 0002:000175e0       ?push_back@?$vector@PEAV?$Container@VWidget@@@@V?$allocator@PEAV?$Container@VWidget@@@@@std@@@std@@QEAAXAEBQEAV?$Container@VWidget@@@@@Z 000000014002a5e0 f i engine.obj
 0002:00017640       ?size@?$vector@PEAV?$Container@VWidget@@@@V?$allocator@PEAV?$Container@VWidget@@@@@std@@@std@@QEBA_KXZ 000000014002a640 f i engine.obj
 0002:000176d0       WinMain                    000000014002a6d0 f   main.obj
 0002:00017760       ??0?$ContainerMoving@VWidget@@@@QEAA@AEBV?$Vector2@M@sf@@0@Z 000000014002a760 f i container-moving.obj
 0002:00017870       ??0?$Vector2@M@sf@@QEAA@XZ 000000014002a870 f i container-moving.obj
 0002:000178e0       ??1?$ContainerMoving@VWidget@@@@UEAA@XZ 000000014002a8e0 f i container-moving.obj
 0002:00017950       ??_G?$ContainerMoving@VWidget@@@@UEAAPEAXI@Z 000000014002a950 f i container-moving.obj
 0002:00017950       ??_E?$ContainerMoving@VWidget@@@@UEAAPEAXI@Z 000000014002a950 f i container-moving.obj
 0002:000179e0       ?HandleEvent@?$ContainerMoving@VWidget@@@@UEAAXAEBVEvent@sf@@@Z 000000014002a9e0 f i container-moving.obj
 0002:00017ee0       ?SetMoveBeginListener@?$ContainerMoving@VWidget@@@@QEAAXP6APEAVWidget@@PEAV2@@Z@Z 000000014002aee0 f i container-moving.obj
 0002:00017f40       ?SetMoveEndListener@?$ContainerMoving@VWidget@@@@QEAAXP6AXPEAVWidget@@@Z@Z 000000014002af40 f i container-moving.obj
 0002:00017fa0       ?SetMovingListener@?$ContainerMoving@VWidget@@@@QEAAXP6AXPEAVWidget@@@Z@Z 000000014002afa0 f i container-moving.obj
 0002:00018000       ??0?$basic_string@DU?$char_traits@D@std@@V?$allocator@D@2@@std@@QEAA@XZ 000000014002b000 f i game-object.obj
 0002:00018080       ??0GameObject@@QEAA@PEBD@Z 000000014002b080 f   game-object.obj
 0002:00018480       ??0GameObject@@QEAA@PEBV0@@Z 000000014002b480 f   game-object.obj
 0002:000186b0       ??0ID@@QEAA@XZ             000000014002b6b0 f i game-object.obj
 0002:00018710       ??1GameObject@@UEAA@XZ     000000014002b710 f   game-object.obj
 0002:00018790       ??1ID@@QEAA@XZ             000000014002b790 f i game-object.obj
 0002:000187d0       ??_EGameObject@@UEAAPEAXI@Z 000000014002b7d0 f i game-object.obj
 0002:000187d0       ??_GGameObject@@UEAAPEAXI@Z 000000014002b7d0 f i game-object.obj
 0002:00018860       ?CheckIntersect@GameObject@@QEBA_NPEBV1@VTime@sf@@@Z 000000014002b860 f   game-object.obj
 0002:00018930       ?CheckIntersectX@GameObject@@QEBA_NPEBV1@VTime@sf@@@Z 000000014002b930 f   game-object.obj
 0002:00018f00       ?CheckIntersectY@GameObject@@QEBA_NPEBV1@VTime@sf@@@Z 000000014002bf00 f   game-object.obj
 0002:000194e0       ?Create@GameObject@@SAPEBV1@PEBD@Z 000000014002c4e0 f   game-object.obj
 0002:00019680       ?CreateImpl@GameObject@@CAPEAV1@W4Object_Type@@PEBD@Z 000000014002c680 f   game-object.obj
 0002:00019880       ?Generate@ID@@QEAAXXZ      000000014002c880 f i game-object.obj
 0002:00019970       ?GetDirection@GameObject@@QEBA?AV?$Vector2@M@sf@@XZ 000000014002c970 f   game-object.obj
 0002:000199e0       ?GetGroup@GameObject@@QEBA_KXZ 000000014002c9e0 f   game-object.obj
 0002:00019a30       ?GetHealth@GameObject@@QEBAHXZ 000000014002ca30 f   game-object.obj
 0002:00019a80       ?GetType@GameObject@@QEBA?AW4Object_Type@@XZ 000000014002ca80 f   game-object.obj
 0002:00019ad0       ?GetVelocity@GameObject@@QEBA?AV?$Vector2@M@sf@@XZ 000000014002cad0 f   game-object.obj
 0002:00019b40       ?SetGroup@GameObject@@QEAAX_K@Z 000000014002cb40 f   game-object.obj
 0002:00019ba0       ?SetType@GameObject@@QEAAX_K@Z 000000014002cba0 f   game-object.obj
 0002:00019c50       ?SetVelocity@GameObject@@QEAAXAEBV?$Vector2@M@sf@@@Z 000000014002cc50 f   game-object.obj
 0002:00019cd0       ?Update@GameObject@@UEAAXAEBVTime@sf@@@Z 000000014002ccd0 f   game-object.obj
 0002:00019d20       ?calculateDirection@GameObject@@AEAAXXZ 000000014002cd20 f   game-object.obj
 0002:00019f40       ?fabs@@YAMM@Z              000000014002cf40 f i game-object.obj
 0002:00019f90       fabsf                      000000014002cf90 f i game-object.obj
 0002:0001a8e0       ??$_Deallocate@$07$0A@@std@@YAXPEAX_K@Z 000000014002d8e0 f i menu-window.obj
 0002:0001b720       ??0?$_Func_base@XPEAVButton@@@std@@QEAA@XZ 000000014002e720 f i menu-window.obj
 0002:0001b770       ??0MenuWindow@@QEAA@PEAVEngine@@AEBV?$Vector2@M@sf@@1@Z 000000014002e770 f   menu-window.obj
 0002:0001bd30       ??1MenuWindow@@UEAA@XZ     000000014002ed30 f   menu-window.obj
 0002:0001bef0       ??_GMenuWindow@@UEAAPEAXI@Z 000000014002eef0 f i menu-window.obj
 0002:0001bef0       ??_EMenuWindow@@UEAAPEAXI@Z 000000014002eef0 f i menu-window.obj
 0002:0001c910       ?onEditorClicked@MenuWindow@@AEAAXPEAVButton@@@Z 000000014002f910 f   menu-window.obj
 0002:0001c960       ?onExitClicked@MenuWindow@@AEAAXPEAVButton@@@Z 000000014002f960 f   menu-window.obj
 0002:0001c9b0       ?onStartClicked@MenuWindow@@AEAAXPEAVButton@@@Z 000000014002f9b0 f   menu-window.obj
 0002:0001ca00       ??0Missile@@QEAA@XZ        000000014002fa00 f   missile.obj
 0002:0001ca50       ??1Missile@@QEAA@XZ        000000014002fa50 f   missile.obj
 0002:0001cc70       ??0?$Rect@H@sf@@QEAA@AEBV?$Vector2@H@1@0@Z 000000014002fc70 f i object.obj
 0002:0001cd30       ??0?$Rect@H@sf@@QEAA@XZ    000000014002fd30 f i object.obj
 0002:0001cdc0       ??0?$Vector2@H@sf@@QEAA@HH@Z 000000014002fdc0 f i object.obj
 0002:0001ce40       ??0Object@@QEAA@AEBV?$Vector2@M@sf@@0@Z 000000014002fe40 f   object.obj
 0002:0001cf50       ??0Object@@QEAA@PEBD@Z     000000014002ff50 f   object.obj
 0002:0001d070       ??0Object@@QEAA@PEBV0@@Z   0000000140030070 f   object.obj
 0002:0001d210       ??1Object@@UEAA@XZ         0000000140030210 f   object.obj
 0002:0001d350       ??_GObject@@UEAAPEAXI@Z    0000000140030350 f i object.obj
 0002:0001d350       ??_EObject@@UEAAPEAXI@Z    0000000140030350 f i object.obj
 0002:0001d3e0       ?CalculateSpritePos@Object@@QEAAXXZ 00000001400303e0 f   object.obj
 0002:0001d460       ?CheckIntersect@Object@@QEBA_NAEBV?$Vector2@M@sf@@@Z 0000000140030460 f   object.obj
 0002:0001d570       ?Draw@Object@@UEAAXPEAVRenderWindow@sf@@@Z 0000000140030570 f   object.obj
 0002:0001d5f0       ?GetAbsolutePos@Object@@QEBA?AV?$Vector2@M@sf@@XZ 00000001400305f0 f   object.obj
 0002:0001d700       ?GetParent@Object@@QEBAPEAV1@XZ 0000000140030700 f   object.obj
 0002:0001d750       ?GetPos@Object@@QEBA?AV?$Vector2@M@sf@@XZ 0000000140030750 f   object.obj
 0002:0001d7c0       ?GetSize@Object@@QEBA?AV?$Vector2@M@sf@@XZ 00000001400307c0 f   object.obj
 0002:0001d830       ?SetParent@Object@@QEAAXPEAV1@@Z 0000000140030830 f   object.obj
 0002:0001d8a0       ?SetPos@Object@@UEAAXAEBV?$Vector2@M@sf@@@Z 00000001400308a0 f   object.obj
 0002:0001d910       ?SetSize@Object@@QEAAXAEBV?$Vector2@M@sf@@@Z 0000000140030910 f   object.obj
 0002:0001d980       ?SetTexture@Object@@QEAA_NPEBD@Z 0000000140030980 f   object.obj
 0002:0001dad0       ?calculateSpriteSize@Object@@AEAAXXZ 0000000140030ad0 f   object.obj
 0002:0001dbf0       ??0Player@@QEAA@PEAVGameObject@@@Z 0000000140030bf0 f   player.obj
 0002:0001dc60       ??1Player@@QEAA@XZ         0000000140030c60 f   player.obj
 0002:0001dca0       ?HandleEvent@Player@@QEAA_NAEBVEvent@sf@@@Z 0000000140030ca0 f   player.obj
 0002:0001de80       ??0Tank@@QEAA@PEBD@Z       0000000140030e80 f   tank.obj
 0002:0001df10       ??0Tank@@QEAA@PEBV0@@Z     0000000140030f10 f   tank.obj
 0002:0001df90       ??1Tank@@UEAA@XZ           0000000140030f90 f   tank.obj
 0002:0001e000       ??_GTank@@UEAAPEAXI@Z      0000000140031000 f i tank.obj
 0002:0001e000       ??_ETank@@UEAAPEAXI@Z      0000000140031000 f i tank.obj
 0002:0001e090       ?Clone@Tank@@UEBAPEAVGameObject@@XZ 0000000140031090 f   tank.obj
 0002:0001e150       ?OnIntersect@Tank@@UEAAXPEAVGameObject@@@Z 0000000140031150 f   tank.obj
 0002:0001e1a0       ??0Wall@@QEAA@PEBD@Z       00000001400311a0 f   wall.obj
 0002:0001e220       ??0Wall@@QEAA@PEBV0@@Z     0000000140031220 f   wall.obj
 0002:0001e2a0       ??1Wall@@UEAA@XZ           00000001400312a0 f   wall.obj
 0002:0001e310       ??_EWall@@UEAAPEAXI@Z      0000000140031310 f i wall.obj
 0002:0001e310       ??_GWall@@UEAAPEAXI@Z      0000000140031310 f i wall.obj
 0002:0001e3a0       ?Clone@Wall@@UEBAPEAVGameObject@@XZ 00000001400313a0 f   wall.obj
 0002:0001e460       ?OnIntersect@Wall@@UEAAXPEAVGameObject@@@Z 0000000140031460 f   wall.obj
 0002:0001e4b0       ??0WidgetGame@@QEAA@PEAVEngine@@AEBV?$Vector2@M@sf@@1@Z 00000001400314b0 f   widget-game.obj
 0002:0001e620       ??1WidgetGame@@UEAA@XZ     0000000140031620 f   widget-game.obj
 0002:0001e690       ??_EWidgetGame@@UEAAPEAXI@Z 0000000140031690 f i widget-game.obj
 0002:0001e690       ??_GWidgetGame@@UEAAPEAXI@Z 0000000140031690 f i widget-game.obj
 0002:0001e720       ?Draw@WidgetGame@@UEAAXPEAVRenderWindow@sf@@@Z 0000000140031720 f   widget-game.obj
 0002:0001e780       ?GetNearestIntersectX@WidgetGame@@AEBAPEAVGameObject@@PEBV2@VTime@sf@@@Z 0000000140031780 f   widget-game.obj
 0002:0001e970       ?GetNearestIntersectY@WidgetGame@@AEBAPEAVGameObject@@PEBV2@VTime@sf@@@Z 0000000140031970 f   widget-game.obj
 0002:0001eb60       ?HandleEvent@WidgetGame@@UEAAXAEBVEvent@sf@@@Z 0000000140031b60 f   widget-game.obj
 0002:0001ebe0       ?Update@WidgetGame@@UEAAXAEBVTime@sf@@@Z 0000000140031be0 f   widget-game.obj
 0002:0001ee90       ?createWorldWalls@WidgetGame@@QEAAXPEBVConfigManager@@@Z 0000000140031e90 f   widget-game.obj
 0002:0001f1c0       ??0?$Rect@M@sf@@QEAA@MMMM@Z 00000001400321c0 f i widget.obj
 0002:0001f280       ??0Widget@@QEAA@AEBV?$Vector2@M@sf@@0@Z 0000000140032280 f   widget.obj
 0002:0001f310       ??1Widget@@UEAA@XZ         0000000140032310 f   widget.obj
 0002:0001f380       ??_EWidget@@UEAAPEAXI@Z    0000000140032380 f i widget.obj
 0002:0001f380       ??_GWidget@@UEAAPEAXI@Z    0000000140032380 f i widget.obj
 0002:0001f410       ?Draw@Widget@@UEAAXPEAVRenderWindow@sf@@@Z 0000000140032410 f   widget.obj
 0002:0001f620       ??0WidgetTemplates@@QEAA@AEBV?$Vector2@M@sf@@0@Z 0000000140032620 f   widget-templates.obj
 0002:0001f6b0       ??1WidgetTemplates@@UEAA@XZ 00000001400326b0 f   widget-templates.obj
 0002:0001f720       ??_EWidgetTemplates@@UEAAPEAXI@Z 0000000140032720 f i widget-templates.obj
 0002:0001f720       ??_GWidgetTemplates@@UEAAPEAXI@Z 0000000140032720 f i widget-templates.obj
 0002:0001f7b0       ??0?$Window@VWidget@@@@QEAA@AEBV?$Vector2@M@sf@@0@Z 00000001400327b0 f i window.obj
 0002:0001f840       ??1?$Window@VWidget@@@@UEAA@XZ 0000000140032840 f i window.obj
 0002:0001f8b0       ??_E?$Window@VWidget@@@@UEAAPEAXI@Z 00000001400328b0 f i window.obj
 0002:0001f8b0       ??_G?$Window@VWidget@@@@UEAAPEAXI@Z 00000001400328b0 f i window.obj
 0002:0001f940       ??0WindowGame@@QEAA@PEAVEngine@@AEBV?$Vector2@M@sf@@1@Z 0000000140032940 f   window-game.obj
 0002:0001fad0       ??1WindowGame@@UEAA@XZ     0000000140032ad0 f   window-game.obj
 0002:0001fb40       ??_EWindowGame@@UEAAPEAXI@Z 0000000140032b40 f i window-game.obj
 0002:0001fb40       ??_GWindowGame@@UEAAPEAXI@Z 0000000140032b40 f i window-game.obj
 0002:0001fc30       ??0WindowEditor@@QEAA@PEAVEngine@@AEBV?$Vector2@M@sf@@1@Z 0000000140032c30 f   window-editor.obj
 0002:0001fde0       ??1WindowEditor@@UEAA@XZ   0000000140032de0 f   window-editor.obj
 0002:0001fef0       ??_GWindowEditor@@UEAAPEAXI@Z 0000000140032ef0 f i window-editor.obj
 0002:0001fef0       ??_EWindowEditor@@UEAAPEAXI@Z 0000000140032ef0 f i window-editor.obj
 0002:0001ff73       ?setPosition@Transformable@sf@@QEAAXMM@Z 0000000140032f73 f   sfml-graphics-d:sfml-graphics-d-2.dll
 0002:0001ff79       ?setOrigin@Transformable@sf@@QEAAXAEBV?$Vector2@M@2@@Z 0000000140032f79 f   sfml-graphics-d:sfml-graphics-d-2.dll
 0002:0001ff7f       ??0Font@sf@@QEAA@XZ        0000000140032f7f f   sfml-graphics-d:sfml-graphics-d-2.dll
 0002:0001ff85       ??1Font@sf@@QEAA@XZ        0000000140032f85 f   sfml-graphics-d:sfml-graphics-d-2.dll
 0002:0001ff8b       ?loadFromFile@Font@sf@@QEAA_NAEBV?$basic_string@DU?$char_traits@D@std@@V?$allocator@D@2@@std@@@Z 0000000140032f8b f   sfml-graphics-d:sfml-graphics-d-2.dll
 0002:0001ff91       ?draw@RenderTarget@sf@@QEAAXAEBVDrawable@2@AEBVRenderStates@2@@Z 0000000140032f91 f   sfml-graphics-d:sfml-graphics-d-2.dll
 0002:0001ff97       ??0Text@sf@@QEAA@XZ        0000000140032f97 f   sfml-graphics-d:sfml-graphics-d-2.dll
 0002:0001ff9d       ?setString@Text@sf@@QEAAXAEBVString@2@@Z 0000000140032f9d f   sfml-graphics-d:sfml-graphics-d-2.dll
 0002:0001ffa3       ?setFont@Text@sf@@QEAAXAEBVFont@2@@Z 0000000140032fa3 f   sfml-graphics-d:sfml-graphics-d-2.dll
 0002:0001ffa9       ?setColor@Text@sf@@QEAAXAEBVColor@2@@Z 0000000140032fa9 f   sfml-graphics-d:sfml-graphics-d-2.dll
 0002:0001ffaf       ?getString@Text@sf@@QEBAAEBVString@2@XZ 0000000140032faf f   sfml-graphics-d:sfml-graphics-d-2.dll
 0002:0001ffb5       ?getLocalBounds@Text@sf@@QEBA?AV?$Rect@M@2@XZ 0000000140032fb5 f   sfml-graphics-d:sfml-graphics-d-2.dll
 0002:0001ffbb       ??1Text@sf@@UEAA@XZ        0000000140032fbb f   sfml-graphics-d:sfml-graphics-d-2.dll
 0002:0001ffc1       ??0Color@sf@@QEAA@EEEE@Z   0000000140032fc1 f   sfml-graphics-d:sfml-graphics-d-2.dll
 0002:0001ffc7       ?clear@RenderTarget@sf@@QEAAXAEBVColor@2@@Z 0000000140032fc7 f   sfml-graphics-d:sfml-graphics-d-2.dll
 0002:0001ffcd       ?setView@RenderTarget@sf@@QEAAXAEBVView@2@@Z 0000000140032fcd f   sfml-graphics-d:sfml-graphics-d-2.dll
 0002:0001ffd3       ?getDefaultView@RenderTarget@sf@@QEBAAEBVView@2@XZ 0000000140032fd3 f   sfml-graphics-d:sfml-graphics-d-2.dll
 0002:0001ffd9       ??0RenderWindow@sf@@QEAA@VVideoMode@1@AEBVString@1@IAEBUContextSettings@1@@Z 0000000140032fd9 f   sfml-graphics-d:sfml-graphics-d-2.dll
 0002:0001ffdf       ??1RenderWindow@sf@@UEAA@XZ 0000000140032fdf f   sfml-graphics-d:sfml-graphics-d-2.dll
 0002:0001ffe5       ?getSize@RenderWindow@sf@@UEBA?AV?$Vector2@I@2@XZ 0000000140032fe5 f   sfml-graphics-d:sfml-graphics-d-2.dll
 0002:0001ffeb       ?onCreate@RenderWindow@sf@@MEAAXXZ 0000000140032feb f   sfml-graphics-d:sfml-graphics-d-2.dll
 0002:0001fff1       ?onResize@RenderWindow@sf@@MEAAXXZ 0000000140032ff1 f   sfml-graphics-d:sfml-graphics-d-2.dll
 0002:0001fff7       ?setActive@RenderWindow@sf@@UEAA_N_N@Z 0000000140032ff7 f   sfml-graphics-d:sfml-graphics-d-2.dll
 0002:0001fffd       ?setPosition@Transformable@sf@@QEAAXAEBV?$Vector2@M@2@@Z 0000000140032ffd f   sfml-graphics-d:sfml-graphics-d-2.dll
 0002:00020003       ??0Texture@sf@@QEAA@XZ     0000000140033003 f   sfml-graphics-d:sfml-graphics-d-2.dll
 0002:00020009       ??1Texture@sf@@QEAA@XZ     0000000140033009 f   sfml-graphics-d:sfml-graphics-d-2.dll
 0002:0002000f       ?loadFromFile@Texture@sf@@QEAA_NAEBV?$basic_string@DU?$char_traits@D@std@@V?$allocator@D@2@@std@@AEBV?$Rect@H@2@@Z 000000014003300f f   sfml-graphics-d:sfml-graphics-d-2.dll
 0002:00020015       ?getSize@Texture@sf@@QEBA?AV?$Vector2@I@2@XZ 0000000140033015 f   sfml-graphics-d:sfml-graphics-d-2.dll
 0002:0002001b       ??4Texture@sf@@QEAAAEAV01@AEBV01@@Z 000000014003301b f   sfml-graphics-d:sfml-graphics-d-2.dll
 0002:00020021       ??0Sprite@sf@@QEAA@XZ      0000000140033021 f   sfml-graphics-d:sfml-graphics-d-2.dll
 0002:00020027       ?setTexture@Sprite@sf@@QEAAXAEBVTexture@2@_N@Z 0000000140033027 f   sfml-graphics-d:sfml-graphics-d-2.dll
 0002:0002002d       ?setTextureRect@Sprite@sf@@QEAAXAEBV?$Rect@H@2@@Z 000000014003302d f   sfml-graphics-d:sfml-graphics-d-2.dll
 0002:00020033       ?getTexture@Sprite@sf@@QEBAPEBVTexture@2@XZ 0000000140033033 f   sfml-graphics-d:sfml-graphics-d-2.dll
 0002:00020039       ??1Sprite@sf@@UEAA@XZ      0000000140033039 f   sfml-graphics-d:sfml-graphics-d-2.dll
 0002:0002003f       ??4Sprite@sf@@QEAAAEAV01@AEBV01@@Z 000000014003303f f   sfml-graphics-d:sfml-graphics-d-2.dll
 0002:00020045       ??0View@sf@@QEAA@XZ        0000000140033045 f   sfml-graphics-d:sfml-graphics-d-2.dll
 0002:0002004b       ?setViewport@View@sf@@QEAAXAEBV?$Rect@M@2@@Z 000000014003304b f   sfml-graphics-d:sfml-graphics-d-2.dll
 0002:00020051       ??0VideoMode@sf@@QEAA@III@Z 0000000140033051 f   sfml-window-d:sfml-window-d-2.dll
 0002:00020057       ?close@Window@sf@@QEAAXXZ  0000000140033057 f   sfml-window-d:sfml-window-d-2.dll
 0002:0002005d       ?isOpen@Window@sf@@QEBA_NXZ 000000014003305d f   sfml-window-d:sfml-window-d-2.dll
 0002:00020063       ?pollEvent@Window@sf@@QEAA_NAEAVEvent@2@@Z 0000000140033063 f   sfml-window-d:sfml-window-d-2.dll
 0002:00020069       ?display@Window@sf@@QEAAXXZ 0000000140033069 f   sfml-window-d:sfml-window-d-2.dll
 0002:0002006f       ??0String@sf@@QEAA@PEB_W@Z 000000014003306f f   sfml-system-d:sfml-system-d-2.dll
 0002:00020075       ?toWideString@String@sf@@QEBA?AV?$basic_string@_WU?$char_traits@_W@std@@V?$allocator@_W@2@@std@@XZ 0000000140033075 f   sfml-system-d:sfml-system-d-2.dll
 0002:0002007b       ??1String@sf@@QEAA@XZ      000000014003307b f   sfml-system-d:sfml-system-d-2.dll
 0002:00020081       ?asMilliseconds@Time@sf@@QEBAHXZ 0000000140033081 f   sfml-system-d:sfml-system-d-2.dll
 0002:00020087       ??Gsf@@YA?AVTime@0@V10@0@Z 0000000140033087 f   sfml-system-d:sfml-system-d-2.dll
 0002:0002008d       ??0Clock@sf@@QEAA@XZ       000000014003308d f   sfml-system-d:sfml-system-d-2.dll
 0002:00020093       ?getElapsedTime@Clock@sf@@QEBA?AVTime@2@XZ 0000000140033093 f   sfml-system-d:sfml-system-d-2.dll
 0002:00020099       ??0String@sf@@QEAA@PEBDAEBVlocale@std@@@Z 0000000140033099 f   sfml-system-d:sfml-system-d-2.dll
 0002:0002009f       ??0_Lockit@std@@QEAA@H@Z   000000014003309f f   msvcprtd:MSVCP140D.dll
 0002:000200a5       ??1_Lockit@std@@QEAA@XZ    00000001400330a5 f   msvcprtd:MSVCP140D.dll
 0002:000200ab       ?_Xbad_alloc@std@@YAXXZ    00000001400330ab f   msvcprtd:MSVCP140D.dll
 0002:000200b1       ?_Xlength_error@std@@YAXPEBD@Z 00000001400330b1 f   msvcprtd:MSVCP140D.dll
 0002:000200b7       _Mbrtowc                   00000001400330b7 f   msvcprtd:MSVCP140D.dll
 0002:000200bd       ?_Getcvt@_Locinfo@std@@QEBA?AU_Cvtvec@@XZ 00000001400330bd f   msvcprtd:MSVCP140D.dll
 0002:000200c3       ?_Getdays@_Locinfo@std@@QEBAPEBDXZ 00000001400330c3 f   msvcprtd:MSVCP140D.dll
 0002:000200c9       ?_Getmonths@_Locinfo@std@@QEBAPEBDXZ 00000001400330c9 f   msvcprtd:MSVCP140D.dll
 0002:000200cf       ?_W_Getdays@_Locinfo@std@@QEBAPEBGXZ 00000001400330cf f   msvcprtd:MSVCP140D.dll
 0002:000200d5       ?_W_Getmonths@_Locinfo@std@@QEBAPEBGXZ 00000001400330d5 f   msvcprtd:MSVCP140D.dll
 0002:000200db       ?_Xbad_function_call@std@@YAXXZ 00000001400330db f   msvcprtd:MSVCP140D.dll
 0002:000200e1       ?_Debug_message@std@@YAXPEB_W0I@Z 00000001400330e1 f   msvcprtd:MSVCP140D.dll
 0002:000200e7       ?_Xinvalid_argument@std@@YAXPEBD@Z 00000001400330e7 f   msvcprtd:MSVCP140D.dll
 0002:000200ed       ?_Xout_of_range@std@@YAXPEBD@Z 00000001400330ed f   msvcprtd:MSVCP140D.dll
 0002:000200f3       ?_Init@locale@std@@CAPEAV_Locimp@12@_N@Z 00000001400330f3 f   msvcprtd:MSVCP140D.dll
 0002:00020100       ??2@YAPEAX_K@Z             0000000140033100 f   MSVCRTD:new_scalar.obj
 0002:00020170       ??3@YAXPEAX_K@Z            0000000140033170 f   MSVCRTD:delete_scalar_size.obj
 0002:000201a0       ??$__crt_fast_decode_pointer@PEAP6AXXZ@@YAPEAP6AXXZQEAP6AXXZ@Z 00000001400331a0 f i MSVCRTD:utility.obj
 0002:000201f0       ??$__crt_fast_encode_pointer@PEAP6AXXZ@@YAPEAP6AXXZQEAP6AXXZ@Z 00000001400331f0 f i MSVCRTD:utility.obj
 0002:00020240       ?__crt_rotate_pointer_value@@YA_K_KH@Z 0000000140033240 f i MSVCRTD:utility.obj
 0002:00020260       ?configure_argv@__scrt_narrow_argv_policy@@SAHXZ 0000000140033260 f i MSVCRTD:utility.obj
 0002:00020380       ?initialize_environment@__scrt_narrow_environment_policy@@SAHXZ 0000000140033380 f i MSVCRTD:utility.obj
 0002:00020450       NtCurrentTeb               0000000140033450 f i MSVCRTD:utility.obj
 0002:00020460       __scrt_acquire_startup_lock 0000000140033460 f   MSVCRTD:utility.obj
 0002:000204e0       __scrt_dllmain_after_initialize_c 00000001400334e0 f   MSVCRTD:utility.obj
 0002:00020520       __scrt_dllmain_before_initialize_c 0000000140033520 f   MSVCRTD:utility.obj
 0002:00020550       __scrt_dllmain_crt_thread_attach 0000000140033550 f   MSVCRTD:utility.obj
 0002:00020590       __scrt_dllmain_crt_thread_detach 0000000140033590 f   MSVCRTD:utility.obj
 0002:000205b0       __scrt_dllmain_exception_filter 00000001400335b0 f   MSVCRTD:utility.obj
 0002:00020630       __scrt_dllmain_uninitialize_c 0000000140033630 f   MSVCRTD:utility.obj
 0002:00020670       __scrt_dllmain_uninitialize_critical 0000000140033670 f   MSVCRTD:utility.obj
 0002:00020690       __scrt_initialize_crt      0000000140033690 f   MSVCRTD:utility.obj
 0002:000206f0       __scrt_initialize_onexit_tables 00000001400336f0 f   MSVCRTD:utility.obj
 0002:00020840       __scrt_is_nonwritable_in_current_image 0000000140033840 f   MSVCRTD:utility.obj
 0002:000208f0       __scrt_release_startup_lock 00000001400338f0 f   MSVCRTD:utility.obj
 0002:00020930       __scrt_uninitialize_crt    0000000140033930 f   MSVCRTD:utility.obj
 0002:00020980       _onexit                    0000000140033980 f   MSVCRTD:utility.obj
 0002:00020a30       at_quick_exit              0000000140033a30 f   MSVCRTD:utility.obj
 0002:00020aa0       atexit                     0000000140033aa0 f   MSVCRTD:utility.obj
 0002:00020ae0       _RTC_AllocaHelper          0000000140033ae0 f   MSVCRTD:_stack_.obj
 0002:00020b30       _RTC_CheckStackVars        0000000140033b30 f   MSVCRTD:_stack_.obj
 0002:00020be0       _RTC_CheckStackVars2       0000000140033be0 f   MSVCRTD:_stack_.obj
 0002:00020d30       _CRT_RTC_INIT              0000000140033d30 f   MSVCRTD:_init_.obj
 0002:00020d40       _CRT_RTC_INITW             0000000140033d40 f   MSVCRTD:_init_.obj
 0002:00020d50       _RTC_InitBase              0000000140033d50 f   MSVCRTD:_init_.obj
 0002:00020da0       _RTC_Shutdown              0000000140033da0 f   MSVCRTD:_init_.obj
 0002:00020dd0       __GSHandlerCheck           0000000140033dd0 f   MSVCRTD:_gshandler_.obj
 0002:00020e20       __GSHandlerCheckCommon     0000000140033e20 f   MSVCRTD:_gshandler_.obj
 0002:00020f60       __GSHandlerCheck_EH        0000000140033f60 f   MSVCRTD:gshandlereh.obj
 0002:00021040       __security_check_cookie    0000000140034040 f   MSVCRTD:_amdsecgs_.obj
 0002:00021070       ??1type_info@@UEAA@XZ      0000000140034070 f   MSVCRTD:std_type_info_static.obj
 0002:00021090       ??_Gtype_info@@UEAAPEAXI@Z 0000000140034090 f i MSVCRTD:std_type_info_static.obj
 0002:00021090       ??_Etype_info@@UEAAPEAXI@Z 0000000140034090 f i MSVCRTD:std_type_info_static.obj
 0002:000210e0       ??_U@YAPEAX_K@Z            00000001400340e0 f   MSVCRTD:new_array.obj
 0002:000211b0       ?_RTC_AllocaFailure@@YAXPEAXPEAU_RTC_ALLOCA_NODE@@H@Z 00000001400341b0 f   MSVCRTD:_error_.obj
 0002:00021360       ?_RTC_Failure@@YAXPEAXH@Z  0000000140034360 f   MSVCRTD:_error_.obj
 0002:000213d0       ?_RTC_StackFailure@@YAXPEAXPEBD@Z 00000001400343d0 f   MSVCRTD:_error_.obj
 0002:00021910       _RTC_UninitUse             0000000140034910 f   MSVCRTD:_error_.obj
 0002:00021a10       _vsprintf_s_l              0000000140034a10 f i MSVCRTD:_error_.obj
 0002:00021a90       sprintf_s                  0000000140034a90 f i MSVCRTD:_error_.obj
 0002:00021e30       ?set_app_type@__scrt_winmain_policy@@SAXXZ 0000000140034e30 f i MSVCRTD:exe_winmain.obj
 0002:00021e50       ?set_commode@__scrt_file_policy@@SAXXZ 0000000140034e50 f i MSVCRTD:exe_winmain.obj
 0002:00021e80       ?set_fmode@__scrt_file_policy@@SAXXZ 0000000140034e80 f i MSVCRTD:exe_winmain.obj
 0002:00021ea0       WinMainCRTStartup          0000000140034ea0 f   MSVCRTD:exe_winmain.obj
 0002:00021ec0       ??0bad_alloc@std@@AEAA@QEBD@Z 0000000140034ec0 f i MSVCRTD:throw_bad_alloc.obj
 0002:00021f10       ??0bad_alloc@std@@QEAA@AEBV01@@Z 0000000140034f10 f i MSVCRTD:throw_bad_alloc.obj
 0002:00021f60       ??0bad_alloc@std@@QEAA@XZ  0000000140034f60 f i MSVCRTD:throw_bad_alloc.obj
 0002:00021fb0       ??0bad_array_new_length@std@@QEAA@AEBV01@@Z 0000000140034fb0 f i MSVCRTD:throw_bad_alloc.obj
 0002:00022000       ??0bad_array_new_length@std@@QEAA@XZ 0000000140035000 f i MSVCRTD:throw_bad_alloc.obj
 0002:00022040       ??0exception@std@@QEAA@AEBV01@@Z 0000000140035040 f i MSVCRTD:throw_bad_alloc.obj
 0002:000220b0       ??0exception@std@@QEAA@QEBDH@Z 00000001400350b0 f i MSVCRTD:throw_bad_alloc.obj
 0002:00022110       ??1bad_alloc@std@@UEAA@XZ  0000000140035110 f i MSVCRTD:throw_bad_alloc.obj
 0002:00022130       ??1bad_array_new_length@std@@UEAA@XZ 0000000140035130 f i MSVCRTD:throw_bad_alloc.obj
 0002:00022150       ??1exception@std@@UEAA@XZ  0000000140035150 f i MSVCRTD:throw_bad_alloc.obj
 0002:00022190       ??_Gbad_alloc@std@@UEAAPEAXI@Z 0000000140035190 f i MSVCRTD:throw_bad_alloc.obj
 0002:00022190       ??_Ebad_alloc@std@@UEAAPEAXI@Z 0000000140035190 f i MSVCRTD:throw_bad_alloc.obj
 0002:000221e0       ??_Gbad_array_new_length@std@@UEAAPEAXI@Z 00000001400351e0 f i MSVCRTD:throw_bad_alloc.obj
 0002:000221e0       ??_Ebad_array_new_length@std@@UEAAPEAXI@Z 00000001400351e0 f i MSVCRTD:throw_bad_alloc.obj
 0002:00022230       ??_Eexception@std@@UEAAPEAXI@Z 0000000140035230 f i MSVCRTD:throw_bad_alloc.obj
 0002:00022230       ??_Gexception@std@@UEAAPEAXI@Z 0000000140035230 f i MSVCRTD:throw_bad_alloc.obj
 0002:00022280       ?__scrt_throw_std_bad_alloc@@YAXXZ 0000000140035280 f   MSVCRTD:throw_bad_alloc.obj
 0002:000222b0       ?__scrt_throw_std_bad_array_new_length@@YAXXZ 00000001400352b0 f   MSVCRTD:throw_bad_alloc.obj
 0002:000222e0       ?what@exception@std@@UEBAPEBDXZ 00000001400352e0 f i MSVCRTD:throw_bad_alloc.obj
 0002:00022330       ??3@YAXPEAX@Z              0000000140035330 f   MSVCRTD:delete_scalar.obj
 0002:00022360       __isa_available_init       0000000140035360 f   MSVCRTD:_cpu_disp_.obj
 0002:000227b0       _get_startup_argv_mode     00000001400357b0 f   MSVCRTD:argv_mode.obj
 0002:000227c0       __scrt_is_ucrt_dll_in_use  00000001400357c0 f   MSVCRTD:ucrt_detection.obj
 0002:000227f0       __crt_debugger_hook        00000001400357f0 f   MSVCRTD:utility_desktop.obj
 0002:00022810       __scrt_fastfail            0000000140035810 f   MSVCRTD:utility_desktop.obj
 0002:00022a10       __scrt_get_show_window_mode 0000000140035a10 f   MSVCRTD:utility_desktop.obj
 0002:00022a80       __scrt_initialize_winrt    0000000140035a80 f   MSVCRTD:utility_desktop.obj
 0002:00022a90       __scrt_is_managed_app      0000000140035a90 f   MSVCRTD:utility_desktop.obj
 0002:00022b60       __scrt_set_unhandled_exception_filter 0000000140035b60 f   MSVCRTD:utility_desktop.obj
 0002:00022b80       __scrt_unhandled_exception_filter 0000000140035b80 f   MSVCRTD:utility_desktop.obj
 0002:00022c10       _guard_check_icall_nop     0000000140035c10 f i MSVCRTD:guard_support.obj
 0002:00022c20       ReadNoFence64              0000000140035c20 f i MSVCRTD:guard_support.obj
 0002:00022c50       ReadPointerNoFence         0000000140035c50 f i MSVCRTD:guard_support.obj
 0002:00022c70       _guard_icall_checks_enforced 0000000140035c70 f i MSVCRTD:guard_support.obj
 0002:00022cc0       _guard_rf_checks_enforced  0000000140035cc0 f i MSVCRTD:guard_support.obj
 0002:00022cd0       ?_RTC_GetErrorFunc@@YAP6AHHPEBDH00ZZPEBX@Z 0000000140035cd0 f   MSVCRTD:_userapi_.obj
 0002:00022ce0       ?_RTC_GetErrorFuncW@@YAP6AHHPEB_WH00ZZPEBX@Z 0000000140035ce0 f   MSVCRTD:_userapi_.obj
 0002:00022cf0       _RTC_GetErrDesc            0000000140035cf0 f   MSVCRTD:_userapi_.obj
 0002:00022d10       _RTC_NumErrors             0000000140035d10 f   MSVCRTD:_userapi_.obj
 0002:00022d20       _RTC_SetErrorFunc          0000000140035d20 f   MSVCRTD:_userapi_.obj
 0002:00022d40       _RTC_SetErrorFuncW         0000000140035d40 f   MSVCRTD:_userapi_.obj
 0002:00022d60       _RTC_SetErrorType          0000000140035d60 f   MSVCRTD:_userapi_.obj
 0002:00022d90       __raise_securityfailure    0000000140035d90 f   MSVCRTD:gs_report.obj
 0002:00022de0       __report_gsfailure         0000000140035de0 f   MSVCRTD:gs_report.obj
 0002:00022ef0       __report_rangecheckfailure 0000000140035ef0 f   MSVCRTD:gs_report.obj
 0002:00022f10       __report_securityfailure   0000000140035f10 f   MSVCRTD:gs_report.obj
 0002:00022fe0       __report_securityfailureEx 0000000140035fe0 f   MSVCRTD:gs_report.obj
 0002:00023930       ?_RTC_GetSrcLine@@YAHPEAEPEA_WKPEAH1K@Z 0000000140036930 f   MSVCRTD:_pdblkup_.obj
 0002:00023ee0       __security_init_cookie     0000000140036ee0 f   MSVCRTD:gs_support.obj
 0002:00023f80       _matherr                   0000000140036f80 f   MSVCRTD:matherr.obj
 0002:00023f90       _get_startup_commit_mode   0000000140036f90 f   MSVCRTD:commit_mode.obj
 0002:00023fa0       _get_startup_file_mode     0000000140036fa0 f   MSVCRTD:file_mode.obj
 0002:00023fb0       _get_startup_new_mode      0000000140036fb0 f   MSVCRTD:new_mode.obj
 0002:00023fc0       _get_startup_thread_locale_mode 0000000140036fc0 f   MSVCRTD:thread_locale.obj
 0002:00023fd0       ?__scrt_initialize_type_info@@YAXXZ 0000000140036fd0 f   MSVCRTD:tncleanup.obj
 0002:00023ff0       ?__scrt_uninitialize_type_info@@YAXXZ 0000000140036ff0 f   MSVCRTD:tncleanup.obj
 0002:00024010       _should_initialize_environment 0000000140037010 f   MSVCRTD:env_mode.obj
 0002:00024020       _initialize_invalid_parameter_handler 0000000140037020 f   MSVCRTD:invalid_parameter_handler.obj
 0002:00024030       _initialize_denormal_control 0000000140037030 f   MSVCRTD:denormal_control.obj
 0002:00024040       __local_stdio_scanf_options 0000000140037040 f i MSVCRTD:default_local_stdio_options.obj
 0002:00024050       __scrt_initialize_default_local_stdio_options 0000000140037050 f   MSVCRTD:default_local_stdio_options.obj
 0002:000240b0       __scrt_is_user_matherr_present 00000001400370b0 f   MSVCRTD:matherr_detection.obj
 0002:000240e0       __scrt_get_dyn_tls_init_callback 00000001400370e0 f   MSVCRTD:dyn_tls_init.obj
 0002:000240f0       __scrt_get_dyn_tls_dtor_callback 00000001400370f0 f   MSVCRTD:dyn_tls_dtor.obj
 0002:00024100       _RTC_Initialize            0000000140037100 f   MSVCRTD:_initsect_.obj
 0002:00024160       _RTC_Terminate             0000000140037160 f   MSVCRTD:_initsect_.obj
 0002:000241c0       memcpy                     00000001400371c0 f   vcruntimed:VCRUNTIME140D.dll
 0002:000241c6       memmove                    00000001400371c6 f   vcruntimed:VCRUNTIME140D.dll
 0002:000241cc       __CxxFrameHandler3         00000001400371cc f   vcruntimed:VCRUNTIME140D.dll
 0002:000241d2       _CxxThrowException         00000001400371d2 f   vcruntimed:VCRUNTIME140D.dll
 0002:000241d8       _purecall                  00000001400371d8 f   vcruntimed:VCRUNTIME140D.dll
 0002:000241de       __C_specific_handler       00000001400371de f   vcruntimed:VCRUNTIME140D.dll
 0002:000241e4       __C_specific_handler_noexcept 00000001400371e4 f   vcruntimed:VCRUNTIME140D.dll
 0002:000241ea       __std_exception_copy       00000001400371ea f   vcruntimed:VCRUNTIME140D.dll
 0002:000241f0       __std_exception_destroy    00000001400371f0 f   vcruntimed:VCRUNTIME140D.dll
 0002:000241f6       __vcrt_GetModuleFileNameW  00000001400371f6 f   vcruntimed:VCRUNTIME140D.dll
 0002:000241fc       __vcrt_GetModuleHandleW    00000001400371fc f   vcruntimed:VCRUNTIME140D.dll
 0002:00024202       __vcrt_LoadLibraryExW      0000000140037202 f   vcruntimed:VCRUNTIME140D.dll
 0002:00024208       __std_type_info_destroy_list 0000000140037208 f   vcruntimed:VCRUNTIME140D.dll
 0002:0002420e       _invalid_parameter         000000014003720e f   ucrtd:ucrtbased.dll
 0002:00024214       wcslen                     0000000140037214 f   ucrtd:ucrtbased.dll
 0002:0002421a       strlen                     000000014003721a f   ucrtd:ucrtbased.dll
 0002:00024220       _calloc_dbg                0000000140037220 f   ucrtd:ucrtbased.dll
 0002:00024226       _CrtDbgReportW             0000000140037226 f   ucrtd:ucrtbased.dll
 0002:0002422c       _errno                     000000014003722c f   ucrtd:ucrtbased.dll
 0002:00024232       strtof                     0000000140037232 f   ucrtd:ucrtbased.dll
 0002:00024238       strtol                     0000000140037238 f   ucrtd:ucrtbased.dll
 0002:0002423e       __acrt_iob_func            000000014003723e f   ucrtd:ucrtbased.dll
 0002:00024244       fclose                     0000000140037244 f   ucrtd:ucrtbased.dll
 0002:0002424a       fopen                      000000014003724a f   ucrtd:ucrtbased.dll
 0002:00024250       fread                      0000000140037250 f   ucrtd:ucrtbased.dll
 0002:00024256       __stdio_common_vfprintf    0000000140037256 f   ucrtd:ucrtbased.dll
 0002:0002425c       rand                       000000014003725c f   ucrtd:ucrtbased.dll
 0002:00024262       fabs                       0000000140037262 f   ucrtd:ucrtbased.dll
 0002:00024268       _callnewh                  0000000140037268 f   ucrtd:ucrtbased.dll
 0002:0002426e       malloc                     000000014003726e f   ucrtd:ucrtbased.dll
 0002:00024274       _seh_filter_dll            0000000140037274 f   ucrtd:ucrtbased.dll
 0002:0002427a       _configure_narrow_argv     000000014003727a f   ucrtd:ucrtbased.dll
 0002:00024280       _initialize_narrow_environment 0000000140037280 f   ucrtd:ucrtbased.dll
 0002:00024286       _initialize_onexit_table   0000000140037286 f   ucrtd:ucrtbased.dll
 0002:0002428c       _register_onexit_function  000000014003728c f   ucrtd:ucrtbased.dll
 0002:00024292       _execute_onexit_table      0000000140037292 f   ucrtd:ucrtbased.dll
 0002:00024298       _crt_atexit                0000000140037298 f   ucrtd:ucrtbased.dll
 0002:0002429e       _crt_at_quick_exit         000000014003729e f   ucrtd:ucrtbased.dll
 0002:000242a4       _cexit                     00000001400372a4 f   ucrtd:ucrtbased.dll
 0002:000242aa       _CrtDbgReport              00000001400372aa f   ucrtd:ucrtbased.dll
 0002:000242b0       strcpy_s                   00000001400372b0 f   ucrtd:ucrtbased.dll
 0002:000242b6       strcat_s                   00000001400372b6 f   ucrtd:ucrtbased.dll
 0002:000242bc       __stdio_common_vsprintf_s  00000001400372bc f   ucrtd:ucrtbased.dll
 0002:000242c2       _seh_filter_exe            00000001400372c2 f   ucrtd:ucrtbased.dll
 0002:000242c8       _set_app_type              00000001400372c8 f   ucrtd:ucrtbased.dll
 0002:000242ce       __setusermatherr           00000001400372ce f   ucrtd:ucrtbased.dll
 0002:000242d4       _get_narrow_winmain_command_line 00000001400372d4 f   ucrtd:ucrtbased.dll
 0002:000242da       _initterm                  00000001400372da f   ucrtd:ucrtbased.dll
 0002:000242e0       _initterm_e                00000001400372e0 f   ucrtd:ucrtbased.dll
 0002:000242e6       exit                       00000001400372e6 f   ucrtd:ucrtbased.dll
 0002:000242ec       _exit                      00000001400372ec f   ucrtd:ucrtbased.dll
 0002:000242f2       _set_fmode                 00000001400372f2 f   ucrtd:ucrtbased.dll
 0002:000242f8       _c_exit                    00000001400372f8 f   ucrtd:ucrtbased.dll
 0002:000242fe       _register_thread_local_exe_atexit_callback 00000001400372fe f   ucrtd:ucrtbased.dll
 0002:00024304       _configthreadlocale        0000000140037304 f   ucrtd:ucrtbased.dll
 0002:0002430a       _set_new_mode              000000014003730a f   ucrtd:ucrtbased.dll
 0002:00024310       __p__commode               0000000140037310 f   ucrtd:ucrtbased.dll
 0002:00024316       _free_dbg                  0000000140037316 f   ucrtd:ucrtbased.dll
 0002:0002431c       terminate                  000000014003731c f   ucrtd:ucrtbased.dll
 0002:00024322       _wmakepath_s               0000000140037322 f   ucrtd:ucrtbased.dll
 0002:00024328       _wsplitpath_s              0000000140037328 f   ucrtd:ucrtbased.dll
 0002:0002432e       wcscpy_s                   000000014003732e f   ucrtd:ucrtbased.dll
 0002:00024334       IsDebuggerPresent          0000000140037334 f   kernel32:KERNEL32.dll
 0002:0002433a       RaiseException             000000014003733a f   kernel32:KERNEL32.dll
 0002:00024340       MultiByteToWideChar        0000000140037340 f   kernel32:KERNEL32.dll
 0002:00024346       WideCharToMultiByte        0000000140037346 f   kernel32:KERNEL32.dll
 0002:0002434c       RtlCaptureContext          000000014003734c f   kernel32:KERNEL32.dll
 0002:00024352       RtlLookupFunctionEntry     0000000140037352 f   kernel32:KERNEL32.dll
 0002:00024358       RtlVirtualUnwind           0000000140037358 f   kernel32:KERNEL32.dll
 0002:0002435e       UnhandledExceptionFilter   000000014003735e f   kernel32:KERNEL32.dll
 0002:00024364       SetUnhandledExceptionFilter 0000000140037364 f   kernel32:KERNEL32.dll
 0002:0002436a       GetStartupInfoW            000000014003736a f   kernel32:KERNEL32.dll
 0002:00024370       IsProcessorFeaturePresent  0000000140037370 f   kernel32:KERNEL32.dll
 0002:00024376       GetModuleHandleW           0000000140037376 f   kernel32:KERNEL32.dll
 0002:0002437c       GetCurrentProcess          000000014003737c f   kernel32:KERNEL32.dll
 0002:00024382       TerminateProcess           0000000140037382 f   kernel32:KERNEL32.dll
 0002:00024388       GetLastError               0000000140037388 f   kernel32:KERNEL32.dll
 0002:0002438e       HeapAlloc                  000000014003738e f   kernel32:KERNEL32.dll
 0002:00024394       HeapFree                   0000000140037394 f   kernel32:KERNEL32.dll
 0002:0002439a       GetProcessHeap             000000014003739a f   kernel32:KERNEL32.dll
 0002:000243a0       VirtualQuery               00000001400373a0 f   kernel32:KERNEL32.dll
 0002:000243a6       FreeLibrary                00000001400373a6 f   kernel32:KERNEL32.dll
 0002:000243ac       GetProcAddress             00000001400373ac f   kernel32:KERNEL32.dll
 0002:000243b2       QueryPerformanceCounter    00000001400373b2 f   kernel32:KERNEL32.dll
 0002:000243b8       GetCurrentProcessId        00000001400373b8 f   kernel32:KERNEL32.dll
 0002:000243be       GetCurrentThreadId         00000001400373be f   kernel32:KERNEL32.dll
 0002:000243c4       GetSystemTimeAsFileTime    00000001400373c4 f   kernel32:KERNEL32.dll
 0002:000243ca       InitializeSListHead        00000001400373ca f   kernel32:KERNEL32.dll
 0002:000243d0       __vcrt_initialize          00000001400373d0 f   MSVCRTD:ucrt_stubs.obj
 0002:000243d0       __acrt_initialize          00000001400373d0 f   MSVCRTD:ucrt_stubs.obj
 0002:000243d0       __scrt_stub_for_acrt_initialize 00000001400373d0 f   MSVCRTD:ucrt_stubs.obj
 0002:000243e0       __vcrt_thread_attach       00000001400373e0 f   MSVCRTD:ucrt_stubs.obj
 0002:000243e0       __acrt_thread_attach       00000001400373e0 f   MSVCRTD:ucrt_stubs.obj
 0002:000243e0       __scrt_stub_for_acrt_thread_attach 00000001400373e0 f   MSVCRTD:ucrt_stubs.obj
 0002:000243f0       __acrt_thread_detach       00000001400373f0 f   MSVCRTD:ucrt_stubs.obj
 0002:000243f0       __vcrt_thread_detach       00000001400373f0 f   MSVCRTD:ucrt_stubs.obj
 0002:000243f0       __scrt_stub_for_acrt_thread_detach 00000001400373f0 f   MSVCRTD:ucrt_stubs.obj
 0002:00024400       __vcrt_uninitialize        0000000140037400 f   MSVCRTD:ucrt_stubs.obj
 0002:00024400       __acrt_uninitialize        0000000140037400 f   MSVCRTD:ucrt_stubs.obj
 0002:00024400       __scrt_stub_for_acrt_uninitialize 0000000140037400 f   MSVCRTD:ucrt_stubs.obj
 0002:00024410       __acrt_uninitialize_critical 0000000140037410 f   MSVCRTD:ucrt_stubs.obj
 0002:00024410       __scrt_stub_for_acrt_uninitialize_critical 0000000140037410 f   MSVCRTD:ucrt_stubs.obj
 0002:00024410       __vcrt_uninitialize_critical 0000000140037410 f   MSVCRTD:ucrt_stubs.obj
 0002:00024420       _is_c_termination_complete 0000000140037420 f   MSVCRTD:ucrt_stubs.obj
 0002:00024420       __scrt_stub_for_is_c_termination_complete 0000000140037420 f   MSVCRTD:ucrt_stubs.obj
 0002:00025bd0       _guard_dispatch_icall_nop  0000000140038bd0 f   MSVCRTD:_guard_dispatch_.obj
 0003:00000000       __xc_a                     000000014003e000     MSVCRTD:initializers.obj
 0003:00000330       __xc_z                     000000014003e330     MSVCRTD:initializers.obj
 0003:00000440       __xi_a                     000000014003e440     MSVCRTD:initializers.obj
 0003:00000770       __xi_z                     000000014003e770     MSVCRTD:initializers.obj
 0003:00000880       __xp_a                     000000014003e880     MSVCRTD:initializers.obj
 0003:00000990       __xp_z                     000000014003e990     MSVCRTD:initializers.obj
 0003:00000aa0       __xt_a                     000000014003eaa0     MSVCRTD:initializers.obj
 0003:00000bb0       __xt_z                     000000014003ebb0     MSVCRTD:initializers.obj
 0003:00001480       ??_C@_1NC@BCCBOEFF@?$AAc?$AA?3?$AA?2?$AAp?$AAr?$AAo?$AAg?$AAr?$AAa?$AAm?$AA?5?$AAf?$AAi?$AAl?$AAe?$AAs?$AA?5?$AA?$CI?$AAx?$AA8?$AA6?$AA?$CJ?$AA?2?$AAm?$AAi?$AAc?$AAr?$AAo?$AAs?$AAo?$AAf?$AAt@ 000000014003f480     button.obj
 0003:00001580       ??_C@_1EK@NIFDJFDG@?$AAs?$AAt?$AAd?$AA?3?$AA?3?$AA_?$AAA?$AAd?$AAj?$AAu?$AAs?$AAt?$AA_?$AAm?$AAa?$AAn?$AAu?$AAa?$AAl?$AAl?$AAy?$AA_?$AAv?$AAe?$AAc?$AAt?$AAo?$AAr?$AA_?$AAa?$AAl?$AAi@ 000000014003f580     button.obj
 0003:000015d8       ??_C@_1CG@JNLFBNGN@?$AA?$CC?$AAi?$AAn?$AAv?$AAa?$AAl?$AAi?$AAd?$AA?5?$AAa?$AAr?$AAg?$AAu?$AAm?$AAe?$AAn?$AAt?$AA?$CC?$AA?$AA@ 000000014003f5d8     button.obj
 0003:00001610       ??_C@_0GI@EPMNOPBK@c?3?2program?5files?5?$CIx86?$CJ?2microsoft@ 000000014003f610     button.obj
 0003:00001690       ??_C@_0GI@MMIAONLL@c?3?2program?5files?5?$CIx86?$CJ?2microsoft@ 000000014003f690     button.obj
 0003:00001718       ??_7Button@@6B@            000000014003f718     button.obj
 0003:00001750       ??_C@_0CC@KHCOGICN@C?3?1C?$CL?$CL?1Tanks?1x64?1Debug?1button?4pn@ 000000014003f750     button.obj
 0003:00001778       ??_C@_0CG@IEMLCEJ@C?3?1C?$CL?$CL?1Tanks?1x64?1Debug?1capture?9i@ 000000014003f778     button.obj
 0003:000017a8       ??_C@_0N@LPFKKEBD@?3AM?3am?3PM?3pm?$AA@ 000000014003f7a8     button.obj
 0003:000017b8       ??_C@_1BK@MHIKGOKE@?$AA?3?$AAA?$AAM?$AA?3?$AAa?$AAm?$AA?3?$AAP?$AAM?$AA?3?$AAp?$AAm?$AA?$AA@ 000000014003f7b8     button.obj
 0003:000017d8       ??_C@_0BA@JFNIOLAK@string?5too?5long?$AA@ 000000014003f7d8     button.obj
 0003:000017f0       ??_C@_0BE@LMNLACIC@_Ptr_container?5?$CB?$DN?50?$AA@ 000000014003f7f0     button.obj
 0003:00001808       ??_C@_1DG@HGDKEBPG@?$AA?$CC?$AA_?$AAP?$AAt?$AAr?$AA_?$AAc?$AAo?$AAn?$AAt?$AAa?$AAi?$AAn?$AAe?$AAr?$AA?5?$AA?$CB?$AA?$DN?$AA?5?$AA0?$AA?$CC?$AA?5?$AA?$CG?$AA?$CG?$AA?5?$AA0?$AA?$AA@ 000000014003f808     button.obj
 0003:00001848       ??_C@_17CNPHIMPH@?$AA?$CF?$AAl?$AAs?$AA?$AA@ 000000014003f848     button.obj
 0003:00001860       ??_C@_1EO@GFNCMDLA@?$AAs?$AAt?$AAd?$AA?3?$AA?3?$AA_?$AAA?$AAl?$AAl?$AAo?$AAc?$AAa?$AAt?$AAe?$AA_?$AAm?$AAa?$AAn?$AAu?$AAa?$AAl?$AAl?$AAy?$AA_?$AAv?$AAe?$AAc?$AAt?$AAo?$AAr?$AA_?$AAa@ 000000014003f860     button.obj
 0003:000018c0       __real@40000000            000000014003f8c0     button.obj
 0003:00002620       ??_C@_1NC@OPMKDBPG@?$AAc?$AA?3?$AA?2?$AAp?$AAr?$AAo?$AAg?$AAr?$AAa?$AAm?$AA?5?$AAf?$AAi?$AAl?$AAe?$AAs?$AA?5?$AA?$CI?$AAx?$AA8?$AA6?$AA?$CJ?$AA?2?$AAm?$AAi?$AAc?$AAr?$AAo?$AAs?$AAo?$AAf?$AAt@ 0000000140040620     config.obj
 0003:00002720       ??_C@_1DC@POOIKBAO@?$AAI?$AAT?$AAE?$AAR?$AAA?$AAT?$AAO?$AAR?$AA?5?$AAL?$AAI?$AAS?$AAT?$AA?5?$AAC?$AAO?$AAR?$AAR?$AAU?$AAP?$AAT?$AAE?$AAD?$AA?$CB?$AA?$AA@ 0000000140040720     config.obj
 0003:00002760       ??_C@_1EE@KLDMFDFL@?$AAs?$AAt?$AAd?$AA?3?$AA?3?$AA_?$AAI?$AAt?$AAe?$AAr?$AAa?$AAt?$AAo?$AAr?$AA_?$AAb?$AAa?$AAs?$AAe?$AA1?$AA2?$AA?3?$AA?3?$AA_?$AAO?$AAr?$AAp?$AAh?$AAa?$AAn?$AA_?$AAm@ 0000000140040760     config.obj
 0003:000027b8       ??_C@_1DG@PLBPCAEM@?$AA?$CC?$AAI?$AAT?$AAE?$AAR?$AAA?$AAT?$AAO?$AAR?$AA?5?$AAL?$AAI?$AAS?$AAT?$AA?5?$AAC?$AAO?$AAR?$AAR?$AAU?$AAP?$AAT?$AAE?$AAD?$AA?$CB?$AA?$CC?$AA?$AA@ 00000001400407b8     config.obj
 0003:000027f8       ??_C@_0BG@HGEDEDEC@invalid?5stoi?5argument?$AA@ 00000001400407f8     config.obj
 0003:00002818       ??_C@_0BL@MFFNMGGC@stoi?5argument?5out?5of?5range?$AA@ 0000000140040818     config.obj
 0003:00002838       ??_C@_0BG@OFLLLHIE@invalid?5stof?5argument?$AA@ 0000000140040838     config.obj
 0003:00002858       ??_C@_0BL@CGEIMNKL@stof?5argument?5out?5of?5range?$AA@ 0000000140040858     config.obj
 0003:00002878       ??_C@_01KDCPPGHE@r?$AA@    0000000140040878     config.obj
 0003:00002880       ??_C@_0BC@BGEEBOPC@File?5?$CFs?5not?5found?$AA@ 0000000140040880     config.obj
 0003:00002898       ??_C@_0BP@FLACLNDA@Buffer?5too?5small?5for?5read?5line?$AA@ 0000000140040898     config.obj
 0003:000028c0       ??_C@_0DF@CDFJBOGE@Create?5object?5error?3?5not?5found?5p@ 00000001400408c0     config.obj
 0003:00002900       ??_C@_1MM@KGLOHGEF@?$AAc?$AA?3?$AA?2?$AAp?$AAr?$AAo?$AAg?$AAr?$AAa?$AAm?$AA?5?$AAf?$AAi?$AAl?$AAe?$AAs?$AA?5?$AA?$CI?$AAx?$AA8?$AA6?$AA?$CJ?$AA?2?$AAm?$AAi?$AAc?$AAr?$AAo?$AAs?$AAo?$AAf?$AAt@ 0000000140040900     config.obj
 0003:000029f8       ??_C@_1DO@CFEEPGGJ@?$AAm?$AAa?$AAp?$AA?1?$AAs?$AAe?$AAt?$AA?5?$AAi?$AAt?$AAe?$AAr?$AAa?$AAt?$AAo?$AAr?$AAs?$AA?5?$AAi?$AAn?$AAc?$AAo?$AAm?$AAp?$AAa?$AAt?$AAi?$AAb?$AAl?$AAe?$AA?$AA@ 00000001400409f8     config.obj
 0003:00002a50       ??_C@_1BEI@IJEMBBLM@?$AAs?$AAt?$AAd?$AA?3?$AA?3?$AA_?$AAT?$AAr?$AAe?$AAe?$AA_?$AAc?$AAo?$AAn?$AAs?$AAt?$AA_?$AAi?$AAt?$AAe?$AAr?$AAa?$AAt?$AAo?$AAr?$AA?$DM?$AAc?$AAl?$AAa?$AAs?$AAs?$AA?5@ 0000000140040a50     config.obj
 0003:00002be0       ??_C@_1EC@JLIDLCDH@?$AA?$CC?$AAm?$AAa?$AAp?$AA?1?$AAs?$AAe?$AAt?$AA?5?$AAi?$AAt?$AAe?$AAr?$AAa?$AAt?$AAo?$AAr?$AAs?$AA?5?$AAi?$AAn?$AAc?$AAo?$AAm?$AAp?$AAa?$AAt?$AAi?$AAb?$AAl?$AAe?$AA?$CC@ 0000000140040be0     config.obj
 0003:00002c30       ??_C@_1EI@FHEHNNNM@?$AAm?$AAa?$AAp?$AA?1?$AAs?$AAe?$AAt?$AA?5?$AAi?$AAt?$AAe?$AAr?$AAa?$AAt?$AAo?$AAr?$AA?5?$AAn?$AAo?$AAt?$AA?5?$AAd?$AAe?$AAr?$AAe?$AAf?$AAe?$AAr?$AAe?$AAn?$AAc?$AAa@ 0000000140040c30     config.obj
 0003:00002c90       ??_C@_1BEG@CCJOBLNO@?$AAs?$AAt?$AAd?$AA?3?$AA?3?$AA_?$AAT?$AAr?$AAe?$AAe?$AA_?$AAc?$AAo?$AAn?$AAs?$AAt?$AA_?$AAi?$AAt?$AAe?$AAr?$AAa?$AAt?$AAo?$AAr?$AA?$DM?$AAc?$AAl?$AAa?$AAs?$AAs?$AA?5@ 0000000140040c90     config.obj
 0003:00002e20       ??_C@_1EM@KEKCOCNI@?$AA?$CC?$AAm?$AAa?$AAp?$AA?1?$AAs?$AAe?$AAt?$AA?5?$AAi?$AAt?$AAe?$AAr?$AAa?$AAt?$AAo?$AAr?$AA?5?$AAn?$AAo?$AAt?$AA?5?$AAd?$AAe?$AAr?$AAe?$AAf?$AAe?$AAr?$AAe?$AAn?$AAc@ 0000000140040e20     config.obj
 0003:00002e80       ??_C@_0BI@CFPLBAOH@invalid?5string?5position?$AA@ 0000000140040e80     config.obj
 0003:00002ea0       ??_C@_1CG@LEJCKCBB@?$AAi?$AAn?$AAv?$AAa?$AAl?$AAi?$AAd?$AA?5?$AAc?$AAo?$AAm?$AAp?$AAa?$AAr?$AAa?$AAt?$AAo?$AAr?$AA?$AA@ 0000000140040ea0     config.obj
 0003:00002ed0       ??_C@_1CI@JONCLBEJ@?$AAs?$AAt?$AAd?$AA?3?$AA?3?$AA_?$AAD?$AAe?$AAb?$AAu?$AAg?$AA_?$AAl?$AAt?$AA_?$AAp?$AAr?$AAe?$AAd?$AA?$AA@ 0000000140040ed0     config.obj
 0003:00002f00       ??_C@_1CK@NDNHPKPI@?$AA?$CC?$AAi?$AAn?$AAv?$AAa?$AAl?$AAi?$AAd?$AA?5?$AAc?$AAo?$AAm?$AAp?$AAa?$AAr?$AAa?$AAt?$AAo?$AAr?$AA?$CC?$AA?$AA@ 0000000140040f00     config.obj
 0003:00002f40       ??_C@_1MI@GHHFAAMD@?$AAc?$AA?3?$AA?2?$AAp?$AAr?$AAo?$AAg?$AAr?$AAa?$AAm?$AA?5?$AAf?$AAi?$AAl?$AAe?$AAs?$AA?5?$AA?$CI?$AAx?$AA8?$AA6?$AA?$CJ?$AA?2?$AAm?$AAi?$AAc?$AAr?$AAo?$AAs?$AAo?$AAf?$AAt@ 0000000140040f40     config.obj
 0003:00003030       ??_C@_1EM@MHOKKPFH@?$AAm?$AAa?$AAp?$AA?1?$AAs?$AAe?$AAt?$AA?5?$AAi?$AAn?$AAs?$AAe?$AAr?$AAt?$AA?5?$AAi?$AAt?$AAe?$AAr?$AAa?$AAt?$AAo?$AAr?$AA?5?$AAo?$AAu?$AAt?$AAs?$AAi?$AAd?$AAe?$AA?5@ 0000000140041030     config.obj
 0003:00003090       ??_C@_1BLK@BGDFBAC@?$AAs?$AAt?$AAd?$AA?3?$AA?3?$AA_?$AAT?$AAr?$AAe?$AAe?$AA?$DM?$AAc?$AAl?$AAa?$AAs?$AAs?$AA?5?$AAs?$AAt?$AAd?$AA?3?$AA?3?$AA_?$AAT?$AAm?$AAa?$AAp?$AA_?$AAt?$AAr?$AAa?$AAi@ 0000000140041090     config.obj
 0003:000032b0       ??_C@_1FA@HNFOKDLB@?$AA?$CC?$AAm?$AAa?$AAp?$AA?1?$AAs?$AAe?$AAt?$AA?5?$AAi?$AAn?$AAs?$AAe?$AAr?$AAt?$AA?5?$AAi?$AAt?$AAe?$AAr?$AAa?$AAt?$AAo?$AAr?$AA?5?$AAo?$AAu?$AAt?$AAs?$AAi?$AAd?$AAe@ 00000001400412b0     config.obj
 0003:00003310       ??_C@_1EG@OKCGOALM@?$AAm?$AAa?$AAp?$AA?1?$AAs?$AAe?$AAt?$AA?5?$AAi?$AAt?$AAe?$AAr?$AAa?$AAt?$AAo?$AAr?$AA?5?$AAn?$AAo?$AAt?$AA?5?$AAd?$AAe?$AAc?$AAr?$AAe?$AAm?$AAe?$AAn?$AAt?$AAa?$AAb@ 0000000140041310     config.obj
 0003:00003370       ??_C@_1BEI@NKIDEELI@?$AAs?$AAt?$AAd?$AA?3?$AA?3?$AA_?$AAT?$AAr?$AAe?$AAe?$AA_?$AAc?$AAo?$AAn?$AAs?$AAt?$AA_?$AAi?$AAt?$AAe?$AAr?$AAa?$AAt?$AAo?$AAr?$AA?$DM?$AAc?$AAl?$AAa?$AAs?$AAs?$AA?5@ 0000000140041370     config.obj
 0003:00003500       ??_C@_1EK@OIBHPACE@?$AA?$CC?$AAm?$AAa?$AAp?$AA?1?$AAs?$AAe?$AAt?$AA?5?$AAi?$AAt?$AAe?$AAr?$AAa?$AAt?$AAo?$AAr?$AA?5?$AAn?$AAo?$AAt?$AA?5?$AAd?$AAe?$AAc?$AAr?$AAe?$AAm?$AAe?$AAn?$AAt?$AAa@ 0000000140041500     config.obj
 0003:00003560       ??_C@_1EG@EHJFMBHJ@?$AAm?$AAa?$AAp?$AA?1?$AAs?$AAe?$AAt?$AA?5?$AAi?$AAt?$AAe?$AAr?$AAa?$AAt?$AAo?$AAr?$AA?5?$AAn?$AAo?$AAt?$AA?5?$AAi?$AAn?$AAc?$AAr?$AAe?$AAm?$AAe?$AAn?$AAt?$AAa?$AAb@ 0000000140041560     config.obj
 0003:000035c0       ??_C@_1BEI@CJLBPIHJ@?$AAs?$AAt?$AAd?$AA?3?$AA?3?$AA_?$AAT?$AAr?$AAe?$AAe?$AA_?$AAc?$AAo?$AAn?$AAs?$AAt?$AA_?$AAi?$AAt?$AAe?$AAr?$AAa?$AAt?$AAo?$AAr?$AA?$DM?$AAc?$AAl?$AAa?$AAs?$AAs?$AA?5@ 00000001400415c0     config.obj
 0003:00003750       ??_C@_1EK@BCPDGOMC@?$AA?$CC?$AAm?$AAa?$AAp?$AA?1?$AAs?$AAe?$AAt?$AA?5?$AAi?$AAt?$AAe?$AAr?$AAa?$AAt?$AAo?$AAr?$AA?5?$AAn?$AAo?$AAt?$AA?5?$AAi?$AAn?$AAc?$AAr?$AAe?$AAm?$AAe?$AAn?$AAt?$AAa@ 0000000140041750     config.obj
 0003:000037a8       ??_C@_0BE@JONHPENG@map?1set?$DMT?$DO?5too?5long?$AA@ 00000001400417a8     config.obj
 0003:000037c8       ??_7?$Container@VWidget@@@@6B@ 00000001400417c8     container.obj
 0003:00003808       ??_7?$Container@VGameObject@@@@6B@ 0000000140041808     container.obj
 0003:00004408       ??_SRenderWindow@sf@@6BWindow@1@@ 0000000140042408     engine.obj
 0003:00004430       ??_SRenderWindow@sf@@6BRenderTarget@1@@ 0000000140042430     engine.obj
 0003:00004450       ??_C@_05OGBJMEIE@Tanks?$AA@ 0000000140042450     engine.obj
 0003:00004458       ??_C@_0M@EGINLKPJ@objects?4txt?$AA@ 0000000140042458     engine.obj
 0003:00004470       ??_C@_1MO@HAJOKNPG@?$AAc?$AA?3?$AA?2?$AAp?$AAr?$AAo?$AAg?$AAr?$AAa?$AAm?$AA?5?$AAf?$AAi?$AAl?$AAe?$AAs?$AA?5?$AA?$CI?$AAx?$AA8?$AA6?$AA?$CJ?$AA?2?$AAm?$AAi?$AAc?$AAr?$AAo?$AAs?$AAo?$AAf?$AAt@ 0000000140042470     engine.obj
 0003:00004568       ??_C@_1DM@LHGCHCBA@?$AAv?$AAe?$AAc?$AAt?$AAo?$AAr?$AA?5?$AAs?$AAu?$AAb?$AAs?$AAc?$AAr?$AAi?$AAp?$AAt?$AA?5?$AAo?$AAu?$AAt?$AA?5?$AAo?$AAf?$AA?5?$AAr?$AAa?$AAn?$AAg?$AAe?$AA?$AA@ 0000000140042568     engine.obj
 0003:000045b0       ??_C@_1OC@CMNDILFB@?$AAs?$AAt?$AAd?$AA?3?$AA?3?$AAv?$AAe?$AAc?$AAt?$AAo?$AAr?$AA?$DM?$AAc?$AAl?$AAa?$AAs?$AAs?$AA?5?$AAC?$AAo?$AAn?$AAt?$AAa?$AAi?$AAn?$AAe?$AAr?$AA?$DM?$AAc?$AAl?$AAa?$AAs@ 00000001400425b0     engine.obj
 0003:000046c0       ??_C@_1EA@LEKOKFNB@?$AA?$CC?$AAv?$AAe?$AAc?$AAt?$AAo?$AAr?$AA?5?$AAs?$AAu?$AAb?$AAs?$AAc?$AAr?$AAi?$AAp?$AAt?$AA?5?$AAo?$AAu?$AAt?$AA?5?$AAo?$AAf?$AA?5?$AAr?$AAa?$AAn?$AAg?$AAe?$AA?$CC?$AA?$AA@ 00000001400426c0     engine.obj
 0003:00004710       ??_C@_1EK@PPDBPCAN@?$AAm?$AAa?$AAp?$AA?1?$AAs?$AAe?$AAt?$AA?5?$AAe?$AAr?$AAa?$AAs?$AAe?$AA?5?$AAi?$AAt?$AAe?$AAr?$AAa?$AAt?$AAo?$AAr?$AA?5?$AAo?$AAu?$AAt?$AAs?$AAi?$AAd?$AAe?$AA?5?$AAr@ 0000000140042710     engine.obj
 0003:00004770       ??_C@_1BKM@HLCHENFC@?$AAs?$AAt?$AAd?$AA?3?$AA?3?$AA_?$AAT?$AAr?$AAe?$AAe?$AA?$DM?$AAc?$AAl?$AAa?$AAs?$AAs?$AA?5?$AAs?$AAt?$AAd?$AA?3?$AA?3?$AA_?$AAT?$AAm?$AAa?$AAp?$AA_?$AAt?$AAr?$AAa?$AAi@ 0000000140042770     engine.obj
 0003:00004980       ??_C@_1EO@CEDAEPC@?$AA?$CC?$AAm?$AAa?$AAp?$AA?1?$AAs?$AAe?$AAt?$AA?5?$AAe?$AAr?$AAa?$AAs?$AAe?$AA?5?$AAi?$AAt?$AAe?$AAr?$AAa?$AAt?$AAo?$AAr?$AA?5?$AAo?$AAu?$AAt?$AAs?$AAi?$AAd?$AAe?$AA?5@ 0000000140042980     engine.obj
 0003:000049e0       ??_C@_1PO@NJEBKHHO@?$AAs?$AAt?$AAd?$AA?3?$AA?3?$AA_?$AAT?$AAr?$AAe?$AAe?$AA_?$AAv?$AAa?$AAl?$AA?$DM?$AAs?$AAt?$AAr?$AAu?$AAc?$AAt?$AA?5?$AAs?$AAt?$AAd?$AA?3?$AA?3?$AA_?$AAT?$AAr?$AAe?$AAe@ 00000001400429e0     engine.obj
 0003:00004b10       ??_C@_0BD@OLBABOEK@vector?$DMT?$DO?5too?5long?$AA@ 0000000140042b10     engine.obj
 0003:00004b28       __real@43c80000            0000000140042b28     engine.obj
 0003:00004b2c       __real@44480000            0000000140042b2c     engine.obj
 0003:00004d78       ??_7?$ContainerMoving@VWidget@@@@6B@ 0000000140042d78     container-moving.obj
 0003:00005140       ??_C@_0DP@KCEOKPLH@0123456789ABCDEFGHIJKLMNOPQRSTUV@ 0000000140043140     game-object.obj
 0003:00005198       ??_7GameObject@@6B@        0000000140043198     game-object.obj
 0003:000051d8       ??_C@_0CB@CMNCMBA@C?3?1C?$CL?$CL?1Tanks?1x64?1Debug?1image?4png@ 00000001400431d8     game-object.obj
 0003:00005200       ??_C@_0BE@HJKCDIFN@Error?5create?5Object?$AA@ 0000000140043200     game-object.obj
 0003:00005218       ??_C@_0N@HIPKJAJN@Invalid?5type?$AA@ 0000000140043218     game-object.obj
 0003:00005228       __real@00000000            0000000140043228     game-object.obj
 0003:0000522c       __real@3f800000            000000014004322c     game-object.obj
 0003:00005500       ??_7MenuWindow@@6B@        0000000140043500     menu-window.obj
 0003:00005538       ??_C@_1O@LLHHDKLO@?$AE?$BI?$AE3?$AE?$EA?$AE0?$AEB?$AEL?$AA?$AA@ 0000000140043538     menu-window.obj
 0003:00005548       ??_C@_1BC@ILIDCEOG@?$AE?5?$AE5?$AE4?$AE0?$AE?3?$AEB?$AE?$DO?$AE?$EA?$AA?$AA@ 0000000140043548     menu-window.obj
 0003:00005560       ??_C@_1M@MJOEHLIH@?$AE?$BC?$AEK?$AEE?$AE?$DO?$AE4?$AA?$AA@ 0000000140043560     menu-window.obj
 0003:00005644       __real@42200000            0000000140043644     menu-window.obj
 0003:00005648       __real@42700000            0000000140043648     menu-window.obj
 0003:0000564c       __real@42f00000            000000014004364c     menu-window.obj
 0003:00005943       ??_C@_00CNPNBAHC@?$AA@     0000000140043943     object.obj
 0003:00005950       ??_7Object@@6B@            0000000140043950     object.obj
 0003:00005978       __real@bf800000            0000000140043978     player.obj
 0003:000059b8       ??_7Tank@@6B@              00000001400439b8     tank.obj
 0003:00005a30       ??_7Wall@@6B@              0000000140043a30     wall.obj
 0003:00005aa8       ??_7WidgetGame@@6B@        0000000140043aa8     widget-game.obj
 0003:00005bc0       ??_7Widget@@6B@            0000000140043bc0     widget.obj
 0003:00005c00       ??_7WidgetTemplates@@6B@   0000000140043c00     widget-templates.obj
 0003:00005c40       ??_7?$Window@VWidget@@@@6B@ 0000000140043c40     window.obj
 0003:00005cb0       ??_7WindowGame@@6B@        0000000140043cb0     window-game.obj
 0003:00005ce4       __real@42c80000            0000000140043ce4     window-game.obj
 0003:00005ce8       __real@43480000            0000000140043ce8     window-game.obj
 0003:00005d28       ??_7WindowEditor@@6B@      0000000140043d28     window-editor.obj
 0003:00005d68       ??_7type_info@@6B@         0000000140043d68     MSVCRTD:std_type_info_static.obj
 0003:00005e60       ??_C@_0NN@NGPKDKPD@The?5value?5of?5ESP?5was?5not?5properl@ 0000000140043e60     MSVCRTD:_error_.obj
 0003:00005f70       ??_C@_0BBN@GPMLNJCF@A?5cast?5to?5a?5smaller?5data?5type?5ha@ 0000000140043f70     MSVCRTD:_error_.obj
 0003:000060c8       ??_C@_0BN@FFOINMNJ@Stack?5memory?5was?5corrupted?6?$AN?$AA@ 00000001400440c8     MSVCRTD:_error_.obj
 0003:000060f0       ??_C@_0DG@HKJMLLLP@A?5local?5variable?5was?5used?5before@ 00000001400440f0     MSVCRTD:_error_.obj
 0003:00006130       ??_C@_0CM@NGINOKPC@Stack?5memory?5around?5_alloca?5was?5@ 0000000140044130     MSVCRTD:_error_.obj
 0003:00006168       ??_C@_0BO@GNIAFIKK@Unknown?5Runtime?5Check?5Error?6?$AN?$AA@ 0000000140044168     MSVCRTD:_error_.obj
 0003:00006190       ??_C@_1GM@OLMCBDMB@?$AAR?$AAu?$AAn?$AAt?$AAi?$AAm?$AAe?$AA?5?$AAC?$AAh?$AAe?$AAc?$AAk?$AA?5?$AAE?$AAr?$AAr?$AAo?$AAr?$AA?4?$AA?6?$AA?$AN?$AA?5?$AAU?$AAn?$AAa?$AAb?$AAl?$AAe?$AA?5?$AAt?$AAo@ 0000000140044190     MSVCRTD:_error_.obj
 0003:00006220       ??_C@_1EA@NFKNIFJP@?$AAR?$AAu?$AAn?$AA?9?$AAT?$AAi?$AAm?$AAe?$AA?5?$AAC?$AAh?$AAe?$AAc?$AAk?$AA?5?$AAF?$AAa?$AAi?$AAl?$AAu?$AAr?$AAe?$AA?5?$AA?$CD?$AA?$CF?$AAd?$AA?5?$AA?9?$AA?5?$AA?$CF?$AAs?$AA?$AA@ 0000000140044220     MSVCRTD:_error_.obj
 0003:00006270       ??_C@_0BB@PFFGGCJP@Unknown?5Filename?$AA@ 0000000140044270     MSVCRTD:_error_.obj
 0003:00006288       ??_C@_0BE@GNBOBNCK@Unknown?5Module?5Name?$AA@ 0000000140044288     MSVCRTD:_error_.obj
 0003:000062a0       ??_C@_0CA@IODNCDPG@Run?9Time?5Check?5Failure?5?$CD?$CFd?5?9?5?$CFs?$AA@ 00000001400442a0     MSVCRTD:_error_.obj
 0003:000062c8       ??_C@_0CG@IAFNJNEE@Stack?5corrupted?5near?5unknown?5var@ 00000001400442c8     MSVCRTD:_error_.obj
 0003:000062f8       ??_C@_05MKKEDADM@?$CF?42X?5?$AA@ 00000001400442f8     MSVCRTD:_error_.obj
 0003:00006300       ??_C@_0EJ@LJKNEOLN@Stack?5area?5around?5_alloca?5memory@ 0000000140044300     MSVCRTD:_error_.obj
 0003:00006358       ??_C@_01EEMJAFIK@?6?$AA@   0000000140044358     MSVCRTD:_error_.obj
 0003:0000635c       ??_C@_02LLMPMKNF@?$DO?5?$AA@ 000000014004435c     MSVCRTD:_error_.obj
 0003:00006360       ??_C@_08OMAHNMHJ@?6Data?3?5?$DM?$AA@ 0000000140044360     MSVCRTD:_error_.obj
 0003:00006370       ??_C@_0CK@DKGBICFE@?6Allocation?5number?5within?5this?5f@ 0000000140044370     MSVCRTD:_error_.obj
 0003:000063a8       ??_C@_07DFDJCKFN@?6Size?3?5?$AA@ 00000001400443a8     MSVCRTD:_error_.obj
 0003:000063b8       ??_C@_0N@MHFFIMFG@?6Address?3?50x?$AA@ 00000001400443b8     MSVCRTD:_error_.obj
 0003:000063d0       ??_C@_0EI@CLEPFNGI@Stack?5area?5around?5_alloca?5memory@ 00000001400443d0     MSVCRTD:_error_.obj
 0003:00006428       ??_C@_0BK@ODNDAGKB@?$CFs?$CFs?$CFp?$CFs?$CFzd?$CFs?$CFd?$CFs?$CFs?$CFs?$CFs?$CFs?$AA@ 0000000140044428     MSVCRTD:_error_.obj
 0003:00006448       ??_C@_0DE@OHJBPMBP@A?5variable?5is?5being?5used?5without@ 0000000140044448     MSVCRTD:_error_.obj
 0003:00006490       ??_7exception@std@@6B@     0000000140044490     MSVCRTD:throw_bad_alloc.obj
 0003:000064a8       ??_C@_0BC@EOODALEL@Unknown?5exception?$AA@ 00000001400444a8     MSVCRTD:throw_bad_alloc.obj
 0003:000064c8       ??_7bad_alloc@std@@6B@     00000001400444c8     MSVCRTD:throw_bad_alloc.obj
 0003:000064e0       ??_C@_0P@GHFPNOJB@bad?5allocation?$AA@ 00000001400444e0     MSVCRTD:throw_bad_alloc.obj
 0003:00006500       ??_7bad_array_new_length@std@@6B@ 0000000140044500     MSVCRTD:throw_bad_alloc.obj
 0003:00006518       ??_C@_0BF@KINCDENJ@bad?5array?5new?5length?$AA@ 0000000140044518     MSVCRTD:throw_bad_alloc.obj
 0003:00006568       ??_C@_0BJ@HEGAHDFO@Stack?5pointer?5corruption?$AA@ 0000000140044568     MSVCRTD:_userapi_.obj
 0003:00006588       ??_C@_0CK@FEGOIOPB@Cast?5to?5smaller?5type?5causing?5los@ 0000000140044588     MSVCRTD:_userapi_.obj
 0003:000065c0       ??_C@_0BI@CIGMDCBH@Stack?5memory?5corruption?$AA@ 00000001400445c0     MSVCRTD:_userapi_.obj
 0003:000065e0       ??_C@_0CK@CNLNOEPB@Local?5variable?5used?5before?5initi@ 00000001400445e0     MSVCRTD:_userapi_.obj
 0003:00006618       ??_C@_0BP@OGBCLIBO@Stack?5around?5_alloca?5corrupted?$AA@ 0000000140044618     MSVCRTD:_userapi_.obj
 0003:000066c0       ??_C@_1EI@MLPKHBGE@?$AAa?$AAp?$AAi?$AA?9?$AAm?$AAs?$AA?9?$AAw?$AAi?$AAn?$AA?9?$AAc?$AAo?$AAr?$AAe?$AA?9?$AAr?$AAe?$AAg?$AAi?$AAs?$AAt?$AAr?$AAy?$AA?9?$AAl?$AA1?$AA?9?$AA1?$AA?9?$AA0?$AA?4@ 00000001400446c0     MSVCRTD:_pdblkup_.obj
 0003:00006718       ??_C@_1BK@JHLNAEJL@?$AAa?$AAd?$AAv?$AAa?$AAp?$AAi?$AA3?$AA2?$AA?4?$AAd?$AAl?$AAl?$AA?$AA@ 0000000140044718     MSVCRTD:_pdblkup_.obj
 0003:00006738       ??_C@_0O@COHOBMLB@RegOpenKeyExW?$AA@ 0000000140044738     MSVCRTD:_pdblkup_.obj
 0003:00006748       ??_C@_0BB@GLNAEDBD@RegQueryValueExW?$AA@ 0000000140044748     MSVCRTD:_pdblkup_.obj
 0003:00006760       ??_C@_0M@HLOHPNFA@RegCloseKey?$AA@ 0000000140044760     MSVCRTD:_pdblkup_.obj
 0003:00006770       ??_C@_1HE@EBEAGLFB@?$AAS?$AAO?$AAF?$AAT?$AAW?$AAA?$AAR?$AAE?$AA?2?$AAW?$AAo?$AAw?$AA6?$AA4?$AA3?$AA2?$AAN?$AAo?$AAd?$AAe?$AA?2?$AAM?$AAi?$AAc?$AAr?$AAo?$AAs?$AAo?$AAf?$AAt?$AA?2?$AAV@ 0000000140044770     MSVCRTD:_pdblkup_.obj
 0003:00006800       ??_C@_1BG@EABPBLLF@?$AAP?$AAr?$AAo?$AAd?$AAu?$AAc?$AAt?$AAD?$AAi?$AAr?$AA?$AA@ 0000000140044800     MSVCRTD:_pdblkup_.obj
 0003:00006848       ??_C@_1BC@JINFINNJ@?$AAM?$AAS?$AAP?$AAD?$AAB?$AA1?$AA4?$AA0?$AA?$AA@ 0000000140044848     MSVCRTD:_pdblkup_.obj
 0003:00006860       ??_C@_0BB@KCIACLNC@PDBOpenValidate5?$AA@ 0000000140044860     MSVCRTD:_pdblkup_.obj
 0003:000068c0       _load_config_used          00000001400448c0     MSVCRTD:loadcfg.obj
 0003:00006c38       ??_R4Button@@6B@           0000000140044c38     button.obj
 0003:00006c68       ??_R3Button@@8             0000000140044c68     button.obj
 0003:00006c80       ??_R2Button@@8             0000000140044c80     button.obj
 0003:00006ca8       ??_R1A@?0A@EA@Button@@8    0000000140044ca8     button.obj
 0003:00006cd8       ??_R1A@?0A@EA@Widget@@8    0000000140044cd8     button.obj
 0003:00006d08       ??_R3Widget@@8             0000000140044d08     button.obj
 0003:00006d20       ??_R2Widget@@8             0000000140044d20     button.obj
 0003:00006d38       ??_R1A@?0A@EA@Object@@8    0000000140044d38     button.obj
 0003:00006d68       ??_R3Object@@8             0000000140044d68     button.obj
 0003:00006d80       ??_R2Object@@8             0000000140044d80     button.obj
 0003:00006d90       ??_R4?$Container@VWidget@@@@6B@ 0000000140044d90     container.obj
 0003:00006dc0       ??_R3?$Container@VWidget@@@@8 0000000140044dc0     container.obj
 0003:00006dd8       ??_R2?$Container@VWidget@@@@8 0000000140044dd8     container.obj
 0003:00006e00       ??_R1A@?0A@EA@?$Container@VWidget@@@@8 0000000140044e00     container.obj
 0003:00006e30       ??_R4?$Container@VGameObject@@@@6B@ 0000000140044e30     container.obj
 0003:00006e60       ??_R3?$Container@VGameObject@@@@8 0000000140044e60     container.obj
 0003:00006e78       ??_R2?$Container@VGameObject@@@@8 0000000140044e78     container.obj
 0003:00006ea0       ??_R1A@?0A@EA@?$Container@VGameObject@@@@8 0000000140044ea0     container.obj
 0003:00006ed0       ??_R4RenderWindow@sf@@6BWindow@1@@ 0000000140044ed0     engine.obj
 0003:00006f00       ??_R3RenderWindow@sf@@8    0000000140044f00     engine.obj
 0003:00006f18       ??_R2RenderWindow@sf@@8    0000000140044f18     engine.obj
 0003:00006f58       ??_R1A@?0A@EA@RenderWindow@sf@@8 0000000140044f58     engine.obj
 0003:00006f88       ??_R1A@?0A@EA@Window@sf@@8 0000000140044f88     engine.obj
 0003:00006fb8       ??_R3Window@sf@@8          0000000140044fb8     engine.obj
 0003:00006fd0       ??_R2Window@sf@@8          0000000140044fd0     engine.obj
 0003:00006ff8       ??_R17?0A@EN@GlResource@sf@@8 0000000140044ff8     engine.obj
 0003:00007028       ??_R3GlResource@sf@@8      0000000140045028     engine.obj
 0003:00007040       ??_R2GlResource@sf@@8      0000000140045040     engine.obj
 0003:00007050       ??_R1A@?0A@EA@GlResource@sf@@8 0000000140045050     engine.obj
 0003:00007080       ??_R18?0A@EN@NonCopyable@sf@@8 0000000140045080     engine.obj
 0003:000070b0       ??_R3NonCopyable@sf@@8     00000001400450b0     engine.obj
 0003:000070c8       ??_R2NonCopyable@sf@@8     00000001400450c8     engine.obj
 0003:000070d8       ??_R1A@?0A@EA@NonCopyable@sf@@8 00000001400450d8     engine.obj
 0003:00007108       ??_R18?0A@EP@NonCopyable@sf@@8 0000000140045108     engine.obj
 0003:00007138       ??_R1DI@?0A@EA@RenderTarget@sf@@8 0000000140045138     engine.obj
 0003:00007168       ??_R3RenderTarget@sf@@8    0000000140045168     engine.obj
 0003:00007180       ??_R2RenderTarget@sf@@8    0000000140045180     engine.obj
 0003:00007198       ??_R1A@?0A@EA@RenderTarget@sf@@8 0000000140045198     engine.obj
 0003:000071c8       ??_R17?0A@EN@NonCopyable@sf@@8 00000001400451c8     engine.obj
 0003:000071f8       ??_R1EA@?0A@EP@NonCopyable@sf@@8 00000001400451f8     engine.obj
 0003:00007228       ??_R4RenderWindow@sf@@6BRenderTarget@1@@ 0000000140045228     engine.obj
 0003:00007258       ??_R4?$ContainerMoving@VWidget@@@@6B@ 0000000140045258     container-moving.obj
 0003:00007288       ??_R3?$ContainerMoving@VWidget@@@@8 0000000140045288     container-moving.obj
 0003:000072a0       ??_R2?$ContainerMoving@VWidget@@@@8 00000001400452a0     container-moving.obj
 0003:000072d0       ??_R1A@?0A@EA@?$ContainerMoving@VWidget@@@@8 00000001400452d0     container-moving.obj
 0003:00007300       ??_R4GameObject@@6B@       0000000140045300     game-object.obj
 0003:00007330       ??_R3GameObject@@8         0000000140045330     game-object.obj
 0003:00007348       ??_R2GameObject@@8         0000000140045348     game-object.obj
 0003:00007360       ??_R1A@?0A@EA@GameObject@@8 0000000140045360     game-object.obj
 0003:00007390       ??_R3?$_Func_base@XPEAVButton@@@std@@8 0000000140045390     menu-window.obj
 0003:000073a8       ??_R2?$_Func_base@XPEAVButton@@@std@@8 00000001400453a8     menu-window.obj
 0003:000073b8       ??_R1A@?0A@EA@?$_Func_base@XPEAVButton@@@std@@8 00000001400453b8     menu-window.obj
 0003:000073e8       ??_R4MenuWindow@@6B@       00000001400453e8     menu-window.obj
 0003:00007418       ??_R3MenuWindow@@8         0000000140045418     menu-window.obj
 0003:00007430       ??_R2MenuWindow@@8         0000000140045430     menu-window.obj
 0003:00007468       ??_R1A@?0A@EA@MenuWindow@@8 0000000140045468     menu-window.obj
 0003:00007498       ??_R1A@?0A@EA@?$Window@VWidget@@@@8 0000000140045498     menu-window.obj
 0003:000074c8       ??_R3?$Window@VWidget@@@@8 00000001400454c8     menu-window.obj
 0003:000074e0       ??_R2?$Window@VWidget@@@@8 00000001400454e0     menu-window.obj
 0003:000076c0       ??_R4Object@@6B@           00000001400456c0     object.obj
 0003:000076f0       ??_R4Tank@@6B@             00000001400456f0     tank.obj
 0003:00007720       ??_R3Tank@@8               0000000140045720     tank.obj
 0003:00007738       ??_R2Tank@@8               0000000140045738     tank.obj
 0003:00007760       ??_R1A@?0A@EA@Tank@@8      0000000140045760     tank.obj
 0003:00007790       ??_R4Wall@@6B@             0000000140045790     wall.obj
 0003:000077c0       ??_R3Wall@@8               00000001400457c0     wall.obj
 0003:000077d8       ??_R2Wall@@8               00000001400457d8     wall.obj
 0003:00007800       ??_R1A@?0A@EA@Wall@@8      0000000140045800     wall.obj
 0003:00007830       ??_R4WidgetGame@@6B@       0000000140045830     widget-game.obj
 0003:00007860       ??_R3WidgetGame@@8         0000000140045860     widget-game.obj
 0003:00007878       ??_R2WidgetGame@@8         0000000140045878     widget-game.obj
 0003:000078a8       ??_R1A@?0A@EA@WidgetGame@@8 00000001400458a8     widget-game.obj
 0003:000078d8       ??_R4Widget@@6B@           00000001400458d8     widget.obj
 0003:00007908       ??_R4WidgetTemplates@@6B@  0000000140045908     widget-templates.obj
 0003:00007938       ??_R3WidgetTemplates@@8    0000000140045938     widget-templates.obj
 0003:00007950       ??_R2WidgetTemplates@@8    0000000140045950     widget-templates.obj
 0003:00007978       ??_R1A@?0A@EA@WidgetTemplates@@8 0000000140045978     widget-templates.obj
 0003:000079a8       ??_R4?$Window@VWidget@@@@6B@ 00000001400459a8     window.obj
 0003:000079d8       ??_R4WindowGame@@6B@       00000001400459d8     window-game.obj
 0003:00007a08       ??_R3WindowGame@@8         0000000140045a08     window-game.obj
 0003:00007a20       ??_R2WindowGame@@8         0000000140045a20     window-game.obj
 0003:00007a58       ??_R1A@?0A@EA@WindowGame@@8 0000000140045a58     window-game.obj
 0003:00007a88       ??_R4WindowEditor@@6B@     0000000140045a88     window-editor.obj
 0003:00007ab8       ??_R3WindowEditor@@8       0000000140045ab8     window-editor.obj
 0003:00007ad0       ??_R2WindowEditor@@8       0000000140045ad0     window-editor.obj
 0003:00007b08       ??_R1A@?0A@EA@WindowEditor@@8 0000000140045b08     window-editor.obj
 0003:00007b38       ??_R4type_info@@6B@        0000000140045b38     MSVCRTD:std_type_info_static.obj
 0003:00007b68       ??_R3type_info@@8          0000000140045b68     MSVCRTD:std_type_info_static.obj
 0003:00007b80       ??_R2type_info@@8          0000000140045b80     MSVCRTD:std_type_info_static.obj
 0003:00007b90       ??_R1A@?0A@EA@type_info@@8 0000000140045b90     MSVCRTD:std_type_info_static.obj
 0003:00007bc0       ??_R4exception@std@@6B@    0000000140045bc0     MSVCRTD:throw_bad_alloc.obj
 0003:00007bf0       ??_R3exception@std@@8      0000000140045bf0     MSVCRTD:throw_bad_alloc.obj
 0003:00007c08       ??_R2exception@std@@8      0000000140045c08     MSVCRTD:throw_bad_alloc.obj
 0003:00007c18       ??_R1A@?0A@EA@exception@std@@8 0000000140045c18     MSVCRTD:throw_bad_alloc.obj
 0003:00007c48       ??_R4bad_alloc@std@@6B@    0000000140045c48     MSVCRTD:throw_bad_alloc.obj
 0003:00007c78       ??_R3bad_alloc@std@@8      0000000140045c78     MSVCRTD:throw_bad_alloc.obj
 0003:00007c90       ??_R2bad_alloc@std@@8      0000000140045c90     MSVCRTD:throw_bad_alloc.obj
 0003:00007ca8       ??_R1A@?0A@EA@bad_alloc@std@@8 0000000140045ca8     MSVCRTD:throw_bad_alloc.obj
 0003:00007cd8       ??_R4bad_array_new_length@std@@6B@ 0000000140045cd8     MSVCRTD:throw_bad_alloc.obj
 0003:00007d08       ??_R3bad_array_new_length@std@@8 0000000140045d08     MSVCRTD:throw_bad_alloc.obj
 0003:00007d20       ??_R2bad_array_new_length@std@@8 0000000140045d20     MSVCRTD:throw_bad_alloc.obj
 0003:00007d48       ??_R1A@?0A@EA@bad_array_new_length@std@@8 0000000140045d48     MSVCRTD:throw_bad_alloc.obj
 0003:00008038       __rtc_iaa                  0000000140046038     MSVCRTD:_initsect_.obj
 0003:00008398       __rtc_izz                  0000000140046398     MSVCRTD:_initsect_.obj
 0003:000084a8       __rtc_taa                  00000001400464a8     MSVCRTD:_initsect_.obj
 0003:00008808       __rtc_tzz                  0000000140046808     MSVCRTD:_initsect_.obj
 0003:0000def0       _TI2PEAD                   000000014004bef0     config.obj
 0003:0000df10       _CTA2PEAD                  000000014004bf10     config.obj
 0003:0000df28       _CT??_R0PEAD@88            000000014004bf28     config.obj
 0003:0000df50       _CT??_R0PEAX@88            000000014004bf50     config.obj
 0003:0000df78       _TI2?AVbad_alloc@std@@     000000014004bf78     MSVCRTD:throw_bad_alloc.obj
 0003:0000df98       _CTA2?AVbad_alloc@std@@    000000014004bf98     MSVCRTD:throw_bad_alloc.obj
 0003:0000dfb0       _CT??_R0?AVbad_alloc@std@@@8??0bad_alloc@std@@QEAA@AEBV01@@Z24 000000014004bfb0     MSVCRTD:throw_bad_alloc.obj
 0003:0000dfd8       _CT??_R0?AVexception@std@@@8??0exception@std@@QEAA@AEBV01@@Z24 000000014004bfd8     MSVCRTD:throw_bad_alloc.obj
 0003:0000e000       _TI3?AVbad_array_new_length@std@@ 000000014004c000     MSVCRTD:throw_bad_alloc.obj
 0003:0000e020       _CTA3?AVbad_array_new_length@std@@ 000000014004c020     MSVCRTD:throw_bad_alloc.obj
 0003:0000e040       _CT??_R0?AVbad_array_new_length@std@@@8??0bad_array_new_length@std@@QEAA@AEBV01@@Z24 000000014004c040     MSVCRTD:throw_bad_alloc.obj
 0004:00000000       ?__LINE__Var@?0??_Adjust_manually_vector_aligned@std@@YAXAEAPEAXAEA_K@Z@4JA 000000014004d000     button.obj
 0004:00000004       ?__LINE__Var@?0??_Maklocwcs@std@@YAPEA_WPEB_W@Z@4JA 000000014004d004     button.obj
 0004:00000008       __scrt_native_dllmain_reason 000000014004d008     MSVCRTD:utility.obj
 0004:00000010       __security_cookie          000000014004d010     MSVCRTD:gs_cookie.obj
 0004:00000018       __security_cookie_complement 000000014004d018     MSVCRTD:gs_cookie.obj
 0004:00000024       _fltused                   000000014004d024     MSVCRTD:fltused.obj
 0004:00000028       ?_RTC_ErrorLevels@@3PAHA   000000014004d028     MSVCRTD:_error_.obj
 0004:00000040       __isa_available            000000014004d040     MSVCRTD:_cpu_disp_.obj
 0004:00000044       __isa_enabled              000000014004d044     MSVCRTD:_cpu_disp_.obj
 0004:00000048       __memcpy_nt_iters          000000014004d048     MSVCRTD:_cpu_disp_.obj
 0004:00000054       __scrt_default_matherr     000000014004d054     MSVCRTD:matherr.obj
 0004:00000060       __scrt_ucrt_dll_is_in_use  000000014004d060     MSVCRTD:ucrt_stubs.obj
 0004:00000170       ??_R0?AVButton@@@8         000000014004d170     button.obj
 0004:00000198       ??_R0?AVWidget@@@8         000000014004d198     button.obj
 0004:000001c0       ??_R0?AVObject@@@8         000000014004d1c0     button.obj
 0004:000001e8       ??_R0PEAD@8                000000014004d1e8     config.obj
 0004:00000208       ??_R0PEAX@8                000000014004d208     config.obj
 0004:00000228       ??_R0?AV?$Container@VWidget@@@@@8 000000014004d228     container.obj
 0004:00000260       ??_R0?AV?$Container@VGameObject@@@@@8 000000014004d260     container.obj
 0004:000002a0       ??_R0?AVRenderWindow@sf@@@8 000000014004d2a0     engine.obj
 0004:000002d0       ??_R0?AVWindow@sf@@@8      000000014004d2d0     engine.obj
 0004:000002f8       ??_R0?AVGlResource@sf@@@8  000000014004d2f8     engine.obj
 0004:00000328       ??_R0?AVNonCopyable@sf@@@8 000000014004d328     engine.obj
 0004:00000358       ??_R0?AVRenderTarget@sf@@@8 000000014004d358     engine.obj
 0004:00000388       ??_R0?AV?$ContainerMoving@VWidget@@@@@8 000000014004d388     container-moving.obj
 0004:000003c8       ??_R0?AVGameObject@@@8     000000014004d3c8     game-object.obj
 0004:000004e0       ??_R0?AV?$_Func_base@XPEAVButton@@@std@@@8 000000014004d4e0     menu-window.obj
 0004:00000520       ??_R0?AVMenuWindow@@@8     000000014004d520     menu-window.obj
 0004:00000548       ??_R0?AV?$Window@VWidget@@@@@8 000000014004d548     menu-window.obj
 0004:00000700       ??_R0?AVTank@@@8           000000014004d700     tank.obj
 0004:00000720       ??_R0?AVWall@@@8           000000014004d720     wall.obj
 0004:00000740       ??_R0?AVWidgetGame@@@8     000000014004d740     widget-game.obj
 0004:00000768       ??_R0?AVWidgetTemplates@@@8 000000014004d768     widget-templates.obj
 0004:00000798       ??_R0?AVWindowGame@@@8     000000014004d798     window-game.obj
 0004:000007c0       ??_R0?AVWindowEditor@@@8   000000014004d7c0     window-editor.obj
 0004:000007f0       ??_R0?AVtype_info@@@8      000000014004d7f0     MSVCRTD:std_type_info_static.obj
 0004:00000818       ??_R0?AVbad_alloc@std@@@8  000000014004d818     MSVCRTD:throw_bad_alloc.obj
 0004:00000848       ??_R0?AVexception@std@@@8  000000014004d848     MSVCRTD:throw_bad_alloc.obj
 0004:00000878       ??_R0?AVbad_array_new_length@std@@@8 000000014004d878     MSVCRTD:throw_bad_alloc.obj
 0004:000009e0       ?font@@3VFont@sf@@A        000000014004d9e0     button.obj
 0004:00000a88       ?_OptionsStorage@?1??__local_stdio_printf_options@@9@4_KA 000000014004da88     config.obj
 0004:00000a98       __scrt_current_native_startup_state 000000014004da98     MSVCRTD:utility.obj
 0004:00000aa0       __scrt_native_startup_lock 000000014004daa0     MSVCRTD:utility.obj
 0004:00000ae8       __favor                    000000014004dae8     MSVCRTD:_cpu_disp_.obj
 0004:00000aec       __scrt_debugger_hook_flag  000000014004daec     MSVCRTD:utility_desktop.obj
 0004:000011b0       ?__type_info_root_node@@3U__type_info_node@@A 000000014004e1b0     MSVCRTD:tncleanup.obj
 0004:000011c8       ?_OptionsStorage@?1??__local_stdio_scanf_options@@9@4_KA 000000014004e1c8     MSVCRTD:default_local_stdio_options.obj
 0004:000011d8       __dyn_tls_dtor_callback    000000014004e1d8     <common>
 0004:000011f0       __dyn_tls_init_callback    000000014004e1f0     <common>
 0006:00000000       __imp_TerminateProcess     0000000140054000     kernel32:KERNEL32.dll
 0006:00000008       __imp_InitializeSListHead  0000000140054008     kernel32:KERNEL32.dll
 0006:00000010       __imp_GetSystemTimeAsFileTime 0000000140054010     kernel32:KERNEL32.dll
 0006:00000018       __imp_GetCurrentThreadId   0000000140054018     kernel32:KERNEL32.dll
 0006:00000020       __imp_GetCurrentProcessId  0000000140054020     kernel32:KERNEL32.dll
 0006:00000028       __imp_QueryPerformanceCounter 0000000140054028     kernel32:KERNEL32.dll
 0006:00000030       __imp_GetProcAddress       0000000140054030     kernel32:KERNEL32.dll
 0006:00000038       __imp_FreeLibrary          0000000140054038     kernel32:KERNEL32.dll
 0006:00000040       __imp_VirtualQuery         0000000140054040     kernel32:KERNEL32.dll
 0006:00000048       __imp_GetProcessHeap       0000000140054048     kernel32:KERNEL32.dll
 0006:00000050       __imp_HeapFree             0000000140054050     kernel32:KERNEL32.dll
 0006:00000058       __imp_HeapAlloc            0000000140054058     kernel32:KERNEL32.dll
 0006:00000060       __imp_GetLastError         0000000140054060     kernel32:KERNEL32.dll
 0006:00000068       __imp_IsDebuggerPresent    0000000140054068     kernel32:KERNEL32.dll
 0006:00000070       __imp_GetCurrentProcess    0000000140054070     kernel32:KERNEL32.dll
 0006:00000078       __imp_GetModuleHandleW     0000000140054078     kernel32:KERNEL32.dll
 0006:00000080       __imp_IsProcessorFeaturePresent 0000000140054080     kernel32:KERNEL32.dll
 0006:00000088       __imp_GetStartupInfoW      0000000140054088     kernel32:KERNEL32.dll
 0006:00000090       __imp_SetUnhandledExceptionFilter 0000000140054090     kernel32:KERNEL32.dll
 0006:00000098       __imp_UnhandledExceptionFilter 0000000140054098     kernel32:KERNEL32.dll
 0006:000000a0       __imp_RtlVirtualUnwind     00000001400540a0     kernel32:KERNEL32.dll
 0006:000000a8       __imp_RtlLookupFunctionEntry 00000001400540a8     kernel32:KERNEL32.dll
 0006:000000b0       __imp_RtlCaptureContext    00000001400540b0     kernel32:KERNEL32.dll
 0006:000000b8       __imp_WideCharToMultiByte  00000001400540b8     kernel32:KERNEL32.dll
 0006:000000c0       __imp_MultiByteToWideChar  00000001400540c0     kernel32:KERNEL32.dll
 0006:000000c8       __imp_RaiseException       00000001400540c8     kernel32:KERNEL32.dll
 0006:000000d0       \177KERNEL32_NULL_THUNK_DATA 00000001400540d0     kernel32:KERNEL32.dll
 0006:00000150       __imp_??1_Lockit@std@@QEAA@XZ 0000000140054150     msvcprtd:MSVCP140D.dll
 0006:00000158       __imp_??0_Lockit@std@@QEAA@H@Z 0000000140054158     msvcprtd:MSVCP140D.dll
 0006:00000160       __imp_?_Xbad_alloc@std@@YAXXZ 0000000140054160     msvcprtd:MSVCP140D.dll
 0006:00000168       __imp_?_Xlength_error@std@@YAXPEBD@Z 0000000140054168     msvcprtd:MSVCP140D.dll
 0006:00000170       __imp__Mbrtowc             0000000140054170     msvcprtd:MSVCP140D.dll
 0006:00000178       __imp_?_Getcvt@_Locinfo@std@@QEBA?AU_Cvtvec@@XZ 0000000140054178     msvcprtd:MSVCP140D.dll
 0006:00000180       __imp_?_Getdays@_Locinfo@std@@QEBAPEBDXZ 0000000140054180     msvcprtd:MSVCP140D.dll
 0006:00000188       __imp_?_Getmonths@_Locinfo@std@@QEBAPEBDXZ 0000000140054188     msvcprtd:MSVCP140D.dll
 0006:00000190       __imp_?_W_Getdays@_Locinfo@std@@QEBAPEBGXZ 0000000140054190     msvcprtd:MSVCP140D.dll
 0006:00000198       __imp_?_W_Getmonths@_Locinfo@std@@QEBAPEBGXZ 0000000140054198     msvcprtd:MSVCP140D.dll
 0006:000001a0       __imp_?_Xbad_function_call@std@@YAXXZ 00000001400541a0     msvcprtd:MSVCP140D.dll
 0006:000001a8       __imp_?_Debug_message@std@@YAXPEB_W0I@Z 00000001400541a8     msvcprtd:MSVCP140D.dll
 0006:000001b0       __imp_?_Xinvalid_argument@std@@YAXPEBD@Z 00000001400541b0     msvcprtd:MSVCP140D.dll
 0006:000001b8       __imp_?_Xout_of_range@std@@YAXPEBD@Z 00000001400541b8     msvcprtd:MSVCP140D.dll
 0006:000001c0       __imp_?_Init@locale@std@@CAPEAV_Locimp@12@_N@Z 00000001400541c0     msvcprtd:MSVCP140D.dll
 0006:000001c8       \177MSVCP140D_NULL_THUNK_DATA 00000001400541c8     msvcprtd:MSVCP140D.dll
 0006:00000238       __imp_memcpy               0000000140054238     vcruntimed:VCRUNTIME140D.dll
 0006:00000240       __imp_memmove              0000000140054240     vcruntimed:VCRUNTIME140D.dll
 0006:00000248       __imp___CxxFrameHandler3   0000000140054248     vcruntimed:VCRUNTIME140D.dll
 0006:00000250       __imp__CxxThrowException   0000000140054250     vcruntimed:VCRUNTIME140D.dll
 0006:00000258       __imp__purecall            0000000140054258     vcruntimed:VCRUNTIME140D.dll
 0006:00000260       __imp___C_specific_handler 0000000140054260     vcruntimed:VCRUNTIME140D.dll
 0006:00000268       __imp___C_specific_handler_noexcept 0000000140054268     vcruntimed:VCRUNTIME140D.dll
 0006:00000270       __imp___std_exception_copy 0000000140054270     vcruntimed:VCRUNTIME140D.dll
 0006:00000278       __imp___std_exception_destroy 0000000140054278     vcruntimed:VCRUNTIME140D.dll
 0006:00000280       __imp___vcrt_GetModuleFileNameW 0000000140054280     vcruntimed:VCRUNTIME140D.dll
 0006:00000288       __imp___vcrt_GetModuleHandleW 0000000140054288     vcruntimed:VCRUNTIME140D.dll
 0006:00000290       __imp___std_type_info_destroy_list 0000000140054290     vcruntimed:VCRUNTIME140D.dll
 0006:00000298       __imp___vcrt_LoadLibraryExW 0000000140054298     vcruntimed:VCRUNTIME140D.dll
 0006:000002a0       \177VCRUNTIME140D_NULL_THUNK_DATA 00000001400542a0     vcruntimed:VCRUNTIME140D.dll
 0006:00000308       __imp_?setPosition@Transformable@sf@@QEAAXAEBV?$Vector2@M@2@@Z 0000000140054308     sfml-graphics-d:sfml-graphics-d-2.dll
 0006:00000310       __imp_?setActive@RenderWindow@sf@@UEAA_N_N@Z 0000000140054310     sfml-graphics-d:sfml-graphics-d-2.dll
 0006:00000318       __imp_?onResize@RenderWindow@sf@@MEAAXXZ 0000000140054318     sfml-graphics-d:sfml-graphics-d-2.dll
 0006:00000320       __imp_?onCreate@RenderWindow@sf@@MEAAXXZ 0000000140054320     sfml-graphics-d:sfml-graphics-d-2.dll
 0006:00000328       __imp_?getSize@RenderWindow@sf@@UEBA?AV?$Vector2@I@2@XZ 0000000140054328     sfml-graphics-d:sfml-graphics-d-2.dll
 0006:00000330       __imp_??1RenderWindow@sf@@UEAA@XZ 0000000140054330     sfml-graphics-d:sfml-graphics-d-2.dll
 0006:00000338       __imp_??0RenderWindow@sf@@QEAA@VVideoMode@1@AEBVString@1@IAEBUContextSettings@1@@Z 0000000140054338     sfml-graphics-d:sfml-graphics-d-2.dll
 0006:00000340       __imp_?getDefaultView@RenderTarget@sf@@QEBAAEBVView@2@XZ 0000000140054340     sfml-graphics-d:sfml-graphics-d-2.dll
 0006:00000348       __imp_?setOrigin@Transformable@sf@@QEAAXAEBV?$Vector2@M@2@@Z 0000000140054348     sfml-graphics-d:sfml-graphics-d-2.dll
 0006:00000350       __imp_??0Font@sf@@QEAA@XZ  0000000140054350     sfml-graphics-d:sfml-graphics-d-2.dll
 0006:00000358       __imp_??1Font@sf@@QEAA@XZ  0000000140054358     sfml-graphics-d:sfml-graphics-d-2.dll
 0006:00000360       __imp_?loadFromFile@Font@sf@@QEAA_NAEBV?$basic_string@DU?$char_traits@D@std@@V?$allocator@D@2@@std@@@Z 0000000140054360     sfml-graphics-d:sfml-graphics-d-2.dll
 0006:00000368       __imp_?draw@RenderTarget@sf@@QEAAXAEBVDrawable@2@AEBVRenderStates@2@@Z 0000000140054368     sfml-graphics-d:sfml-graphics-d-2.dll
 0006:00000370       __imp_??0Text@sf@@QEAA@XZ  0000000140054370     sfml-graphics-d:sfml-graphics-d-2.dll
 0006:00000378       __imp_?setView@RenderTarget@sf@@QEAAXAEBVView@2@@Z 0000000140054378     sfml-graphics-d:sfml-graphics-d-2.dll
 0006:00000380       __imp_?setViewport@View@sf@@QEAAXAEBV?$Rect@M@2@@Z 0000000140054380     sfml-graphics-d:sfml-graphics-d-2.dll
 0006:00000388       __imp_??0View@sf@@QEAA@XZ  0000000140054388     sfml-graphics-d:sfml-graphics-d-2.dll
 0006:00000390       __imp_??4Sprite@sf@@QEAAAEAV01@AEBV01@@Z 0000000140054390     sfml-graphics-d:sfml-graphics-d-2.dll
 0006:00000398       __imp_??1Sprite@sf@@UEAA@XZ 0000000140054398     sfml-graphics-d:sfml-graphics-d-2.dll
 0006:000003a0       __imp_?getTexture@Sprite@sf@@QEBAPEBVTexture@2@XZ 00000001400543a0     sfml-graphics-d:sfml-graphics-d-2.dll
 0006:000003a8       __imp_?setTextureRect@Sprite@sf@@QEAAXAEBV?$Rect@H@2@@Z 00000001400543a8     sfml-graphics-d:sfml-graphics-d-2.dll
 0006:000003b0       __imp_?setTexture@Sprite@sf@@QEAAXAEBVTexture@2@_N@Z 00000001400543b0     sfml-graphics-d:sfml-graphics-d-2.dll
 0006:000003b8       __imp_??0Sprite@sf@@QEAA@XZ 00000001400543b8     sfml-graphics-d:sfml-graphics-d-2.dll
 0006:000003c0       __imp_??4Texture@sf@@QEAAAEAV01@AEBV01@@Z 00000001400543c0     sfml-graphics-d:sfml-graphics-d-2.dll
 0006:000003c8       __imp_?getSize@Texture@sf@@QEBA?AV?$Vector2@I@2@XZ 00000001400543c8     sfml-graphics-d:sfml-graphics-d-2.dll
 0006:000003d0       __imp_?loadFromFile@Texture@sf@@QEAA_NAEBV?$basic_string@DU?$char_traits@D@std@@V?$allocator@D@2@@std@@AEBV?$Rect@H@2@@Z 00000001400543d0     sfml-graphics-d:sfml-graphics-d-2.dll
 0006:000003d8       __imp_??1Texture@sf@@QEAA@XZ 00000001400543d8     sfml-graphics-d:sfml-graphics-d-2.dll
 0006:000003e0       __imp_?setPosition@Transformable@sf@@QEAAXMM@Z 00000001400543e0     sfml-graphics-d:sfml-graphics-d-2.dll
 0006:000003e8       __imp_?setString@Text@sf@@QEAAXAEBVString@2@@Z 00000001400543e8     sfml-graphics-d:sfml-graphics-d-2.dll
 0006:000003f0       __imp_?setFont@Text@sf@@QEAAXAEBVFont@2@@Z 00000001400543f0     sfml-graphics-d:sfml-graphics-d-2.dll
 0006:000003f8       __imp_?setColor@Text@sf@@QEAAXAEBVColor@2@@Z 00000001400543f8     sfml-graphics-d:sfml-graphics-d-2.dll
 0006:00000400       __imp_?getString@Text@sf@@QEBAAEBVString@2@XZ 0000000140054400     sfml-graphics-d:sfml-graphics-d-2.dll
 0006:00000408       __imp_?getLocalBounds@Text@sf@@QEBA?AV?$Rect@M@2@XZ 0000000140054408     sfml-graphics-d:sfml-graphics-d-2.dll
 0006:00000410       __imp_??1Text@sf@@UEAA@XZ  0000000140054410     sfml-graphics-d:sfml-graphics-d-2.dll
 0006:00000418       __imp_?Default@RenderStates@sf@@2V12@B 0000000140054418     sfml-graphics-d:sfml-graphics-d-2.dll
 0006:00000420       __imp_?White@Color@sf@@2V12@B 0000000140054420     sfml-graphics-d:sfml-graphics-d-2.dll
 0006:00000428       __imp_??0Color@sf@@QEAA@EEEE@Z 0000000140054428     sfml-graphics-d:sfml-graphics-d-2.dll
 0006:00000430       __imp_?clear@RenderTarget@sf@@QEAAXAEBVColor@2@@Z 0000000140054430     sfml-graphics-d:sfml-graphics-d-2.dll
 0006:00000438       __imp_??0Texture@sf@@QEAA@XZ 0000000140054438     sfml-graphics-d:sfml-graphics-d-2.dll
 0006:00000440       __imp_?setCharacterSize@Text@sf@@QEAAXI@Z 0000000140054440     sfml-graphics-d:sfml-graphics-d-2.dll
 0006:00000448       \177sfml-graphics-d-2_NULL_THUNK_DATA 0000000140054448     sfml-graphics-d:sfml-graphics-d-2.dll
 0006:000004d0       __imp_??1String@sf@@QEAA@XZ 00000001400544d0     sfml-system-d:sfml-system-d-2.dll
 0006:000004d8       __imp_?asMilliseconds@Time@sf@@QEBAHXZ 00000001400544d8     sfml-system-d:sfml-system-d-2.dll
 0006:000004e0       __imp_??0String@sf@@QEAA@PEB_W@Z 00000001400544e0     sfml-system-d:sfml-system-d-2.dll
 0006:000004e8       __imp_??0Clock@sf@@QEAA@XZ 00000001400544e8     sfml-system-d:sfml-system-d-2.dll
 0006:000004f0       __imp_?getElapsedTime@Clock@sf@@QEBA?AVTime@2@XZ 00000001400544f0     sfml-system-d:sfml-system-d-2.dll
 0006:000004f8       __imp_??0String@sf@@QEAA@PEBDAEBVlocale@std@@@Z 00000001400544f8     sfml-system-d:sfml-system-d-2.dll
 0006:00000500       __imp_??Gsf@@YA?AVTime@0@V10@0@Z 0000000140054500     sfml-system-d:sfml-system-d-2.dll
 0006:00000508       __imp_?toWideString@String@sf@@QEBA?AV?$basic_string@_WU?$char_traits@_W@std@@V?$allocator@_W@2@@std@@XZ 0000000140054508     sfml-system-d:sfml-system-d-2.dll
 0006:00000510       \177sfml-system-d-2_NULL_THUNK_DATA 0000000140054510     sfml-system-d:sfml-system-d-2.dll
 0006:00000570       __imp_?pollEvent@Window@sf@@QEAA_NAEAVEvent@2@@Z 0000000140054570     sfml-window-d:sfml-window-d-2.dll
 0006:00000578       __imp_?isOpen@Window@sf@@QEBA_NXZ 0000000140054578     sfml-window-d:sfml-window-d-2.dll
 0006:00000580       __imp_?close@Window@sf@@QEAAXXZ 0000000140054580     sfml-window-d:sfml-window-d-2.dll
 0006:00000588       __imp_??0VideoMode@sf@@QEAA@III@Z 0000000140054588     sfml-window-d:sfml-window-d-2.dll
 0006:00000590       __imp_?display@Window@sf@@QEAAXXZ 0000000140054590     sfml-window-d:sfml-window-d-2.dll
 0006:00000598       \177sfml-window-d-2_NULL_THUNK_DATA 0000000140054598     sfml-window-d:sfml-window-d-2.dll
 0006:000005f8       __imp_strcpy_s             00000001400545f8     ucrtd:ucrtbased.dll
 0006:00000600       __imp_strcat_s             0000000140054600     ucrtd:ucrtbased.dll
 0006:00000608       __imp___stdio_common_vsprintf_s 0000000140054608     ucrtd:ucrtbased.dll
 0006:00000610       __imp__seh_filter_exe      0000000140054610     ucrtd:ucrtbased.dll
 0006:00000618       __imp__set_app_type        0000000140054618     ucrtd:ucrtbased.dll
 0006:00000620       __imp___setusermatherr     0000000140054620     ucrtd:ucrtbased.dll
 0006:00000628       __imp__get_narrow_winmain_command_line 0000000140054628     ucrtd:ucrtbased.dll
 0006:00000630       __imp__initterm            0000000140054630     ucrtd:ucrtbased.dll
 0006:00000638       __imp__initterm_e          0000000140054638     ucrtd:ucrtbased.dll
 0006:00000640       __imp_exit                 0000000140054640     ucrtd:ucrtbased.dll
 0006:00000648       __imp__exit                0000000140054648     ucrtd:ucrtbased.dll
 0006:00000650       __imp__set_fmode           0000000140054650     ucrtd:ucrtbased.dll
 0006:00000658       __imp__c_exit              0000000140054658     ucrtd:ucrtbased.dll
 0006:00000660       __imp__register_thread_local_exe_atexit_callback 0000000140054660     ucrtd:ucrtbased.dll
 0006:00000668       __imp__configthreadlocale  0000000140054668     ucrtd:ucrtbased.dll
 0006:00000670       __imp__set_new_mode        0000000140054670     ucrtd:ucrtbased.dll
 0006:00000678       __imp___p__commode         0000000140054678     ucrtd:ucrtbased.dll
 0006:00000680       __imp__free_dbg            0000000140054680     ucrtd:ucrtbased.dll
 0006:00000688       __imp_terminate            0000000140054688     ucrtd:ucrtbased.dll
 0006:00000690       __imp__wmakepath_s         0000000140054690     ucrtd:ucrtbased.dll
 0006:00000698       __imp__wsplitpath_s        0000000140054698     ucrtd:ucrtbased.dll
 0006:000006a0       __imp__CrtDbgReport        00000001400546a0     ucrtd:ucrtbased.dll
 0006:000006a8       __imp__crt_at_quick_exit   00000001400546a8     ucrtd:ucrtbased.dll
 0006:000006b0       __imp__initialize_narrow_environment 00000001400546b0     ucrtd:ucrtbased.dll
 0006:000006b8       __imp__configure_narrow_argv 00000001400546b8     ucrtd:ucrtbased.dll
 0006:000006c0       __imp__seh_filter_dll      00000001400546c0     ucrtd:ucrtbased.dll
 0006:000006c8       __imp_malloc               00000001400546c8     ucrtd:ucrtbased.dll
 0006:000006d0       __imp__callnewh            00000001400546d0     ucrtd:ucrtbased.dll
 0006:000006d8       __imp_fabs                 00000001400546d8     ucrtd:ucrtbased.dll
 0006:000006e0       __imp_rand                 00000001400546e0     ucrtd:ucrtbased.dll
 0006:000006e8       __imp___stdio_common_vfprintf 00000001400546e8     ucrtd:ucrtbased.dll
 0006:000006f0       __imp_fread                00000001400546f0     ucrtd:ucrtbased.dll
 0006:000006f8       __imp_fopen                00000001400546f8     ucrtd:ucrtbased.dll
 0006:00000700       __imp_fclose               0000000140054700     ucrtd:ucrtbased.dll
 0006:00000708       __imp___acrt_iob_func      0000000140054708     ucrtd:ucrtbased.dll
 0006:00000710       __imp_strtol               0000000140054710     ucrtd:ucrtbased.dll
 0006:00000718       __imp_strtof               0000000140054718     ucrtd:ucrtbased.dll
 0006:00000720       __imp__errno               0000000140054720     ucrtd:ucrtbased.dll
 0006:00000728       __imp__CrtDbgReportW       0000000140054728     ucrtd:ucrtbased.dll
 0006:00000730       __imp__calloc_dbg          0000000140054730     ucrtd:ucrtbased.dll
 0006:00000738       __imp_strlen               0000000140054738     ucrtd:ucrtbased.dll
 0006:00000740       __imp_wcslen               0000000140054740     ucrtd:ucrtbased.dll
 0006:00000748       __imp__invalid_parameter   0000000140054748     ucrtd:ucrtbased.dll
 0006:00000750       __imp__cexit               0000000140054750     ucrtd:ucrtbased.dll
 0006:00000758       __imp__initialize_onexit_table 0000000140054758     ucrtd:ucrtbased.dll
 0006:00000760       __imp__crt_atexit          0000000140054760     ucrtd:ucrtbased.dll
 0006:00000768       __imp__execute_onexit_table 0000000140054768     ucrtd:ucrtbased.dll
 0006:00000770       __imp_wcscpy_s             0000000140054770     ucrtd:ucrtbased.dll
 0006:00000778       __imp__register_onexit_function 0000000140054778     ucrtd:ucrtbased.dll
 0006:00000780       \177ucrtbased_NULL_THUNK_DATA 0000000140054780     ucrtd:ucrtbased.dll
 0006:00000820       __IMPORT_DESCRIPTOR_sfml-graphics-d-2 0000000140054820     sfml-graphics-d:sfml-graphics-d-2.dll
 0006:00000834       __IMPORT_DESCRIPTOR_sfml-window-d-2 0000000140054834     sfml-window-d:sfml-window-d-2.dll
 0006:00000848       __IMPORT_DESCRIPTOR_sfml-system-d-2 0000000140054848     sfml-system-d:sfml-system-d-2.dll
 0006:0000085c       __IMPORT_DESCRIPTOR_MSVCP140D 000000014005485c     msvcprtd:MSVCP140D.dll
 0006:00000870       __IMPORT_DESCRIPTOR_VCRUNTIME140D 0000000140054870     vcruntimed:VCRUNTIME140D.dll
 0006:00000884       __IMPORT_DESCRIPTOR_ucrtbased 0000000140054884     ucrtd:ucrtbased.dll
 0006:00000898       __IMPORT_DESCRIPTOR_KERNEL32 0000000140054898     kernel32:KERNEL32.dll
 0006:000008ac       __NULL_IMPORT_DESCRIPTOR   00000001400548ac     sfml-graphics-d:sfml-graphics-d-2.dll
 0007:00000000       __guard_check_icall_fptr   0000000140057000     MSVCRTD:guard_support.obj
 0007:00000010       __guard_dispatch_icall_fptr 0000000140057010     MSVCRTD:guard_support.obj

 entry point at        0002:0000044c

 Static symbols

 0005:fffb1000       $pdata$wmemcpy             0000000140000000     object.obj
 0003:fffc2000       $unwind$??$_Get_size_of_n@$0BA@@std@@YA_K_K@Z 0000000140000000     game-object.obj
 0005:fffb1000       $pdata$??$?0D@?$allocator@U_Container_proxy@std@@@std@@QEAA@AEBV?$allocator@D@1@@Z 0000000140000000     game-object.obj
 0003:fffc2000       $unwind$??$?0D@?$allocator@U_Container_proxy@std@@@std@@QEAA@AEBV?$allocator@D@1@@Z 0000000140000000     game-object.obj
 0005:fffb1000       $pdata$??$construct@U_Container_proxy@std@@U12@@?$_Default_allocator_traits@V?$allocator@U_Container_proxy@std@@@std@@@std@@SAXAEAV?$allocator@U_Container_proxy@std@@@1@QEAU_Container_proxy@1@$$QEAU31@@Z 0000000140000000     game-object.obj
 0003:fffc2000       $unwind$??$construct@U_Container_proxy@std@@U12@@?$_Default_allocator_traits@V?$allocator@U_Container_proxy@std@@@std@@@std@@SAXAEAV?$allocator@U_Container_proxy@std@@@1@QEAU_Container_proxy@1@$$QEAU31@@Z 0000000140000000     game-object.obj
 0005:fffb1000       $pdata$??$_Unfancy@U_Container_proxy@std@@@std@@YAPEAU_Container_proxy@0@PEAU10@@Z 0000000140000000     game-object.obj
 0003:fffc2000       $unwind$??$_Unfancy@U_Container_proxy@std@@@std@@YAPEAU_Container_proxy@0@PEAU10@@Z 0000000140000000     game-object.obj
 0005:fffb1000       $pdata$??$_Deallocate_plain@V?$allocator@U_Container_proxy@std@@@std@@$0A@@std@@YAXAEAV?$allocator@U_Container_proxy@std@@@0@QEAU_Container_proxy@0@@Z 0000000140000000     game-object.obj
 0000:fffa9000       __guard_fids_?pre_c_initialization@@YAHXZ 0000000140000000     MSVCRTD:exe_winmain.obj
 0003:fffc2000       $ip2state$?_Orphan_all@_Container_base12@std@@QEAAXXZ 0000000140000000     config.obj
 0003:fffc2000       $unwind$??$_Deallocate_plain@V?$allocator@U_Container_proxy@std@@@std@@$0A@@std@@YAXAEAV?$allocator@U_Container_proxy@std@@@0@QEAU_Container_proxy@0@@Z 0000000140000000     game-object.obj
 0005:fffb1000       $pdata$?_Orphan_all@_Container_base12@std@@QEAAXXZ 0000000140000000     config.obj
 0003:fffc2000       $unwind$?_Orphan_all@_Container_base12@std@@QEAAXXZ 0000000140000000     config.obj
 0005:fffb1000       $pdata$??$destroy@U_Container_proxy@std@@@?$_Default_allocator_traits@V?$allocator@U_Container_proxy@std@@@std@@@std@@SAXAEAV?$allocator@U_Container_proxy@std@@@1@QEAU_Container_proxy@1@@Z 0000000140000000     game-object.obj
 0003:fffc2000       $unwind$??$destroy@U_Container_proxy@std@@@?$_Default_allocator_traits@V?$allocator@U_Container_proxy@std@@@std@@@std@@SAXAEAV?$allocator@U_Container_proxy@std@@@1@QEAU_Container_proxy@1@@Z 0000000140000000     game-object.obj
 0003:fffc2000       ?_Orphan_all@_Container_base12@std@@QEAAXXZ$rtcName$0 0000000140000000     config.obj
 0005:fffb1000       $pdata$??0_Container_base12@std@@QEAA@XZ 0000000140000000     config.obj
 0003:fffc2000       $unwind$??0_Container_base12@std@@QEAA@XZ 0000000140000000     config.obj
 0005:fffb1000       $pdata$??0_Container_proxy@std@@QEAA@XZ 0000000140000000     config.obj
 0003:fffc2000       $unwind$??0_Container_proxy@std@@QEAA@XZ 0000000140000000     config.obj
 0005:fffb1000       $pdata$?assign@?$char_traits@D@std@@SAXAEADAEBD@Z 0000000140000000     config.obj
 0003:fffc2000       $unwind$?assign@?$char_traits@D@std@@SAXAEADAEBD@Z 0000000140000000     config.obj
 0005:fffb1000       $pdata$??$forward@AEBV<lambda_668a1179af56ef880bbabaf92a5d9839>@@@std@@YAAEBV<lambda_668a1179af56ef880bbabaf92a5d9839>@@AEBV1@@Z 0000000140000000     menu-window.obj
 0005:fffb1000       $pdata$?move@?$char_traits@D@std@@SAPEADQEADQEBD_K@Z 0000000140000000     config.obj
 0005:fffb1000       $pdata$??$forward@AEBV<lambda_312b3f49165ee8dbe2e5837b3ce31c90>@@@std@@YAAEBV<lambda_312b3f49165ee8dbe2e5837b3ce31c90>@@AEBV1@@Z 0000000140000000     menu-window.obj
 0003:fffc2000       $unwind$?move@?$char_traits@D@std@@SAPEADQEADQEBD_K@Z 0000000140000000     config.obj
 0005:fffb1000       $pdata$??$forward@AEBV<lambda_5f2a59844b8069354d5a17d44e450129>@@@std@@YAAEBV<lambda_5f2a59844b8069354d5a17d44e450129>@@AEBV1@@Z 0000000140000000     menu-window.obj
 0005:fffb1000       $pdata$?copy@?$char_traits@D@std@@SAPEADQEADQEBD_K@Z 0000000140000000     config.obj
 0005:fffb1000       $pdata$??$_Call@AEAV<lambda_5f2a59844b8069354d5a17d44e450129>@@PEAVButton@@@?$_Invoker_ret@X$00@std@@SAXAEAV<lambda_5f2a59844b8069354d5a17d44e450129>@@$$QEAPEAVButton@@@Z 0000000140000000     menu-window.obj
 0003:fffc2000       $unwind$?copy@?$char_traits@D@std@@SAPEADQEADQEBD_K@Z 0000000140000000     config.obj
 0005:fffb1000       $pdata$??$_Test_callable@V<lambda_5f2a59844b8069354d5a17d44e450129>@@@std@@YA_NAEBV<lambda_5f2a59844b8069354d5a17d44e450129>@@U?$integral_constant@_N$0A@@0@@Z 0000000140000000     menu-window.obj
 0005:fffb1000       $pdata$?length@?$char_traits@D@std@@SA_KQEBD@Z 0000000140000000     config.obj
 0005:fffb1000       $pdata$??$_Call@AEAV<lambda_312b3f49165ee8dbe2e5837b3ce31c90>@@PEAVButton@@@?$_Invoker_ret@X$00@std@@SAXAEAV<lambda_312b3f49165ee8dbe2e5837b3ce31c90>@@$$QEAPEAVButton@@@Z 0000000140000000     menu-window.obj
 0003:fffc2000       $unwind$?length@?$char_traits@D@std@@SA_KQEBD@Z 0000000140000000     config.obj
 0005:fffb1000       $pdata$??$_Test_callable@V<lambda_312b3f49165ee8dbe2e5837b3ce31c90>@@@std@@YA_NAEBV<lambda_312b3f49165ee8dbe2e5837b3ce31c90>@@U?$integral_constant@_N$0A@@0@@Z 0000000140000000     menu-window.obj
 0005:fffb1000       $pdata$wmemcpy             0000000140000000     config.obj
 0005:fffb1000       $pdata$??$_Call@AEAV<lambda_668a1179af56ef880bbabaf92a5d9839>@@PEAVButton@@@?$_Invoker_ret@X$00@std@@SAXAEAV<lambda_668a1179af56ef880bbabaf92a5d9839>@@$$QEAPEAVButton@@@Z 0000000140000000     menu-window.obj
 0003:fffc2000       $unwind$wmemcpy            0000000140000000     config.obj
 0005:fffb1000       $pdata$??$_Test_callable@V<lambda_668a1179af56ef880bbabaf92a5d9839>@@@std@@YA_NAEBV<lambda_668a1179af56ef880bbabaf92a5d9839>@@U?$integral_constant@_N$0A@@0@@Z 0000000140000000     menu-window.obj
 0005:fffb1000       $pdata$?deallocate@?$_Default_allocator_traits@V?$allocator@U_Container_proxy@std@@@std@@@std@@SAXAEAV?$allocator@U_Container_proxy@std@@@2@QEAU_Container_proxy@2@_K@Z 0000000140000000     game-object.obj
 0005:fffb1000       $pdata$??$?0AEBV<lambda_668a1179af56ef880bbabaf92a5d9839>@@X@?$_Func_impl_no_alloc@V<lambda_668a1179af56ef880bbabaf92a5d9839>@@XPEAVButton@@@std@@QEAA@AEBV<lambda_668a1179af56ef880bbabaf92a5d9839>@@@Z 0000000140000000     menu-window.obj
 0003:fffc2000       $unwind$?deallocate@?$_Default_allocator_traits@V?$allocator@U_Container_proxy@std@@@std@@@std@@SAXAEAV?$allocator@U_Container_proxy@std@@@2@QEAU_Container_proxy@2@_K@Z 0000000140000000     game-object.obj
 0005:fffb1000       $pdata$??$?0AEBV<lambda_312b3f49165ee8dbe2e5837b3ce31c90>@@X@?$_Func_impl_no_alloc@V<lambda_312b3f49165ee8dbe2e5837b3ce31c90>@@XPEAVButton@@@std@@QEAA@AEBV<lambda_312b3f49165ee8dbe2e5837b3ce31c90>@@@Z 0000000140000000     menu-window.obj
 0005:fffb1000       $pdata$?allocate@?$allocator@U_Container_proxy@std@@@std@@QEAAPEAU_Container_proxy@2@_K@Z 0000000140000000     game-object.obj
 0005:fffb1000       $pdata$??$?0AEBV<lambda_5f2a59844b8069354d5a17d44e450129>@@X@?$_Func_impl_no_alloc@V<lambda_5f2a59844b8069354d5a17d44e450129>@@XPEAVButton@@@std@@QEAA@AEBV<lambda_5f2a59844b8069354d5a17d44e450129>@@@Z 0000000140000000     menu-window.obj
 0005:fffb1000       $pdata$??2@YAPEAX_KPEAX@Z  0000000140000000     config.obj
 0005:fffb1000       $pdata$??$?0V<lambda_668a1179af56ef880bbabaf92a5d9839>@@X@?$_Func_impl_no_alloc@V<lambda_668a1179af56ef880bbabaf92a5d9839>@@XPEAVButton@@@std@@QEAA@$$QEAV<lambda_668a1179af56ef880bbabaf92a5d9839>@@@Z 0000000140000000     menu-window.obj
 0003:fffc2000       $unwind$??2@YAPEAX_KPEAX@Z 0000000140000000     config.obj
 0005:fffb1000       $pdata$??$addressof@$$CBV<lambda_668a1179af56ef880bbabaf92a5d9839>@@@std@@YAPEBV<lambda_668a1179af56ef880bbabaf92a5d9839>@@AEBV1@@Z 0000000140000000     menu-window.obj
 0005:fffb1000       $pdata$?__empty_global_delete@@YAXPEAX_K@Z 0000000140000000     config.obj
 0005:fffb1000       $pdata$??$?0V<lambda_312b3f49165ee8dbe2e5837b3ce31c90>@@X@?$_Func_impl_no_alloc@V<lambda_312b3f49165ee8dbe2e5837b3ce31c90>@@XPEAVButton@@@std@@QEAA@$$QEAV<lambda_312b3f49165ee8dbe2e5837b3ce31c90>@@@Z 0000000140000000     menu-window.obj
 0003:fffc2000       $unwind$?__empty_global_delete@@YAXPEAX_K@Z 0000000140000000     config.obj
 0005:fffb1000       $pdata$??$addressof@$$CBV<lambda_312b3f49165ee8dbe2e5837b3ce31c90>@@@std@@YAPEBV<lambda_312b3f49165ee8dbe2e5837b3ce31c90>@@AEBV1@@Z 0000000140000000     menu-window.obj
 0005:fffb1000       $pdata$?__empty_global_delete@@YAXPEAX@Z 0000000140000000     config.obj
 0005:fffb1000       $pdata$??$?0V<lambda_5f2a59844b8069354d5a17d44e450129>@@X@?$_Func_impl_no_alloc@V<lambda_5f2a59844b8069354d5a17d44e450129>@@XPEAVButton@@@std@@QEAA@$$QEAV<lambda_5f2a59844b8069354d5a17d44e450129>@@@Z 0000000140000000     menu-window.obj
 0003:fffc2000       $unwind$?__empty_global_delete@@YAXPEAX@Z 0000000140000000     config.obj
 0005:fffb1000       $pdata$??$addressof@$$CBV<lambda_5f2a59844b8069354d5a17d44e450129>@@@std@@YAPEBV<lambda_5f2a59844b8069354d5a17d44e450129>@@AEBV1@@Z 0000000140000000     menu-window.obj
 0003:fffc2000       $unwind$?allocate@?$allocator@U_Container_proxy@std@@@std@@QEAAPEAU_Container_proxy@2@_K@Z 0000000140000000     game-object.obj
 0005:fffb1000       $pdata$??$_Deallocate@$07$0A@@std@@YAXPEAX_K@Z 0000000140000000     menu-window.obj
 0005:fffb1000       $pdata$??$_Deallocate@$0BA@$0A@@std@@YAXPEAX_K@Z 0000000140000000     game-object.obj
 0005:fffb1000       $pdata$??$_Reset_impl@V?$_Func_impl_no_alloc@V<lambda_5f2a59844b8069354d5a17d44e450129>@@XPEAVButton@@@std@@V<lambda_5f2a59844b8069354d5a17d44e450129>@@@?$_Func_class@XPEAVButton@@@std@@IEAAX$$QEAV<lambda_5f2a59844b8069354d5a17d44e450129>@@U?$integral_constant@_N$0A@@1@@Z 0000000140000000     menu-window.obj
 0003:fffc2000       $unwind$??$_Deallocate@$0BA@$0A@@std@@YAXPEAX_K@Z 0000000140000000     game-object.obj
 0005:fffb1000       $pdata$??$_Allocate@$0BA@U_Default_allocate_traits@std@@$0A@@std@@YAPEAX_K@Z 0000000140000000     game-object.obj
 0003:fffc2000       $unwind$??$_Allocate@$0BA@U_Default_allocate_traits@std@@$0A@@std@@YAPEAX_K@Z 0000000140000000     game-object.obj
 0005:fffb1000       $pdata$?_Delete_this@?$_Func_impl_no_alloc@V<lambda_5f2a59844b8069354d5a17d44e450129>@@XPEAVButton@@@std@@EEAAX_N@Z 0000000140000000     menu-window.obj
 0005:fffb1000       $pdata$??$addressof@V?$_String_val@U?$_Simple_types@D@std@@@std@@@std@@YAPEAV?$_String_val@U?$_Simple_types@D@std@@@0@AEAV10@@Z 0000000140000000     game-object.obj
 0005:fffb1000       $pdata$?_Get@?$_Func_impl_no_alloc@V<lambda_5f2a59844b8069354d5a17d44e450129>@@XPEAVButton@@@std@@EEBAPEBXXZ 0000000140000000     menu-window.obj
 0003:fffc2000       $unwind$??$addressof@V?$_String_val@U?$_Simple_types@D@std@@@std@@@std@@YAPEAV?$_String_val@U?$_Simple_types@D@std@@@0@AEAV10@@Z 0000000140000000     game-object.obj
 0005:fffb1000       $pdata$?_Target_type@?$_Func_impl_no_alloc@V<lambda_5f2a59844b8069354d5a17d44e450129>@@XPEAVButton@@@std@@EEBAAEBVtype_info@@XZ 0000000140000000     menu-window.obj
 0005:fffb1000       $pdata$??$destroy@PEAD@?$_Default_allocator_traits@V?$allocator@D@std@@@std@@SAXAEAV?$allocator@D@1@QEAPEAD@Z 0000000140000000     game-object.obj
 0005:fffb1000       $pdata$?_Do_call@?$_Func_impl_no_alloc@V<lambda_5f2a59844b8069354d5a17d44e450129>@@XPEAVButton@@@std@@EEAAX$$QEAPEAVButton@@@Z 0000000140000000     menu-window.obj
 0003:fffc2000       $unwind$??$destroy@PEAD@?$_Default_allocator_traits@V?$allocator@D@std@@@std@@SAXAEAV?$allocator@D@1@QEAPEAD@Z 0000000140000000     game-object.obj
 0005:fffb1000       $pdata$?_Move@?$_Func_impl_no_alloc@V<lambda_5f2a59844b8069354d5a17d44e450129>@@XPEAVButton@@@std@@EEAAPEAV?$_Func_base@XPEAVButton@@@2@PEAX@Z 0000000140000000     menu-window.obj
 0005:fffb1000       $pdata$??$addressof@PEAD@std@@YAPEAPEADAEAPEAD@Z 0000000140000000     game-object.obj
 0005:fffb1000       $pdata$?_Clone@?$_Func_impl_no_alloc@V<lambda_5f2a59844b8069354d5a17d44e450129>@@XPEAVButton@@@std@@AEBAPEAV?$_Func_base@XPEAVButton@@@2@PEAXU?$integral_constant@_N$0A@@2@@Z 0000000140000000     menu-window.obj
 0003:fffc2000       $unwind$??$_Getvals@_W@?$time_get@_WV?$istreambuf_iterator@_WU?$char_traits@_W@std@@@std@@@std@@IEAAX_WAEBV_Locinfo@1@@Z 0000000140000000     window-editor.obj
 0005:fffb1000       $pdata$?_Copy@?$_Func_impl_no_alloc@V<lambda_5f2a59844b8069354d5a17d44e450129>@@XPEAVButton@@@std@@EEBAPEAV?$_Func_base@XPEAVButton@@@2@PEAX@Z 0000000140000000     menu-window.obj
 0005:fffb1000       $pdata$??$?0$$V@?$_Compressed_pair@V?$allocator@D@std@@V?$_String_val@U?$_Simple_types@D@std@@@2@$00@std@@QEAA@U_Zero_then_variadic_args_t@1@@Z 0000000140000000     game-object.obj
 0005:fffb1000       $pdata$??$forward@V<lambda_5f2a59844b8069354d5a17d44e450129>@@@std@@YA$$QEAV<lambda_5f2a59844b8069354d5a17d44e450129>@@AEAV1@@Z 0000000140000000     menu-window.obj
 0003:fffc2000       $unwind$??$?0$$V@?$_Compressed_pair@V?$allocator@D@std@@V?$_String_val@U?$_Simple_types@D@std@@@2@$00@std@@QEAA@U_Zero_then_variadic_args_t@1@@Z 0000000140000000     game-object.obj
 0005:fffb1000       $pdata$??$_Test_callable@V<lambda_5f2a59844b8069354d5a17d44e450129>@@@std@@YA_NAEBV<lambda_5f2a59844b8069354d5a17d44e450129>@@@Z 0000000140000000     menu-window.obj
 0005:fffb1000       $pdata$_vfprintf_l         0000000140000000     game-object.obj
 0003:fffc2000       printf$rtcName$0           0000000140000000     game-object.obj
 0003:fffc2000       $unwind$printf             0000000140000000     game-object.obj
 0000:fffa9000       __guard_fids__             0000000140000000     MSVCRTD:throw_bad_alloc.obj
 0005:fffb1000       $pdata$??$_Reset_impl@V?$_Func_impl_no_alloc@V<lambda_312b3f49165ee8dbe2e5837b3ce31c90>@@XPEAVButton@@@std@@V<lambda_312b3f49165ee8dbe2e5837b3ce31c90>@@@?$_Func_class@XPEAVButton@@@std@@IEAAX$$QEAV<lambda_312b3f49165ee8dbe2e5837b3ce31c90>@@U?$integral_constant@_N$0A@@1@@Z 0000000140000000     menu-window.obj
 0000:fffa9000       __guard_fids__             0000000140000000     MSVCRTD:throw_bad_alloc.obj
 0000:fffa9000       __guard_fids__             0000000140000000     MSVCRTD:throw_bad_alloc.obj
 0005:fffb1000       $pdata$printf              0000000140000000     game-object.obj
 0005:fffb1000       $pdata$?_Delete_this@?$_Func_impl_no_alloc@V<lambda_312b3f49165ee8dbe2e5837b3ce31c90>@@XPEAVButton@@@std@@EEAAX_N@Z 0000000140000000     menu-window.obj
 0003:fffc2000       $unwind$wmemcpy            0000000140000000     game-object.obj
 0005:fffb1000       $pdata$?_Get@?$_Func_impl_no_alloc@V<lambda_312b3f49165ee8dbe2e5837b3ce31c90>@@XPEAVButton@@@std@@EEBAPEBXXZ 0000000140000000     menu-window.obj
 0005:fffb1000       $pdata$wmemcpy             0000000140000000     game-object.obj
 0005:fffb1000       $pdata$?_Target_type@?$_Func_impl_no_alloc@V<lambda_312b3f49165ee8dbe2e5837b3ce31c90>@@XPEAVButton@@@std@@EEBAAEBVtype_info@@XZ 0000000140000000     menu-window.obj
 0003:fffc2000       $unwind$?assign@?$char_traits@D@std@@SAXAEADAEBD@Z 0000000140000000     game-object.obj
 0005:fffb1000       $pdata$?_Do_call@?$_Func_impl_no_alloc@V<lambda_312b3f49165ee8dbe2e5837b3ce31c90>@@XPEAVButton@@@std@@EEAAX$$QEAPEAVButton@@@Z 0000000140000000     menu-window.obj
 0005:fffb1000       $pdata$?assign@?$char_traits@D@std@@SAXAEADAEBD@Z 0000000140000000     game-object.obj
 0005:fffb1000       $pdata$?_Move@?$_Func_impl_no_alloc@V<lambda_312b3f49165ee8dbe2e5837b3ce31c90>@@XPEAVButton@@@std@@EEAAPEAV?$_Func_base@XPEAVButton@@@2@PEAX@Z 0000000140000000     menu-window.obj
 0003:fffc2000       $unwind$??0_Container_proxy@std@@QEAA@XZ 0000000140000000     game-object.obj
 0005:00003084       $pdata$?_Clone@?$_Func_impl_no_alloc@V<lambda_312b3f49165ee8dbe2e5837b3ce31c90>@@XPEAVButton@@@std@@AEBAPEAV?$_Func_base@XPEAVButton@@@2@PEAXU?$integral_constant@_N$0A@@2@@Z 0000000140052084     menu-window.obj
 0005:fffb1000       $pdata$??0_Container_proxy@std@@QEAA@XZ 0000000140000000     game-object.obj
 0005:000030a8       $pdata$?_Copy@?$_Func_impl_no_alloc@V<lambda_312b3f49165ee8dbe2e5837b3ce31c90>@@XPEAVButton@@@std@@EEBAPEAV?$_Func_base@XPEAVButton@@@2@PEAX@Z 00000001400520a8     menu-window.obj
 0003:fffc2000       $unwind$??0_Container_base12@std@@QEAA@XZ 0000000140000000     game-object.obj
 0005:00002fa0       $pdata$??$forward@V<lambda_312b3f49165ee8dbe2e5837b3ce31c90>@@@std@@YA$$QEAV<lambda_312b3f49165ee8dbe2e5837b3ce31c90>@@AEAV1@@Z 0000000140051fa0     menu-window.obj
 0002:fffed000       ?dtor$0@?0???0?$basic_string@DU?$char_traits@D@std@@V?$allocator@D@2@@std@@QEAA@QEBD@Z@4HA 0000000140000000 f   config.obj
 0005:00002eec       $pdata$??$_Test_callable@V<lambda_312b3f49165ee8dbe2e5837b3ce31c90>@@@std@@YA_NAEBV<lambda_312b3f49165ee8dbe2e5837b3ce31c90>@@@Z 0000000140051eec     menu-window.obj
 0005:fffb1000       $pdata$??0_Container_base12@std@@QEAA@XZ 0000000140000000     game-object.obj
 0000:fffa9000       __guard_fids___scrt_set_unhandled_exception_filter 0000000140000000     MSVCRTD:utility_desktop.obj
 0002:fffed000       ?dtor$0@?0???0?$_String_alloc@U?$_String_base_types@DV?$allocator@D@std@@@std@@@std@@QEAA@XZ@4HA 0000000140000000 f   config.obj
 0003:fffc2000       ?_Orphan_all@_Container_base12@std@@QEAAXXZ$rtcName$0 0000000140000000     game-object.obj
 0005:00002ee0       $pdata$??$_Reset_impl@V?$_Func_impl_no_alloc@V<lambda_668a1179af56ef880bbabaf92a5d9839>@@XPEAVButton@@@std@@V<lambda_668a1179af56ef880bbabaf92a5d9839>@@@?$_Func_class@XPEAVButton@@@std@@IEAAX$$QEAV<lambda_668a1179af56ef880bbabaf92a5d9839>@@U?$integral_constant@_N$0A@@1@@Z 0000000140051ee0     menu-window.obj
 0003:fffc2000       $unwind$?_Orphan_all@_Container_base12@std@@QEAAXXZ 0000000140000000     game-object.obj
 0005:fffb1000       $pdata$?_Orphan_all@_Container_base12@std@@QEAAXXZ 0000000140000000     game-object.obj
 0003:fffc2000       $ip2state$?_Orphan_all@_Container_base12@std@@QEAAXXZ 0000000140000000     game-object.obj
 0005:000030e4       $pdata$?_Delete_this@?$_Func_impl_no_alloc@V<lambda_668a1179af56ef880bbabaf92a5d9839>@@XPEAVButton@@@std@@EEAAX_N@Z 00000001400520e4     menu-window.obj
 0003:fffc2000       $unwind$?_Allocate@_Default_allocate_traits@std@@SAPEAX_K@Z 0000000140000000     game-object.obj
 0005:0000312c       $pdata$?_Get@?$_Func_impl_no_alloc@V<lambda_668a1179af56ef880bbabaf92a5d9839>@@XPEAVButton@@@std@@EEBAPEBXXZ 000000014005212c     menu-window.obj
 0000:fffa9000       __guard_fids__             0000000140000000     MSVCRTD:guard_support.obj
 0005:00003174       $pdata$?_Target_type@?$_Func_impl_no_alloc@V<lambda_668a1179af56ef880bbabaf92a5d9839>@@XPEAVButton@@@std@@EEBAAEBVtype_info@@XZ 0000000140052174     menu-window.obj
 0005:fffb1000       $pdata$?_Allocate@_Default_allocate_traits@std@@SAPEAX_K@Z 0000000140000000     game-object.obj
 0005:00003108       $pdata$?_Do_call@?$_Func_impl_no_alloc@V<lambda_668a1179af56ef880bbabaf92a5d9839>@@XPEAVButton@@@std@@EEAAX$$QEAPEAVButton@@@Z 0000000140052108     menu-window.obj
 0003:fffc2000       $unwind$?_Adjust_manually_vector_aligned@std@@YAXAEAPEAXAEA_K@Z 0000000140000000     game-object.obj
 0005:00003150       $pdata$?_Move@?$_Func_impl_no_alloc@V<lambda_668a1179af56ef880bbabaf92a5d9839>@@XPEAVButton@@@std@@EEAAPEAV?$_Func_base@XPEAVButton@@@2@PEAX@Z 0000000140052150     menu-window.obj
 0005:fffb1000       $pdata$?_Adjust_manually_vector_aligned@std@@YAXAEAPEAXAEA_K@Z 0000000140000000     game-object.obj
 0005:0000309c       $pdata$?_Clone@?$_Func_impl_no_alloc@V<lambda_668a1179af56ef880bbabaf92a5d9839>@@XPEAVButton@@@std@@AEBAPEAV?$_Func_base@XPEAVButton@@@2@PEAXU?$integral_constant@_N$0A@@2@@Z 000000014005209c     menu-window.obj
 0003:fffc2000       $unwind$??0?$allocator@D@std@@QEAA@XZ 0000000140000000     game-object.obj
 0005:000030c0       $pdata$?_Copy@?$_Func_impl_no_alloc@V<lambda_668a1179af56ef880bbabaf92a5d9839>@@XPEAVButton@@@std@@EEBAPEAV?$_Func_base@XPEAVButton@@@2@PEAX@Z 00000001400520c0     menu-window.obj
 0000:fffa9000       __guard_fids__guard_icall_checks_enforced 0000000140000000     MSVCRTD:guard_support.obj
 0005:00002fb8       $pdata$??$forward@V<lambda_668a1179af56ef880bbabaf92a5d9839>@@@std@@YA$$QEAV<lambda_668a1179af56ef880bbabaf92a5d9839>@@AEAV1@@Z 0000000140051fb8     menu-window.obj
 0005:fffb1000       $pdata$??0?$allocator@D@std@@QEAA@XZ 0000000140000000     game-object.obj
 0005:00002f1c       $pdata$??$_Test_callable@V<lambda_668a1179af56ef880bbabaf92a5d9839>@@@std@@YA_NAEBV<lambda_668a1179af56ef880bbabaf92a5d9839>@@@Z 0000000140051f1c     menu-window.obj
 0003:fffc2000       $unwind$?deallocate@?$allocator@D@std@@QEAAXQEAD_K@Z 0000000140000000     game-object.obj
 0005:fffb1000       $pdata$?deallocate@?$allocator@D@std@@QEAAXQEAD_K@Z 0000000140000000     game-object.obj
 0003:fffc2000       $unwind$??0?$_String_val@U?$_Simple_types@D@std@@@std@@QEAA@XZ 0000000140000000     game-object.obj
 0005:fffb1000       $pdata$??0?$_String_val@U?$_Simple_types@D@std@@@std@@QEAA@XZ 0000000140000000     game-object.obj
 0005:00002eb0       $pdata$??$_Reset@V<lambda_5f2a59844b8069354d5a17d44e450129>@@@?$_Func_class@XPEAVButton@@@std@@IEAAX$$QEAV<lambda_5f2a59844b8069354d5a17d44e450129>@@@Z 0000000140051eb0     menu-window.obj
 0003:fffc2000       $unwind$?_Large_string_engaged@?$_String_val@U?$_Simple_types@D@std@@@std@@QEBA_NXZ 0000000140000000     game-object.obj
 0005:00002ff4       $pdata$??$move@AEAV<lambda_5f2a59844b8069354d5a17d44e450129>@@@std@@YA$$QEAV<lambda_5f2a59844b8069354d5a17d44e450129>@@AEAV1@@Z 0000000140051ff4     menu-window.obj
 0005:fffb1000       $pdata$?_Large_string_engaged@?$_String_val@U?$_Simple_types@D@std@@@std@@QEBA_NXZ 0000000140000000     game-object.obj
 0005:00002ea4       $pdata$??$_Reset@V<lambda_312b3f49165ee8dbe2e5837b3ce31c90>@@@?$_Func_class@XPEAVButton@@@std@@IEAAX$$QEAV<lambda_312b3f49165ee8dbe2e5837b3ce31c90>@@@Z 0000000140051ea4     menu-window.obj
 0003:fffc2000       $unwind$??0_Bxty@?$_String_val@U?$_Simple_types@D@std@@@std@@QEAA@XZ 0000000140000000     game-object.obj
 0005:00002fe8       $pdata$??$move@AEAV<lambda_312b3f49165ee8dbe2e5837b3ce31c90>@@@std@@YA$$QEAV<lambda_312b3f49165ee8dbe2e5837b3ce31c90>@@AEAV1@@Z 0000000140051fe8     menu-window.obj
 0005:fffb1000       $pdata$??0_Bxty@?$_String_val@U?$_Simple_types@D@std@@@std@@QEAA@XZ 0000000140000000     game-object.obj
 0005:00002ebc       $pdata$??$_Reset@V<lambda_668a1179af56ef880bbabaf92a5d9839>@@@?$_Func_class@XPEAVButton@@@std@@IEAAX$$QEAV<lambda_668a1179af56ef880bbabaf92a5d9839>@@@Z 0000000140051ebc     menu-window.obj
 0003:fffc2000       $unwind$??1_Bxty@?$_String_val@U?$_Simple_types@D@std@@@std@@QEAA@XZ 0000000140000000     game-object.obj
 0005:00003000       $pdata$??$move@AEAV<lambda_668a1179af56ef880bbabaf92a5d9839>@@@std@@YA$$QEAV<lambda_668a1179af56ef880bbabaf92a5d9839>@@AEAV1@@Z 0000000140052000     menu-window.obj
 0005:fffb1000       $pdata$??1_Bxty@?$_String_val@U?$_Simple_types@D@std@@@std@@QEAA@XZ 0000000140000000     game-object.obj
 0005:fffb1000       $pdata$??$_Maklocstr@D@std@@YAPEADPEBDPEADAEBU_Cvtvec@@@Z 0000000140000000     menu-window.obj
 0003:fffc2000       $unwind$??$_Maklocstr@D@std@@YAPEADPEBDPEADAEBU_Cvtvec@@@Z 0000000140000000     menu-window.obj
 0005:00003030       $pdata$??0?$_Func_base@XPEAVButton@@@std@@QEAA@XZ 0000000140052030     menu-window.obj
 0003:fffc2000       $unwind$??1?$_String_val@U?$_Simple_types@D@std@@@std@@QEAA@XZ 0000000140000000     game-object.obj
 0005:00003d98       $pdata$?dtor$0@?0???$?0V<lambda_5f2a59844b8069354d5a17d44e450129>@@X@?$function@$$A6AXPEAVButton@@@Z@std@@QEAA@V<lambda_5f2a59844b8069354d5a17d44e450129>@@@Z@4HA 0000000140052d98     menu-window.obj
 0005:fffb1000       $pdata$??1?$_String_val@U?$_Simple_types@D@std@@@std@@QEAA@XZ 0000000140000000     game-object.obj
 0003:fffc2000       $unwind$??0?$_String_alloc@U?$_String_base_types@DV?$allocator@D@std@@@std@@@std@@QEAA@XZ 0000000140000000     game-object.obj
 0005:fffb1000       $pdata$??0?$_String_alloc@U?$_String_base_types@DV?$allocator@D@std@@@std@@@std@@QEAA@XZ 0000000140000000     game-object.obj
 0003:fffc2000       $cppxdata$??0?$_String_alloc@U?$_String_base_types@DV?$allocator@D@std@@@std@@@std@@QEAA@XZ 0000000140000000     game-object.obj
 0005:00002e2c       $pdata$??$?0V<lambda_5f2a59844b8069354d5a17d44e450129>@@X@?$function@$$A6AXPEAVButton@@@Z@std@@QEAA@V<lambda_5f2a59844b8069354d5a17d44e450129>@@@Z 0000000140051e2c     menu-window.obj
 0003:fffc2000       $stateUnwindMap$??0?$_String_alloc@U?$_String_base_types@DV?$allocator@D@std@@@std@@@std@@QEAA@XZ 0000000140000000     game-object.obj
 0005:00002fd0       $pdata$??$invoke@AEAV<lambda_5f2a59844b8069354d5a17d44e450129>@@PEAVButton@@@std@@YAXAEAV<lambda_5f2a59844b8069354d5a17d44e450129>@@$$QEAPEAVButton@@@Z 0000000140051fd0     menu-window.obj
 0003:fffc2000       $ip2state$??0?$_String_alloc@U?$_String_base_types@DV?$allocator@D@std@@@std@@@std@@QEAA@XZ 0000000140000000     game-object.obj
 0005:00002e74       $pdata$??$_Call@AEAV<lambda_5f2a59844b8069354d5a17d44e450129>@@PEAVButton@@@_Invoker_functor@std@@SAXAEAV<lambda_5f2a59844b8069354d5a17d44e450129>@@$$QEAPEAVButton@@@Z 0000000140051e74     menu-window.obj
 0003:fffc2000       $unwind$?dtor$0@?0???0?$_String_alloc@U?$_String_base_types@DV?$allocator@D@std@@@std@@@std@@QEAA@XZ@4HA 0000000140000000     game-object.obj
 0005:00002f64       $pdata$??$forward@AEAV<lambda_5f2a59844b8069354d5a17d44e450129>@@@std@@YAAEAV<lambda_5f2a59844b8069354d5a17d44e450129>@@AEAV1@@Z 0000000140051f64     menu-window.obj
 0005:fffb1000       $pdata$?dtor$0@?0???0?$_String_alloc@U?$_String_base_types@DV?$allocator@D@std@@@std@@@std@@QEAA@XZ@4HA 0000000140000000     game-object.obj
 0005:00003018       $pdata$??0<lambda_5f2a59844b8069354d5a17d44e450129>@@QEAA@QEAVMenuWindow@@@Z 0000000140052018     menu-window.obj
 0003:fffc2000       $unwind$??1?$_String_alloc@U?$_String_base_types@DV?$allocator@D@std@@@std@@@std@@QEAA@XZ 0000000140000000     game-object.obj
 0005:00003060       $pdata$??R<lambda_5f2a59844b8069354d5a17d44e450129>@@QEBAXPEAVButton@@@Z 0000000140052060     menu-window.obj
 0005:fffb1000       $pdata$??1?$_String_alloc@U?$_String_base_types@DV?$allocator@D@std@@@std@@@std@@QEAA@XZ 0000000140000000     game-object.obj
 0005:00003d8c       $pdata$?dtor$0@?0???$?0V<lambda_312b3f49165ee8dbe2e5837b3ce31c90>@@X@?$function@$$A6AXPEAVButton@@@Z@std@@QEAA@V<lambda_312b3f49165ee8dbe2e5837b3ce31c90>@@@Z@4HA 0000000140052d8c     menu-window.obj
 0003:fffc2000       $cppxdata$??1?$_String_alloc@U?$_String_base_types@DV?$allocator@D@std@@@std@@@std@@QEAA@XZ 0000000140000000     game-object.obj
 0003:fffc2000       $ip2state$??1?$_String_alloc@U?$_String_base_types@DV?$allocator@D@std@@@std@@@std@@QEAA@XZ 0000000140000000     game-object.obj
 0003:fffc2000       ?_Alloc_proxy@?$_String_alloc@U?$_String_base_types@DV?$allocator@D@std@@@std@@@std@@QEAAXXZ$rtcName$0 0000000140000000     game-object.obj
 0003:fffc2000       $unwind$?_Alloc_proxy@?$_String_alloc@U?$_String_base_types@DV?$allocator@D@std@@@std@@@std@@QEAAXXZ 0000000140000000     game-object.obj
 0005:00002e14       $pdata$??$?0V<lambda_312b3f49165ee8dbe2e5837b3ce31c90>@@X@?$function@$$A6AXPEAVButton@@@Z@std@@QEAA@V<lambda_312b3f49165ee8dbe2e5837b3ce31c90>@@@Z 0000000140051e14     menu-window.obj
 0005:fffb1000       $pdata$?_Alloc_proxy@?$_String_alloc@U?$_String_base_types@DV?$allocator@D@std@@@std@@@std@@QEAAXXZ 0000000140000000     game-object.obj
 0005:00002fc4       $pdata$??$invoke@AEAV<lambda_312b3f49165ee8dbe2e5837b3ce31c90>@@PEAVButton@@@std@@YAXAEAV<lambda_312b3f49165ee8dbe2e5837b3ce31c90>@@$$QEAPEAVButton@@@Z 0000000140051fc4     menu-window.obj
 0003:fffc2000       ?_Free_proxy@?$_String_alloc@U?$_String_base_types@DV?$allocator@D@std@@@std@@@std@@QEAAXXZ$rtcName$0 0000000140000000     game-object.obj
 0005:00002e5c       $pdata$??$_Call@AEAV<lambda_312b3f49165ee8dbe2e5837b3ce31c90>@@PEAVButton@@@_Invoker_functor@std@@SAXAEAV<lambda_312b3f49165ee8dbe2e5837b3ce31c90>@@$$QEAPEAVButton@@@Z 0000000140051e5c     menu-window.obj
 0003:fffc2000       $unwind$?_Free_proxy@?$_String_alloc@U?$_String_base_types@DV?$allocator@D@std@@@std@@@std@@QEAAXXZ 0000000140000000     game-object.obj
 0005:00002f58       $pdata$??$forward@AEAV<lambda_312b3f49165ee8dbe2e5837b3ce31c90>@@@std@@YAAEAV<lambda_312b3f49165ee8dbe2e5837b3ce31c90>@@AEAV1@@Z 0000000140051f58     menu-window.obj
 0005:fffb1000       $pdata$?_Free_proxy@?$_String_alloc@U?$_String_base_types@DV?$allocator@D@std@@@std@@@std@@QEAAXXZ 0000000140000000     game-object.obj
 0005:0000300c       $pdata$??0<lambda_312b3f49165ee8dbe2e5837b3ce31c90>@@QEAA@QEAVMenuWindow@@@Z 000000014005200c     menu-window.obj
 0003:fffc2000       $unwind$?_Myproxy@?$_String_alloc@U?$_String_base_types@DV?$allocator@D@std@@@std@@@std@@QEAAAEAPEAU_Container_proxy@2@XZ 0000000140000000     game-object.obj
 0005:00003054       $pdata$??R<lambda_312b3f49165ee8dbe2e5837b3ce31c90>@@QEBAXPEAVButton@@@Z 0000000140052054     menu-window.obj
 0005:fffb1000       $pdata$?_Myproxy@?$_String_alloc@U?$_String_base_types@DV?$allocator@D@std@@@std@@@std@@QEAAAEAPEAU_Container_proxy@2@XZ 0000000140000000     game-object.obj
 0005:00003da4       $pdata$?dtor$0@?0???$?0V<lambda_668a1179af56ef880bbabaf92a5d9839>@@X@?$function@$$A6AXPEAVButton@@@Z@std@@QEAA@V<lambda_668a1179af56ef880bbabaf92a5d9839>@@@Z@4HA 0000000140052da4     menu-window.obj
 0003:fffc2000       $unwind$?_Orphan_all@?$_String_alloc@U?$_String_base_types@DV?$allocator@D@std@@@std@@@std@@QEAAXXZ 0000000140000000     game-object.obj
 0005:fffb1000       $pdata$?_Orphan_all@?$_String_alloc@U?$_String_base_types@DV?$allocator@D@std@@@std@@@std@@QEAAXXZ 0000000140000000     game-object.obj
 0003:fffc2000       $unwind$?_Getal@?$_String_alloc@U?$_String_base_types@DV?$allocator@D@std@@@std@@@std@@QEAAAEAV?$allocator@D@2@XZ 0000000140000000     game-object.obj
 0005:fffb1000       $pdata$?_Getal@?$_String_alloc@U?$_String_base_types@DV?$allocator@D@std@@@std@@@std@@QEAAAEAV?$allocator@D@2@XZ 0000000140000000     game-object.obj
 0005:00002e44       $pdata$??$?0V<lambda_668a1179af56ef880bbabaf92a5d9839>@@X@?$function@$$A6AXPEAVButton@@@Z@std@@QEAA@V<lambda_668a1179af56ef880bbabaf92a5d9839>@@@Z 0000000140051e44     menu-window.obj
 0003:fffc2000       $unwind$?_Get_data@?$_String_alloc@U?$_String_base_types@DV?$allocator@D@std@@@std@@@std@@QEAAAEAV?$_String_val@U?$_Simple_types@D@std@@@2@XZ 0000000140000000     game-object.obj
 0005:00002fdc       $pdata$??$invoke@AEAV<lambda_668a1179af56ef880bbabaf92a5d9839>@@PEAVButton@@@std@@YAXAEAV<lambda_668a1179af56ef880bbabaf92a5d9839>@@$$QEAPEAVButton@@@Z 0000000140051fdc     menu-window.obj
 0005:fffb1000       $pdata$?_Get_data@?$_String_alloc@U?$_String_base_types@DV?$allocator@D@std@@@std@@@std@@QEAAAEAV?$_String_val@U?$_Simple_types@D@std@@@2@XZ 0000000140000000     game-object.obj
 0005:00002e8c       $pdata$??$_Call@AEAV<lambda_668a1179af56ef880bbabaf92a5d9839>@@PEAVButton@@@_Invoker_functor@std@@SAXAEAV<lambda_668a1179af56ef880bbabaf92a5d9839>@@$$QEAPEAVButton@@@Z 0000000140051e8c     menu-window.obj
 0003:fffc2000       $unwind$?_Get_first@?$_Compressed_pair@V?$allocator@D@std@@V?$_String_val@U?$_Simple_types@D@std@@@2@$00@std@@QEAAAEAV?$allocator@D@2@XZ 0000000140000000     game-object.obj
 0005:fffb1000       $pdata$??$forward@PEAVButton@@@std@@YA$$QEAPEAVButton@@AEAPEAV1@@Z 0000000140000000     menu-window.obj
 0003:fffc2000       $unwind$??$forward@PEAVButton@@@std@@YA$$QEAPEAVButton@@AEAPEAV1@@Z 0000000140000000     menu-window.obj
 0005:00002f70       $pdata$??$forward@AEAV<lambda_668a1179af56ef880bbabaf92a5d9839>@@@std@@YAAEAV<lambda_668a1179af56ef880bbabaf92a5d9839>@@AEAV1@@Z 0000000140051f70     menu-window.obj
 0005:fffb1000       $pdata$?_Get_first@?$_Compressed_pair@V?$allocator@D@std@@V?$_String_val@U?$_Simple_types@D@std@@@2@$00@std@@QEAAAEAV?$allocator@D@2@XZ 0000000140000000     game-object.obj
 0005:00003024       $pdata$??0<lambda_668a1179af56ef880bbabaf92a5d9839>@@QEAA@QEAVMenuWindow@@@Z 0000000140052024     menu-window.obj
 0003:fffc2000       $unwind$?_Get_second@?$_Compressed_pair@V?$allocator@D@std@@V?$_String_val@U?$_Simple_types@D@std@@@2@$00@std@@QEAAAEAV?$_String_val@U?$_Simple_types@D@std@@@2@XZ 0000000140000000     game-object.obj
 0005:0000306c       $pdata$??R<lambda_668a1179af56ef880bbabaf92a5d9839>@@QEBAXPEAVButton@@@Z 000000014005206c     menu-window.obj
 0005:fffb1000       $pdata$?_Get_second@?$_Compressed_pair@V?$allocator@D@std@@V?$_String_val@U?$_Simple_types@D@std@@@2@$00@std@@QEAAAEAV?$_String_val@U?$_Simple_types@D@std@@@2@XZ 0000000140000000     game-object.obj
 0005:00003078       $pdata$??_GMenuWindow@@UEAAPEAXI@Z 0000000140052078     menu-window.obj
 0003:fffc2000       $unwind$??1?$_Compressed_pair@V?$allocator@D@std@@V?$_String_val@U?$_Simple_types@D@std@@@2@$00@std@@QEAA@XZ 0000000140000000     game-object.obj
 0005:0000318c       $pdata$?onExitClicked@MenuWindow@@AEAAXPEAVButton@@@Z 000000014005218c     menu-window.obj
 0005:fffb1000       $pdata$??1?$_Compressed_pair@V?$allocator@D@std@@V?$_String_val@U?$_Simple_types@D@std@@@2@$00@std@@QEAA@XZ 0000000140000000     game-object.obj
 0005:00003180       $pdata$?onEditorClicked@MenuWindow@@AEAAXPEAVButton@@@Z 0000000140052180     menu-window.obj
 0003:fffc2000       $unwind$??1?$basic_string@DU?$char_traits@D@std@@V?$allocator@D@2@@std@@QEAA@XZ 0000000140000000     game-object.obj
 0005:00003198       $pdata$?onStartClicked@MenuWindow@@AEAAXPEAVButton@@@Z 0000000140052198     menu-window.obj
 0005:fffb1000       $pdata$??1?$basic_string@DU?$char_traits@D@std@@V?$allocator@D@2@@std@@QEAA@XZ 0000000140000000     game-object.obj
 0005:00003048       $pdata$??1MenuWindow@@UEAA@XZ 0000000140052048     menu-window.obj
 0003:fffc2000       $cppxdata$??1?$basic_string@DU?$char_traits@D@std@@V?$allocator@D@2@@std@@QEAA@XZ 0000000140000000     game-object.obj
 0005:00003dd4       $pdata$?dtor$5@?0???0MenuWindow@@QEAA@PEAVEngine@@AEBV?$Vector2@M@sf@@1@Z@4HA 0000000140052dd4     menu-window.obj
 0003:fffc2000       $ip2state$??1?$basic_string@DU?$char_traits@D@std@@V?$allocator@D@2@@std@@QEAA@XZ 0000000140000000     game-object.obj
 0005:00003dc8       $pdata$?dtor$3@?0???0MenuWindow@@QEAA@PEAVEngine@@AEBV?$Vector2@M@sf@@1@Z@4HA 0000000140052dc8     menu-window.obj
 0003:fffc2000       $unwind$?_Tidy_init@?$basic_string@DU?$char_traits@D@std@@V?$allocator@D@2@@std@@QEAAXXZ 0000000140000000     game-object.obj
 0005:00003dbc       $pdata$?dtor$1@?0???0MenuWindow@@QEAA@PEAVEngine@@AEBV?$Vector2@M@sf@@1@Z@4HA 0000000140052dbc     menu-window.obj
 0005:fffb1000       $pdata$?_Tidy_init@?$basic_string@DU?$char_traits@D@std@@V?$allocator@D@2@@std@@QEAAXXZ 0000000140000000     game-object.obj
 0005:00003db0       $pdata$?dtor$0@?0???0MenuWindow@@QEAA@PEAVEngine@@AEBV?$Vector2@M@sf@@1@Z@4HA 0000000140052db0     menu-window.obj
 0003:fffc2000       $unwind$?_Tidy_deallocate@?$basic_string@DU?$char_traits@D@std@@V?$allocator@D@2@@std@@QEAAXXZ 0000000140000000     game-object.obj
 0005:fffb1000       $pdata$?_Tidy_deallocate@?$basic_string@DU?$char_traits@D@std@@V?$allocator@D@2@@std@@QEAAXXZ 0000000140000000     game-object.obj
 0003:fffc2000       ??$_Maklocstr@_W@std@@YAPEA_WPEBDPEA_WAEBU_Cvtvec@@@Z$rtcName$0 0000000140000000     game-object.obj
 0003:fffc2000       $unwind$??$_Maklocstr@_W@std@@YAPEA_WPEBDPEA_WAEBU_Cvtvec@@@Z 0000000140000000     game-object.obj
 0005:0000303c       $pdata$??0MenuWindow@@QEAA@PEAVEngine@@AEBV?$Vector2@M@sf@@1@Z 000000014005203c     menu-window.obj
 0005:fffb1000       $pdata$??0?$Vector2@M@sf@@QEAA@MM@Z 0000000140000000     game-object.obj
 0005:fffb1000       $pdata$?_Getspace@?$_Func_class@XPEAVButton@@@std@@AEBAPEBXXZ 0000000140000000     menu-window.obj
 0003:fffc2000       $unwind$?_Getspace@?$_Func_class@XPEAVButton@@@std@@AEBAPEBXXZ 0000000140000000     menu-window.obj
 0005:fffb1000       $pdata$?_Getspace@?$_Func_class@XPEAVButton@@@std@@AEAAPEAXXZ 0000000140000000     menu-window.obj
 0003:fffc2000       $unwind$?_Getspace@?$_Func_class@XPEAVButton@@@std@@AEAAPEAXXZ 0000000140000000     menu-window.obj
 0005:fffb1000       $pdata$?_Set@?$_Func_class@XPEAVButton@@@std@@AEAAXPEAV?$_Func_base@XPEAVButton@@@2@@Z 0000000140000000     menu-window.obj
 0003:fffc2000       $unwind$?_Set@?$_Func_class@XPEAVButton@@@std@@AEAAXPEAV?$_Func_base@XPEAVButton@@@2@@Z 0000000140000000     menu-window.obj
 0005:fffb1000       $pdata$?_Getimpl@?$_Func_class@XPEAVButton@@@std@@AEBAPEAV?$_Func_base@XPEAVButton@@@2@XZ 0000000140000000     menu-window.obj
 0003:fffc2000       $unwind$?_Getimpl@?$_Func_class@XPEAVButton@@@std@@AEBAPEAV?$_Func_base@XPEAVButton@@@2@XZ 0000000140000000     menu-window.obj
 0005:fffb1000       $pdata$?_Local@?$_Func_class@XPEAVButton@@@std@@AEBA_NXZ 0000000140000000     menu-window.obj
 0003:fffc2000       $unwind$?_Local@?$_Func_class@XPEAVButton@@@std@@AEBA_NXZ 0000000140000000     menu-window.obj
 0005:fffb1000       $pdata$?_Tidy@?$_Func_class@XPEAVButton@@@std@@IEAAXXZ 0000000140000000     menu-window.obj
 0003:fffc2000       $unwind$?_Tidy@?$_Func_class@XPEAVButton@@@std@@IEAAXXZ 0000000140000000     menu-window.obj
 0005:fffb1000       $pdata$?_Empty@?$_Func_class@XPEAVButton@@@std@@IEBA_NXZ 0000000140000000     menu-window.obj
 0003:fffc2000       $unwind$?_Empty@?$_Func_class@XPEAVButton@@@std@@IEBA_NXZ 0000000140000000     menu-window.obj
 0005:fffb1000       $pdata$??1?$_Func_class@XPEAVButton@@@std@@QEAA@XZ 0000000140000000     menu-window.obj
 0003:fffc2000       $unwind$??1?$_Func_class@XPEAVButton@@@std@@QEAA@XZ 0000000140000000     menu-window.obj
 0005:fffb1000       $pdata$??0?$_Func_class@XPEAVButton@@@std@@QEAA@XZ 0000000140000000     menu-window.obj
 0003:fffc2000       $unwind$??0?$_Func_class@XPEAVButton@@@std@@QEAA@XZ 0000000140000000     menu-window.obj
 0005:fffb1000       $pdata$??0?$Vector2@M@sf@@QEAA@MM@Z 0000000140000000     menu-window.obj
 0003:fffc2000       $unwind$??0?$Vector2@M@sf@@QEAA@MM@Z 0000000140000000     menu-window.obj
 0005:fffb1000       $pdata$??$_Getvals@_W@?$time_get@_WV?$istreambuf_iterator@_WU?$char_traits@_W@std@@@std@@@std@@IEAAX_WAEBV_Locinfo@1@@Z 0000000140000000     menu-window.obj
 0003:fffc2000       $unwind$??$_Getvals@_W@?$time_get@_WV?$istreambuf_iterator@_WU?$char_traits@_W@std@@@std@@@std@@IEAAX_WAEBV_Locinfo@1@@Z 0000000140000000     menu-window.obj
 0005:fffb1000       $pdata$??$_Getvals@_W@?$time_get@DV?$istreambuf_iterator@DU?$char_traits@D@std@@@std@@@std@@IEAAX_WAEBV_Locinfo@1@@Z 0000000140000000     menu-window.obj
 0003:fffc2000       $unwind$??$_Getvals@_W@?$time_get@DV?$istreambuf_iterator@DU?$char_traits@D@std@@@std@@@std@@IEAAX_WAEBV_Locinfo@1@@Z 0000000140000000     menu-window.obj
 0005:fffb1000       $pdata$?_Maklocwcs@std@@YAPEA_WPEB_W@Z 0000000140000000     menu-window.obj
 0003:fffc2000       $unwind$?_Maklocwcs@std@@YAPEA_WPEB_W@Z 0000000140000000     menu-window.obj
 0005:fffb1000       $pdata$??$_Maklocstr@_W@std@@YAPEA_WPEBDPEA_WAEBU_Cvtvec@@@Z 0000000140000000     menu-window.obj
 0003:fffc2000       $unwind$??$_Maklocstr@_W@std@@YAPEA_WPEBDPEA_WAEBU_Cvtvec@@@Z 0000000140000000     menu-window.obj
 0003:fffc2000       $unwind$??0?$Vector2@M@sf@@QEAA@MM@Z 0000000140000000     game-object.obj
 0005:fffb1000       $pdata$??0?$Vector2@M@sf@@QEAA@XZ 0000000140000000     game-object.obj
 0003:fffc2000       $unwind$??0?$Vector2@M@sf@@QEAA@XZ 0000000140000000     game-object.obj
 0005:fffb1000       $pdata$??$_Getvals@_W@?$time_get@_WV?$istreambuf_iterator@_WU?$char_traits@_W@std@@@std@@@std@@IEAAX_WAEBV_Locinfo@1@@Z 0000000140000000     game-object.obj
 0003:fffc2000       ??$_Maklocstr@_W@std@@YAPEA_WPEBDPEA_WAEBU_Cvtvec@@@Z$rtcName$0 0000000140000000     menu-window.obj
 0005:fffb1000       $pdata$?_Adjust_manually_vector_aligned@std@@YAXAEAPEAXAEA_K@Z 0000000140000000     menu-window.obj
 0003:fffc2000       $unwind$?_Adjust_manually_vector_aligned@std@@YAXAEAPEAXAEA_K@Z 0000000140000000     menu-window.obj
 0005:fffb1000       $pdata$??2@YAPEAX_KPEAX@Z  0000000140000000     menu-window.obj
 0003:fffc2000       $unwind$??2@YAPEAX_KPEAX@Z 0000000140000000     menu-window.obj
 0005:fffb1000       $pdata$wmemcpy             0000000140000000     menu-window.obj
 0003:fffc2000       $unwind$wmemcpy            0000000140000000     menu-window.obj
 0005:fffb1000       $pdata$?__empty_global_delete@@YAXPEAX_K@Z 0000000140000000     menu-window.obj
 0003:fffc2000       $unwind$?__empty_global_delete@@YAXPEAX_K@Z 0000000140000000     menu-window.obj
 0005:fffb1000       $pdata$?__empty_global_delete@@YAXPEAX@Z 0000000140000000     menu-window.obj
 0003:fffc2000       $unwind$?__empty_global_delete@@YAXPEAX@Z 0000000140000000     menu-window.obj
 0003:fffc2000       $unwind$??$_Getvals@_W@?$time_get@_WV?$istreambuf_iterator@_WU?$char_traits@_W@std@@@std@@@std@@IEAAX_WAEBV_Locinfo@1@@Z 0000000140000000     game-object.obj
 0005:fffb1000       $pdata$??$_Getvals@_W@?$time_get@DV?$istreambuf_iterator@DU?$char_traits@D@std@@@std@@@std@@IEAAX_WAEBV_Locinfo@1@@Z 0000000140000000     game-object.obj
 0000:fffa6000       .debug$S                   0000000140000000     vcruntimed:VCRUNTIME140D.dll
 0000:fffa6000       .debug$S                   0000000140000000     vcruntimed:VCRUNTIME140D.dll
 0000:fffa6000       .debug$S                   0000000140000000     vcruntimed:VCRUNTIME140D.dll
 0000:fffa6000       .debug$S                   0000000140000000     vcruntimed:VCRUNTIME140D.dll
 0000:fffa6000       .debug$S                   0000000140000000     vcruntimed:VCRUNTIME140D.dll
 0000:fffa6000       .debug$S                   0000000140000000     vcruntimed:VCRUNTIME140D.dll
 0000:fffa6000       .debug$S                   0000000140000000     vcruntimed:VCRUNTIME140D.dll
 0000:fffa6000       .debug$S                   0000000140000000     vcruntimed:VCRUNTIME140D.dll
 0000:fffa6000       .debug$S                   0000000140000000     vcruntimed:VCRUNTIME140D.dll
 0000:fffa6000       .debug$S                   0000000140000000     vcruntimed:VCRUNTIME140D.dll
 0000:fffa6000       .debug$S                   0000000140000000     vcruntimed:VCRUNTIME140D.dll
 0000:fffa6000       .debug$S                   0000000140000000     vcruntimed:VCRUNTIME140D.dll
 0000:fffa6000       .debug$S                   0000000140000000     vcruntimed:VCRUNTIME140D.dll
 0003:fffc2000       $unwind$??$_Getvals@_W@?$time_get@DV?$istreambuf_iterator@DU?$char_traits@D@std@@@std@@@std@@IEAAX_WAEBV_Locinfo@1@@Z 0000000140000000     game-object.obj
 0000:fffa6000       .debug$S                   0000000140000000     ucrtd:ucrtbased.dll
 0000:fffa6000       .debug$S                   0000000140000000     ucrtd:ucrtbased.dll
 0000:fffa6000       .debug$S                   0000000140000000     ucrtd:ucrtbased.dll
 0000:fffa6000       .debug$S                   0000000140000000     ucrtd:ucrtbased.dll
 0000:fffa6000       .debug$S                   0000000140000000     ucrtd:ucrtbased.dll
 0000:fffa6000       .debug$S                   0000000140000000     ucrtd:ucrtbased.dll
 0000:fffa6000       .debug$S                   0000000140000000     ucrtd:ucrtbased.dll
 0000:fffa6000       .debug$S                   0000000140000000     ucrtd:ucrtbased.dll
 0000:fffa6000       .debug$S                   0000000140000000     ucrtd:ucrtbased.dll
 0000:fffa6000       .debug$S                   0000000140000000     ucrtd:ucrtbased.dll
 0000:fffa6000       .debug$S                   0000000140000000     ucrtd:ucrtbased.dll
 0000:fffa6000       .debug$S                   0000000140000000     ucrtd:ucrtbased.dll
 0000:fffa6000       .debug$S                   0000000140000000     ucrtd:ucrtbased.dll
 0000:fffa6000       .debug$S                   0000000140000000     ucrtd:ucrtbased.dll
 0000:fffa6000       .debug$S                   0000000140000000     ucrtd:ucrtbased.dll
 0000:fffa6000       .debug$S                   0000000140000000     ucrtd:ucrtbased.dll
 0000:fffa6000       .debug$S                   0000000140000000     ucrtd:ucrtbased.dll
 0000:fffa6000       .debug$S                   0000000140000000     ucrtd:ucrtbased.dll
 0000:fffa6000       .debug$S                   0000000140000000     ucrtd:ucrtbased.dll
 0000:fffa6000       .debug$S                   0000000140000000     ucrtd:ucrtbased.dll
 0000:fffa6000       .debug$S                   0000000140000000     ucrtd:ucrtbased.dll
 0000:fffa6000       .debug$S                   0000000140000000     ucrtd:ucrtbased.dll
 0000:fffa6000       .debug$S                   0000000140000000     ucrtd:ucrtbased.dll
 0000:fffa6000       .debug$S                   0000000140000000     ucrtd:ucrtbased.dll
 0000:fffa6000       .debug$S                   0000000140000000     ucrtd:ucrtbased.dll
 0000:fffa6000       .debug$S                   0000000140000000     ucrtd:ucrtbased.dll
 0000:fffa6000       .debug$S                   0000000140000000     ucrtd:ucrtbased.dll
 0000:fffa6000       .debug$S                   0000000140000000     ucrtd:ucrtbased.dll
 0000:fffa6000       .debug$S                   0000000140000000     ucrtd:ucrtbased.dll
 0000:fffa6000       .debug$S                   0000000140000000     ucrtd:ucrtbased.dll
 0000:fffa6000       .debug$S                   0000000140000000     ucrtd:ucrtbased.dll
 0000:fffa6000       .debug$S                   0000000140000000     ucrtd:ucrtbased.dll
 0000:fffa6000       .debug$S                   0000000140000000     ucrtd:ucrtbased.dll
 0000:fffa6000       .debug$S                   0000000140000000     ucrtd:ucrtbased.dll
 0000:fffa6000       .debug$S                   0000000140000000     ucrtd:ucrtbased.dll
 0000:fffa6000       .debug$S                   0000000140000000     ucrtd:ucrtbased.dll
 0000:fffa6000       .debug$S                   0000000140000000     ucrtd:ucrtbased.dll
 0000:fffa6000       .debug$S                   0000000140000000     ucrtd:ucrtbased.dll
 0000:fffa6000       .debug$S                   0000000140000000     ucrtd:ucrtbased.dll
 0000:fffa6000       .debug$S                   0000000140000000     ucrtd:ucrtbased.dll
 0000:fffa6000       .debug$S                   0000000140000000     ucrtd:ucrtbased.dll
 0000:fffa6000       .debug$S                   0000000140000000     ucrtd:ucrtbased.dll
 0000:fffa6000       .debug$S                   0000000140000000     ucrtd:ucrtbased.dll
 0000:fffa6000       .debug$S                   0000000140000000     ucrtd:ucrtbased.dll
 0000:fffa6000       .debug$S                   0000000140000000     ucrtd:ucrtbased.dll
 0000:fffa6000       .debug$S                   0000000140000000     ucrtd:ucrtbased.dll
 0000:fffa6000       .debug$S                   0000000140000000     ucrtd:ucrtbased.dll
 0000:fffa6000       .debug$S                   0000000140000000     ucrtd:ucrtbased.dll
 0000:fffa6000       .debug$S                   0000000140000000     ucrtd:ucrtbased.dll
 0005:fffb1000       $pdata$?_Maklocwcs@std@@YAPEA_WPEB_W@Z 0000000140000000     game-object.obj
 0000:fffa6000       .debug$S                   0000000140000000     kernel32:KERNEL32.dll
 0000:fffa6000       .debug$S                   0000000140000000     kernel32:KERNEL32.dll
 0000:fffa6000       .debug$S                   0000000140000000     kernel32:KERNEL32.dll
 0000:fffa6000       .debug$S                   0000000140000000     kernel32:KERNEL32.dll
 0000:fffa6000       .debug$S                   0000000140000000     kernel32:KERNEL32.dll
 0000:fffa6000       .debug$S                   0000000140000000     kernel32:KERNEL32.dll
 0000:fffa6000       .debug$S                   0000000140000000     kernel32:KERNEL32.dll
 0000:fffa6000       .debug$S                   0000000140000000     kernel32:KERNEL32.dll
 0000:fffa6000       .debug$S                   0000000140000000     kernel32:KERNEL32.dll
 0000:fffa6000       .debug$S                   0000000140000000     kernel32:KERNEL32.dll
 0000:fffa6000       .debug$S                   0000000140000000     kernel32:KERNEL32.dll
 0000:fffa6000       .debug$S                   0000000140000000     kernel32:KERNEL32.dll
 0000:fffa6000       .debug$S                   0000000140000000     kernel32:KERNEL32.dll
 0005:fffb1000       $pdata$?_Get_second@?$_Compressed_pair@V?$allocator@U?$_Tree_node@U?$pair@$$CBW4Object_Type@@PEBVGameObject@@@std@@PEAX@std@@@std@@V?$_Tree_val@U?$_Tree_simple_types@U?$pair@$$CBW4Object_Type@@PEBVGameObject@@@std@@@std@@@2@$00@std@@QEBAAEBV?$_Tree_val@U?$_Tree_simple_types@U?$pair@$$CBW4Object_Type@@PEBVGameObject@@@std@@@std@@@2@XZ 0000000140000000     engine.obj
 0003:fffc2000       $unwind$?__empty_global_delete@@YAXPEAX@Z 0000000140000000     player.obj
 0005:fffb1000       $pdata$??$_Getvals@_W@?$time_get@_WV?$istreambuf_iterator@_WU?$char_traits@_W@std@@@std@@@std@@IEAAX_WAEBV_Locinfo@1@@Z 0000000140000000     window-editor.obj
 0003:fffc2000       $unwind$??0?$Vector2@M@sf@@QEAA@MM@Z 0000000140000000     window-editor.obj
 0005:fffb1000       $pdata$??0?$Vector2@M@sf@@QEAA@MM@Z 0000000140000000     window-editor.obj
 0003:fffc2000       $unwind$??$_Min_value@_K@std@@YAAEB_KAEB_K0@Z 0000000140000000     config.obj
 0005:fffb1000       $pdata$?__empty_global_delete@@YAXPEAX_K@Z 0000000140000000     container-moving.obj
 0003:fffc2000       $unwind$wmemcpy            0000000140000000     container-moving.obj
 0005:fffb1000       $pdata$wmemcpy             0000000140000000     container-moving.obj
 0003:fffc2000       ??$_Maklocstr@_W@std@@YAPEA_WPEBDPEA_WAEBU_Cvtvec@@@Z$rtcName$0 0000000140000000     container-moving.obj
 0003:fffc2000       $unwind$??$_Maklocstr@_W@std@@YAPEA_WPEBDPEA_WAEBU_Cvtvec@@@Z 0000000140000000     container-moving.obj
 0005:fffb1000       $pdata$??$_Maklocstr@_W@std@@YAPEA_WPEBDPEA_WAEBU_Cvtvec@@@Z 0000000140000000     container-moving.obj
 0003:fffc2000       $unwind$?_Maklocwcs@std@@YAPEA_WPEB_W@Z 0000000140000000     container-moving.obj
 0005:fffb1000       $pdata$?_Maklocwcs@std@@YAPEA_WPEB_W@Z 0000000140000000     container-moving.obj
 0003:fffc2000       $unwind$??$_Getvals@_W@?$time_get@DV?$istreambuf_iterator@DU?$char_traits@D@std@@@std@@@std@@IEAAX_WAEBV_Locinfo@1@@Z 0000000140000000     container-moving.obj
 0005:fffb1000       $pdata$??$_Getvals@_W@?$time_get@DV?$istreambuf_iterator@DU?$char_traits@D@std@@@std@@@std@@IEAAX_WAEBV_Locinfo@1@@Z 0000000140000000     container-moving.obj
 0003:fffc2000       $unwind$??$_Getvals@_W@?$time_get@_WV?$istreambuf_iterator@_WU?$char_traits@_W@std@@@std@@@std@@IEAAX_WAEBV_Locinfo@1@@Z 0000000140000000     container-moving.obj
 0005:fffb1000       $pdata$??$_Getvals@_W@?$time_get@_WV?$istreambuf_iterator@_WU?$char_traits@_W@std@@@std@@@std@@IEAAX_WAEBV_Locinfo@1@@Z 0000000140000000     container-moving.obj
 0003:fffc2000       $unwind$??0?$Vector2@M@sf@@QEAA@MM@Z 0000000140000000     container-moving.obj
 0005:fffb1000       $pdata$??0?$Vector2@M@sf@@QEAA@MM@Z 0000000140000000     container-moving.obj
 0003:fffc2000       $unwind$??$_Maklocstr@D@std@@YAPEADPEBDPEADAEBU_Cvtvec@@@Z 0000000140000000     container-moving.obj
 0005:fffb1000       $pdata$??$_Maklocstr@D@std@@YAPEADPEBDPEADAEBU_Cvtvec@@@Z 0000000140000000     container-moving.obj
 0003:fffc2000       $unwind$??$_Maklocstr@D@std@@YAPEADPEBDPEADAEBU_Cvtvec@@@Z 0000000140000000     window-editor.obj
 0005:fffb1000       $pdata$??$_Maklocstr@D@std@@YAPEADPEBDPEADAEBU_Cvtvec@@@Z 0000000140000000     window-editor.obj
 0002:fffed000       ?dtor$0@?0???0?$_String_alloc@U?$_String_base_types@DV?$allocator@D@std@@@std@@@std@@QEAA@XZ@4HA 0000000140000000 f   game-object.obj
 0005:fffb1000       $pdata$??$_Getvals@_W@?$time_get@_WV?$istreambuf_iterator@_WU?$char_traits@_W@std@@@std@@@std@@IEAAX_WAEBV_Locinfo@1@@Z 0000000140000000     config.obj
 0000:fffa6000       .debug$S                   0000000140000000     sfml-graphics-d:sfml-graphics-d-2.dll
 0000:fffa6000       .debug$S                   0000000140000000     sfml-graphics-d:sfml-graphics-d-2.dll
 0000:fffa6000       .debug$S                   0000000140000000     sfml-graphics-d:sfml-graphics-d-2.dll
 0000:fffa6000       .debug$S                   0000000140000000     sfml-graphics-d:sfml-graphics-d-2.dll
 0000:fffa6000       .debug$S                   0000000140000000     sfml-graphics-d:sfml-graphics-d-2.dll
 0000:fffa6000       .debug$S                   0000000140000000     sfml-graphics-d:sfml-graphics-d-2.dll
 0000:fffa6000       .debug$S                   0000000140000000     sfml-graphics-d:sfml-graphics-d-2.dll
 0000:fffa6000       .debug$S                   0000000140000000     sfml-graphics-d:sfml-graphics-d-2.dll
 0000:fffa6000       .debug$S                   0000000140000000     sfml-graphics-d:sfml-graphics-d-2.dll
 0000:fffa6000       .debug$S                   0000000140000000     sfml-graphics-d:sfml-graphics-d-2.dll
 0000:fffa6000       .debug$S                   0000000140000000     sfml-graphics-d:sfml-graphics-d-2.dll
 0000:fffa6000       .debug$S                   0000000140000000     sfml-graphics-d:sfml-graphics-d-2.dll
 0000:fffa6000       .debug$S                   0000000140000000     sfml-graphics-d:sfml-graphics-d-2.dll
 0000:fffa6000       .debug$S                   0000000140000000     sfml-graphics-d:sfml-graphics-d-2.dll
 0000:fffa6000       .debug$S                   0000000140000000     sfml-graphics-d:sfml-graphics-d-2.dll
 0000:fffa6000       .debug$S                   0000000140000000     sfml-graphics-d:sfml-graphics-d-2.dll
 0000:fffa6000       .debug$S                   0000000140000000     sfml-graphics-d:sfml-graphics-d-2.dll
 0000:fffa6000       .debug$S                   0000000140000000     sfml-graphics-d:sfml-graphics-d-2.dll
 0000:fffa6000       .debug$S                   0000000140000000     sfml-graphics-d:sfml-graphics-d-2.dll
 0000:fffa6000       .debug$S                   0000000140000000     sfml-graphics-d:sfml-graphics-d-2.dll
 0000:fffa6000       .debug$S                   0000000140000000     sfml-graphics-d:sfml-graphics-d-2.dll
 0000:fffa6000       .debug$S                   0000000140000000     sfml-graphics-d:sfml-graphics-d-2.dll
 0000:fffa6000       .debug$S                   0000000140000000     sfml-graphics-d:sfml-graphics-d-2.dll
 0000:fffa6000       .debug$S                   0000000140000000     sfml-graphics-d:sfml-graphics-d-2.dll
 0000:fffa6000       .debug$S                   0000000140000000     sfml-graphics-d:sfml-graphics-d-2.dll
 0000:fffa6000       .debug$S                   0000000140000000     sfml-graphics-d:sfml-graphics-d-2.dll
 0000:fffa6000       .debug$S                   0000000140000000     sfml-graphics-d:sfml-graphics-d-2.dll
 0000:fffa6000       .debug$S                   0000000140000000     sfml-graphics-d:sfml-graphics-d-2.dll
 0000:fffa6000       .debug$S                   0000000140000000     sfml-graphics-d:sfml-graphics-d-2.dll
 0000:fffa6000       .debug$S                   0000000140000000     sfml-graphics-d:sfml-graphics-d-2.dll
 0000:fffa6000       .debug$S                   0000000140000000     sfml-graphics-d:sfml-graphics-d-2.dll
 0000:fffa6000       .debug$S                   0000000140000000     sfml-graphics-d:sfml-graphics-d-2.dll
 0000:fffa6000       .debug$S                   0000000140000000     sfml-graphics-d:sfml-graphics-d-2.dll
 0000:fffa6000       .debug$S                   0000000140000000     sfml-graphics-d:sfml-graphics-d-2.dll
 0000:fffa6000       .debug$S                   0000000140000000     sfml-graphics-d:sfml-graphics-d-2.dll
 0000:fffa6000       .debug$S                   0000000140000000     sfml-graphics-d:sfml-graphics-d-2.dll
 0000:fffa6000       .debug$S                   0000000140000000     sfml-graphics-d:sfml-graphics-d-2.dll
 0000:fffa6000       .debug$S                   0000000140000000     sfml-graphics-d:sfml-graphics-d-2.dll
 0000:fffa6000       .debug$S                   0000000140000000     sfml-graphics-d:sfml-graphics-d-2.dll
 0003:fffc2000       $unwind$??$_Getvals@_W@?$time_get@_WV?$istreambuf_iterator@_WU?$char_traits@_W@std@@@std@@@std@@IEAAX_WAEBV_Locinfo@1@@Z 0000000140000000     config.obj
 0000:fffa6000       .debug$S                   0000000140000000     sfml-window-d:sfml-window-d-2.dll
 0000:fffa6000       .debug$S                   0000000140000000     sfml-window-d:sfml-window-d-2.dll
 0000:fffa6000       .debug$S                   0000000140000000     sfml-window-d:sfml-window-d-2.dll
 0000:fffa6000       .debug$S                   0000000140000000     sfml-window-d:sfml-window-d-2.dll
 0000:fffa6000       .debug$S                   0000000140000000     sfml-window-d:sfml-window-d-2.dll
 0005:fffb1000       $pdata$??$_Getvals@_W@?$time_get@DV?$istreambuf_iterator@DU?$char_traits@D@std@@@std@@@std@@IEAAX_WAEBV_Locinfo@1@@Z 0000000140000000     config.obj
 0000:fffa6000       .debug$S                   0000000140000000     sfml-system-d:sfml-system-d-2.dll
 0000:fffa6000       .debug$S                   0000000140000000     sfml-system-d:sfml-system-d-2.dll
 0000:fffa6000       .debug$S                   0000000140000000     sfml-system-d:sfml-system-d-2.dll
 0000:fffa6000       .debug$S                   0000000140000000     sfml-system-d:sfml-system-d-2.dll
 0000:fffa6000       .debug$S                   0000000140000000     sfml-system-d:sfml-system-d-2.dll
 0000:fffa6000       .debug$S                   0000000140000000     sfml-system-d:sfml-system-d-2.dll
 0000:fffa6000       .debug$S                   0000000140000000     sfml-system-d:sfml-system-d-2.dll
 0000:fffa6000       .debug$S                   0000000140000000     sfml-system-d:sfml-system-d-2.dll
 0003:fffc2000       $unwind$??$_Getvals@_W@?$time_get@DV?$istreambuf_iterator@DU?$char_traits@D@std@@@std@@@std@@IEAAX_WAEBV_Locinfo@1@@Z 0000000140000000     config.obj
 0000:fffa6000       .debug$S                   0000000140000000     msvcprtd:MSVCP140D.dll
 0000:fffa6000       .debug$S                   0000000140000000     msvcprtd:MSVCP140D.dll
 0000:fffa6000       .debug$S                   0000000140000000     msvcprtd:MSVCP140D.dll
 0000:fffa6000       .debug$S                   0000000140000000     msvcprtd:MSVCP140D.dll
 0000:fffa6000       .debug$S                   0000000140000000     msvcprtd:MSVCP140D.dll
 0000:fffa6000       .debug$S                   0000000140000000     msvcprtd:MSVCP140D.dll
 0000:fffa6000       .debug$S                   0000000140000000     msvcprtd:MSVCP140D.dll
 0000:fffa6000       .debug$S                   0000000140000000     msvcprtd:MSVCP140D.dll
 0000:fffa6000       .debug$S                   0000000140000000     msvcprtd:MSVCP140D.dll
 0000:fffa6000       .debug$S                   0000000140000000     msvcprtd:MSVCP140D.dll
 0000:fffa6000       .debug$S                   0000000140000000     msvcprtd:MSVCP140D.dll
 0000:fffa6000       .debug$S                   0000000140000000     msvcprtd:MSVCP140D.dll
 0000:fffa6000       .debug$S                   0000000140000000     msvcprtd:MSVCP140D.dll
 0000:fffa6000       .debug$S                   0000000140000000     msvcprtd:MSVCP140D.dll
 0000:fffa6000       .debug$S                   0000000140000000     msvcprtd:MSVCP140D.dll
 0003:fffc2000       $unwind$?__empty_global_delete@@YAXPEAX@Z 0000000140000000     game-object.obj
 0005:fffb1000       $pdata$?__empty_global_delete@@YAXPEAX@Z 0000000140000000     game-object.obj
 0003:fffc2000       $unwind$?__empty_global_delete@@YAXPEAX_K@Z 0000000140000000     game-object.obj
 0005:fffb1000       $pdata$?__empty_global_delete@@YAXPEAX_K@Z 0000000140000000     game-object.obj
 0003:fffc2000       $unwind$??2@YAPEAX_KPEAX@Z 0000000140000000     game-object.obj
 0005:fffb1000       $pdata$??2@YAPEAX_KPEAX@Z  0000000140000000     game-object.obj
 0005:fffb1000       $pdata$?_Maklocwcs@std@@YAPEA_WPEB_W@Z 0000000140000000     config.obj
 0003:fffc2000       $unwind$?_Maklocwcs@std@@YAPEA_WPEB_W@Z 0000000140000000     config.obj
 0003:fffc2000       $unwind$__local_stdio_printf_options 0000000140000000     game-object.obj
 0005:fffb1000       $pdata$??$_Maklocstr@_W@std@@YAPEA_WPEBDPEA_WAEBU_Cvtvec@@@Z 0000000140000000     config.obj
 0003:fffc2000       $unwind$??$_Maklocstr@_W@std@@YAPEA_WPEBDPEA_WAEBU_Cvtvec@@@Z 0000000140000000     config.obj
 0003:fffc2000       ??$_Maklocstr@_W@std@@YAPEA_WPEBDPEA_WAEBU_Cvtvec@@@Z$rtcName$0 0000000140000000     config.obj
 0005:fffb1000       $pdata$?_Xlen@?$basic_string@DU?$char_traits@D@std@@V?$allocator@D@2@@std@@SAXXZ 0000000140000000     config.obj
 0003:fffc2000       $unwind$?_Xlen@?$basic_string@DU?$char_traits@D@std@@V?$allocator@D@2@@std@@SAXXZ 0000000140000000     config.obj
 0005:fffb1000       $pdata$?_Tidy_deallocate@?$basic_string@DU?$char_traits@D@std@@V?$allocator@D@2@@std@@QEAAXXZ 0000000140000000     config.obj
 0003:fffc2000       $unwind$?_Tidy_deallocate@?$basic_string@DU?$char_traits@D@std@@V?$allocator@D@2@@std@@QEAAXXZ 0000000140000000     config.obj
 0005:fffb1000       $pdata$?_Tidy_init@?$basic_string@DU?$char_traits@D@std@@V?$allocator@D@2@@std@@QEAAXXZ 0000000140000000     config.obj
 0003:fffc2000       $unwind$?_Tidy_init@?$basic_string@DU?$char_traits@D@std@@V?$allocator@D@2@@std@@QEAAXXZ 0000000140000000     config.obj
 0005:fffb1000       $pdata$?_Calculate_growth@?$basic_string@DU?$char_traits@D@std@@V?$allocator@D@2@@std@@QEBA_K_K@Z 0000000140000000     config.obj
 0003:fffc2000       $unwind$?_Calculate_growth@?$basic_string@DU?$char_traits@D@std@@V?$allocator@D@2@@std@@QEBA_K_K@Z 0000000140000000     config.obj
 0003:fffc2000       ?_Calculate_growth@?$basic_string@DU?$char_traits@D@std@@V?$allocator@D@2@@std@@QEBA_K_K@Z$rtcName$0 0000000140000000     config.obj
 0005:fffb1000       $pdata$?max_size@?$basic_string@DU?$char_traits@D@std@@V?$allocator@D@2@@std@@QEBA_KXZ 0000000140000000     config.obj
 0003:fffc2000       $unwind$?max_size@?$basic_string@DU?$char_traits@D@std@@V?$allocator@D@2@@std@@QEBA_KXZ 0000000140000000     config.obj
 0003:fffc2000       ?max_size@?$basic_string@DU?$char_traits@D@std@@V?$allocator@D@2@@std@@QEBA_KXZ$rtcName$0 0000000140000000     config.obj
 0005:fffb1000       $pdata$?assign@?$basic_string@DU?$char_traits@D@std@@V?$allocator@D@2@@std@@QEAAAEAV12@QEBD@Z 0000000140000000     config.obj
 0003:fffc2000       $unwind$?assign@?$basic_string@DU?$char_traits@D@std@@V?$allocator@D@2@@std@@QEAAAEAV12@QEBD@Z 0000000140000000     config.obj
 0005:fffb1000       $pdata$?assign@?$basic_string@DU?$char_traits@D@std@@V?$allocator@D@2@@std@@QEAAAEAV12@QEBD_K@Z 0000000140000000     config.obj
 0003:fffc2000       $unwind$?assign@?$basic_string@DU?$char_traits@D@std@@V?$allocator@D@2@@std@@QEAAAEAV12@QEBD_K@Z 0000000140000000     config.obj
 0003:fffc2000       $ip2state$??1?$basic_string@DU?$char_traits@D@std@@V?$allocator@D@2@@std@@QEAA@XZ 0000000140000000     config.obj
 0003:fffc2000       $cppxdata$??1?$basic_string@DU?$char_traits@D@std@@V?$allocator@D@2@@std@@QEAA@XZ 0000000140000000     config.obj
 0005:fffb1000       $pdata$??1?$basic_string@DU?$char_traits@D@std@@V?$allocator@D@2@@std@@QEAA@XZ 0000000140000000     config.obj
 0003:fffc2000       $unwind$??1?$basic_string@DU?$char_traits@D@std@@V?$allocator@D@2@@std@@QEAA@XZ 0000000140000000     config.obj
 0005:fffb1000       $pdata$?dtor$0@?0???0?$basic_string@DU?$char_traits@D@std@@V?$allocator@D@2@@std@@QEAA@QEBD@Z@4HA 0000000140000000     config.obj
 0003:fffc2000       $unwind$?dtor$0@?0???0?$basic_string@DU?$char_traits@D@std@@V?$allocator@D@2@@std@@QEAA@QEBD@Z@4HA 0000000140000000     config.obj
 0003:fffc2000       $ip2state$??0?$basic_string@DU?$char_traits@D@std@@V?$allocator@D@2@@std@@QEAA@QEBD@Z 0000000140000000     config.obj
 0003:fffc2000       $stateUnwindMap$??0?$basic_string@DU?$char_traits@D@std@@V?$allocator@D@2@@std@@QEAA@QEBD@Z 0000000140000000     config.obj
 0003:fffc2000       $cppxdata$??0?$basic_string@DU?$char_traits@D@std@@V?$allocator@D@2@@std@@QEAA@QEBD@Z 0000000140000000     config.obj
 0005:fffb1000       $pdata$??0?$basic_string@DU?$char_traits@D@std@@V?$allocator@D@2@@std@@QEAA@QEBD@Z 0000000140000000     config.obj
 0003:fffc2000       $unwind$??0?$basic_string@DU?$char_traits@D@std@@V?$allocator@D@2@@std@@QEAA@QEBD@Z 0000000140000000     config.obj
 0005:fffb1000       $pdata$??1?$_Compressed_pair@V?$allocator@D@std@@V?$_String_val@U?$_Simple_types@D@std@@@2@$00@std@@QEAA@XZ 0000000140000000     config.obj
 0003:fffc2000       $unwind$??1?$_Compressed_pair@V?$allocator@D@std@@V?$_String_val@U?$_Simple_types@D@std@@@2@$00@std@@QEAA@XZ 0000000140000000     config.obj
 0005:fffb1000       $pdata$?_Get_second@?$_Compressed_pair@V?$allocator@D@std@@V?$_String_val@U?$_Simple_types@D@std@@@2@$00@std@@QEBAAEBV?$_String_val@U?$_Simple_types@D@std@@@2@XZ 0000000140000000     config.obj
 0003:fffc2000       $unwind$?_Get_second@?$_Compressed_pair@V?$allocator@D@std@@V?$_String_val@U?$_Simple_types@D@std@@@2@$00@std@@QEBAAEBV?$_String_val@U?$_Simple_types@D@std@@@2@XZ 0000000140000000     config.obj
 0005:fffb1000       $pdata$?_Get_second@?$_Compressed_pair@V?$allocator@D@std@@V?$_String_val@U?$_Simple_types@D@std@@@2@$00@std@@QEAAAEAV?$_String_val@U?$_Simple_types@D@std@@@2@XZ 0000000140000000     config.obj
 0003:fffc2000       $unwind$?_Get_second@?$_Compressed_pair@V?$allocator@D@std@@V?$_String_val@U?$_Simple_types@D@std@@@2@$00@std@@QEAAAEAV?$_String_val@U?$_Simple_types@D@std@@@2@XZ 0000000140000000     config.obj
 0005:fffb1000       $pdata$?_Get_first@?$_Compressed_pair@V?$allocator@D@std@@V?$_String_val@U?$_Simple_types@D@std@@@2@$00@std@@QEBAAEBV?$allocator@D@2@XZ 0000000140000000     config.obj
 0003:fffc2000       $unwind$?_Get_first@?$_Compressed_pair@V?$allocator@D@std@@V?$_String_val@U?$_Simple_types@D@std@@@2@$00@std@@QEBAAEBV?$allocator@D@2@XZ 0000000140000000     config.obj
 0005:fffb1000       $pdata$?_Get_first@?$_Compressed_pair@V?$allocator@D@std@@V?$_String_val@U?$_Simple_types@D@std@@@2@$00@std@@QEAAAEAV?$allocator@D@2@XZ 0000000140000000     config.obj
 0003:fffc2000       $unwind$?_Get_first@?$_Compressed_pair@V?$allocator@D@std@@V?$_String_val@U?$_Simple_types@D@std@@@2@$00@std@@QEAAAEAV?$allocator@D@2@XZ 0000000140000000     config.obj
 0005:fffb1000       $pdata$?_Get_data@?$_String_alloc@U?$_String_base_types@DV?$allocator@D@std@@@std@@@std@@QEBAAEBV?$_String_val@U?$_Simple_types@D@std@@@2@XZ 0000000140000000     config.obj
 0003:fffc2000       $unwind$?_Get_data@?$_String_alloc@U?$_String_base_types@DV?$allocator@D@std@@@std@@@std@@QEBAAEBV?$_String_val@U?$_Simple_types@D@std@@@2@XZ 0000000140000000     config.obj
 0005:fffb1000       $pdata$?_Get_data@?$_String_alloc@U?$_String_base_types@DV?$allocator@D@std@@@std@@@std@@QEAAAEAV?$_String_val@U?$_Simple_types@D@std@@@2@XZ 0000000140000000     config.obj
 0003:fffc2000       $unwind$?_Get_data@?$_String_alloc@U?$_String_base_types@DV?$allocator@D@std@@@std@@@std@@QEAAAEAV?$_String_val@U?$_Simple_types@D@std@@@2@XZ 0000000140000000     config.obj
 0005:fffb1000       $pdata$?_Getal@?$_String_alloc@U?$_String_base_types@DV?$allocator@D@std@@@std@@@std@@QEBAAEBV?$allocator@D@2@XZ 0000000140000000     config.obj
 0003:fffc2000       $unwind$?_Getal@?$_String_alloc@U?$_String_base_types@DV?$allocator@D@std@@@std@@@std@@QEBAAEBV?$allocator@D@2@XZ 0000000140000000     config.obj
 0005:fffb1000       $pdata$?_Getal@?$_String_alloc@U?$_String_base_types@DV?$allocator@D@std@@@std@@@std@@QEAAAEAV?$allocator@D@2@XZ 0000000140000000     config.obj
 0003:fffc2000       $unwind$?_Getal@?$_String_alloc@U?$_String_base_types@DV?$allocator@D@std@@@std@@@std@@QEAAAEAV?$allocator@D@2@XZ 0000000140000000     config.obj
 0005:fffb1000       $pdata$?_Orphan_all@?$_String_alloc@U?$_String_base_types@DV?$allocator@D@std@@@std@@@std@@QEAAXXZ 0000000140000000     config.obj
 0003:fffc2000       $unwind$?_Orphan_all@?$_String_alloc@U?$_String_base_types@DV?$allocator@D@std@@@std@@@std@@QEAAXXZ 0000000140000000     config.obj
 0005:fffb1000       $pdata$?_Myproxy@?$_String_alloc@U?$_String_base_types@DV?$allocator@D@std@@@std@@@std@@QEAAAEAPEAU_Container_proxy@2@XZ 0000000140000000     config.obj
 0003:fffc2000       $unwind$?_Myproxy@?$_String_alloc@U?$_String_base_types@DV?$allocator@D@std@@@std@@@std@@QEAAAEAPEAU_Container_proxy@2@XZ 0000000140000000     config.obj
 0005:fffb1000       $pdata$?_Free_proxy@?$_String_alloc@U?$_String_base_types@DV?$allocator@D@std@@@std@@@std@@QEAAXXZ 0000000140000000     config.obj
 0003:fffc2000       $unwind$?_Free_proxy@?$_String_alloc@U?$_String_base_types@DV?$allocator@D@std@@@std@@@std@@QEAAXXZ 0000000140000000     config.obj
 0003:fffc2000       ?_Free_proxy@?$_String_alloc@U?$_String_base_types@DV?$allocator@D@std@@@std@@@std@@QEAAXXZ$rtcName$0 0000000140000000     config.obj
 0005:fffb1000       $pdata$?_Alloc_proxy@?$_String_alloc@U?$_String_base_types@DV?$allocator@D@std@@@std@@@std@@QEAAXXZ 0000000140000000     config.obj
 0003:fffc2000       $unwind$?_Alloc_proxy@?$_String_alloc@U?$_String_base_types@DV?$allocator@D@std@@@std@@@std@@QEAAXXZ 0000000140000000     config.obj
 0000:fffa9000       __guard_fids__CRT_RTC_INIT 0000000140000000     MSVCRTD:_init_.obj
 0000:fffa9000       __guard_fids__CRT_RTC_INITW 0000000140000000     MSVCRTD:_init_.obj
 0003:fffc2000       ?_Alloc_proxy@?$_String_alloc@U?$_String_base_types@DV?$allocator@D@std@@@std@@@std@@QEAAXXZ$rtcName$0 0000000140000000     config.obj
 0003:fffc2000       $ip2state$??1?$_String_alloc@U?$_String_base_types@DV?$allocator@D@std@@@std@@@std@@QEAA@XZ 0000000140000000     config.obj
 0003:fffc2000       $cppxdata$??1?$_String_alloc@U?$_String_base_types@DV?$allocator@D@std@@@std@@@std@@QEAA@XZ 0000000140000000     config.obj
 0005:fffb1000       $pdata$??1?$_String_alloc@U?$_String_base_types@DV?$allocator@D@std@@@std@@@std@@QEAA@XZ 0000000140000000     config.obj
 0003:fffc2000       $unwind$??1?$_String_alloc@U?$_String_base_types@DV?$allocator@D@std@@@std@@@std@@QEAA@XZ 0000000140000000     config.obj
 0005:fffb1000       $pdata$?dtor$0@?0???0?$_String_alloc@U?$_String_base_types@DV?$allocator@D@std@@@std@@@std@@QEAA@XZ@4HA 0000000140000000     config.obj
 0003:fffc2000       $unwind$?dtor$0@?0???0?$_String_alloc@U?$_String_base_types@DV?$allocator@D@std@@@std@@@std@@QEAA@XZ@4HA 0000000140000000     config.obj
 0003:fffc2000       $ip2state$??0?$_String_alloc@U?$_String_base_types@DV?$allocator@D@std@@@std@@@std@@QEAA@XZ 0000000140000000     config.obj
 0003:fffc2000       $stateUnwindMap$??0?$_String_alloc@U?$_String_base_types@DV?$allocator@D@std@@@std@@@std@@QEAA@XZ 0000000140000000     config.obj
 0003:fffc2000       $cppxdata$??0?$_String_alloc@U?$_String_base_types@DV?$allocator@D@std@@@std@@@std@@QEAA@XZ 0000000140000000     config.obj
 0005:fffb1000       $pdata$??0?$_String_alloc@U?$_String_base_types@DV?$allocator@D@std@@@std@@@std@@QEAA@XZ 0000000140000000     config.obj
 0003:fffc2000       $unwind$??0?$_String_alloc@U?$_String_base_types@DV?$allocator@D@std@@@std@@@std@@QEAA@XZ 0000000140000000     config.obj
 0005:fffb1000       $pdata$??1?$_String_val@U?$_Simple_types@D@std@@@std@@QEAA@XZ 0000000140000000     config.obj
 0003:fffc2000       $unwind$??1?$_String_val@U?$_Simple_types@D@std@@@std@@QEAA@XZ 0000000140000000     config.obj
 0000:fffa9000       __guard_fids__             0000000140000000     MSVCRTD:std_type_info_static.obj
 0005:fffb1000       $pdata$??1_Bxty@?$_String_val@U?$_Simple_types@D@std@@@std@@QEAA@XZ 0000000140000000     config.obj
 0003:fffc2000       $unwind$??1_Bxty@?$_String_val@U?$_Simple_types@D@std@@@std@@QEAA@XZ 0000000140000000     config.obj
 0005:fffb1000       $pdata$??0_Bxty@?$_String_val@U?$_Simple_types@D@std@@@std@@QEAA@XZ 0000000140000000     config.obj
 0003:fffc2000       $unwind$??0_Bxty@?$_String_val@U?$_Simple_types@D@std@@@std@@QEAA@XZ 0000000140000000     config.obj
 0005:fffb1000       $pdata$?_Large_string_engaged@?$_String_val@U?$_Simple_types@D@std@@@std@@QEBA_NXZ 0000000140000000     config.obj
 0003:fffc2000       $unwind$?_Large_string_engaged@?$_String_val@U?$_Simple_types@D@std@@@std@@QEBA_NXZ 0000000140000000     config.obj
 0005:fffb1000       $pdata$?_Myptr@?$_String_val@U?$_Simple_types@D@std@@@std@@QEAAPEADXZ 0000000140000000     config.obj
 0003:fffc2000       $unwind$?_Myptr@?$_String_val@U?$_Simple_types@D@std@@@std@@QEAAPEADXZ 0000000140000000     config.obj
 0005:fffb1000       $pdata$??0?$_String_val@U?$_Simple_types@D@std@@@std@@QEAA@XZ 0000000140000000     config.obj
 0003:fffc2000       $unwind$??0?$_String_val@U?$_Simple_types@D@std@@@std@@QEAA@XZ 0000000140000000     config.obj
 0005:fffb1000       $pdata$?max_size@?$_Default_allocator_traits@V?$allocator@D@std@@@std@@SA_KAEBV?$allocator@D@2@@Z 0000000140000000     config.obj
 0003:fffc2000       $unwind$?max_size@?$_Default_allocator_traits@V?$allocator@D@std@@@std@@SA_KAEBV?$allocator@D@2@@Z 0000000140000000     config.obj
 0005:fffb1000       $pdata$?allocate@?$allocator@D@std@@QEAAPEAD_K@Z 0000000140000000     config.obj
 0003:fffc2000       $unwind$?allocate@?$allocator@D@std@@QEAAPEAD_K@Z 0000000140000000     config.obj
 0005:fffb1000       $pdata$?deallocate@?$allocator@D@std@@QEAAXQEAD_K@Z 0000000140000000     config.obj
 0003:fffc2000       $unwind$?deallocate@?$allocator@D@std@@QEAAXQEAD_K@Z 0000000140000000     config.obj
 0005:fffb1000       $pdata$??0?$allocator@D@std@@QEAA@XZ 0000000140000000     config.obj
 0003:fffc2000       $unwind$??0?$allocator@D@std@@QEAA@XZ 0000000140000000     config.obj
 0005:fffb1000       $pdata$??$_Convert_size@_K@std@@YA_K_K@Z 0000000140000000     config.obj
 0003:fffc2000       $unwind$??$_Convert_size@_K@std@@YA_K_K@Z 0000000140000000     config.obj
 0005:fffb1000       $pdata$?_Adjust_manually_vector_aligned@std@@YAXAEAPEAXAEA_K@Z 0000000140000000     config.obj
 0003:fffc2000       $unwind$?_Adjust_manually_vector_aligned@std@@YAXAEAPEAXAEA_K@Z 0000000140000000     config.obj
 0005:fffb1000       $pdata$?_Allocate@_Default_allocate_traits@std@@SAPEAX_K@Z 0000000140000000     config.obj
 0003:fffc2000       $unwind$?_Allocate@_Default_allocate_traits@std@@SAPEAX_K@Z 0000000140000000     config.obj
 0005:fffb1000       $pdata$??$_Get_size_of_n@$00@std@@YA_K_K@Z 0000000140000000     config.obj
 0003:fffc2000       $unwind$??$_Get_size_of_n@$00@std@@YA_K_K@Z 0000000140000000     config.obj
 0005:fffb1000       $pdata$?max@?$numeric_limits@_J@std@@SA_JXZ 0000000140000000     config.obj
 0003:fffc2000       $unwind$?max@?$numeric_limits@_J@std@@SA_JXZ 0000000140000000     config.obj
 0005:fffb1000       $pdata$__local_stdio_printf_options 0000000140000000     game-object.obj
 0003:fffc2000       $unwind$_vfprintf_l        0000000140000000     game-object.obj
 0005:fffb1000       $pdata$??$forward@U_Container_proxy@std@@@std@@YA$$QEAU_Container_proxy@0@AEAU10@@Z 0000000140000000     game-object.obj
 0000:fffa9000       __guard_fids__             0000000140000000     MSVCRTD:exe_winmain.obj
 0003:fffc2000       $unwind$??$forward@U_Container_proxy@std@@@std@@YA$$QEAU_Container_proxy@0@AEAU10@@Z 0000000140000000     game-object.obj
 0005:fffb1000       $pdata$??$_Allocate_manually_vector_aligned@U_Default_allocate_traits@std@@@std@@YAPEAX_K@Z 0000000140000000     game-object.obj
 0003:fffc2000       $unwind$??$_Allocate_manually_vector_aligned@U_Default_allocate_traits@std@@@std@@YAPEAX_K@Z 0000000140000000     game-object.obj
 0005:fffb1000       $pdata$??$_Maklocstr@D@std@@YAPEADPEBDPEADAEBU_Cvtvec@@@Z 0000000140000000     game-object.obj
 0003:fffc2000       $unwind$??$_Maklocstr@D@std@@YAPEADPEBDPEADAEBU_Cvtvec@@@Z 0000000140000000     game-object.obj
 0005:fffb1000       $pdata$??$_Get_size_of_n@$0BA@@std@@YA_K_K@Z 0000000140000000     game-object.obj
 0003:fffc2000       $unwind$?configure_argv@__scrt_narrow_argv_policy@@SAHXZ 0000000140000000     MSVCRTD:exe_winmain.obj
 0005:fffb1000       $pdata$?configure_argv@__scrt_narrow_argv_policy@@SAHXZ 0000000140000000     MSVCRTD:exe_winmain.obj
 0003:fffc2000       $unwind$?initialize_environment@__scrt_narrow_environment_policy@@SAHXZ 0000000140000000     MSVCRTD:exe_winmain.obj
 0003:fffc2000       $unwind$??$addressof@PEAD@std@@YAPEAPEADAEAPEAD@Z 0000000140000000     game-object.obj
 0005:fffb1000       $pdata$?__empty_global_delete@@YAXPEAX@Z 0000000140000000     player.obj
 0003:fffc2000       $unwind$?__empty_global_delete@@YAXPEAX_K@Z 0000000140000000     player.obj
 0005:fffb1000       $pdata$?__empty_global_delete@@YAXPEAX_K@Z 0000000140000000     player.obj
 0003:fffc2000       $unwind$wmemcpy            0000000140000000     player.obj
 0005:fffb1000       $pdata$wmemcpy             0000000140000000     player.obj
 0003:fffc2000       ??$_Maklocstr@_W@std@@YAPEA_WPEBDPEA_WAEBU_Cvtvec@@@Z$rtcName$0 0000000140000000     player.obj
 0005:fffb1000       $pdata$?begin@?$_Tree@V?$_Tmap_traits@W4Object_Type@@PEBVGameObject@@U?$less@W4Object_Type@@@std@@V?$allocator@U?$pair@$$CBW4Object_Type@@PEBVGameObject@@@std@@@4@$0A@@std@@@std@@QEAA?AV?$_Tree_iterator@V?$_Tree_val@U?$_Tree_simple_types@U?$pair@$$CBW4Object_Type@@PEBVGameObject@@@std@@@std@@@std@@@2@XZ 0000000140000000     engine.obj
 0003:fffc2000       $cppxdata$?begin@?$_Tree@V?$_Tmap_traits@W4Object_Type@@PEBVGameObject@@U?$less@W4Object_Type@@@std@@V?$allocator@U?$pair@$$CBW4Object_Type@@PEBVGameObject@@@std@@@4@$0A@@std@@@std@@QEAA?AV?$_Tree_iterator@V?$_Tree_val@U?$_Tree_simple_types@U?$pair@$$CBW4Object_Type@@PEBVGameObject@@@std@@@std@@@std@@@2@XZ 0000000140000000     engine.obj
 0003:fffc2000       $ip2state$?begin@?$_Tree@V?$_Tmap_traits@W4Object_Type@@PEBVGameObject@@U?$less@W4Object_Type@@@std@@V?$allocator@U?$pair@$$CBW4Object_Type@@PEBVGameObject@@@std@@@4@$0A@@std@@@std@@QEAA?AV?$_Tree_iterator@V?$_Tree_val@U?$_Tree_simple_types@U?$pair@$$CBW4Object_Type@@PEBVGameObject@@@std@@@std@@@std@@@2@XZ 0000000140000000     engine.obj
 0003:fffc2000       $unwind$?end@?$_Tree@V?$_Tmap_traits@W4Object_Type@@PEBVGameObject@@U?$less@W4Object_Type@@@std@@V?$allocator@U?$pair@$$CBW4Object_Type@@PEBVGameObject@@@std@@@4@$0A@@std@@@std@@QEAA?AV?$_Tree_iterator@V?$_Tree_val@U?$_Tree_simple_types@U?$pair@$$CBW4Object_Type@@PEBVGameObject@@@std@@@std@@@std@@@2@XZ 0000000140000000     engine.obj
 0003:fffc2000       $unwind$??$_Maklocstr@_W@std@@YAPEA_WPEBDPEA_WAEBU_Cvtvec@@@Z 0000000140000000     player.obj
 0005:fffb1000       $pdata$??$_Maklocstr@_W@std@@YAPEA_WPEBDPEA_WAEBU_Cvtvec@@@Z 0000000140000000     player.obj
 0003:fffc2000       $unwind$?_Maklocwcs@std@@YAPEA_WPEB_W@Z 0000000140000000     player.obj
 0005:fffb1000       $pdata$?_Maklocwcs@std@@YAPEA_WPEB_W@Z 0000000140000000     player.obj
 0003:fffc2000       $unwind$??$_Getvals@_W@?$time_get@DV?$istreambuf_iterator@DU?$char_traits@D@std@@@std@@@std@@IEAAX_WAEBV_Locinfo@1@@Z 0000000140000000     player.obj
 0005:fffb1000       $pdata$??$_Getvals@_W@?$time_get@DV?$istreambuf_iterator@DU?$char_traits@D@std@@@std@@@std@@IEAAX_WAEBV_Locinfo@1@@Z 0000000140000000     player.obj
 0003:fffc2000       $unwind$??$_Getvals@_W@?$time_get@_WV?$istreambuf_iterator@_WU?$char_traits@_W@std@@@std@@@std@@IEAAX_WAEBV_Locinfo@1@@Z 0000000140000000     player.obj
 0005:fffb1000       $pdata$??$_Getvals@_W@?$time_get@_WV?$istreambuf_iterator@_WU?$char_traits@_W@std@@@std@@@std@@IEAAX_WAEBV_Locinfo@1@@Z 0000000140000000     player.obj
 0003:fffc2000       $unwind$??0?$Vector2@M@sf@@QEAA@MM@Z 0000000140000000     player.obj
 0005:fffb1000       $pdata$??$_Maklocstr@_W@std@@YAPEA_WPEBDPEA_WAEBU_Cvtvec@@@Z 0000000140000000     game-object.obj
 0005:fffb1000       $pdata$??2@YAPEAX_KPEAX@Z  0000000140000000     engine.obj
 0003:fffc2000       $unwind$??2@YAPEAX_KPEAX@Z 0000000140000000     engine.obj
 0005:fffb1000       $pdata$?__empty_global_delete@@YAXPEAX_K@Z 0000000140000000     engine.obj
 0003:fffc2000       $unwind$?__empty_global_delete@@YAXPEAX_K@Z 0000000140000000     engine.obj
 0005:fffb1000       $pdata$?__empty_global_delete@@YAXPEAX@Z 0000000140000000     engine.obj
 0003:fffc2000       $unwind$?__empty_global_delete@@YAXPEAX@Z 0000000140000000     engine.obj
 0003:fffc2000       $unwind$??$_Maklocstr@D@std@@YAPEADPEBDPEADAEBU_Cvtvec@@@Z 0000000140000000     player.obj
 0005:fffb1000       $pdata$??$_Maklocstr@D@std@@YAPEADPEBDPEADAEBU_Cvtvec@@@Z 0000000140000000     player.obj
 0005:fffb1000       $pdata$?end@?$_Tree@V?$_Tmap_traits@W4Object_Type@@PEBVGameObject@@U?$less@W4Object_Type@@@std@@V?$allocator@U?$pair@$$CBW4Object_Type@@PEBVGameObject@@@std@@@4@$0A@@std@@@std@@QEAA?AV?$_Tree_iterator@V?$_Tree_val@U?$_Tree_simple_types@U?$pair@$$CBW4Object_Type@@PEBVGameObject@@@std@@@std@@@std@@@2@XZ 0000000140000000     engine.obj
 0003:fffc2000       $cppxdata$?end@?$_Tree@V?$_Tmap_traits@W4Object_Type@@PEBVGameObject@@U?$less@W4Object_Type@@@std@@V?$allocator@U?$pair@$$CBW4Object_Type@@PEBVGameObject@@@std@@@4@$0A@@std@@@std@@QEAA?AV?$_Tree_iterator@V?$_Tree_val@U?$_Tree_simple_types@U?$pair@$$CBW4Object_Type@@PEBVGameObject@@@std@@@std@@@std@@@2@XZ 0000000140000000     engine.obj
 0003:fffc2000       $ip2state$?end@?$_Tree@V?$_Tmap_traits@W4Object_Type@@PEBVGameObject@@U?$less@W4Object_Type@@@std@@V?$allocator@U?$pair@$$CBW4Object_Type@@PEBVGameObject@@@std@@@4@$0A@@std@@@std@@QEAA?AV?$_Tree_iterator@V?$_Tree_val@U?$_Tree_simple_types@U?$pair@$$CBW4Object_Type@@PEBVGameObject@@@std@@@std@@@std@@@2@XZ 0000000140000000     engine.obj
 0003:fffc2000       $unwind$?__empty_global_delete@@YAXPEAX@Z 0000000140000000     tank.obj
 0005:fffb1000       $pdata$?__empty_global_delete@@YAXPEAX@Z 0000000140000000     tank.obj
 0003:fffc2000       $unwind$?__empty_global_delete@@YAXPEAX_K@Z 0000000140000000     tank.obj
 0005:fffb1000       $pdata$?__empty_global_delete@@YAXPEAX_K@Z 0000000140000000     tank.obj
 0003:fffc2000       $unwind$wmemcpy            0000000140000000     tank.obj
 0005:fffb1000       $pdata$wmemcpy             0000000140000000     tank.obj
 0003:fffc2000       ??$_Maklocstr@_W@std@@YAPEA_WPEBDPEA_WAEBU_Cvtvec@@@Z$rtcName$0 0000000140000000     tank.obj
 0003:fffc2000       $unwind$??$_Min_value@_K@std@@YAAEB_KAEB_K0@Z 0000000140000000     engine.obj
 0005:fffb1000       $pdata$??$_Min_value@_K@std@@YAAEB_KAEB_K0@Z 0000000140000000     engine.obj
 0003:fffc2000       $unwind$??0?$_Tree_unchecked_const_iterator@V?$_Tree_val@U?$_Tree_simple_types@U?$pair@$$CBW4Object_Type@@PEBVGameObject@@@std@@@std@@@std@@U_Iterator_base12@2@@std@@QEAA@PEAU?$_Tree_node@U?$pair@$$CBW4Object_Type@@PEBVGameObject@@@std@@PEAX@1@PEBV?$_Tree_val@U?$_Tree_simple_types@U?$pair@$$CBW4Object_Type@@PEBVGameObject@@@std@@@std@@@1@@Z 0000000140000000     engine.obj
 0005:fffb1000       $pdata$??0?$_Tree_unchecked_const_iterator@V?$_Tree_val@U?$_Tree_simple_types@U?$pair@$$CBW4Object_Type@@PEBVGameObject@@@std@@@std@@@std@@U_Iterator_base12@2@@std@@QEAA@PEAU?$_Tree_node@U?$pair@$$CBW4Object_Type@@PEBVGameObject@@@std@@PEAX@1@PEBV?$_Tree_val@U?$_Tree_simple_types@U?$pair@$$CBW4Object_Type@@PEBVGameObject@@@std@@@std@@@1@@Z 0000000140000000     engine.obj
 0003:fffc2000       $unwind$??$_Maklocstr@_W@std@@YAPEA_WPEBDPEA_WAEBU_Cvtvec@@@Z 0000000140000000     tank.obj
 0005:fffb1000       $pdata$??$_Maklocstr@_W@std@@YAPEA_WPEBDPEA_WAEBU_Cvtvec@@@Z 0000000140000000     tank.obj
 0003:fffc2000       $unwind$?_Maklocwcs@std@@YAPEA_WPEB_W@Z 0000000140000000     tank.obj
 0005:fffb1000       $pdata$?_Maklocwcs@std@@YAPEA_WPEB_W@Z 0000000140000000     tank.obj
 0003:fffc2000       $unwind$??$_Getvals@_W@?$time_get@DV?$istreambuf_iterator@DU?$char_traits@D@std@@@std@@@std@@IEAAX_WAEBV_Locinfo@1@@Z 0000000140000000     tank.obj
 0005:fffb1000       $pdata$??$_Getvals@_W@?$time_get@DV?$istreambuf_iterator@DU?$char_traits@D@std@@@std@@@std@@IEAAX_WAEBV_Locinfo@1@@Z 0000000140000000     tank.obj
 0003:fffc2000       $unwind$??$_Getvals@_W@?$time_get@_WV?$istreambuf_iterator@_WU?$char_traits@_W@std@@@std@@@std@@IEAAX_WAEBV_Locinfo@1@@Z 0000000140000000     tank.obj
 0005:fffb1000       $pdata$??$_Getvals@_W@?$time_get@_WV?$istreambuf_iterator@_WU?$char_traits@_W@std@@@std@@@std@@IEAAX_WAEBV_Locinfo@1@@Z 0000000140000000     tank.obj
 0003:fffc2000       $unwind$??E?$_Tree_unchecked_const_iterator@V?$_Tree_val@U?$_Tree_simple_types@U?$pair@$$CBW4Object_Type@@PEBVGameObject@@@std@@@std@@@std@@U_Iterator_base12@2@@std@@QEAAAEAV01@XZ 0000000140000000     engine.obj
 0005:fffb1000       $pdata$??E?$_Tree_unchecked_const_iterator@V?$_Tree_val@U?$_Tree_simple_types@U?$pair@$$CBW4Object_Type@@PEBVGameObject@@@std@@@std@@@std@@U_Iterator_base12@2@@std@@QEAAAEAV01@XZ 0000000140000000     engine.obj
 0003:fffc2000       $unwind$??1?$_Tree_unchecked_const_iterator@V?$_Tree_val@U?$_Tree_simple_types@U?$pair@$$CBW4Object_Type@@PEBVGameObject@@@std@@@std@@@std@@U_Iterator_base12@2@@std@@QEAA@XZ 0000000140000000     engine.obj
 0005:fffb1000       $pdata$??1?$_Tree_unchecked_const_iterator@V?$_Tree_val@U?$_Tree_simple_types@U?$pair@$$CBW4Object_Type@@PEBVGameObject@@@std@@@std@@@std@@U_Iterator_base12@2@@std@@QEAA@XZ 0000000140000000     engine.obj
 0003:fffc2000       $unwind$??0?$_Tree_unchecked_const_iterator@V?$_Tree_val@U?$_Tree_simple_types@U?$pair@$$CBW4Object_Type@@PEBVGameObject@@@std@@@std@@@std@@U_Iterator_base12@2@@std@@QEAA@AEBV01@@Z 0000000140000000     engine.obj
 0005:fffb1000       $pdata$??0?$_Tree_unchecked_const_iterator@V?$_Tree_val@U?$_Tree_simple_types@U?$pair@$$CBW4Object_Type@@PEBVGameObject@@@std@@@std@@@std@@U_Iterator_base12@2@@std@@QEAA@AEBV01@@Z 0000000140000000     engine.obj
 0003:fffc2000       $unwind$??0?$_Tree_unchecked_const_iterator@V?$_Tree_val@U?$_Tree_simple_types@U?$pair@$$CBW4Object_Type@@PEBVGameObject@@@std@@@std@@@std@@U_Iterator_base12@2@@std@@QEAA@$$QEAV01@@Z 0000000140000000     engine.obj
 0005:fffb1000       $pdata$??0?$_Tree_unchecked_const_iterator@V?$_Tree_val@U?$_Tree_simple_types@U?$pair@$$CBW4Object_Type@@PEBVGameObject@@@std@@@std@@@std@@U_Iterator_base12@2@@std@@QEAA@$$QEAV01@@Z 0000000140000000     engine.obj
 0003:fffc2000       $unwind$??0?$_Tree_const_iterator@V?$_Tree_val@U?$_Tree_simple_types@U?$pair@$$CBW4Object_Type@@PEBVGameObject@@@std@@@std@@@std@@@std@@QEAA@PEAU?$_Tree_node@U?$pair@$$CBW4Object_Type@@PEBVGameObject@@@std@@PEAX@1@PEBV?$_Tree_val@U?$_Tree_simple_types@U?$pair@$$CBW4Object_Type@@PEBVGameObject@@@std@@@std@@@1@@Z 0000000140000000     engine.obj
 0005:fffb1000       $pdata$??0?$_Tree_const_iterator@V?$_Tree_val@U?$_Tree_simple_types@U?$pair@$$CBW4Object_Type@@PEBVGameObject@@@std@@@std@@@std@@@std@@QEAA@PEAU?$_Tree_node@U?$pair@$$CBW4Object_Type@@PEBVGameObject@@@std@@PEAX@1@PEBV?$_Tree_val@U?$_Tree_simple_types@U?$pair@$$CBW4Object_Type@@PEBVGameObject@@@std@@@std@@@1@@Z 0000000140000000     engine.obj
 0003:fffc2000       $unwind$??E?$_Tree_const_iterator@V?$_Tree_val@U?$_Tree_simple_types@U?$pair@$$CBW4Object_Type@@PEBVGameObject@@@std@@@std@@@std@@@std@@QEAAAEAV01@XZ 0000000140000000     engine.obj
 0005:fffb1000       $pdata$??E?$_Tree_const_iterator@V?$_Tree_val@U?$_Tree_simple_types@U?$pair@$$CBW4Object_Type@@PEBVGameObject@@@std@@@std@@@std@@@std@@QEAAAEAV01@XZ 0000000140000000     engine.obj
 0003:fffc2000       $unwind$??8?$_Tree_const_iterator@V?$_Tree_val@U?$_Tree_simple_types@U?$pair@$$CBW4Object_Type@@PEBVGameObject@@@std@@@std@@@std@@@std@@QEBA_NAEBV01@@Z 0000000140000000     engine.obj
 0005:fffb1000       $pdata$??8?$_Tree_const_iterator@V?$_Tree_val@U?$_Tree_simple_types@U?$pair@$$CBW4Object_Type@@PEBVGameObject@@@std@@@std@@@std@@@std@@QEBA_NAEBV01@@Z 0000000140000000     engine.obj
 0003:fffc2000       $unwind$??1?$_Tree_const_iterator@V?$_Tree_val@U?$_Tree_simple_types@U?$pair@$$CBW4Object_Type@@PEBVGameObject@@@std@@@std@@@std@@@std@@QEAA@XZ 0000000140000000     engine.obj
 0005:fffb1000       $pdata$??1?$_Tree_const_iterator@V?$_Tree_val@U?$_Tree_simple_types@U?$pair@$$CBW4Object_Type@@PEBVGameObject@@@std@@@std@@@std@@@std@@QEAA@XZ 0000000140000000     engine.obj
 0003:fffc2000       $unwind$??0?$_Tree_const_iterator@V?$_Tree_val@U?$_Tree_simple_types@U?$pair@$$CBW4Object_Type@@PEBVGameObject@@@std@@@std@@@std@@@std@@QEAA@AEBV01@@Z 0000000140000000     engine.obj
 0003:fffc2000       $unwind$??$_Maklocstr@D@std@@YAPEADPEBDPEADAEBU_Cvtvec@@@Z 0000000140000000     tank.obj
 0005:fffb1000       $pdata$??$_Maklocstr@D@std@@YAPEADPEBDPEADAEBU_Cvtvec@@@Z 0000000140000000     tank.obj
 0005:fffb1000       $pdata$??0?$_Tree_const_iterator@V?$_Tree_val@U?$_Tree_simple_types@U?$pair@$$CBW4Object_Type@@PEBVGameObject@@@std@@@std@@@std@@@std@@QEAA@AEBV01@@Z 0000000140000000     engine.obj
 0003:fffc2000       $unwind$??0?$_Tree_const_iterator@V?$_Tree_val@U?$_Tree_simple_types@U?$pair@$$CBW4Object_Type@@PEBVGameObject@@@std@@@std@@@std@@@std@@QEAA@$$QEAV01@@Z 0000000140000000     engine.obj
 0005:fffb1000       $pdata$??0?$_Tree_const_iterator@V?$_Tree_val@U?$_Tree_simple_types@U?$pair@$$CBW4Object_Type@@PEBVGameObject@@@std@@@std@@@std@@@std@@QEAA@$$QEAV01@@Z 0000000140000000     engine.obj
 0003:fffc2000       $unwind$?__empty_global_delete@@YAXPEAX@Z 0000000140000000     wall.obj
 0005:fffb1000       $pdata$?__empty_global_delete@@YAXPEAX@Z 0000000140000000     wall.obj
 0003:fffc2000       $unwind$?__empty_global_delete@@YAXPEAX_K@Z 0000000140000000     wall.obj
 0005:fffb1000       $pdata$?__empty_global_delete@@YAXPEAX_K@Z 0000000140000000     wall.obj
 0003:fffc2000       $unwind$wmemcpy            0000000140000000     wall.obj
 0005:fffb1000       $pdata$wmemcpy             0000000140000000     wall.obj
 0003:fffc2000       ??$_Maklocstr@_W@std@@YAPEA_WPEBDPEA_WAEBU_Cvtvec@@@Z$rtcName$0 0000000140000000     wall.obj
 0003:fffc2000       $unwind$??0?$_Tree_iterator@V?$_Tree_val@U?$_Tree_simple_types@U?$pair@$$CBW4Object_Type@@PEBVGameObject@@@std@@@std@@@std@@@std@@QEAA@PEAU?$_Tree_node@U?$pair@$$CBW4Object_Type@@PEBVGameObject@@@std@@PEAX@1@PEBV?$_Tree_val@U?$_Tree_simple_types@U?$pair@$$CBW4Object_Type@@PEBVGameObject@@@std@@@std@@@1@@Z 0000000140000000     engine.obj
 0005:fffb1000       $pdata$??0?$_Tree_iterator@V?$_Tree_val@U?$_Tree_simple_types@U?$pair@$$CBW4Object_Type@@PEBVGameObject@@@std@@@std@@@std@@@std@@QEAA@PEAU?$_Tree_node@U?$pair@$$CBW4Object_Type@@PEBVGameObject@@@std@@PEAX@1@PEBV?$_Tree_val@U?$_Tree_simple_types@U?$pair@$$CBW4Object_Type@@PEBVGameObject@@@std@@@std@@@1@@Z 0000000140000000     engine.obj
 0003:fffc2000       $unwind$??1?$_Tree_iterator@V?$_Tree_val@U?$_Tree_simple_types@U?$pair@$$CBW4Object_Type@@PEBVGameObject@@@std@@@std@@@std@@@std@@QEAA@XZ 0000000140000000     engine.obj
 0005:fffb1000       $pdata$??1?$_Tree_iterator@V?$_Tree_val@U?$_Tree_simple_types@U?$pair@$$CBW4Object_Type@@PEBVGameObject@@@std@@@std@@@std@@@std@@QEAA@XZ 0000000140000000     engine.obj
 0003:fffc2000       $unwind$??$_Maklocstr@_W@std@@YAPEA_WPEBDPEA_WAEBU_Cvtvec@@@Z 0000000140000000     wall.obj
 0005:fffb1000       $pdata$??$_Maklocstr@_W@std@@YAPEA_WPEBDPEA_WAEBU_Cvtvec@@@Z 0000000140000000     wall.obj
 0003:fffc2000       $unwind$?_Maklocwcs@std@@YAPEA_WPEB_W@Z 0000000140000000     wall.obj
 0005:fffb1000       $pdata$?_Maklocwcs@std@@YAPEA_WPEB_W@Z 0000000140000000     wall.obj
 0003:fffc2000       $unwind$??$_Getvals@_W@?$time_get@DV?$istreambuf_iterator@DU?$char_traits@D@std@@@std@@@std@@IEAAX_WAEBV_Locinfo@1@@Z 0000000140000000     wall.obj
 0005:fffb1000       $pdata$??$_Getvals@_W@?$time_get@DV?$istreambuf_iterator@DU?$char_traits@D@std@@@std@@@std@@IEAAX_WAEBV_Locinfo@1@@Z 0000000140000000     wall.obj
 0003:fffc2000       $unwind$??$_Getvals@_W@?$time_get@_WV?$istreambuf_iterator@_WU?$char_traits@_W@std@@@std@@@std@@IEAAX_WAEBV_Locinfo@1@@Z 0000000140000000     wall.obj
 0005:fffb1000       $pdata$??$_Getvals@_W@?$time_get@_WV?$istreambuf_iterator@_WU?$char_traits@_W@std@@@std@@@std@@IEAAX_WAEBV_Locinfo@1@@Z 0000000140000000     wall.obj
 0003:fffc2000       $unwind$??$_Allocate@$0BA@U_Default_allocate_traits@std@@$0A@@std@@YAPEAX_K@Z 0000000140000000     engine.obj
 0005:fffb1000       $pdata$??$_Allocate@$0BA@U_Default_allocate_traits@std@@$0A@@std@@YAPEAX_K@Z 0000000140000000     engine.obj
 0003:fffc2000       $unwind$??$_Deallocate@$0BA@$0A@@std@@YAXPEAX_K@Z 0000000140000000     engine.obj
 0005:fffb1000       $pdata$??$_Maklocstr@D@std@@YAPEADPEBDPEADAEBU_Cvtvec@@@Z 0000000140000000     container.obj
 0003:fffc2000       $unwind$??$_Maklocstr@D@std@@YAPEADPEBDPEADAEBU_Cvtvec@@@Z 0000000140000000     container.obj
 0005:fffb1000       $pdata$??$_Getvals@_W@?$time_get@_WV?$istreambuf_iterator@_WU?$char_traits@_W@std@@@std@@@std@@IEAAX_WAEBV_Locinfo@1@@Z 0000000140000000     container.obj
 0003:fffc2000       $unwind$??$_Getvals@_W@?$time_get@_WV?$istreambuf_iterator@_WU?$char_traits@_W@std@@@std@@@std@@IEAAX_WAEBV_Locinfo@1@@Z 0000000140000000     container.obj
 0005:fffb1000       $pdata$??$_Getvals@_W@?$time_get@DV?$istreambuf_iterator@DU?$char_traits@D@std@@@std@@@std@@IEAAX_WAEBV_Locinfo@1@@Z 0000000140000000     container.obj
 0003:fffc2000       $unwind$??$_Getvals@_W@?$time_get@DV?$istreambuf_iterator@DU?$char_traits@D@std@@@std@@@std@@IEAAX_WAEBV_Locinfo@1@@Z 0000000140000000     container.obj
 0005:fffb1000       $pdata$?_Maklocwcs@std@@YAPEA_WPEB_W@Z 0000000140000000     container.obj
 0003:fffc2000       $unwind$?_Maklocwcs@std@@YAPEA_WPEB_W@Z 0000000140000000     container.obj
 0005:fffb1000       $pdata$??$_Maklocstr@_W@std@@YAPEA_WPEBDPEA_WAEBU_Cvtvec@@@Z 0000000140000000     container.obj
 0003:fffc2000       $unwind$??$_Maklocstr@_W@std@@YAPEA_WPEBDPEA_WAEBU_Cvtvec@@@Z 0000000140000000     container.obj
 0005:fffb1000       $pdata$??$_Deallocate@$0BA@$0A@@std@@YAXPEAX_K@Z 0000000140000000     engine.obj
 0003:fffc2000       $unwind$?allocate@?$allocator@U_Container_proxy@std@@@std@@QEAAPEAU_Container_proxy@2@_K@Z 0000000140000000     engine.obj
 0005:fffb1000       $pdata$?allocate@?$allocator@U_Container_proxy@std@@@std@@QEAAPEAU_Container_proxy@2@_K@Z 0000000140000000     engine.obj
 0003:fffc2000       $unwind$?deallocate@?$_Default_allocator_traits@V?$allocator@U_Container_proxy@std@@@std@@@std@@SAXAEAV?$allocator@U_Container_proxy@std@@@2@QEAU_Container_proxy@2@_K@Z 0000000140000000     engine.obj
 0003:fffc2000       $unwind$??$_Maklocstr@D@std@@YAPEADPEBDPEADAEBU_Cvtvec@@@Z 0000000140000000     wall.obj
 0005:fffb1000       $pdata$??$_Maklocstr@D@std@@YAPEADPEBDPEADAEBU_Cvtvec@@@Z 0000000140000000     wall.obj
 0003:fffc2000       ??$_Maklocstr@_W@std@@YAPEA_WPEBDPEA_WAEBU_Cvtvec@@@Z$rtcName$0 0000000140000000     container.obj
 0005:fffb1000       $pdata$wmemcpy             0000000140000000     container.obj
 0005:fffb1000       $pdata$?deallocate@?$_Default_allocator_traits@V?$allocator@U_Container_proxy@std@@@std@@@std@@SAXAEAV?$allocator@U_Container_proxy@std@@@2@QEAU_Container_proxy@2@_K@Z 0000000140000000     engine.obj
 0003:fffc2000       $unwind$??$destroy@U_Container_proxy@std@@@?$_Default_allocator_traits@V?$allocator@U_Container_proxy@std@@@std@@@std@@SAXAEAV?$allocator@U_Container_proxy@std@@@1@QEAU_Container_proxy@1@@Z 0000000140000000     engine.obj
 0003:fffc2000       $unwind$?__empty_global_delete@@YAXPEAX@Z 0000000140000000     widget-game.obj
 0005:fffb1000       $pdata$?__empty_global_delete@@YAXPEAX@Z 0000000140000000     widget-game.obj
 0003:fffc2000       $unwind$?__empty_global_delete@@YAXPEAX_K@Z 0000000140000000     widget-game.obj
 0005:fffb1000       $pdata$?__empty_global_delete@@YAXPEAX_K@Z 0000000140000000     widget-game.obj
 0003:fffc2000       $unwind$fabsf              0000000140000000     widget-game.obj
 0005:fffb1000       $pdata$fabsf               0000000140000000     widget-game.obj
 0003:fffc2000       $unwind$?fabs@@YAMM@Z      0000000140000000     widget-game.obj
 0005:fffb1000       $pdata$?fabs@@YAMM@Z       0000000140000000     widget-game.obj
 0003:fffc2000       $unwind$wmemcpy            0000000140000000     widget-game.obj
 0005:fffb1000       $pdata$wmemcpy             0000000140000000     widget-game.obj
 0003:fffc2000       ??$_Maklocstr@_W@std@@YAPEA_WPEBDPEA_WAEBU_Cvtvec@@@Z$rtcName$0 0000000140000000     widget-game.obj
 0005:fffb1000       $pdata$??$destroy@U_Container_proxy@std@@@?$_Default_allocator_traits@V?$allocator@U_Container_proxy@std@@@std@@@std@@SAXAEAV?$allocator@U_Container_proxy@std@@@1@QEAU_Container_proxy@1@@Z 0000000140000000     engine.obj
 0003:fffc2000       $unwind$??$_Deallocate_plain@V?$allocator@U_Container_proxy@std@@@std@@$0A@@std@@YAXAEAV?$allocator@U_Container_proxy@std@@@0@QEAU_Container_proxy@0@@Z 0000000140000000     engine.obj
 0005:fffb1000       $pdata$??$_Deallocate_plain@V?$allocator@U_Container_proxy@std@@@std@@$0A@@std@@YAXAEAV?$allocator@U_Container_proxy@std@@@0@QEAU_Container_proxy@0@@Z 0000000140000000     engine.obj
 0003:fffc2000       $unwind$??$_Unfancy@U_Container_proxy@std@@@std@@YAPEAU_Container_proxy@0@PEAU10@@Z 0000000140000000     engine.obj
 0003:fffc2000       $unwind$??$_Maklocstr@_W@std@@YAPEA_WPEBDPEA_WAEBU_Cvtvec@@@Z 0000000140000000     widget-game.obj
 0005:fffb1000       $pdata$??$_Maklocstr@_W@std@@YAPEA_WPEBDPEA_WAEBU_Cvtvec@@@Z 0000000140000000     widget-game.obj
 0003:fffc2000       $unwind$?_Maklocwcs@std@@YAPEA_WPEB_W@Z 0000000140000000     widget-game.obj
 0005:fffb1000       $pdata$?_Maklocwcs@std@@YAPEA_WPEB_W@Z 0000000140000000     widget-game.obj
 0003:fffc2000       $unwind$??$_Getvals@_W@?$time_get@DV?$istreambuf_iterator@DU?$char_traits@D@std@@@std@@@std@@IEAAX_WAEBV_Locinfo@1@@Z 0000000140000000     widget-game.obj
 0005:fffb1000       $pdata$??$_Getvals@_W@?$time_get@DV?$istreambuf_iterator@DU?$char_traits@D@std@@@std@@@std@@IEAAX_WAEBV_Locinfo@1@@Z 0000000140000000     widget-game.obj
 0003:fffc2000       $unwind$??$_Getvals@_W@?$time_get@_WV?$istreambuf_iterator@_WU?$char_traits@_W@std@@@std@@@std@@IEAAX_WAEBV_Locinfo@1@@Z 0000000140000000     widget-game.obj
 0005:fffb1000       $pdata$??$_Getvals@_W@?$time_get@_WV?$istreambuf_iterator@_WU?$char_traits@_W@std@@@std@@@std@@IEAAX_WAEBV_Locinfo@1@@Z 0000000140000000     widget-game.obj
 0003:fffc2000       $unwind$??0?$Vector2@M@sf@@QEAA@MM@Z 0000000140000000     widget-game.obj
 0005:fffb1000       $pdata$??0?$Vector2@M@sf@@QEAA@MM@Z 0000000140000000     widget-game.obj
 0003:fffc2000       $unwind$wmemcpy            0000000140000000     container.obj
 0005:fffb1000       $pdata$?__empty_global_delete@@YAXPEAX_K@Z 0000000140000000     container.obj
 0003:fffc2000       $unwind$?__empty_global_delete@@YAXPEAX_K@Z 0000000140000000     container.obj
 0005:fffb1000       $pdata$?__empty_global_delete@@YAXPEAX@Z 0000000140000000     container.obj
 0003:fffc2000       $unwind$?__empty_global_delete@@YAXPEAX@Z 0000000140000000     container.obj
 0005:fffb1000       $pdata$??$_Unfancy@U_Container_proxy@std@@@std@@YAPEAU_Container_proxy@0@PEAU10@@Z 0000000140000000     engine.obj
 0003:fffc2000       $unwind$??$construct@U_Container_proxy@std@@U12@@?$_Default_allocator_traits@V?$allocator@U_Container_proxy@std@@@std@@@std@@SAXAEAV?$allocator@U_Container_proxy@std@@@1@QEAU_Container_proxy@1@$$QEAU31@@Z 0000000140000000     engine.obj
 0005:fffb1000       $pdata$??$construct@U_Container_proxy@std@@U12@@?$_Default_allocator_traits@V?$allocator@U_Container_proxy@std@@@std@@@std@@SAXAEAV?$allocator@U_Container_proxy@std@@@1@QEAU_Container_proxy@1@$$QEAU31@@Z 0000000140000000     engine.obj
 0003:fffc2000       ??$_Freenode0@V?$allocator@U?$_Tree_node@U?$pair@$$CBW4Object_Type@@PEBVGameObject@@@std@@PEAX@std@@@std@@@?$_Tree_node@U?$pair@$$CBW4Object_Type@@PEBVGameObject@@@std@@PEAX@std@@SAXAEAV?$allocator@U?$_Tree_node@U?$pair@$$CBW4Object_Type@@PEBVGameObject@@@std@@PEAX@std@@@1@PEAU01@@Z$rtcName$0 0000000140000000     engine.obj
 0003:fffc2000       $unwind$??$_Freenode0@V?$allocator@U?$_Tree_node@U?$pair@$$CBW4Object_Type@@PEBVGameObject@@@std@@PEAX@std@@@std@@@?$_Tree_node@U?$pair@$$CBW4Object_Type@@PEBVGameObject@@@std@@PEAX@std@@SAXAEAV?$allocator@U?$_Tree_node@U?$pair@$$CBW4Object_Type@@PEBVGameObject@@@std@@PEAX@std@@@1@PEAU01@@Z 0000000140000000     engine.obj
 0005:fffb1000       $pdata$??$_Freenode0@V?$allocator@U?$_Tree_node@U?$pair@$$CBW4Object_Type@@PEBVGameObject@@@std@@PEAX@std@@@std@@@?$_Tree_node@U?$pair@$$CBW4Object_Type@@PEBVGameObject@@@std@@PEAX@std@@SAXAEAV?$allocator@U?$_Tree_node@U?$pair@$$CBW4Object_Type@@PEBVGameObject@@@std@@PEAX@std@@@1@PEAU01@@Z 0000000140000000     engine.obj
 0003:fffc2000       $ip2state$??$_Freenode0@V?$allocator@U?$_Tree_node@U?$pair@$$CBW4Object_Type@@PEBVGameObject@@@std@@PEAX@std@@@std@@@?$_Tree_node@U?$pair@$$CBW4Object_Type@@PEBVGameObject@@@std@@PEAX@std@@SAXAEAV?$allocator@U?$_Tree_node@U?$pair@$$CBW4Object_Type@@PEBVGameObject@@@std@@PEAX@std@@@1@PEAU01@@Z 0000000140000000     engine.obj
 0003:fffc2000       $unwind$??$addressof@V?$_Tree_val@U?$_Tree_simple_types@U?$pair@$$CBW4Object_Type@@PEBVGameObject@@@std@@@std@@@std@@@std@@YAPEAV?$_Tree_val@U?$_Tree_simple_types@U?$pair@$$CBW4Object_Type@@PEBVGameObject@@@std@@@std@@@0@AEAV10@@Z 0000000140000000     engine.obj
 0005:fffb1000       $pdata$??$addressof@V?$_Tree_val@U?$_Tree_simple_types@U?$pair@$$CBW4Object_Type@@PEBVGameObject@@@std@@@std@@@std@@@std@@YAPEAV?$_Tree_val@U?$_Tree_simple_types@U?$pair@$$CBW4Object_Type@@PEBVGameObject@@@std@@@std@@@0@AEAV10@@Z 0000000140000000     engine.obj
 0003:fffc2000       $unwind$??$addressof@U?$pair@$$CBW4Object_Type@@PEBVGameObject@@@std@@@std@@YAPEAU?$pair@$$CBW4Object_Type@@PEBVGameObject@@@0@AEAU10@@Z 0000000140000000     engine.obj
 0005:fffb1000       $pdata$??$addressof@U?$pair@$$CBW4Object_Type@@PEBVGameObject@@@std@@@std@@YAPEAU?$pair@$$CBW4Object_Type@@PEBVGameObject@@@0@AEAU10@@Z 0000000140000000     engine.obj
 0003:fffc2000       $unwind$??$destroy@U?$pair@$$CBW4Object_Type@@PEBVGameObject@@@std@@@?$_Default_allocator_traits@V?$allocator@U?$_Tree_node@U?$pair@$$CBW4Object_Type@@PEBVGameObject@@@std@@PEAX@std@@@std@@@std@@SAXAEAV?$allocator@U?$_Tree_node@U?$pair@$$CBW4Object_Type@@PEBVGameObject@@@std@@PEAX@std@@@1@QEAU?$pair@$$CBW4Object_Type@@PEBVGameObject@@@1@@Z 0000000140000000     engine.obj
 0005:fffb1000       $pdata$??$destroy@U?$pair@$$CBW4Object_Type@@PEBVGameObject@@@std@@@?$_Default_allocator_traits@V?$allocator@U?$_Tree_node@U?$pair@$$CBW4Object_Type@@PEBVGameObject@@@std@@PEAX@std@@@std@@@std@@SAXAEAV?$allocator@U?$_Tree_node@U?$pair@$$CBW4Object_Type@@PEBVGameObject@@@std@@PEAX@std@@@1@QEAU?$pair@$$CBW4Object_Type@@PEBVGameObject@@@1@@Z 0000000140000000     engine.obj
 0003:fffc2000       $unwind$??$_Get_size_of_n@$0BA@@std@@YA_K_K@Z 0000000140000000     engine.obj
 0005:fffb1000       $pdata$??$_Get_size_of_n@$0BA@@std@@YA_K_K@Z 0000000140000000     engine.obj
 0005:fffb1000       $pdata$??$forward@U_Container_proxy@std@@@std@@YA$$QEAU_Container_proxy@0@AEAU10@@Z 0000000140000000     config.obj
 0003:fffc2000       $unwind$??$forward@U_Container_proxy@std@@@std@@YA$$QEAU_Container_proxy@0@AEAU10@@Z 0000000140000000     config.obj
 0005:fffb1000       $pdata$??$_Allocate_manually_vector_aligned@U_Default_allocate_traits@std@@@std@@YAPEAX_K@Z 0000000140000000     config.obj
 0003:fffc2000       $unwind$??$_Allocate_manually_vector_aligned@U_Default_allocate_traits@std@@@std@@YAPEAX_K@Z 0000000140000000     config.obj
 0005:fffb1000       $pdata$??$forward@AEBQEAD@std@@YAAEBQEADAEBQEAD@Z 0000000140000000     config.obj
 0003:fffc2000       $unwind$??$_Maklocstr@D@std@@YAPEADPEBDPEADAEBU_Cvtvec@@@Z 0000000140000000     widget-game.obj
 0005:fffb1000       $pdata$??$_Maklocstr@D@std@@YAPEADPEBDPEADAEBU_Cvtvec@@@Z 0000000140000000     widget-game.obj
 0003:fffc2000       $unwind$??$forward@AEBQEAD@std@@YAAEBQEADAEBQEAD@Z 0000000140000000     config.obj
 0003:fffc2000       $unwind$??$addressof@PEAU?$_Tree_node@U?$pair@$$CBW4Object_Type@@PEBVGameObject@@@std@@PEAX@std@@@std@@YAPEAPEAU?$_Tree_node@U?$pair@$$CBW4Object_Type@@PEBVGameObject@@@std@@PEAX@0@AEAPEAU10@@Z 0000000140000000     engine.obj
 0003:fffc2000       $unwind$?__empty_global_delete@@YAXPEAX@Z 0000000140000000     widget.obj
 0005:fffb1000       $pdata$?__empty_global_delete@@YAXPEAX@Z 0000000140000000     widget.obj
 0003:fffc2000       $unwind$?__empty_global_delete@@YAXPEAX_K@Z 0000000140000000     widget.obj
 0005:fffb1000       $pdata$?__empty_global_delete@@YAXPEAX_K@Z 0000000140000000     widget.obj
 0003:fffc2000       $unwind$wmemcpy            0000000140000000     widget.obj
 0005:fffb1000       $pdata$wmemcpy             0000000140000000     widget.obj
 0003:fffc2000       ??$_Maklocstr@_W@std@@YAPEA_WPEBDPEA_WAEBU_Cvtvec@@@Z$rtcName$0 0000000140000000     widget.obj
 0005:fffb1000       $pdata$??$addressof@PEAU?$_Tree_node@U?$pair@$$CBW4Object_Type@@PEBVGameObject@@@std@@PEAX@std@@@std@@YAPEAPEAU?$_Tree_node@U?$pair@$$CBW4Object_Type@@PEBVGameObject@@@std@@PEAX@0@AEAPEAU10@@Z 0000000140000000     engine.obj
 0003:fffc2000       $unwind$??$construct@PEAU?$_Tree_node@U?$pair@$$CBW4Object_Type@@PEBVGameObject@@@std@@PEAX@std@@AEAPEAU12@@?$_Default_allocator_traits@V?$allocator@U?$_Tree_node@U?$pair@$$CBW4Object_Type@@PEBVGameObject@@@std@@PEAX@std@@@std@@@std@@SAXAEAV?$allocator@U?$_Tree_node@U?$pair@$$CBW4Object_Type@@PEBVGameObject@@@std@@PEAX@std@@@1@QEAPEAU?$_Tree_node@U?$pair@$$CBW4Object_Type@@PEBVGameObject@@@std@@PEAX@1@AEAPEAU31@@Z 0000000140000000     engine.obj
 0005:fffb1000       $pdata$??$construct@PEAU?$_Tree_node@U?$pair@$$CBW4Object_Type@@PEBVGameObject@@@std@@PEAX@std@@AEAPEAU12@@?$_Default_allocator_traits@V?$allocator@U?$_Tree_node@U?$pair@$$CBW4Object_Type@@PEBVGameObject@@@std@@PEAX@std@@@std@@@std@@SAXAEAV?$allocator@U?$_Tree_node@U?$pair@$$CBW4Object_Type@@PEBVGameObject@@@std@@PEAX@std@@@1@QEAPEAU?$_Tree_node@U?$pair@$$CBW4Object_Type@@PEBVGameObject@@@std@@PEAX@1@AEAPEAU31@@Z 0000000140000000     engine.obj
 0003:fffc2000       $unwind$??$_Get_size_of_n@$0DA@@std@@YA_K_K@Z 0000000140000000     engine.obj
 0003:fffc2000       $unwind$??$_Maklocstr@_W@std@@YAPEA_WPEBDPEA_WAEBU_Cvtvec@@@Z 0000000140000000     widget.obj
 0005:fffb1000       $pdata$??$_Maklocstr@_W@std@@YAPEA_WPEBDPEA_WAEBU_Cvtvec@@@Z 0000000140000000     widget.obj
 0003:fffc2000       $unwind$?_Maklocwcs@std@@YAPEA_WPEB_W@Z 0000000140000000     widget.obj
 0005:fffb1000       $pdata$?_Maklocwcs@std@@YAPEA_WPEB_W@Z 0000000140000000     widget.obj
 0003:fffc2000       $unwind$??$_Getvals@_W@?$time_get@DV?$istreambuf_iterator@DU?$char_traits@D@std@@@std@@@std@@IEAAX_WAEBV_Locinfo@1@@Z 0000000140000000     widget.obj
 0005:fffb1000       $pdata$??$_Getvals@_W@?$time_get@DV?$istreambuf_iterator@DU?$char_traits@D@std@@@std@@@std@@IEAAX_WAEBV_Locinfo@1@@Z 0000000140000000     widget.obj
 0003:fffc2000       $unwind$??$_Getvals@_W@?$time_get@_WV?$istreambuf_iterator@_WU?$char_traits@_W@std@@@std@@@std@@IEAAX_WAEBV_Locinfo@1@@Z 0000000140000000     widget.obj
 0005:fffb1000       $pdata$??$_Getvals@_W@?$time_get@_WV?$istreambuf_iterator@_WU?$char_traits@_W@std@@@std@@@std@@IEAAX_WAEBV_Locinfo@1@@Z 0000000140000000     widget.obj
 0005:fffb1000       $pdata$??$_Get_size_of_n@$0DA@@std@@YA_K_K@Z 0000000140000000     engine.obj
 0003:fffc2000       $unwind$??$_Maklocstr@D@std@@YAPEADPEBDPEADAEBU_Cvtvec@@@Z 0000000140000000     engine.obj
 0005:fffb1000       $pdata$??$_Maklocstr@D@std@@YAPEADPEBDPEADAEBU_Cvtvec@@@Z 0000000140000000     engine.obj
 0005:fffb1000       $pdata$??$_Maklocstr@D@std@@YAPEADPEBDPEADAEBU_Cvtvec@@@Z 0000000140000000     config.obj
 0003:fffc2000       $unwind$??$_Maklocstr@D@std@@YAPEADPEBDPEADAEBU_Cvtvec@@@Z 0000000140000000     config.obj
 0005:fffb1000       $pdata$??$_Get_size_of_n@$0BA@@std@@YA_K_K@Z 0000000140000000     config.obj
 0003:fffc2000       $unwind$??$_Get_size_of_n@$0BA@@std@@YA_K_K@Z 0000000140000000     config.obj
 0005:fffb1000       $pdata$??$?0D@?$allocator@U_Container_proxy@std@@@std@@QEAA@AEBV?$allocator@D@1@@Z 0000000140000000     config.obj
 0003:fffc2000       $unwind$??$?0D@?$allocator@U_Container_proxy@std@@@std@@QEAA@AEBV?$allocator@D@1@@Z 0000000140000000     config.obj
 0005:fffb1000       $pdata$??$construct@U_Container_proxy@std@@U12@@?$_Default_allocator_traits@V?$allocator@U_Container_proxy@std@@@std@@@std@@SAXAEAV?$allocator@U_Container_proxy@std@@@1@QEAU_Container_proxy@1@$$QEAU31@@Z 0000000140000000     config.obj
 0003:fffc2000       $unwind$??$construct@U_Container_proxy@std@@U12@@?$_Default_allocator_traits@V?$allocator@U_Container_proxy@std@@@std@@@std@@SAXAEAV?$allocator@U_Container_proxy@std@@@1@QEAU_Container_proxy@1@$$QEAU31@@Z 0000000140000000     config.obj
 0005:fffb1000       $pdata$??$_Unfancy@U_Container_proxy@std@@@std@@YAPEAU_Container_proxy@0@PEAU10@@Z 0000000140000000     config.obj
 0003:fffc2000       $unwind$??$_Unfancy@U_Container_proxy@std@@@std@@YAPEAU_Container_proxy@0@PEAU10@@Z 0000000140000000     config.obj
 0005:fffb1000       $pdata$??$_Deallocate_plain@V?$allocator@U_Container_proxy@std@@@std@@$0A@@std@@YAXAEAV?$allocator@U_Container_proxy@std@@@0@QEAU_Container_proxy@0@@Z 0000000140000000     config.obj
 0003:fffc2000       $unwind$??$_Maklocstr@D@std@@YAPEADPEBDPEADAEBU_Cvtvec@@@Z 0000000140000000     widget.obj
 0005:fffb1000       $pdata$??$_Maklocstr@D@std@@YAPEADPEBDPEADAEBU_Cvtvec@@@Z 0000000140000000     widget.obj
 0003:fffc2000       $unwind$??$_Deallocate_plain@V?$allocator@U_Container_proxy@std@@@std@@$0A@@std@@YAXAEAV?$allocator@U_Container_proxy@std@@@0@QEAU_Container_proxy@0@@Z 0000000140000000     config.obj
 0005:fffb1000       $pdata$??$destroy@U_Container_proxy@std@@@?$_Default_allocator_traits@V?$allocator@U_Container_proxy@std@@@std@@@std@@SAXAEAV?$allocator@U_Container_proxy@std@@@1@QEAU_Container_proxy@1@@Z 0000000140000000     config.obj
 0003:fffc2000       $unwind$?__empty_global_delete@@YAXPEAX@Z 0000000140000000     widget-templates.obj
 0005:fffb1000       $pdata$?__empty_global_delete@@YAXPEAX@Z 0000000140000000     widget-templates.obj
 0003:fffc2000       $unwind$?__empty_global_delete@@YAXPEAX_K@Z 0000000140000000     widget-templates.obj
 0005:fffb1000       $pdata$?__empty_global_delete@@YAXPEAX_K@Z 0000000140000000     widget-templates.obj
 0003:fffc2000       $unwind$wmemcpy            0000000140000000     widget-templates.obj
 0005:fffb1000       $pdata$wmemcpy             0000000140000000     widget-templates.obj
 0003:fffc2000       ??$_Maklocstr@_W@std@@YAPEA_WPEBDPEA_WAEBU_Cvtvec@@@Z$rtcName$0 0000000140000000     widget-templates.obj
 0003:fffc2000       $unwind$??$_Allocate_manually_vector_aligned@U_Default_allocate_traits@std@@@std@@YAPEAX_K@Z 0000000140000000     engine.obj
 0005:fffb1000       $pdata$??$_Allocate_manually_vector_aligned@U_Default_allocate_traits@std@@@std@@YAPEAX_K@Z 0000000140000000     engine.obj
 0003:fffc2000       $unwind$??$forward@U_Container_proxy@std@@@std@@YA$$QEAU_Container_proxy@0@AEAU10@@Z 0000000140000000     engine.obj
 0003:fffc2000       $unwind$??$_Maklocstr@_W@std@@YAPEA_WPEBDPEA_WAEBU_Cvtvec@@@Z 0000000140000000     widget-templates.obj
 0005:fffb1000       $pdata$??$_Maklocstr@_W@std@@YAPEA_WPEBDPEA_WAEBU_Cvtvec@@@Z 0000000140000000     widget-templates.obj
 0003:fffc2000       $unwind$?_Maklocwcs@std@@YAPEA_WPEB_W@Z 0000000140000000     widget-templates.obj
 0005:fffb1000       $pdata$?_Maklocwcs@std@@YAPEA_WPEB_W@Z 0000000140000000     widget-templates.obj
 0000:fffa6000       .debug$S                   0000000140000000     sfml-graphics-d:sfml-graphics-d-2.dll
 0003:fffc2000       $unwind$?copy@?$char_traits@D@std@@SAPEADQEADQEBD_K@Z 0000000140000000     object.obj
 0005:fffb1000       $pdata$?copy@?$char_traits@D@std@@SAPEADQEADQEBD_K@Z 0000000140000000     object.obj
 0003:fffc2000       $unwind$?move@?$char_traits@D@std@@SAPEADQEADQEBD_K@Z 0000000140000000     object.obj
 0003:fffc2000       $unwind$??$_Getvals@_W@?$time_get@DV?$istreambuf_iterator@DU?$char_traits@D@std@@@std@@@std@@IEAAX_WAEBV_Locinfo@1@@Z 0000000140000000     widget-templates.obj
 0005:fffb1000       $pdata$?move@?$char_traits@D@std@@SAPEADQEADQEBD_K@Z 0000000140000000     object.obj
 0005:fffb1000       $pdata$??$_Getvals@_W@?$time_get@DV?$istreambuf_iterator@DU?$char_traits@D@std@@@std@@@std@@IEAAX_WAEBV_Locinfo@1@@Z 0000000140000000     widget-templates.obj
 0003:fffc2000       $unwind$?assign@?$char_traits@D@std@@SAXAEADAEBD@Z 0000000140000000     object.obj
 0003:fffc2000       $unwind$??$_Getvals@_W@?$time_get@_WV?$istreambuf_iterator@_WU?$char_traits@_W@std@@@std@@@std@@IEAAX_WAEBV_Locinfo@1@@Z 0000000140000000     widget-templates.obj
 0005:fffb1000       $pdata$?assign@?$char_traits@D@std@@SAXAEADAEBD@Z 0000000140000000     object.obj
 0005:fffb1000       $pdata$??$_Getvals@_W@?$time_get@_WV?$istreambuf_iterator@_WU?$char_traits@_W@std@@@std@@@std@@IEAAX_WAEBV_Locinfo@1@@Z 0000000140000000     widget-templates.obj
 0003:fffc2000       $unwind$??0_Container_proxy@std@@QEAA@XZ 0000000140000000     object.obj
 0003:fffc2000       $unwind$??$destroy@U_Container_proxy@std@@@?$_Default_allocator_traits@V?$allocator@U_Container_proxy@std@@@std@@@std@@SAXAEAV?$allocator@U_Container_proxy@std@@@1@QEAU_Container_proxy@1@@Z 0000000140000000     config.obj
 0005:fffb1000       $pdata$??0_Container_proxy@std@@QEAA@XZ 0000000140000000     object.obj
 0005:fffb1000       $pdata$?deallocate@?$_Default_allocator_traits@V?$allocator@U_Container_proxy@std@@@std@@@std@@SAXAEAV?$allocator@U_Container_proxy@std@@@2@QEAU_Container_proxy@2@_K@Z 0000000140000000     config.obj
 0003:fffc2000       $unwind$??0_Container_base12@std@@QEAA@XZ 0000000140000000     object.obj
 0003:fffc2000       $unwind$?deallocate@?$_Default_allocator_traits@V?$allocator@U_Container_proxy@std@@@std@@@std@@SAXAEAV?$allocator@U_Container_proxy@std@@@2@QEAU_Container_proxy@2@_K@Z 0000000140000000     config.obj
 0005:fffb1000       $pdata$??0_Container_base12@std@@QEAA@XZ 0000000140000000     object.obj
 0005:fffb1000       $pdata$?allocate@?$allocator@U_Container_proxy@std@@@std@@QEAAPEAU_Container_proxy@2@_K@Z 0000000140000000     config.obj
 0003:fffc2000       ?_Orphan_all@_Container_base12@std@@QEAAXXZ$rtcName$0 0000000140000000     object.obj
 0003:fffc2000       $unwind$?allocate@?$allocator@U_Container_proxy@std@@@std@@QEAAPEAU_Container_proxy@2@_K@Z 0000000140000000     config.obj
 0005:fffb1000       $pdata$?length@?$char_traits@D@std@@SA_KQEBD@Z 0000000140000000     object.obj
 0005:fffb1000       $pdata$??$_Deallocate@$0BA@$0A@@std@@YAXPEAX_K@Z 0000000140000000     config.obj
 0003:fffc2000       $unwind$?length@?$char_traits@D@std@@SA_KQEBD@Z 0000000140000000     object.obj
 0003:fffc2000       $unwind$??$_Maklocstr@D@std@@YAPEADPEBDPEADAEBU_Cvtvec@@@Z 0000000140000000     widget-templates.obj
 0003:fffc2000       $unwind$?_Orphan_all@_Container_base12@std@@QEAAXXZ 0000000140000000     object.obj
 0005:fffb1000       $pdata$??$_Maklocstr@D@std@@YAPEADPEBDPEADAEBU_Cvtvec@@@Z 0000000140000000     widget-templates.obj
 0005:fffb1000       $pdata$?_Orphan_all@_Container_base12@std@@QEAAXXZ 0000000140000000     object.obj
 0003:fffc2000       $unwind$??$_Deallocate@$0BA@$0A@@std@@YAXPEAX_K@Z 0000000140000000     config.obj
 0005:fffb1000       $pdata$??2@YAPEAX_KPEAX@Z  0000000140000000     object.obj
 0005:fffb1000       $pdata$??$_Allocate@$0BA@U_Default_allocate_traits@std@@$0A@@std@@YAPEAX_K@Z 0000000140000000     config.obj
 0003:fffc2000       $ip2state$?_Orphan_all@_Container_base12@std@@QEAAXXZ 0000000140000000     object.obj
 0003:fffc2000       $unwind$?__empty_global_delete@@YAXPEAX@Z 0000000140000000     window.obj
 0003:fffc2000       $unwind$??$_Get_size_of_n@$00@std@@YA_K_K@Z 0000000140000000     object.obj
 0005:fffb1000       $pdata$?__empty_global_delete@@YAXPEAX@Z 0000000140000000     window.obj
 0005:fffb1000       $pdata$??$_Get_size_of_n@$00@std@@YA_K_K@Z 0000000140000000     object.obj
 0003:fffc2000       $unwind$?__empty_global_delete@@YAXPEAX_K@Z 0000000140000000     window.obj
 0003:fffc2000       $unwind$?_Allocate@_Default_allocate_traits@std@@SAPEAX_K@Z 0000000140000000     object.obj
 0005:fffb1000       $pdata$?__empty_global_delete@@YAXPEAX_K@Z 0000000140000000     window.obj
 0005:fffb1000       $pdata$?_Allocate@_Default_allocate_traits@std@@SAPEAX_K@Z 0000000140000000     object.obj
 0003:fffc2000       $unwind$?_Adjust_manually_vector_aligned@std@@YAXAEAPEAXAEA_K@Z 0000000140000000     object.obj
 0005:fffb1000       $pdata$?_Adjust_manually_vector_aligned@std@@YAXAEAPEAXAEA_K@Z 0000000140000000     object.obj
 0003:fffc2000       $unwind$??$_Convert_size@_K@std@@YA_K_K@Z 0000000140000000     object.obj
 0003:fffc2000       $unwind$wmemcpy            0000000140000000     window.obj
 0005:fffb1000       $pdata$??$_Convert_size@_K@std@@YA_K_K@Z 0000000140000000     object.obj
 0005:fffb1000       $pdata$wmemcpy             0000000140000000     window.obj
 0003:fffc2000       $unwind$??0?$allocator@D@std@@QEAA@XZ 0000000140000000     object.obj
 0003:fffc2000       ??$_Maklocstr@_W@std@@YAPEA_WPEBDPEA_WAEBU_Cvtvec@@@Z$rtcName$0 0000000140000000     window.obj
 0005:fffb1000       $pdata$??0?$allocator@D@std@@QEAA@XZ 0000000140000000     object.obj
 0005:fffb1000       $pdata$??$forward@U_Container_proxy@std@@@std@@YA$$QEAU_Container_proxy@0@AEAU10@@Z 0000000140000000     engine.obj
 0003:fffc2000       $unwind$?deallocate@?$allocator@D@std@@QEAAXQEAD_K@Z 0000000140000000     object.obj
 0003:fffc2000       $unwind$??$destroy@PEAU?$_Tree_node@U?$pair@$$CBW4Object_Type@@PEBVGameObject@@@std@@PEAX@std@@@?$_Default_allocator_traits@V?$allocator@U?$_Tree_node@U?$pair@$$CBW4Object_Type@@PEBVGameObject@@@std@@PEAX@std@@@std@@@std@@SAXAEAV?$allocator@U?$_Tree_node@U?$pair@$$CBW4Object_Type@@PEBVGameObject@@@std@@PEAX@std@@@1@QEAPEAU?$_Tree_node@U?$pair@$$CBW4Object_Type@@PEBVGameObject@@@std@@PEAX@1@@Z 0000000140000000     engine.obj
 0005:fffb1000       $pdata$?deallocate@?$allocator@D@std@@QEAAXQEAD_K@Z 0000000140000000     object.obj
 0005:fffb1000       $pdata$??$destroy@PEAU?$_Tree_node@U?$pair@$$CBW4Object_Type@@PEBVGameObject@@@std@@PEAX@std@@@?$_Default_allocator_traits@V?$allocator@U?$_Tree_node@U?$pair@$$CBW4Object_Type@@PEBVGameObject@@@std@@PEAX@std@@@std@@@std@@SAXAEAV?$allocator@U?$_Tree_node@U?$pair@$$CBW4Object_Type@@PEBVGameObject@@@std@@PEAX@std@@@1@QEAPEAU?$_Tree_node@U?$pair@$$CBW4Object_Type@@PEBVGameObject@@@std@@PEAX@1@@Z 0000000140000000     engine.obj
 0003:fffc2000       $unwind$?allocate@?$allocator@D@std@@QEAAPEAD_K@Z 0000000140000000     object.obj
 0003:fffc2000       $unwind$??$_Maklocstr@_W@std@@YAPEA_WPEBDPEA_WAEBU_Cvtvec@@@Z 0000000140000000     window.obj
 0005:fffb1000       $pdata$?allocate@?$allocator@D@std@@QEAAPEAD_K@Z 0000000140000000     object.obj
 0005:fffb1000       $pdata$??$_Maklocstr@_W@std@@YAPEA_WPEBDPEA_WAEBU_Cvtvec@@@Z 0000000140000000     window.obj
 0003:fffc2000       $unwind$?max_size@?$_Default_allocator_traits@V?$allocator@D@std@@@std@@SA_KAEBV?$allocator@D@2@@Z 0000000140000000     object.obj
 0003:fffc2000       $unwind$?_Maklocwcs@std@@YAPEA_WPEB_W@Z 0000000140000000     window.obj
 0005:fffb1000       $pdata$?max_size@?$_Default_allocator_traits@V?$allocator@D@std@@@std@@SA_KAEBV?$allocator@D@2@@Z 0000000140000000     object.obj
 0005:fffb1000       $pdata$?_Maklocwcs@std@@YAPEA_WPEB_W@Z 0000000140000000     window.obj
 0003:fffc2000       $unwind$??0?$_String_val@U?$_Simple_types@D@std@@@std@@QEAA@XZ 0000000140000000     object.obj
 0003:fffc2000       $unwind$??$_Getvals@_W@?$time_get@DV?$istreambuf_iterator@DU?$char_traits@D@std@@@std@@@std@@IEAAX_WAEBV_Locinfo@1@@Z 0000000140000000     window.obj
 0005:fffb1000       $pdata$??0?$_String_val@U?$_Simple_types@D@std@@@std@@QEAA@XZ 0000000140000000     object.obj
 0005:fffb1000       $pdata$??$_Getvals@_W@?$time_get@DV?$istreambuf_iterator@DU?$char_traits@D@std@@@std@@@std@@IEAAX_WAEBV_Locinfo@1@@Z 0000000140000000     window.obj
 0003:fffc2000       $unwind$?_Myptr@?$_String_val@U?$_Simple_types@D@std@@@std@@QEAAPEADXZ 0000000140000000     object.obj
 0003:fffc2000       $unwind$??$_Getvals@_W@?$time_get@_WV?$istreambuf_iterator@_WU?$char_traits@_W@std@@@std@@@std@@IEAAX_WAEBV_Locinfo@1@@Z 0000000140000000     window.obj
 0005:fffb1000       $pdata$?_Myptr@?$_String_val@U?$_Simple_types@D@std@@@std@@QEAAPEADXZ 0000000140000000     object.obj
 0005:fffb1000       $pdata$??$_Getvals@_W@?$time_get@_WV?$istreambuf_iterator@_WU?$char_traits@_W@std@@@std@@@std@@IEAAX_WAEBV_Locinfo@1@@Z 0000000140000000     window.obj
 0003:fffc2000       $unwind$?_Large_string_engaged@?$_String_val@U?$_Simple_types@D@std@@@std@@QEBA_NXZ 0000000140000000     object.obj
 0003:fffc2000       $unwind$??$_Allocate@$0BA@U_Default_allocate_traits@std@@$0A@@std@@YAPEAX_K@Z 0000000140000000     config.obj
 0005:fffb1000       $pdata$?_Large_string_engaged@?$_String_val@U?$_Simple_types@D@std@@@std@@QEBA_NXZ 0000000140000000     object.obj
 0005:fffb1000       $pdata$??$construct@PEADAEBQEAD@?$_Default_allocator_traits@V?$allocator@D@std@@@std@@SAXAEAV?$allocator@D@1@QEAPEADAEBQEAD@Z 0000000140000000     config.obj
 0003:fffc2000       $unwind$??0_Bxty@?$_String_val@U?$_Simple_types@D@std@@@std@@QEAA@XZ 0000000140000000     object.obj
 0003:fffc2000       $unwind$??$construct@PEADAEBQEAD@?$_Default_allocator_traits@V?$allocator@D@std@@@std@@SAXAEAV?$allocator@D@1@QEAPEADAEBQEAD@Z 0000000140000000     config.obj
 0005:fffb1000       $pdata$??0_Bxty@?$_String_val@U?$_Simple_types@D@std@@@std@@QEAA@XZ 0000000140000000     object.obj
 0003:fffc2000       $unwind$??$forward@AEAPEAU?$_Tree_node@U?$pair@$$CBW4Object_Type@@PEBVGameObject@@@std@@PEAX@std@@@std@@YAAEAPEAU?$_Tree_node@U?$pair@$$CBW4Object_Type@@PEBVGameObject@@@std@@PEAX@0@AEAPEAU10@@Z 0000000140000000     engine.obj
 0003:fffc2000       $unwind$??1_Bxty@?$_String_val@U?$_Simple_types@D@std@@@std@@QEAA@XZ 0000000140000000     object.obj
 0005:fffb1000       $pdata$??$forward@AEAPEAU?$_Tree_node@U?$pair@$$CBW4Object_Type@@PEBVGameObject@@@std@@PEAX@std@@@std@@YAAEAPEAU?$_Tree_node@U?$pair@$$CBW4Object_Type@@PEBVGameObject@@@std@@PEAX@0@AEAPEAU10@@Z 0000000140000000     engine.obj
 0005:fffb1000       $pdata$??1_Bxty@?$_String_val@U?$_Simple_types@D@std@@@std@@QEAA@XZ 0000000140000000     object.obj
 0003:fffc2000       $unwind$?__empty_global_delete@@YAXPEAX@Z 0000000140000000     main.obj
 0003:fffc2000       $unwind$??1?$_String_val@U?$_Simple_types@D@std@@@std@@QEAA@XZ 0000000140000000     object.obj
 0005:fffb1000       $pdata$??1?$_String_val@U?$_Simple_types@D@std@@@std@@QEAA@XZ 0000000140000000     object.obj
 0003:fffc2000       $unwind$??0?$_String_alloc@U?$_String_base_types@DV?$allocator@D@std@@@std@@@std@@QEAA@XZ 0000000140000000     object.obj
 0005:fffb1000       $pdata$??0?$_String_alloc@U?$_String_base_types@DV?$allocator@D@std@@@std@@@std@@QEAA@XZ 0000000140000000     object.obj
 0003:fffc2000       $unwind$??$_Maklocstr@D@std@@YAPEADPEBDPEADAEBU_Cvtvec@@@Z 0000000140000000     window.obj
 0003:fffc2000       $cppxdata$??0?$_String_alloc@U?$_String_base_types@DV?$allocator@D@std@@@std@@@std@@QEAA@XZ 0000000140000000     object.obj
 0005:fffb1000       $pdata$??$_Maklocstr@D@std@@YAPEADPEBDPEADAEBU_Cvtvec@@@Z 0000000140000000     window.obj
 0003:fffc2000       $stateUnwindMap$??0?$_String_alloc@U?$_String_base_types@DV?$allocator@D@std@@@std@@@std@@QEAA@XZ 0000000140000000     object.obj
 0005:fffb1000       $pdata$??$addressof@V?$_String_val@U?$_Simple_types@D@std@@@std@@@std@@YAPEAV?$_String_val@U?$_Simple_types@D@std@@@0@AEAV10@@Z 0000000140000000     config.obj
 0003:fffc2000       $ip2state$??0?$_String_alloc@U?$_String_base_types@DV?$allocator@D@std@@@std@@@std@@QEAA@XZ 0000000140000000     object.obj
 0003:fffc2000       $unwind$??$addressof@V?$_String_val@U?$_Simple_types@D@std@@@std@@@std@@YAPEAV?$_String_val@U?$_Simple_types@D@std@@@0@AEAV10@@Z 0000000140000000     config.obj
 0003:fffc2000       $unwind$?dtor$0@?0???0?$_String_alloc@U?$_String_base_types@DV?$allocator@D@std@@@std@@@std@@QEAA@XZ@4HA 0000000140000000     object.obj
 0005:fffb1000       $pdata$?__empty_global_delete@@YAXPEAX@Z 0000000140000000     main.obj
 0005:fffb1000       $pdata$?dtor$0@?0???0?$_String_alloc@U?$_String_base_types@DV?$allocator@D@std@@@std@@@std@@QEAA@XZ@4HA 0000000140000000     object.obj
 0003:fffc2000       $unwind$?__empty_global_delete@@YAXPEAX_K@Z 0000000140000000     main.obj
 0003:fffc2000       $unwind$??1?$_String_alloc@U?$_String_base_types@DV?$allocator@D@std@@@std@@@std@@QEAA@XZ 0000000140000000     object.obj
 0003:fffc2000       $unwind$?__empty_global_delete@@YAXPEAX@Z 0000000140000000     window-game.obj
 0005:fffb1000       $pdata$??1?$_String_alloc@U?$_String_base_types@DV?$allocator@D@std@@@std@@@std@@QEAA@XZ 0000000140000000     object.obj
 0003:fffc2000       $cppxdata$??1?$_String_alloc@U?$_String_base_types@DV?$allocator@D@std@@@std@@@std@@QEAA@XZ 0000000140000000     object.obj
 0003:fffc2000       $ip2state$??1?$_String_alloc@U?$_String_base_types@DV?$allocator@D@std@@@std@@@std@@QEAA@XZ 0000000140000000     object.obj
 0005:fffb1000       $pdata$?__empty_global_delete@@YAXPEAX@Z 0000000140000000     window-game.obj
 0003:fffc2000       ?_Alloc_proxy@?$_String_alloc@U?$_String_base_types@DV?$allocator@D@std@@@std@@@std@@QEAAXXZ$rtcName$0 0000000140000000     object.obj
 0003:fffc2000       $unwind$??2@YAPEAX_KPEAX@Z 0000000140000000     object.obj
 0005:fffb1000       $pdata$?max@?$numeric_limits@_J@std@@SA_JXZ 0000000140000000     object.obj
 0003:fffc2000       $unwind$?_Alloc_proxy@?$_String_alloc@U?$_String_base_types@DV?$allocator@D@std@@@std@@@std@@QEAAXXZ 0000000140000000     object.obj
 0003:fffc2000       $unwind$?__empty_global_delete@@YAXPEAX_K@Z 0000000140000000     window-game.obj
 0005:fffb1000       $pdata$?_Alloc_proxy@?$_String_alloc@U?$_String_base_types@DV?$allocator@D@std@@@std@@@std@@QEAAXXZ 0000000140000000     object.obj
 0005:fffb1000       $pdata$?__empty_global_delete@@YAXPEAX_K@Z 0000000140000000     window-game.obj
 0003:fffc2000       ?_Free_proxy@?$_String_alloc@U?$_String_base_types@DV?$allocator@D@std@@@std@@@std@@QEAAXXZ$rtcName$0 0000000140000000     object.obj
 0003:fffc2000       $unwind$wmemcpy            0000000140000000     window-game.obj
 0003:fffc2000       $unwind$?max@?$numeric_limits@_J@std@@SA_JXZ 0000000140000000     object.obj
 0005:fffb1000       $pdata$wmemcpy             0000000140000000     window-game.obj
 0000:fffa6000       .debug$S                   0000000140000000     kernel32:KERNEL32.dll
 0003:fffc2000       ??$_Maklocstr@_W@std@@YAPEA_WPEBDPEA_WAEBU_Cvtvec@@@Z$rtcName$0 0000000140000000     window-game.obj
 0003:fffc2000       $unwind$?_Free_proxy@?$_String_alloc@U?$_String_base_types@DV?$allocator@D@std@@@std@@@std@@QEAAXXZ 0000000140000000     object.obj
 0005:fffb1000       $pdata$?__empty_global_delete@@YAXPEAX_K@Z 0000000140000000     main.obj
 0005:fffb1000       $pdata$?_Free_proxy@?$_String_alloc@U?$_String_base_types@DV?$allocator@D@std@@@std@@@std@@QEAAXXZ 0000000140000000     object.obj
 0003:fffc2000       $unwind$wmemcpy            0000000140000000     main.obj
 0003:fffc2000       $unwind$?_Myproxy@?$_String_alloc@U?$_String_base_types@DV?$allocator@D@std@@@std@@@std@@QEAAAEAPEAU_Container_proxy@2@XZ 0000000140000000     object.obj
 0005:fffb1000       $pdata$wmemcpy             0000000140000000     main.obj
 0005:fffb1000       $pdata$?_Myproxy@?$_String_alloc@U?$_String_base_types@DV?$allocator@D@std@@@std@@@std@@QEAAAEAPEAU_Container_proxy@2@XZ 0000000140000000     object.obj
 0003:fffc2000       ??$_Maklocstr@_W@std@@YAPEA_WPEBDPEA_WAEBU_Cvtvec@@@Z$rtcName$0 0000000140000000     main.obj
 0003:fffc2000       $unwind$?_Orphan_all@?$_String_alloc@U?$_String_base_types@DV?$allocator@D@std@@@std@@@std@@QEAAXXZ 0000000140000000     object.obj
 0003:fffc2000       $unwind$??$_Maklocstr@_W@std@@YAPEA_WPEBDPEA_WAEBU_Cvtvec@@@Z 0000000140000000     window-game.obj
 0005:fffb1000       $pdata$?_Orphan_all@?$_String_alloc@U?$_String_base_types@DV?$allocator@D@std@@@std@@@std@@QEAAXXZ 0000000140000000     object.obj
 0005:fffb1000       $pdata$??$_Maklocstr@_W@std@@YAPEA_WPEBDPEA_WAEBU_Cvtvec@@@Z 0000000140000000     window-game.obj
 0003:fffc2000       $unwind$?_Getal@?$_String_alloc@U?$_String_base_types@DV?$allocator@D@std@@@std@@@std@@QEAAAEAV?$allocator@D@2@XZ 0000000140000000     object.obj
 0003:fffc2000       $unwind$?_Maklocwcs@std@@YAPEA_WPEB_W@Z 0000000140000000     window-game.obj
 0005:fffb1000       $pdata$?_Getal@?$_String_alloc@U?$_String_base_types@DV?$allocator@D@std@@@std@@@std@@QEAAAEAV?$allocator@D@2@XZ 0000000140000000     object.obj
 0005:fffb1000       $pdata$?_Maklocwcs@std@@YAPEA_WPEB_W@Z 0000000140000000     window-game.obj
 0003:fffc2000       $unwind$?_Getal@?$_String_alloc@U?$_String_base_types@DV?$allocator@D@std@@@std@@@std@@QEBAAEBV?$allocator@D@2@XZ 0000000140000000     object.obj
 0005:fffb1000       $pdata$?_Getal@?$_String_alloc@U?$_String_base_types@DV?$allocator@D@std@@@std@@@std@@QEBAAEBV?$allocator@D@2@XZ 0000000140000000     object.obj
 0003:fffc2000       $unwind$?_Get_data@?$_String_alloc@U?$_String_base_types@DV?$allocator@D@std@@@std@@@std@@QEAAAEAV?$_String_val@U?$_Simple_types@D@std@@@2@XZ 0000000140000000     object.obj
 0005:fffb1000       $pdata$?_Get_data@?$_String_alloc@U?$_String_base_types@DV?$allocator@D@std@@@std@@@std@@QEAAAEAV?$_String_val@U?$_Simple_types@D@std@@@2@XZ 0000000140000000     object.obj
 0003:fffc2000       $unwind$??$_Getvals@_W@?$time_get@DV?$istreambuf_iterator@DU?$char_traits@D@std@@@std@@@std@@IEAAX_WAEBV_Locinfo@1@@Z 0000000140000000     window-game.obj
 0003:fffc2000       $unwind$?_Get_data@?$_String_alloc@U?$_String_base_types@DV?$allocator@D@std@@@std@@@std@@QEBAAEBV?$_String_val@U?$_Simple_types@D@std@@@2@XZ 0000000140000000     object.obj
 0005:fffb1000       $pdata$??$_Getvals@_W@?$time_get@DV?$istreambuf_iterator@DU?$char_traits@D@std@@@std@@@std@@IEAAX_WAEBV_Locinfo@1@@Z 0000000140000000     window-game.obj
 0005:fffb1000       $pdata$?_Get_data@?$_String_alloc@U?$_String_base_types@DV?$allocator@D@std@@@std@@@std@@QEBAAEBV?$_String_val@U?$_Simple_types@D@std@@@2@XZ 0000000140000000     object.obj
 0003:fffc2000       $unwind$??$_Getvals@_W@?$time_get@_WV?$istreambuf_iterator@_WU?$char_traits@_W@std@@@std@@@std@@IEAAX_WAEBV_Locinfo@1@@Z 0000000140000000     window-game.obj
 0003:fffc2000       $unwind$?_Get_first@?$_Compressed_pair@V?$allocator@D@std@@V?$_String_val@U?$_Simple_types@D@std@@@2@$00@std@@QEAAAEAV?$allocator@D@2@XZ 0000000140000000     object.obj
 0005:fffb1000       $pdata$?_Get_first@?$_Compressed_pair@V?$allocator@D@std@@V?$_String_val@U?$_Simple_types@D@std@@@2@$00@std@@QEAAAEAV?$allocator@D@2@XZ 0000000140000000     object.obj
 0003:fffc2000       $unwind$?_Get_first@?$_Compressed_pair@V?$allocator@D@std@@V?$_String_val@U?$_Simple_types@D@std@@@2@$00@std@@QEBAAEBV?$allocator@D@2@XZ 0000000140000000     object.obj
 0005:fffb1000       $pdata$?_Get_first@?$_Compressed_pair@V?$allocator@D@std@@V?$_String_val@U?$_Simple_types@D@std@@@2@$00@std@@QEBAAEBV?$allocator@D@2@XZ 0000000140000000     object.obj
 0005:fffb1000       $pdata$??$_Getvals@_W@?$time_get@_WV?$istreambuf_iterator@_WU?$char_traits@_W@std@@@std@@@std@@IEAAX_WAEBV_Locinfo@1@@Z 0000000140000000     window-game.obj
 0003:fffc2000       $unwind$?_Get_second@?$_Compressed_pair@V?$allocator@D@std@@V?$_String_val@U?$_Simple_types@D@std@@@2@$00@std@@QEAAAEAV?$_String_val@U?$_Simple_types@D@std@@@2@XZ 0000000140000000     object.obj
 0003:fffc2000       $unwind$??0?$Vector2@M@sf@@QEAA@MM@Z 0000000140000000     window-game.obj
 0005:fffb1000       $pdata$?_Get_second@?$_Compressed_pair@V?$allocator@D@std@@V?$_String_val@U?$_Simple_types@D@std@@@2@$00@std@@QEAAAEAV?$_String_val@U?$_Simple_types@D@std@@@2@XZ 0000000140000000     object.obj
 0005:fffb1000       $pdata$??0?$Vector2@M@sf@@QEAA@MM@Z 0000000140000000     window-game.obj
 0003:fffc2000       $unwind$?_Get_second@?$_Compressed_pair@V?$allocator@D@std@@V?$_String_val@U?$_Simple_types@D@std@@@2@$00@std@@QEBAAEBV?$_String_val@U?$_Simple_types@D@std@@@2@XZ 0000000140000000     object.obj
 0005:fffb1000       $pdata$??$_Max_value@_K@std@@YAAEB_KAEB_K0@Z 0000000140000000     config.obj
 0005:fffb1000       $pdata$?_Get_second@?$_Compressed_pair@V?$allocator@D@std@@V?$_String_val@U?$_Simple_types@D@std@@@2@$00@std@@QEBAAEBV?$_String_val@U?$_Simple_types@D@std@@@2@XZ 0000000140000000     object.obj
 0003:fffc2000       $unwind$??$_Max_value@_K@std@@YAAEB_KAEB_K0@Z 0000000140000000     config.obj
 0003:fffc2000       $unwind$??1?$_Compressed_pair@V?$allocator@D@std@@V?$_String_val@U?$_Simple_types@D@std@@@2@$00@std@@QEAA@XZ 0000000140000000     object.obj
 0005:fffb1000       $pdata$??$destroy@PEAD@?$_Default_allocator_traits@V?$allocator@D@std@@@std@@SAXAEAV?$allocator@D@1@QEAPEAD@Z 0000000140000000     config.obj
 0005:fffb1000       $pdata$??1?$_Compressed_pair@V?$allocator@D@std@@V?$_String_val@U?$_Simple_types@D@std@@@2@$00@std@@QEAA@XZ 0000000140000000     object.obj
 0003:fffc2000       $unwind$??0?$basic_string@DU?$char_traits@D@std@@V?$allocator@D@2@@std@@QEAA@QEBD@Z 0000000140000000     object.obj
 0005:fffb1000       $pdata$??0?$basic_string@DU?$char_traits@D@std@@V?$allocator@D@2@@std@@QEAA@QEBD@Z 0000000140000000     object.obj
 0003:fffc2000       $cppxdata$??0?$basic_string@DU?$char_traits@D@std@@V?$allocator@D@2@@std@@QEAA@QEBD@Z 0000000140000000     object.obj
 0003:fffc2000       $unwind$??$destroy@PEAD@?$_Default_allocator_traits@V?$allocator@D@std@@@std@@SAXAEAV?$allocator@D@1@QEAPEAD@Z 0000000140000000     config.obj
 0003:fffc2000       $stateUnwindMap$??0?$basic_string@DU?$char_traits@D@std@@V?$allocator@D@2@@std@@QEAA@QEBD@Z 0000000140000000     object.obj
 0005:fffb1000       $pdata$??$addressof@PEAD@std@@YAPEAPEADAEAPEAD@Z 0000000140000000     config.obj
 0003:fffc2000       $ip2state$??0?$basic_string@DU?$char_traits@D@std@@V?$allocator@D@2@@std@@QEAA@QEBD@Z 0000000140000000     object.obj
 0003:fffc2000       $unwind$??$addressof@PEAD@std@@YAPEAPEADAEAPEAD@Z 0000000140000000     config.obj
 0003:fffc2000       $unwind$?dtor$0@?0???0?$basic_string@DU?$char_traits@D@std@@V?$allocator@D@2@@std@@QEAA@QEBD@Z@4HA 0000000140000000     object.obj
 0005:fffb1000       $pdata$??$?0$$V@?$_Compressed_pair@V?$allocator@D@std@@V?$_String_val@U?$_Simple_types@D@std@@@2@$00@std@@QEAA@U_Zero_then_variadic_args_t@1@@Z 0000000140000000     config.obj
 0005:fffb1000       $pdata$?dtor$0@?0???0?$basic_string@DU?$char_traits@D@std@@V?$allocator@D@2@@std@@QEAA@QEBD@Z@4HA 0000000140000000     object.obj
 0003:fffc2000       $unwind$??$?0$$V@?$_Compressed_pair@V?$allocator@D@std@@V?$_String_val@U?$_Simple_types@D@std@@@2@$00@std@@QEAA@U_Zero_then_variadic_args_t@1@@Z 0000000140000000     config.obj
 0003:fffc2000       $unwind$??1?$basic_string@DU?$char_traits@D@std@@V?$allocator@D@2@@std@@QEAA@XZ 0000000140000000     object.obj
 0005:fffb1000       $pdata$??1?$basic_string@DU?$char_traits@D@std@@V?$allocator@D@2@@std@@QEAA@XZ 0000000140000000     object.obj
 0003:fffc2000       $cppxdata$??1?$basic_string@DU?$char_traits@D@std@@V?$allocator@D@2@@std@@QEAA@XZ 0000000140000000     object.obj
 0003:fffc2000       $unwind$??$_Maklocstr@_W@std@@YAPEA_WPEBDPEA_WAEBU_Cvtvec@@@Z 0000000140000000     main.obj
 0003:fffc2000       $ip2state$??1?$basic_string@DU?$char_traits@D@std@@V?$allocator@D@2@@std@@QEAA@XZ 0000000140000000     object.obj
 0003:fffc2000       $unwind$?assign@?$basic_string@DU?$char_traits@D@std@@V?$allocator@D@2@@std@@QEAAAEAV12@QEBD_K@Z 0000000140000000     object.obj
 0005:fffb1000       $pdata$?assign@?$basic_string@DU?$char_traits@D@std@@V?$allocator@D@2@@std@@QEAAAEAV12@QEBD_K@Z 0000000140000000     object.obj
 0005:fffb1000       $pdata$??$_Maklocstr@_W@std@@YAPEA_WPEBDPEA_WAEBU_Cvtvec@@@Z 0000000140000000     main.obj
 0003:fffc2000       $unwind$?assign@?$basic_string@DU?$char_traits@D@std@@V?$allocator@D@2@@std@@QEAAAEAV12@QEBD@Z 0000000140000000     object.obj
 0003:fffc2000       $unwind$?_Maklocwcs@std@@YAPEA_WPEB_W@Z 0000000140000000     main.obj
 0005:fffb1000       $pdata$?assign@?$basic_string@DU?$char_traits@D@std@@V?$allocator@D@2@@std@@QEAAAEAV12@QEBD@Z 0000000140000000     object.obj
 0005:fffb1000       $pdata$?_Maklocwcs@std@@YAPEA_WPEB_W@Z 0000000140000000     main.obj
 0003:fffc2000       ?max_size@?$basic_string@DU?$char_traits@D@std@@V?$allocator@D@2@@std@@QEBA_KXZ$rtcName$0 0000000140000000     object.obj
 0005:fffb1000       $pdata$??$_Unfancy@D@std@@YAPEADPEAD@Z 0000000140000000     config.obj
 0003:fffc2000       $unwind$wmemcpy            0000000140000000     object.obj
 0003:fffc2000       $unwind$??$_Maklocstr@D@std@@YAPEADPEBDPEADAEBU_Cvtvec@@@Z 0000000140000000     window-game.obj
 0005:fffb1000       $pdata$?__empty_global_delete@@YAXPEAX_K@Z 0000000140000000     object.obj
 0005:fffb1000       $pdata$??$_Maklocstr@D@std@@YAPEADPEBDPEADAEBU_Cvtvec@@@Z 0000000140000000     window-game.obj
 0003:fffc2000       $unwind$?max_size@?$basic_string@DU?$char_traits@D@std@@V?$allocator@D@2@@std@@QEBA_KXZ 0000000140000000     object.obj
 0003:fffc2000       $unwind$??$_Unfancy@D@std@@YAPEADPEAD@Z 0000000140000000     config.obj
 0005:fffb1000       $pdata$?max_size@?$basic_string@DU?$char_traits@D@std@@V?$allocator@D@2@@std@@QEBA_KXZ 0000000140000000     object.obj
 0005:fffb1000       $pdata$??$_Min_value@_K@std@@YAAEB_KAEB_K0@Z 0000000140000000     config.obj
 0003:fffc2000       ?_Calculate_growth@?$basic_string@DU?$char_traits@D@std@@V?$allocator@D@2@@std@@QEBA_K_K@Z$rtcName$0 0000000140000000     object.obj
 0003:fffc2000       $unwind$??$_Getvals@_W@?$time_get@DV?$istreambuf_iterator@DU?$char_traits@D@std@@@std@@@std@@IEAAX_WAEBV_Locinfo@1@@Z 0000000140000000     main.obj
 0003:fffc2000       $unwind$?__empty_global_delete@@YAXPEAX_K@Z 0000000140000000     object.obj
 0005:fffb1000       $pdata$??$_Getvals@_W@?$time_get@DV?$istreambuf_iterator@DU?$char_traits@D@std@@@std@@@std@@IEAAX_WAEBV_Locinfo@1@@Z 0000000140000000     main.obj
 0005:fffb1000       $pdata$?__empty_global_delete@@YAXPEAX@Z 0000000140000000     object.obj
 0003:fffc2000       $unwind$??$_Getvals@_W@?$time_get@_WV?$istreambuf_iterator@_WU?$char_traits@_W@std@@@std@@@std@@IEAAX_WAEBV_Locinfo@1@@Z 0000000140000000     main.obj
 0003:fffc2000       $unwind$?_Calculate_growth@?$basic_string@DU?$char_traits@D@std@@V?$allocator@D@2@@std@@QEBA_K_K@Z 0000000140000000     object.obj
 0005:fffb1000       $pdata$?_Calculate_growth@?$basic_string@DU?$char_traits@D@std@@V?$allocator@D@2@@std@@QEBA_K_K@Z 0000000140000000     object.obj
 0003:fffc2000       $unwind$?_Tidy_init@?$basic_string@DU?$char_traits@D@std@@V?$allocator@D@2@@std@@QEAAXXZ 0000000140000000     object.obj
 0005:fffb1000       $pdata$?_Tidy_init@?$basic_string@DU?$char_traits@D@std@@V?$allocator@D@2@@std@@QEAAXXZ 0000000140000000     object.obj
 0003:fffc2000       $unwind$?_Tidy_deallocate@?$basic_string@DU?$char_traits@D@std@@V?$allocator@D@2@@std@@QEAAXXZ 0000000140000000     object.obj
 0005:fffb1000       $pdata$?_Tidy_deallocate@?$basic_string@DU?$char_traits@D@std@@V?$allocator@D@2@@std@@QEAAXXZ 0000000140000000     object.obj
 0005:fffb1000       $pdata$??$_Getvals@_W@?$time_get@_WV?$istreambuf_iterator@_WU?$char_traits@_W@std@@@std@@@std@@IEAAX_WAEBV_Locinfo@1@@Z 0000000140000000     main.obj
 0003:fffc2000       $unwind$?_Xlen@?$basic_string@DU?$char_traits@D@std@@V?$allocator@D@2@@std@@SAXXZ 0000000140000000     object.obj
 0003:fffc2000       $unwind$??$_Maklocstr@D@std@@YAPEADPEBDPEADAEBU_Cvtvec@@@Z 0000000140000000     main.obj
 0005:fffb1000       $pdata$?_Xlen@?$basic_string@DU?$char_traits@D@std@@V?$allocator@D@2@@std@@SAXXZ 0000000140000000     object.obj
 0003:fffc2000       $unwind$?__empty_global_delete@@YAXPEAX@Z 0000000140000000     window-editor.obj
 0003:fffc2000       ??$_Maklocstr@_W@std@@YAPEA_WPEBDPEA_WAEBU_Cvtvec@@@Z$rtcName$0 0000000140000000     object.obj
 0005:fffb1000       $pdata$?__empty_global_delete@@YAXPEAX@Z 0000000140000000     window-editor.obj
 0003:fffc2000       $unwind$?__empty_global_delete@@YAXPEAX@Z 0000000140000000     object.obj
 0003:fffc2000       $unwind$?__empty_global_delete@@YAXPEAX_K@Z 0000000140000000     window-editor.obj
 0002:fffed000       ?dtor$0@?0???0?$basic_string@DU?$char_traits@D@std@@V?$allocator@D@2@@std@@QEAA@QEBD@Z@4HA 0000000140000000 f   object.obj
 0005:fffb1000       $pdata$?__empty_global_delete@@YAXPEAX_K@Z 0000000140000000     window-editor.obj
 0002:fffed000       ?dtor$0@?0???0?$_String_alloc@U?$_String_base_types@DV?$allocator@D@std@@@std@@@std@@QEAA@XZ@4HA 0000000140000000 f   object.obj
 0003:fffc2000       $unwind$wmemcpy            0000000140000000     window-editor.obj
 0003:fffc2000       $unwind$?_Getal@?$_Tree_comp_alloc@V?$_Tmap_traits@W4Object_Type@@PEBVGameObject@@U?$less@W4Object_Type@@@std@@V?$allocator@U?$pair@$$CBW4Object_Type@@PEBVGameObject@@@std@@@4@$0A@@std@@@std@@QEAAAEAV?$allocator@U?$_Tree_node@U?$pair@$$CBW4Object_Type@@PEBVGameObject@@@std@@PEAX@std@@@2@XZ 0000000140000000     engine.obj
 0005:fffb1000       $pdata$wmemcpy             0000000140000000     window-editor.obj
 0003:fffc2000       $unwind$??$_Maklocstr@_W@std@@YAPEA_WPEBDPEA_WAEBU_Cvtvec@@@Z 0000000140000000     object.obj
 0005:fffb1000       $pdata$??$_Maklocstr@_W@std@@YAPEA_WPEBDPEA_WAEBU_Cvtvec@@@Z 0000000140000000     object.obj
 0003:fffc2000       $unwind$?_Maklocwcs@std@@YAPEA_WPEB_W@Z 0000000140000000     object.obj
 0005:fffb1000       $pdata$?_Maklocwcs@std@@YAPEA_WPEB_W@Z 0000000140000000     object.obj
 0003:fffc2000       $unwind$??$_Getvals@_W@?$time_get@DV?$istreambuf_iterator@DU?$char_traits@D@std@@@std@@@std@@IEAAX_WAEBV_Locinfo@1@@Z 0000000140000000     object.obj
 0005:fffb1000       $pdata$??$_Getvals@_W@?$time_get@DV?$istreambuf_iterator@DU?$char_traits@D@std@@@std@@@std@@IEAAX_WAEBV_Locinfo@1@@Z 0000000140000000     object.obj
 0003:fffc2000       ??$_Maklocstr@_W@std@@YAPEA_WPEBDPEA_WAEBU_Cvtvec@@@Z$rtcName$0 0000000140000000     window-editor.obj
 0003:fffc2000       $unwind$??$_Getvals@_W@?$time_get@_WV?$istreambuf_iterator@_WU?$char_traits@_W@std@@@std@@@std@@IEAAX_WAEBV_Locinfo@1@@Z 0000000140000000     object.obj
 0005:fffb1000       $pdata$??$_Maklocstr@D@std@@YAPEADPEBDPEADAEBU_Cvtvec@@@Z 0000000140000000     main.obj
 0005:fffb1000       $pdata$??$_Getvals@_W@?$time_get@_WV?$istreambuf_iterator@_WU?$char_traits@_W@std@@@std@@@std@@IEAAX_WAEBV_Locinfo@1@@Z 0000000140000000     object.obj
 0003:fffc2000       $unwind$?__empty_global_delete@@YAXPEAX@Z 0000000140000000     container-moving.obj
 0003:fffc2000       $unwind$??0?$Vector2@M@sf@@QEAA@XZ 0000000140000000     object.obj
 0005:fffb1000       $pdata$?__empty_global_delete@@YAXPEAX@Z 0000000140000000     container-moving.obj
 0005:fffb1000       $pdata$??0?$Vector2@M@sf@@QEAA@XZ 0000000140000000     object.obj
 0003:fffc2000       $unwind$??0?$Vector2@M@sf@@QEAA@MM@Z 0000000140000000     object.obj
 0005:fffb1000       $pdata$??0?$Vector2@M@sf@@QEAA@MM@Z 0000000140000000     object.obj
 0005:fffb1000       $pdata$?_Getal@?$_Tree_comp_alloc@V?$_Tmap_traits@W4Object_Type@@PEBVGameObject@@U?$less@W4Object_Type@@@std@@V?$allocator@U?$pair@$$CBW4Object_Type@@PEBVGameObject@@@std@@@4@$0A@@std@@@std@@QEAAAEAV?$allocator@U?$_Tree_node@U?$pair@$$CBW4Object_Type@@PEBVGameObject@@@std@@PEAX@std@@@2@XZ 0000000140000000     engine.obj
 0003:fffc2000       $unwind$?__empty_global_delete@@YAXPEAX_K@Z 0000000140000000     container-moving.obj
 0003:fffc2000       $unwind$?_Get_data@?$_Tree_comp_alloc@V?$_Tmap_traits@W4Object_Type@@PEBVGameObject@@U?$less@W4Object_Type@@@std@@V?$allocator@U?$pair@$$CBW4Object_Type@@PEBVGameObject@@@std@@@4@$0A@@std@@@std@@QEAAAEAV?$_Tree_val@U?$_Tree_simple_types@U?$pair@$$CBW4Object_Type@@PEBVGameObject@@@std@@@std@@@2@XZ 0000000140000000     engine.obj
 0005:fffb1000       $pdata$?_Get_data@?$_Tree_comp_alloc@V?$_Tmap_traits@W4Object_Type@@PEBVGameObject@@U?$less@W4Object_Type@@@std@@V?$allocator@U?$pair@$$CBW4Object_Type@@PEBVGameObject@@@std@@@4@$0A@@std@@@std@@QEAAAEAV?$_Tree_val@U?$_Tree_simple_types@U?$pair@$$CBW4Object_Type@@PEBVGameObject@@@std@@@std@@@2@XZ 0000000140000000     engine.obj
 0003:fffc2000       $unwind$?_Get_data@?$_Tree_comp_alloc@V?$_Tmap_traits@W4Object_Type@@PEBVGameObject@@U?$less@W4Object_Type@@@std@@V?$allocator@U?$pair@$$CBW4Object_Type@@PEBVGameObject@@@std@@@4@$0A@@std@@@std@@QEBAAEBV?$_Tree_val@U?$_Tree_simple_types@U?$pair@$$CBW4Object_Type@@PEBVGameObject@@@std@@@std@@@2@XZ 0000000140000000     engine.obj
 0005:fffb1000       $pdata$?_Get_data@?$_Tree_comp_alloc@V?$_Tmap_traits@W4Object_Type@@PEBVGameObject@@U?$less@W4Object_Type@@@std@@V?$allocator@U?$pair@$$CBW4Object_Type@@PEBVGameObject@@@std@@@4@$0A@@std@@@std@@QEBAAEBV?$_Tree_val@U?$_Tree_simple_types@U?$pair@$$CBW4Object_Type@@PEBVGameObject@@@std@@@std@@@2@XZ 0000000140000000     engine.obj
 0003:fffc2000       $unwind$??$_Maklocstr@_W@std@@YAPEA_WPEBDPEA_WAEBU_Cvtvec@@@Z 0000000140000000     window-editor.obj
 0003:fffc2000       $unwind$?_Max@?$_Tree_val@U?$_Tree_simple_types@U?$pair@$$CBW4Object_Type@@PEBVGameObject@@@std@@@std@@@std@@SAPEAU?$_Tree_node@U?$pair@$$CBW4Object_Type@@PEBVGameObject@@@std@@PEAX@2@PEAU32@@Z 0000000140000000     engine.obj
 0005:fffb1000       $pdata$??$_Maklocstr@_W@std@@YAPEA_WPEBDPEA_WAEBU_Cvtvec@@@Z 0000000140000000     window-editor.obj
 0005:fffb1000       $pdata$?_Max@?$_Tree_val@U?$_Tree_simple_types@U?$pair@$$CBW4Object_Type@@PEBVGameObject@@@std@@@std@@@std@@SAPEAU?$_Tree_node@U?$pair@$$CBW4Object_Type@@PEBVGameObject@@@std@@PEAX@2@PEAU32@@Z 0000000140000000     engine.obj
 0003:fffc2000       $unwind$?_Min@?$_Tree_val@U?$_Tree_simple_types@U?$pair@$$CBW4Object_Type@@PEBVGameObject@@@std@@@std@@@std@@SAPEAU?$_Tree_node@U?$pair@$$CBW4Object_Type@@PEBVGameObject@@@std@@PEAX@2@PEAU32@@Z 0000000140000000     engine.obj
 0005:fffb1000       $pdata$?_Min@?$_Tree_val@U?$_Tree_simple_types@U?$pair@$$CBW4Object_Type@@PEBVGameObject@@@std@@@std@@@std@@SAPEAU?$_Tree_node@U?$pair@$$CBW4Object_Type@@PEBVGameObject@@@std@@PEAX@2@PEAU32@@Z 0000000140000000     engine.obj
 0003:fffc2000       $unwind$?_Maklocwcs@std@@YAPEA_WPEB_W@Z 0000000140000000     window-editor.obj
 0003:fffc2000       $unwind$?_Root@?$_Tree_val@U?$_Tree_simple_types@U?$pair@$$CBW4Object_Type@@PEBVGameObject@@@std@@@std@@@std@@QEBAAEAPEAU?$_Tree_node@U?$pair@$$CBW4Object_Type@@PEBVGameObject@@@std@@PEAX@2@XZ 0000000140000000     engine.obj
 0005:fffb1000       $pdata$?_Maklocwcs@std@@YAPEA_WPEB_W@Z 0000000140000000     window-editor.obj
 0005:fffb1000       $pdata$?_Root@?$_Tree_val@U?$_Tree_simple_types@U?$pair@$$CBW4Object_Type@@PEBVGameObject@@@std@@@std@@@std@@QEBAAEAPEAU?$_Tree_node@U?$pair@$$CBW4Object_Type@@PEBVGameObject@@@std@@PEAX@2@XZ 0000000140000000     engine.obj
 0005:fffb1000       $pdata$?deallocate@?$_Default_allocator_traits@V?$allocator@U?$_Tree_node@U?$pair@$$CBW4Object_Type@@PEBVGameObject@@@std@@PEAX@std@@@std@@@std@@SAXAEAV?$allocator@U?$_Tree_node@U?$pair@$$CBW4Object_Type@@PEBVGameObject@@@std@@PEAX@std@@@2@QEAU?$_Tree_node@U?$pair@$$CBW4Object_Type@@PEBVGameObject@@@std@@PEAX@2@_K@Z 0000000140000000     engine.obj
 0003:fffc2000       $unwind$?deallocate@?$_Default_allocator_traits@V?$allocator@U?$_Tree_node@U?$pair@$$CBW4Object_Type@@PEBVGameObject@@@std@@PEAX@std@@@std@@@std@@SAXAEAV?$allocator@U?$_Tree_node@U?$pair@$$CBW4Object_Type@@PEBVGameObject@@@std@@PEAX@std@@@2@QEAU?$_Tree_node@U?$pair@$$CBW4Object_Type@@PEBVGameObject@@@std@@PEAX@2@_K@Z 0000000140000000     engine.obj
 0005:fffb1000       $pdata$?allocate@?$allocator@U?$_Tree_node@U?$pair@$$CBW4Object_Type@@PEBVGameObject@@@std@@PEAX@std@@@std@@QEAAPEAU?$_Tree_node@U?$pair@$$CBW4Object_Type@@PEBVGameObject@@@std@@PEAX@2@_K@Z 0000000140000000     engine.obj
 0003:fffc2000       $unwind$??$_Getvals@_W@?$time_get@DV?$istreambuf_iterator@DU?$char_traits@D@std@@@std@@@std@@IEAAX_WAEBV_Locinfo@1@@Z 0000000140000000     window-editor.obj
 0003:fffc2000       $unwind$?allocate@?$allocator@U?$_Tree_node@U?$pair@$$CBW4Object_Type@@PEBVGameObject@@@std@@PEAX@std@@@std@@QEAAPEAU?$_Tree_node@U?$pair@$$CBW4Object_Type@@PEBVGameObject@@@std@@PEAX@2@_K@Z 0000000140000000     engine.obj
 0005:fffb1000       $pdata$??$_Getvals@_W@?$time_get@DV?$istreambuf_iterator@DU?$char_traits@D@std@@@std@@@std@@IEAAX_WAEBV_Locinfo@1@@Z 0000000140000000     window-editor.obj
 0005:fffb1000       $pdata$?deallocate@?$allocator@U?$_Tree_node@U?$pair@$$CBW4Object_Type@@PEBVGameObject@@@std@@PEAX@std@@@std@@QEAAXQEAU?$_Tree_node@U?$pair@$$CBW4Object_Type@@PEBVGameObject@@@std@@PEAX@2@_K@Z 0000000140000000     engine.obj
 0005:fffb1000       $pdata$??$_Max_value@_K@std@@YAAEB_KAEB_K0@Z 0000000140000000     object.obj
 0003:fffc2000       $unwind$?deallocate@?$allocator@U?$_Tree_node@U?$pair@$$CBW4Object_Type@@PEBVGameObject@@@std@@PEAX@std@@@std@@QEAAXQEAU?$_Tree_node@U?$pair@$$CBW4Object_Type@@PEBVGameObject@@@std@@PEAX@2@_K@Z 0000000140000000     engine.obj
 0003:fffc2000       $unwind$??$addressof@V?$_String_val@U?$_Simple_types@D@std@@@std@@@std@@YAPEAV?$_String_val@U?$_Simple_types@D@std@@@0@AEAV10@@Z 0000000140000000     object.obj
 0005:fffb1000       $pdata$??0?$Vector2@M@sf@@QEAA@MM@Z 0000000140000000     engine.obj
 0005:fffb1000       $pdata$??$addressof@V?$_String_val@U?$_Simple_types@D@std@@@std@@@std@@YAPEAV?$_String_val@U?$_Simple_types@D@std@@@0@AEAV10@@Z 0000000140000000     object.obj
 0003:fffc2000       $unwind$??0?$Vector2@M@sf@@QEAA@MM@Z 0000000140000000     engine.obj
 0005:fffb1000       $pdata$?_Get_second@?$_Compressed_pair@U?$less@W4Object_Type@@@std@@V?$_Compressed_pair@V?$allocator@U?$_Tree_node@U?$pair@$$CBW4Object_Type@@PEBVGameObject@@@std@@PEAX@std@@@std@@V?$_Tree_val@U?$_Tree_simple_types@U?$pair@$$CBW4Object_Type@@PEBVGameObject@@@std@@@std@@@2@$00@2@$00@std@@QEBAAEBV?$_Compressed_pair@V?$allocator@U?$_Tree_node@U?$pair@$$CBW4Object_Type@@PEBVGameObject@@@std@@PEAX@std@@@std@@V?$_Tree_val@U?$_Tree_simple_types@U?$pair@$$CBW4Object_Type@@PEBVGameObject@@@std@@@std@@@2@$00@2@XZ 0000000140000000     engine.obj
 0005:fffb1000       $pdata$??$_Getvals@_W@?$time_get@_WV?$istreambuf_iterator@_WU?$char_traits@_W@std@@@std@@@std@@IEAAX_WAEBV_Locinfo@1@@Z 0000000140000000     engine.obj
 0003:fffc2000       $unwind$?begin@?$_Tree@V?$_Tmap_traits@W4Object_Type@@PEBVGameObject@@U?$less@W4Object_Type@@@std@@V?$allocator@U?$pair@$$CBW4Object_Type@@PEBVGameObject@@@std@@@4@$0A@@std@@@std@@QEAA?AV?$_Tree_iterator@V?$_Tree_val@U?$_Tree_simple_types@U?$pair@$$CBW4Object_Type@@PEBVGameObject@@@std@@@std@@@std@@@2@XZ 0000000140000000     engine.obj
 0003:fffc2000       $unwind$??$_Getvals@_W@?$time_get@_WV?$istreambuf_iterator@_WU?$char_traits@_W@std@@@std@@@std@@IEAAX_WAEBV_Locinfo@1@@Z 0000000140000000     engine.obj
 0003:fffc2000       ?_Orphan_all@_Container_base12@std@@QEAAXXZ$rtcName$0 0000000140000000     engine.obj
 0005:fffb1000       $pdata$??$_Getvals@_W@?$time_get@DV?$istreambuf_iterator@DU?$char_traits@D@std@@@std@@@std@@IEAAX_WAEBV_Locinfo@1@@Z 0000000140000000     engine.obj
 0005:fffb1000       $pdata$??0_Container_base12@std@@QEAA@XZ 0000000140000000     engine.obj
 0003:fffc2000       $unwind$??$_Getvals@_W@?$time_get@DV?$istreambuf_iterator@DU?$char_traits@D@std@@@std@@@std@@IEAAX_WAEBV_Locinfo@1@@Z 0000000140000000     engine.obj
 0003:fffc2000       $unwind$??0_Container_base12@std@@QEAA@XZ 0000000140000000     engine.obj
 0005:fffb1000       $pdata$?_Maklocwcs@std@@YAPEA_WPEB_W@Z 0000000140000000     engine.obj
 0005:fffb1000       $pdata$??0_Container_proxy@std@@QEAA@XZ 0000000140000000     engine.obj
 0003:fffc2000       $unwind$?_Maklocwcs@std@@YAPEA_WPEB_W@Z 0000000140000000     engine.obj
 0003:fffc2000       $unwind$??0_Container_proxy@std@@QEAA@XZ 0000000140000000     engine.obj
 0005:fffb1000       $pdata$??$_Maklocstr@_W@std@@YAPEA_WPEBDPEA_WAEBU_Cvtvec@@@Z 0000000140000000     engine.obj
 0003:fffc2000       $unwind$??$construct@PEADAEBQEAD@?$_Default_allocator_traits@V?$allocator@D@std@@@std@@SAXAEAV?$allocator@D@1@QEAPEADAEBQEAD@Z 0000000140000000     object.obj
 0003:fffc2000       $unwind$??$_Maklocstr@_W@std@@YAPEA_WPEBDPEA_WAEBU_Cvtvec@@@Z 0000000140000000     engine.obj
 0003:fffc2000       $unwind$?_Lmost@?$_Tree_val@U?$_Tree_simple_types@U?$pair@$$CBW4Object_Type@@PEBVGameObject@@@std@@@std@@@std@@QEBAAEAPEAU?$_Tree_node@U?$pair@$$CBW4Object_Type@@PEBVGameObject@@@std@@PEAX@2@XZ 0000000140000000     engine.obj
 0005:fffb1000       $pdata$?_Lmost@?$_Tree_val@U?$_Tree_simple_types@U?$pair@$$CBW4Object_Type@@PEBVGameObject@@@std@@@std@@@std@@QEBAAEAPEAU?$_Tree_node@U?$pair@$$CBW4Object_Type@@PEBVGameObject@@@std@@PEAX@2@XZ 0000000140000000     engine.obj
 0003:fffc2000       $unwind$?_Rmost@?$_Tree_val@U?$_Tree_simple_types@U?$pair@$$CBW4Object_Type@@PEBVGameObject@@@std@@@std@@@std@@QEBAAEAPEAU?$_Tree_node@U?$pair@$$CBW4Object_Type@@PEBVGameObject@@@std@@PEAX@2@XZ 0000000140000000     engine.obj
 0005:fffb1000       $pdata$??$construct@PEADAEBQEAD@?$_Default_allocator_traits@V?$allocator@D@std@@@std@@SAXAEAV?$allocator@D@1@QEAPEADAEBQEAD@Z 0000000140000000     object.obj
 0005:fffb1000       $pdata$?_Rmost@?$_Tree_val@U?$_Tree_simple_types@U?$pair@$$CBW4Object_Type@@PEBVGameObject@@@std@@@std@@@std@@QEBAAEAPEAU?$_Tree_node@U?$pair@$$CBW4Object_Type@@PEBVGameObject@@@std@@PEAX@2@XZ 0000000140000000     engine.obj
 0003:fffc2000       ??$_Maklocstr@_W@std@@YAPEA_WPEBDPEA_WAEBU_Cvtvec@@@Z$rtcName$0 0000000140000000     engine.obj
 0003:fffc2000       $unwind$?_Lrotate@?$_Tree_val@U?$_Tree_simple_types@U?$pair@$$CBW4Object_Type@@PEBVGameObject@@@std@@@std@@@std@@QEAAXPEAU?$_Tree_node@U?$pair@$$CBW4Object_Type@@PEBVGameObject@@@std@@PEAX@2@@Z 0000000140000000     engine.obj
 0005:fffb1000       $pdata$?_Lrotate@?$_Tree_val@U?$_Tree_simple_types@U?$pair@$$CBW4Object_Type@@PEBVGameObject@@@std@@@std@@@std@@QEAAXPEAU?$_Tree_node@U?$pair@$$CBW4Object_Type@@PEBVGameObject@@@std@@PEAX@2@@Z 0000000140000000     engine.obj
 0005:fffb1000       $pdata$?_Adjust_manually_vector_aligned@std@@YAXAEAPEAXAEA_K@Z 0000000140000000     engine.obj
 0003:fffc2000       $unwind$?_Adjust_manually_vector_aligned@std@@YAXAEAPEAXAEA_K@Z 0000000140000000     engine.obj
 0003:fffc2000       $unwind$??$_Allocate@$0BA@U_Default_allocate_traits@std@@$0A@@std@@YAPEAX_K@Z 0000000140000000     object.obj
 0005:fffb1000       $pdata$?_Allocate@_Default_allocate_traits@std@@SAPEAX_K@Z 0000000140000000     engine.obj
 0005:fffb1000       $pdata$??$_Allocate@$0BA@U_Default_allocate_traits@std@@$0A@@std@@YAPEAX_K@Z 0000000140000000     object.obj
 0003:fffc2000       $unwind$?_Allocate@_Default_allocate_traits@std@@SAPEAX_K@Z 0000000140000000     engine.obj
 0005:fffb1000       $pdata$?max@?$numeric_limits@_J@std@@SA_JXZ 0000000140000000     engine.obj
 0003:fffc2000       $unwind$?max@?$numeric_limits@_J@std@@SA_JXZ 0000000140000000     engine.obj
 0003:fffc2000       $ip2state$?_Orphan_me@_Iterator_base12@std@@QEAAXXZ 0000000140000000     engine.obj
 0003:fffc2000       $unwind$??$_Deallocate@$0BA@$0A@@std@@YAXPEAX_K@Z 0000000140000000     object.obj
 0003:fffc2000       $cppxdata$?_Orphan_me@_Iterator_base12@std@@QEAAXXZ 0000000140000000     engine.obj
 0005:fffb1000       $pdata$??$_Deallocate@$0BA@$0A@@std@@YAXPEAX_K@Z 0000000140000000     object.obj
 0005:fffb1000       $pdata$?_Orphan_me@_Iterator_base12@std@@QEAAXXZ 0000000140000000     engine.obj
 0003:fffc2000       $unwind$?allocate@?$allocator@U_Container_proxy@std@@@std@@QEAAPEAU_Container_proxy@2@_K@Z 0000000140000000     object.obj
 0003:fffc2000       $unwind$?_Orphan_me@_Iterator_base12@std@@QEAAXXZ 0000000140000000     engine.obj
 0005:fffb1000       $pdata$?allocate@?$allocator@U_Container_proxy@std@@@std@@QEAAPEAU_Container_proxy@2@_K@Z 0000000140000000     object.obj
 0005:fffb1000       $pdata$?_Getcont@_Iterator_base12@std@@QEBAPEBU_Container_base12@2@XZ 0000000140000000     engine.obj
 0003:fffc2000       $unwind$?deallocate@?$_Default_allocator_traits@V?$allocator@U_Container_proxy@std@@@std@@@std@@SAXAEAV?$allocator@U_Container_proxy@std@@@2@QEAU_Container_proxy@2@_K@Z 0000000140000000     object.obj
 0003:fffc2000       $unwind$?_Getcont@_Iterator_base12@std@@QEBAPEBU_Container_base12@2@XZ 0000000140000000     engine.obj
 0005:fffb1000       $pdata$?deallocate@?$_Default_allocator_traits@V?$allocator@U_Container_proxy@std@@@std@@@std@@SAXAEAV?$allocator@U_Container_proxy@std@@@2@QEAU_Container_proxy@2@_K@Z 0000000140000000     object.obj
 0003:fffc2000       $ip2state$?_Adopt@_Iterator_base12@std@@QEAAXPEBU_Container_base12@2@@Z 0000000140000000     engine.obj
 0003:fffc2000       $unwind$??$destroy@U_Container_proxy@std@@@?$_Default_allocator_traits@V?$allocator@U_Container_proxy@std@@@std@@@std@@SAXAEAV?$allocator@U_Container_proxy@std@@@1@QEAU_Container_proxy@1@@Z 0000000140000000     object.obj
 0003:fffc2000       $unwind$?_Rrotate@?$_Tree_val@U?$_Tree_simple_types@U?$pair@$$CBW4Object_Type@@PEBVGameObject@@@std@@@std@@@std@@QEAAXPEAU?$_Tree_node@U?$pair@$$CBW4Object_Type@@PEBVGameObject@@@std@@PEAX@2@@Z 0000000140000000     engine.obj
 0005:fffb1000       $pdata$??$destroy@U_Container_proxy@std@@@?$_Default_allocator_traits@V?$allocator@U_Container_proxy@std@@@std@@@std@@SAXAEAV?$allocator@U_Container_proxy@std@@@1@QEAU_Container_proxy@1@@Z 0000000140000000     object.obj
 0005:fffb1000       $pdata$?_Adopt@_Iterator_base12@std@@QEAAXPEBU_Container_base12@2@@Z 0000000140000000     engine.obj
 0003:fffc2000       $unwind$??$_Deallocate_plain@V?$allocator@U_Container_proxy@std@@@std@@$0A@@std@@YAXAEAV?$allocator@U_Container_proxy@std@@@0@QEAU_Container_proxy@0@@Z 0000000140000000     object.obj
 0003:fffc2000       $unwind$?_Adopt@_Iterator_base12@std@@QEAAXPEBU_Container_base12@2@@Z 0000000140000000     engine.obj
 0005:fffb1000       $pdata$??$_Deallocate_plain@V?$allocator@U_Container_proxy@std@@@std@@$0A@@std@@YAXAEAV?$allocator@U_Container_proxy@std@@@0@QEAU_Container_proxy@0@@Z 0000000140000000     object.obj
 0005:fffb1000       $pdata$?_Rrotate@?$_Tree_val@U?$_Tree_simple_types@U?$pair@$$CBW4Object_Type@@PEBVGameObject@@@std@@@std@@@std@@QEAAXPEAU?$_Tree_node@U?$pair@$$CBW4Object_Type@@PEBVGameObject@@@std@@PEAX@2@@Z 0000000140000000     engine.obj
 0003:fffc2000       $unwind$??$_Unfancy@U_Container_proxy@std@@@std@@YAPEAU_Container_proxy@0@PEAU10@@Z 0000000140000000     object.obj
 0003:fffc2000       $unwind$?_Get_first@?$_Compressed_pair@V?$allocator@U?$_Tree_node@U?$pair@$$CBW4Object_Type@@PEBVGameObject@@@std@@PEAX@std@@@std@@V?$_Tree_val@U?$_Tree_simple_types@U?$pair@$$CBW4Object_Type@@PEBVGameObject@@@std@@@std@@@2@$00@std@@QEAAAEAV?$allocator@U?$_Tree_node@U?$pair@$$CBW4Object_Type@@PEBVGameObject@@@std@@PEAX@std@@@2@XZ 0000000140000000     engine.obj
 0005:fffb1000       $pdata$??$_Unfancy@U_Container_proxy@std@@@std@@YAPEAU_Container_proxy@0@PEAU10@@Z 0000000140000000     object.obj
 0005:fffb1000       $pdata$?_Get_first@?$_Compressed_pair@V?$allocator@U?$_Tree_node@U?$pair@$$CBW4Object_Type@@PEBVGameObject@@@std@@PEAX@std@@@std@@V?$_Tree_val@U?$_Tree_simple_types@U?$pair@$$CBW4Object_Type@@PEBVGameObject@@@std@@@std@@@2@$00@std@@QEAAAEAV?$allocator@U?$_Tree_node@U?$pair@$$CBW4Object_Type@@PEBVGameObject@@@std@@PEAX@std@@@2@XZ 0000000140000000     engine.obj
 0003:fffc2000       $unwind$??$construct@U_Container_proxy@std@@U12@@?$_Default_allocator_traits@V?$allocator@U_Container_proxy@std@@@std@@@std@@SAXAEAV?$allocator@U_Container_proxy@std@@@1@QEAU_Container_proxy@1@$$QEAU31@@Z 0000000140000000     object.obj
 0003:fffc2000       ?_Adopt@_Iterator_base12@std@@QEAAXPEBU_Container_base12@2@@Z$rtcName$0 0000000140000000     engine.obj
 0005:fffb1000       $pdata$??$construct@U_Container_proxy@std@@U12@@?$_Default_allocator_traits@V?$allocator@U_Container_proxy@std@@@std@@@std@@SAXAEAV?$allocator@U_Container_proxy@std@@@1@QEAU_Container_proxy@1@$$QEAU31@@Z 0000000140000000     object.obj
 0003:fffc2000       $ip2state$??1_Iterator_base12@std@@QEAA@XZ 0000000140000000     engine.obj
 0003:fffc2000       $unwind$??$?0D@?$allocator@U_Container_proxy@std@@@std@@QEAA@AEBV?$allocator@D@1@@Z 0000000140000000     object.obj
 0003:fffc2000       $unwind$?_Get_second@?$_Compressed_pair@V?$allocator@U?$_Tree_node@U?$pair@$$CBW4Object_Type@@PEBVGameObject@@@std@@PEAX@std@@@std@@V?$_Tree_val@U?$_Tree_simple_types@U?$pair@$$CBW4Object_Type@@PEBVGameObject@@@std@@@std@@@2@$00@std@@QEAAAEAV?$_Tree_val@U?$_Tree_simple_types@U?$pair@$$CBW4Object_Type@@PEBVGameObject@@@std@@@std@@@2@XZ 0000000140000000     engine.obj
 0005:fffb1000       $pdata$??1_Iterator_base12@std@@QEAA@XZ 0000000140000000     engine.obj
 0003:fffc2000       $unwind$??1_Iterator_base12@std@@QEAA@XZ 0000000140000000     engine.obj
 0005:fffb1000       $pdata$??$?0D@?$allocator@U_Container_proxy@std@@@std@@QEAA@AEBV?$allocator@D@1@@Z 0000000140000000     object.obj
 0005:fffb1000       $pdata$?_Get_second@?$_Compressed_pair@V?$allocator@U?$_Tree_node@U?$pair@$$CBW4Object_Type@@PEBVGameObject@@@std@@PEAX@std@@@std@@V?$_Tree_val@U?$_Tree_simple_types@U?$pair@$$CBW4Object_Type@@PEBVGameObject@@@std@@@std@@@2@$00@std@@QEAAAEAV?$_Tree_val@U?$_Tree_simple_types@U?$pair@$$CBW4Object_Type@@PEBVGameObject@@@std@@@std@@@2@XZ 0000000140000000     engine.obj
 0003:fffc2000       $unwind$?_Get_second@?$_Compressed_pair@V?$allocator@U?$_Tree_node@U?$pair@$$CBW4Object_Type@@PEBVGameObject@@@std@@PEAX@std@@@std@@V?$_Tree_val@U?$_Tree_simple_types@U?$pair@$$CBW4Object_Type@@PEBVGameObject@@@std@@@std@@@2@$00@std@@QEBAAEBV?$_Tree_val@U?$_Tree_simple_types@U?$pair@$$CBW4Object_Type@@PEBVGameObject@@@std@@@std@@@2@XZ 0000000140000000     engine.obj
 0003:fffc2000       ??1_Iterator_base12@std@@QEAA@XZ$rtcName$0 0000000140000000     engine.obj
 0003:fffc2000       $ip2state$??4_Iterator_base12@std@@QEAAAEAU01@AEBU01@@Z 0000000140000000     engine.obj
 0003:fffc2000       $unwind$??$_Get_size_of_n@$0BA@@std@@YA_K_K@Z 0000000140000000     object.obj
 0005:fffb1000       $pdata$?initialize_environment@__scrt_narrow_environment_policy@@SAHXZ 0000000140000000     MSVCRTD:exe_winmain.obj
 0005:fffb1000       $pdata$??$_Get_size_of_n@$0BA@@std@@YA_K_K@Z 0000000140000000     object.obj
 0005:fffb1000       $pdata$??4_Iterator_base12@std@@QEAAAEAU01@AEBU01@@Z 0000000140000000     engine.obj
 0003:fffc2000       $unwind$??$_Maklocstr@D@std@@YAPEADPEBDPEADAEBU_Cvtvec@@@Z 0000000140000000     object.obj
 0003:fffc2000       $unwind$??4_Iterator_base12@std@@QEAAAEAU01@AEBU01@@Z 0000000140000000     engine.obj
 0005:fffb1000       $pdata$??$_Maklocstr@D@std@@YAPEADPEBDPEADAEBU_Cvtvec@@@Z 0000000140000000     object.obj
 0003:fffc2000       $unwind$?_Get_second@?$_Compressed_pair@U?$less@W4Object_Type@@@std@@V?$_Compressed_pair@V?$allocator@U?$_Tree_node@U?$pair@$$CBW4Object_Type@@PEBVGameObject@@@std@@PEAX@std@@@std@@V?$_Tree_val@U?$_Tree_simple_types@U?$pair@$$CBW4Object_Type@@PEBVGameObject@@@std@@@std@@@2@$00@2@$00@std@@QEAAAEAV?$_Compressed_pair@V?$allocator@U?$_Tree_node@U?$pair@$$CBW4Object_Type@@PEBVGameObject@@@std@@PEAX@std@@@std@@V?$_Tree_val@U?$_Tree_simple_types@U?$pair@$$CBW4Object_Type@@PEBVGameObject@@@std@@@std@@@2@$00@2@XZ 0000000140000000     engine.obj
 0003:fffc2000       $unwind$??$forward@AEBQEAD@std@@YAAEBQEADAEBQEAD@Z 0000000140000000     object.obj
 0005:fffb1000       $pdata$?_Get_second@?$_Compressed_pair@U?$less@W4Object_Type@@@std@@V?$_Compressed_pair@V?$allocator@U?$_Tree_node@U?$pair@$$CBW4Object_Type@@PEBVGameObject@@@std@@PEAX@std@@@std@@V?$_Tree_val@U?$_Tree_simple_types@U?$pair@$$CBW4Object_Type@@PEBVGameObject@@@std@@@std@@@2@$00@2@$00@std@@QEAAAEAV?$_Compressed_pair@V?$allocator@U?$_Tree_node@U?$pair@$$CBW4Object_Type@@PEBVGameObject@@@std@@PEAX@std@@@std@@V?$_Tree_val@U?$_Tree_simple_types@U?$pair@$$CBW4Object_Type@@PEBVGameObject@@@std@@@std@@@2@$00@2@XZ 0000000140000000     engine.obj
 0005:fffb1000       $pdata$??$forward@AEBQEAD@std@@YAAEBQEADAEBQEAD@Z 0000000140000000     object.obj
 0003:fffc2000       ??4_Iterator_base12@std@@QEAAAEAU01@AEBU01@@Z$rtcName$0 0000000140000000     engine.obj
 0003:fffc2000       $unwind$??$_Allocate_manually_vector_aligned@U_Default_allocate_traits@std@@@std@@YAPEAX_K@Z 0000000140000000     object.obj
 0005:fffb1000       $pdata$??0_Iterator_base12@std@@QEAA@AEBU01@@Z 0000000140000000     engine.obj
 0005:fffb1000       $pdata$??$_Allocate_manually_vector_aligned@U_Default_allocate_traits@std@@@std@@YAPEAX_K@Z 0000000140000000     object.obj
 0003:fffc2000       $unwind$??0_Iterator_base12@std@@QEAA@AEBU01@@Z 0000000140000000     engine.obj
 0003:fffc2000       $unwind$??$forward@U_Container_proxy@std@@@std@@YA$$QEAU_Container_proxy@0@AEAU10@@Z 0000000140000000     object.obj
 0005:fffb1000       $pdata$??0_Iterator_base12@std@@QEAA@XZ 0000000140000000     engine.obj
 0005:fffb1000       $pdata$??$forward@U_Container_proxy@std@@@std@@YA$$QEAU_Container_proxy@0@AEAU10@@Z 0000000140000000     object.obj
 0003:fffc2000       $unwind$??0_Iterator_base12@std@@QEAA@XZ 0000000140000000     engine.obj
 0005:fffb1000       $pdata$wmemcpy             0000000140000000     engine.obj
 0003:fffc2000       $ip2state$?_Orphan_all@_Container_base12@std@@QEAAXXZ 0000000140000000     engine.obj
 0003:fffc2000       $unwind$wmemcpy            0000000140000000     engine.obj
 0003:fffc2000       $unwind$?_Get_second@?$_Compressed_pair@U?$less@W4Object_Type@@@std@@V?$_Compressed_pair@V?$allocator@U?$_Tree_node@U?$pair@$$CBW4Object_Type@@PEBVGameObject@@@std@@PEAX@std@@@std@@V?$_Tree_val@U?$_Tree_simple_types@U?$pair@$$CBW4Object_Type@@PEBVGameObject@@@std@@@std@@@2@$00@2@$00@std@@QEBAAEBV?$_Compressed_pair@V?$allocator@U?$_Tree_node@U?$pair@$$CBW4Object_Type@@PEBVGameObject@@@std@@PEAX@std@@@std@@V?$_Tree_val@U?$_Tree_simple_types@U?$pair@$$CBW4Object_Type@@PEBVGameObject@@@std@@@std@@@2@$00@2@XZ 0000000140000000     engine.obj
 0005:fffb1000       $pdata$?_Orphan_all@_Container_base12@std@@QEAAXXZ 0000000140000000     engine.obj
 0003:fffc2000       $unwind$?_Orphan_all@_Container_base12@std@@QEAAXXZ 0000000140000000     engine.obj
 0003:fffc2000       $unwind$??$_Min_value@_K@std@@YAAEB_KAEB_K0@Z 0000000140000000     object.obj
 0005:fffb1000       $pdata$??$_Min_value@_K@std@@YAAEB_KAEB_K0@Z 0000000140000000     object.obj
 0003:fffc2000       $unwind$??$_Unfancy@D@std@@YAPEADPEAD@Z 0000000140000000     object.obj
 0005:fffb1000       $pdata$??$_Unfancy@D@std@@YAPEADPEAD@Z 0000000140000000     object.obj
 0003:fffc2000       $unwind$??$?0$$V@?$_Compressed_pair@V?$allocator@D@std@@V?$_String_val@U?$_Simple_types@D@std@@@2@$00@std@@QEAA@U_Zero_then_variadic_args_t@1@@Z 0000000140000000     object.obj
 0005:fffb1000       $pdata$??$?0$$V@?$_Compressed_pair@V?$allocator@D@std@@V?$_String_val@U?$_Simple_types@D@std@@@2@$00@std@@QEAA@U_Zero_then_variadic_args_t@1@@Z 0000000140000000     object.obj
 0003:fffc2000       $unwind$??$addressof@PEAD@std@@YAPEAPEADAEAPEAD@Z 0000000140000000     object.obj
 0005:fffb1000       $pdata$??$addressof@PEAD@std@@YAPEAPEADAEAPEAD@Z 0000000140000000     object.obj
 0003:fffc2000       $unwind$??$destroy@PEAD@?$_Default_allocator_traits@V?$allocator@D@std@@@std@@SAXAEAV?$allocator@D@1@QEAPEAD@Z 0000000140000000     object.obj
 0005:fffb1000       $pdata$??$destroy@PEAD@?$_Default_allocator_traits@V?$allocator@D@std@@@std@@SAXAEAV?$allocator@D@1@QEAPEAD@Z 0000000140000000     object.obj
 0003:fffc2000       $unwind$??$_Max_value@_K@std@@YAAEB_KAEB_K0@Z 0000000140000000     object.obj
 0005:fffb1000       $pdata$??0?$Vector2@M@sf@@QEAA@MM@Z 0000000140000000     player.obj
 0003:fffc2000       $unwind$?_Maklocwcs@std@@YAPEA_WPEB_W@Z 0000000140000000     game-object.obj
 0000:fffa6000       .debug$S                   0000000140000000     kernel32:KERNEL32.dll
 0000:fffa6000       .debug$S                   0000000140000000     kernel32:KERNEL32.dll
 0000:fffa6000       .debug$S                   0000000140000000     kernel32:KERNEL32.dll
 0000:fffa6000       .debug$S                   0000000140000000     kernel32:KERNEL32.dll
 0000:fffa6000       .debug$S                   0000000140000000     kernel32:KERNEL32.dll
 0000:fffa6000       .debug$S                   0000000140000000     kernel32:KERNEL32.dll
 0000:fffa6000       .debug$S                   0000000140000000     kernel32:KERNEL32.dll
 0000:fffa6000       .debug$S                   0000000140000000     kernel32:KERNEL32.dll
 0000:fffa6000       .debug$S                   0000000140000000     kernel32:KERNEL32.dll
 0000:fffa6000       .debug$S                   0000000140000000     kernel32:KERNEL32.dll
 0000:fffa6000       .debug$S                   0000000140000000     kernel32:KERNEL32.dll
 0000:fffa6000       .debug$S                   0000000140000000     kernel32:KERNEL32.dll
 0003:fffc2004       ??$_Maklocstr@_W@std@@YAPEA_WPEBDPEA_WAEBU_Cvtvec@@@Z$rtcName$1 0000000140000004     window.obj
 0003:fffc2004       ??$_Maklocstr@_W@std@@YAPEA_WPEBDPEA_WAEBU_Cvtvec@@@Z$rtcName$1 0000000140000004     player.obj
 0003:fffc2004       ??$_Maklocstr@_W@std@@YAPEA_WPEBDPEA_WAEBU_Cvtvec@@@Z$rtcName$1 0000000140000004     engine.obj
 0003:fffc2004       ??$_Maklocstr@_W@std@@YAPEA_WPEBDPEA_WAEBU_Cvtvec@@@Z$rtcName$1 0000000140000004     container.obj
 0003:fffc2004       ??$_Maklocstr@_W@std@@YAPEA_WPEBDPEA_WAEBU_Cvtvec@@@Z$rtcName$1 0000000140000004     widget-game.obj
 0003:fffc2004       ??$_Maklocstr@_W@std@@YAPEA_WPEBDPEA_WAEBU_Cvtvec@@@Z$rtcName$1 0000000140000004     config.obj
 0000:fffa9004       __guard_fids__             0000000140000004     MSVCRTD:exe_winmain.obj
 0003:fffc2004       ??$_Maklocstr@_W@std@@YAPEA_WPEBDPEA_WAEBU_Cvtvec@@@Z$rtcName$1 0000000140000004     container-moving.obj
 0003:fffc2004       ??$_Maklocstr@_W@std@@YAPEA_WPEBDPEA_WAEBU_Cvtvec@@@Z$rtcName$1 0000000140000004     window-editor.obj
 0003:fffc2004       ??$_Maklocstr@_W@std@@YAPEA_WPEBDPEA_WAEBU_Cvtvec@@@Z$rtcName$1 0000000140000004     tank.obj
 0003:fffc2004       ??$_Maklocstr@_W@std@@YAPEA_WPEBDPEA_WAEBU_Cvtvec@@@Z$rtcName$1 0000000140000004     object.obj
 0003:fffc2004       ??$_Maklocstr@_W@std@@YAPEA_WPEBDPEA_WAEBU_Cvtvec@@@Z$rtcName$1 0000000140000004     widget.obj
 0003:fffc2004       ??$_Maklocstr@_W@std@@YAPEA_WPEBDPEA_WAEBU_Cvtvec@@@Z$rtcName$1 0000000140000004     main.obj
 0003:fffc2004       ??$_Maklocstr@_W@std@@YAPEA_WPEBDPEA_WAEBU_Cvtvec@@@Z$rtcName$1 0000000140000004     window-game.obj
 0003:fffc2004       ??$_Maklocstr@_W@std@@YAPEA_WPEBDPEA_WAEBU_Cvtvec@@@Z$rtcName$1 0000000140000004     game-object.obj
 0003:fffc2004       ??$_Maklocstr@_W@std@@YAPEA_WPEBDPEA_WAEBU_Cvtvec@@@Z$rtcName$1 0000000140000004     wall.obj
 0003:fffc2004       ??$_Maklocstr@_W@std@@YAPEA_WPEBDPEA_WAEBU_Cvtvec@@@Z$rtcName$1 0000000140000004     menu-window.obj
 0003:fffc2004       ??$_Maklocstr@_W@std@@YAPEA_WPEBDPEA_WAEBU_Cvtvec@@@Z$rtcName$1 0000000140000004     widget-templates.obj
 0000:fffa9008       __guard_fids__             0000000140000008     MSVCRTD:exe_winmain.obj
 0003:fffc2008       ?_Adopt@_Iterator_base12@std@@QEAAXPEBU_Container_base12@2@@Z$rtcName$1 0000000140000008     engine.obj
 0003:fffc200c       ??$_Maklocstr@_W@std@@YAPEA_WPEBDPEA_WAEBU_Cvtvec@@@Z$rtcName$2 000000014000000c     container.obj
 0003:fffc200c       ??$_Maklocstr@_W@std@@YAPEA_WPEBDPEA_WAEBU_Cvtvec@@@Z$rtcName$2 000000014000000c     window.obj
 0003:fffc200c       ??$_Maklocstr@_W@std@@YAPEA_WPEBDPEA_WAEBU_Cvtvec@@@Z$rtcName$2 000000014000000c     game-object.obj
 0003:fffc200c       ??$_Maklocstr@_W@std@@YAPEA_WPEBDPEA_WAEBU_Cvtvec@@@Z$rtcName$2 000000014000000c     window-game.obj
 0003:fffc200c       ??$_Maklocstr@_W@std@@YAPEA_WPEBDPEA_WAEBU_Cvtvec@@@Z$rtcName$2 000000014000000c     widget.obj
 0003:fffc200c       ??$_Maklocstr@_W@std@@YAPEA_WPEBDPEA_WAEBU_Cvtvec@@@Z$rtcName$2 000000014000000c     main.obj
 0003:fffc200c       ??$_Maklocstr@_W@std@@YAPEA_WPEBDPEA_WAEBU_Cvtvec@@@Z$rtcName$2 000000014000000c     object.obj
 0003:fffc200c       ??$_Maklocstr@_W@std@@YAPEA_WPEBDPEA_WAEBU_Cvtvec@@@Z$rtcName$2 000000014000000c     player.obj
 0003:fffc200c       ??$_Maklocstr@_W@std@@YAPEA_WPEBDPEA_WAEBU_Cvtvec@@@Z$rtcName$2 000000014000000c     config.obj
 0003:fffc200c       ??$_Maklocstr@_W@std@@YAPEA_WPEBDPEA_WAEBU_Cvtvec@@@Z$rtcName$2 000000014000000c     engine.obj
 0003:fffc200c       ??$_Maklocstr@_W@std@@YAPEA_WPEBDPEA_WAEBU_Cvtvec@@@Z$rtcName$2 000000014000000c     window-editor.obj
 0003:fffc200c       ??$_Maklocstr@_W@std@@YAPEA_WPEBDPEA_WAEBU_Cvtvec@@@Z$rtcName$2 000000014000000c     tank.obj
 0003:fffc200c       ??$_Maklocstr@_W@std@@YAPEA_WPEBDPEA_WAEBU_Cvtvec@@@Z$rtcName$2 000000014000000c     wall.obj
 0003:fffc200c       ??$_Maklocstr@_W@std@@YAPEA_WPEBDPEA_WAEBU_Cvtvec@@@Z$rtcName$2 000000014000000c     widget-templates.obj
 0003:fffc200c       ??$_Maklocstr@_W@std@@YAPEA_WPEBDPEA_WAEBU_Cvtvec@@@Z$rtcName$2 000000014000000c     widget-game.obj
 0003:fffc200c       ??$_Maklocstr@_W@std@@YAPEA_WPEBDPEA_WAEBU_Cvtvec@@@Z$rtcName$2 000000014000000c     container-moving.obj
 0003:fffc200c       ??$_Maklocstr@_W@std@@YAPEA_WPEBDPEA_WAEBU_Cvtvec@@@Z$rtcName$2 000000014000000c     menu-window.obj
 0003:fffc2010       ?_Orphan_all@_Container_base12@std@@QEAAXXZ$rtcVarDesc 0000000140000010     config.obj
 0003:fffc2010       ?max_size@?$basic_string@DU?$char_traits@D@std@@V?$allocator@D@2@@std@@QEBA_KXZ$rtcVarDesc 0000000140000010     object.obj
 0003:fffc2010       ??1_Iterator_base12@std@@QEAA@XZ$rtcVarDesc 0000000140000010     engine.obj
 0003:fffc2010       ?_Adopt@_Iterator_base12@std@@QEAAXPEBU_Container_base12@2@@Z$rtcVarDesc 0000000140000010     engine.obj
 0003:fffc2010       printf$rtcVarDesc          0000000140000010     game-object.obj
 0003:fffc2010       ?_Calculate_growth@?$basic_string@DU?$char_traits@D@std@@V?$allocator@D@2@@std@@QEBA_K_K@Z$rtcVarDesc 0000000140000010     config.obj
 0003:fffc2010       ?_Orphan_all@_Container_base12@std@@QEAAXXZ$rtcVarDesc 0000000140000010     engine.obj
 0003:fffc2010       ?_Orphan_all@_Container_base12@std@@QEAAXXZ$rtcVarDesc 0000000140000010     game-object.obj
 0003:fffc2010       ?_Orphan_all@_Container_base12@std@@QEAAXXZ$rtcVarDesc 0000000140000010     object.obj
 0003:fffc2010       ??4_Iterator_base12@std@@QEAAAEAU01@AEBU01@@Z$rtcVarDesc 0000000140000010     engine.obj
 0003:fffc2010       ??$_Freenode0@V?$allocator@U?$_Tree_node@U?$pair@$$CBW4Object_Type@@PEBVGameObject@@@std@@PEAX@std@@@std@@@?$_Tree_node@U?$pair@$$CBW4Object_Type@@PEBVGameObject@@@std@@PEAX@std@@SAXAEAV?$allocator@U?$_Tree_node@U?$pair@$$CBW4Object_Type@@PEBVGameObject@@@std@@PEAX@std@@@1@PEAU01@@Z$rtcVarDesc 0000000140000010     engine.obj
 0003:fffc2010       ?_Calculate_growth@?$basic_string@DU?$char_traits@D@std@@V?$allocator@D@2@@std@@QEBA_K_K@Z$rtcVarDesc 0000000140000010     object.obj
 0003:fffc2010       ?max_size@?$basic_string@DU?$char_traits@D@std@@V?$allocator@D@2@@std@@QEBA_KXZ$rtcVarDesc 0000000140000010     config.obj
 0003:fffc2020       ??$_Maklocstr@_W@std@@YAPEA_WPEBDPEA_WAEBU_Cvtvec@@@Z$rtcVarDesc 0000000140000020     container.obj
 0003:fffc2020       ?_Alloc_proxy@?$_String_alloc@U?$_String_base_types@DV?$allocator@D@std@@@std@@@std@@QEAAXXZ$rtcVarDesc 0000000140000020     object.obj
 0003:fffc2020       ?_Free_proxy@?$_String_alloc@U?$_String_base_types@DV?$allocator@D@std@@@std@@@std@@QEAAXXZ$rtcVarDesc 0000000140000020     object.obj
 0003:fffc2020       ?_Free_proxy@?$_String_alloc@U?$_String_base_types@DV?$allocator@D@std@@@std@@@std@@QEAAXXZ$rtcVarDesc 0000000140000020     config.obj
 0003:fffc2020       ??$_Maklocstr@_W@std@@YAPEA_WPEBDPEA_WAEBU_Cvtvec@@@Z$rtcVarDesc 0000000140000020     wall.obj
 0003:fffc2020       ??$_Maklocstr@_W@std@@YAPEA_WPEBDPEA_WAEBU_Cvtvec@@@Z$rtcVarDesc 0000000140000020     tank.obj
 0003:fffc2020       ??$_Maklocstr@_W@std@@YAPEA_WPEBDPEA_WAEBU_Cvtvec@@@Z$rtcVarDesc 0000000140000020     player.obj
 0003:fffc2020       ??$_Maklocstr@_W@std@@YAPEA_WPEBDPEA_WAEBU_Cvtvec@@@Z$rtcVarDesc 0000000140000020     widget.obj
 0003:fffc2020       ??$_Maklocstr@_W@std@@YAPEA_WPEBDPEA_WAEBU_Cvtvec@@@Z$rtcVarDesc 0000000140000020     config.obj
 0003:fffc2020       ??$_Maklocstr@_W@std@@YAPEA_WPEBDPEA_WAEBU_Cvtvec@@@Z$rtcVarDesc 0000000140000020     widget-templates.obj
 0003:fffc2020       ?_Alloc_proxy@?$_String_alloc@U?$_String_base_types@DV?$allocator@D@std@@@std@@@std@@QEAAXXZ$rtcVarDesc 0000000140000020     config.obj
 0003:fffc2020       ??$_Maklocstr@_W@std@@YAPEA_WPEBDPEA_WAEBU_Cvtvec@@@Z$rtcVarDesc 0000000140000020     object.obj
 0003:fffc2020       ??$_Maklocstr@_W@std@@YAPEA_WPEBDPEA_WAEBU_Cvtvec@@@Z$rtcVarDesc 0000000140000020     window.obj
 0003:fffc2020       ?_Alloc_proxy@?$_String_alloc@U?$_String_base_types@DV?$allocator@D@std@@@std@@@std@@QEAAXXZ$rtcVarDesc 0000000140000020     game-object.obj
 0003:fffc2020       ??$_Maklocstr@_W@std@@YAPEA_WPEBDPEA_WAEBU_Cvtvec@@@Z$rtcVarDesc 0000000140000020     engine.obj
 0003:fffc2020       ??$_Maklocstr@_W@std@@YAPEA_WPEBDPEA_WAEBU_Cvtvec@@@Z$rtcVarDesc 0000000140000020     main.obj
 0003:fffc2020       ??$_Maklocstr@_W@std@@YAPEA_WPEBDPEA_WAEBU_Cvtvec@@@Z$rtcVarDesc 0000000140000020     game-object.obj
 0003:fffc2020       ?_Free_proxy@?$_String_alloc@U?$_String_base_types@DV?$allocator@D@std@@@std@@@std@@QEAAXXZ$rtcVarDesc 0000000140000020     game-object.obj
 0003:fffc2020       ??$_Maklocstr@_W@std@@YAPEA_WPEBDPEA_WAEBU_Cvtvec@@@Z$rtcVarDesc 0000000140000020     window-editor.obj
 0003:fffc2020       ??$_Maklocstr@_W@std@@YAPEA_WPEBDPEA_WAEBU_Cvtvec@@@Z$rtcVarDesc 0000000140000020     widget-game.obj
 0003:fffc2020       ??$_Maklocstr@_W@std@@YAPEA_WPEBDPEA_WAEBU_Cvtvec@@@Z$rtcVarDesc 0000000140000020     container-moving.obj
 0003:fffc2020       ??$_Maklocstr@_W@std@@YAPEA_WPEBDPEA_WAEBU_Cvtvec@@@Z$rtcVarDesc 0000000140000020     menu-window.obj
 0003:fffc2020       ??$_Maklocstr@_W@std@@YAPEA_WPEBDPEA_WAEBU_Cvtvec@@@Z$rtcVarDesc 0000000140000020     window-game.obj
 0003:fffc2050       ??1_Iterator_base12@std@@QEAA@XZ$rtcFrameData 0000000140000050     engine.obj
 0003:fffc2050       ?_Calculate_growth@?$basic_string@DU?$char_traits@D@std@@V?$allocator@D@2@@std@@QEBA_K_K@Z$rtcFrameData 0000000140000050     object.obj
 0003:fffc2050       ?_Orphan_all@_Container_base12@std@@QEAAXXZ$rtcFrameData 0000000140000050     engine.obj
 0003:fffc2050       ?_Orphan_all@_Container_base12@std@@QEAAXXZ$rtcFrameData 0000000140000050     game-object.obj
 0003:fffc2050       ?_Calculate_growth@?$basic_string@DU?$char_traits@D@std@@V?$allocator@D@2@@std@@QEBA_K_K@Z$rtcFrameData 0000000140000050     config.obj
 0003:fffc2050       ??$_Freenode0@V?$allocator@U?$_Tree_node@U?$pair@$$CBW4Object_Type@@PEBVGameObject@@@std@@PEAX@std@@@std@@@?$_Tree_node@U?$pair@$$CBW4Object_Type@@PEBVGameObject@@@std@@PEAX@std@@SAXAEAV?$allocator@U?$_Tree_node@U?$pair@$$CBW4Object_Type@@PEBVGameObject@@@std@@PEAX@std@@@1@PEAU01@@Z$rtcFrameData 0000000140000050     engine.obj
 0003:fffc2050       ?max_size@?$basic_string@DU?$char_traits@D@std@@V?$allocator@D@2@@std@@QEBA_KXZ$rtcFrameData 0000000140000050     config.obj
 0003:fffc2050       ?max_size@?$basic_string@DU?$char_traits@D@std@@V?$allocator@D@2@@std@@QEBA_KXZ$rtcFrameData 0000000140000050     object.obj
 0003:fffc2050       printf$rtcFrameData        0000000140000050     game-object.obj
 0003:fffc2050       ??4_Iterator_base12@std@@QEAAAEAU01@AEBU01@@Z$rtcFrameData 0000000140000050     engine.obj
 0003:fffc2050       ?_Orphan_all@_Container_base12@std@@QEAAXXZ$rtcFrameData 0000000140000050     object.obj
 0003:fffc2050       ?_Orphan_all@_Container_base12@std@@QEAAXXZ$rtcFrameData 0000000140000050     config.obj
 0003:fffc2060       $cppxdata$??$_Freenode0@V?$allocator@U?$_Tree_node@U?$pair@$$CBW4Object_Type@@PEBVGameObject@@@std@@PEAX@std@@@std@@@?$_Tree_node@U?$pair@$$CBW4Object_Type@@PEBVGameObject@@@std@@PEAX@std@@SAXAEAV?$allocator@U?$_Tree_node@U?$pair@$$CBW4Object_Type@@PEBVGameObject@@@std@@PEAX@std@@@1@PEAU01@@Z 0000000140000060     engine.obj
 0003:fffc2060       $cppxdata$??1_Iterator_base12@std@@QEAA@XZ 0000000140000060     engine.obj
 0003:fffc2060       ?_Alloc_proxy@?$_String_alloc@U?$_String_base_types@DV?$allocator@D@std@@@std@@@std@@QEAAXXZ$rtcFrameData 0000000140000060     config.obj
 0003:fffc2060       $cppxdata$?_Orphan_all@_Container_base12@std@@QEAAXXZ 0000000140000060     config.obj
 0003:fffc2060       $cppxdata$?_Orphan_all@_Container_base12@std@@QEAAXXZ 0000000140000060     game-object.obj
 0003:fffc2060       ?_Free_proxy@?$_String_alloc@U?$_String_base_types@DV?$allocator@D@std@@@std@@@std@@QEAAXXZ$rtcFrameData 0000000140000060     game-object.obj
 0003:fffc2060       $cppxdata$?_Orphan_all@_Container_base12@std@@QEAAXXZ 0000000140000060     engine.obj
 0003:fffc2060       $cppxdata$?_Orphan_all@_Container_base12@std@@QEAAXXZ 0000000140000060     object.obj
 0003:fffc2060       ?_Alloc_proxy@?$_String_alloc@U?$_String_base_types@DV?$allocator@D@std@@@std@@@std@@QEAAXXZ$rtcFrameData 0000000140000060     game-object.obj
 0003:fffc2060       $cppxdata$??4_Iterator_base12@std@@QEAAAEAU01@AEBU01@@Z 0000000140000060     engine.obj
 0003:fffc2060       ?_Free_proxy@?$_String_alloc@U?$_String_base_types@DV?$allocator@D@std@@@std@@@std@@QEAAXXZ$rtcFrameData 0000000140000060     config.obj
 0003:fffc2060       ?_Free_proxy@?$_String_alloc@U?$_String_base_types@DV?$allocator@D@std@@@std@@@std@@QEAAXXZ$rtcFrameData 0000000140000060     object.obj
 0003:fffc2060       ?_Alloc_proxy@?$_String_alloc@U?$_String_base_types@DV?$allocator@D@std@@@std@@@std@@QEAAXXZ$rtcFrameData 0000000140000060     object.obj
 0003:fffc2090       ?_Adopt@_Iterator_base12@std@@QEAAXPEBU_Container_base12@2@@Z$rtcFrameData 0000000140000090     engine.obj
 0003:fffc20a0       $cppxdata$?_Adopt@_Iterator_base12@std@@QEAAXPEBU_Container_base12@2@@Z 00000001400000a0     engine.obj
 0003:fffc20e0       ??$_Maklocstr@_W@std@@YAPEA_WPEBDPEA_WAEBU_Cvtvec@@@Z$rtcFrameData 00000001400000e0     window.obj
 0003:fffc20e0       ??$_Maklocstr@_W@std@@YAPEA_WPEBDPEA_WAEBU_Cvtvec@@@Z$rtcFrameData 00000001400000e0     game-object.obj
 0003:fffc20e0       ??$_Maklocstr@_W@std@@YAPEA_WPEBDPEA_WAEBU_Cvtvec@@@Z$rtcFrameData 00000001400000e0     engine.obj
 0003:fffc20e0       ??$_Maklocstr@_W@std@@YAPEA_WPEBDPEA_WAEBU_Cvtvec@@@Z$rtcFrameData 00000001400000e0     widget.obj
 0003:fffc20e0       ??$_Maklocstr@_W@std@@YAPEA_WPEBDPEA_WAEBU_Cvtvec@@@Z$rtcFrameData 00000001400000e0     tank.obj
 0003:fffc20e0       ??$_Maklocstr@_W@std@@YAPEA_WPEBDPEA_WAEBU_Cvtvec@@@Z$rtcFrameData 00000001400000e0     widget-templates.obj
 0003:fffc20e0       ??$_Maklocstr@_W@std@@YAPEA_WPEBDPEA_WAEBU_Cvtvec@@@Z$rtcFrameData 00000001400000e0     player.obj
 0003:fffc20e0       ??$_Maklocstr@_W@std@@YAPEA_WPEBDPEA_WAEBU_Cvtvec@@@Z$rtcFrameData 00000001400000e0     window-game.obj
 0003:fffc20e0       ??$_Maklocstr@_W@std@@YAPEA_WPEBDPEA_WAEBU_Cvtvec@@@Z$rtcFrameData 00000001400000e0     container-moving.obj
 0003:fffc20e0       ??$_Maklocstr@_W@std@@YAPEA_WPEBDPEA_WAEBU_Cvtvec@@@Z$rtcFrameData 00000001400000e0     widget-game.obj
 0003:fffc20e0       ??$_Maklocstr@_W@std@@YAPEA_WPEBDPEA_WAEBU_Cvtvec@@@Z$rtcFrameData 00000001400000e0     wall.obj
 0003:fffc20e0       ??$_Maklocstr@_W@std@@YAPEA_WPEBDPEA_WAEBU_Cvtvec@@@Z$rtcFrameData 00000001400000e0     container.obj
 0003:fffc20e0       ??$_Maklocstr@_W@std@@YAPEA_WPEBDPEA_WAEBU_Cvtvec@@@Z$rtcFrameData 00000001400000e0     window-editor.obj
 0003:fffc20e0       ??$_Maklocstr@_W@std@@YAPEA_WPEBDPEA_WAEBU_Cvtvec@@@Z$rtcFrameData 00000001400000e0     main.obj
 0003:fffc20e0       ??$_Maklocstr@_W@std@@YAPEA_WPEBDPEA_WAEBU_Cvtvec@@@Z$rtcFrameData 00000001400000e0     config.obj
 0003:fffc20e0       ??$_Maklocstr@_W@std@@YAPEA_WPEBDPEA_WAEBU_Cvtvec@@@Z$rtcFrameData 00000001400000e0     menu-window.obj
 0003:fffc20e0       ??$_Maklocstr@_W@std@@YAPEA_WPEBDPEA_WAEBU_Cvtvec@@@Z$rtcFrameData 00000001400000e0     object.obj
 0002:000020b0       ??__Efont@@YAXXZ           00000001400150b0 f   button.obj
 0002:00004770       ??$_Reallocate_for@V<lambda_66f57f934f28d61049862f64df852ff0>@@PEBD@?$basic_string@DU?$char_traits@D@std@@V?$allocator@D@2@@std@@QEAAAEAV01@_KV<lambda_66f57f934f28d61049862f64df852ff0>@@PEBD@Z 0000000140017770 f   button.obj
 0002:00005c10       ??R<lambda_66f57f934f28d61049862f64df852ff0>@@QEBAXQEAD_KQEBD@Z 0000000140018c10 f   button.obj
 0002:0000b880       ??$_Reallocate_for@V<lambda_66f57f934f28d61049862f64df852ff0>@@PEBD@?$basic_string@DU?$char_traits@D@std@@V?$allocator@D@2@@std@@QEAAAEAV01@_KV<lambda_66f57f934f28d61049862f64df852ff0>@@PEBD@Z 000000014001e880 f   config.obj
 0002:0000e050       ??R<lambda_66f57f934f28d61049862f64df852ff0>@@QEBAXQEAD_KQEBD@Z 0000000140021050 f   config.obj
 0002:00019fe0       ??$?0AEBV<lambda_312b3f49165ee8dbe2e5837b3ce31c90>@@X@?$_Func_impl_no_alloc@V<lambda_312b3f49165ee8dbe2e5837b3ce31c90>@@XPEAVButton@@@std@@QEAA@AEBV<lambda_312b3f49165ee8dbe2e5837b3ce31c90>@@@Z 000000014002cfe0 f   menu-window.obj
 0002:0001a080       ??$?0AEBV<lambda_5f2a59844b8069354d5a17d44e450129>@@X@?$_Func_impl_no_alloc@V<lambda_5f2a59844b8069354d5a17d44e450129>@@XPEAVButton@@@std@@QEAA@AEBV<lambda_5f2a59844b8069354d5a17d44e450129>@@@Z 000000014002d080 f   menu-window.obj
 0002:0001a120       ??$?0AEBV<lambda_668a1179af56ef880bbabaf92a5d9839>@@X@?$_Func_impl_no_alloc@V<lambda_668a1179af56ef880bbabaf92a5d9839>@@XPEAVButton@@@std@@QEAA@AEBV<lambda_668a1179af56ef880bbabaf92a5d9839>@@@Z 000000014002d120 f   menu-window.obj
 0002:0001a1c0       ??$?0V<lambda_312b3f49165ee8dbe2e5837b3ce31c90>@@X@?$_Func_impl_no_alloc@V<lambda_312b3f49165ee8dbe2e5837b3ce31c90>@@XPEAVButton@@@std@@QEAA@$$QEAV<lambda_312b3f49165ee8dbe2e5837b3ce31c90>@@@Z 000000014002d1c0 f   menu-window.obj
 0002:0001a260       ??$?0V<lambda_312b3f49165ee8dbe2e5837b3ce31c90>@@X@?$function@$$A6AXPEAVButton@@@Z@std@@QEAA@V<lambda_312b3f49165ee8dbe2e5837b3ce31c90>@@@Z 000000014002d260 f   menu-window.obj
 0002:0001a300       ??$?0V<lambda_5f2a59844b8069354d5a17d44e450129>@@X@?$_Func_impl_no_alloc@V<lambda_5f2a59844b8069354d5a17d44e450129>@@XPEAVButton@@@std@@QEAA@$$QEAV<lambda_5f2a59844b8069354d5a17d44e450129>@@@Z 000000014002d300 f   menu-window.obj
 0002:0001a3a0       ??$?0V<lambda_5f2a59844b8069354d5a17d44e450129>@@X@?$function@$$A6AXPEAVButton@@@Z@std@@QEAA@V<lambda_5f2a59844b8069354d5a17d44e450129>@@@Z 000000014002d3a0 f   menu-window.obj
 0002:0001a440       ??$?0V<lambda_668a1179af56ef880bbabaf92a5d9839>@@X@?$_Func_impl_no_alloc@V<lambda_668a1179af56ef880bbabaf92a5d9839>@@XPEAVButton@@@std@@QEAA@$$QEAV<lambda_668a1179af56ef880bbabaf92a5d9839>@@@Z 000000014002d440 f   menu-window.obj
 0002:0001a4e0       ??$?0V<lambda_668a1179af56ef880bbabaf92a5d9839>@@X@?$function@$$A6AXPEAVButton@@@Z@std@@QEAA@V<lambda_668a1179af56ef880bbabaf92a5d9839>@@@Z 000000014002d4e0 f   menu-window.obj
 0002:0001a580       ??$_Call@AEAV<lambda_312b3f49165ee8dbe2e5837b3ce31c90>@@PEAVButton@@@?$_Invoker_ret@X$00@std@@SAXAEAV<lambda_312b3f49165ee8dbe2e5837b3ce31c90>@@$$QEAPEAVButton@@@Z 000000014002d580 f   menu-window.obj
 0002:0001a610       ??$_Call@AEAV<lambda_312b3f49165ee8dbe2e5837b3ce31c90>@@PEAVButton@@@_Invoker_functor@std@@SAXAEAV<lambda_312b3f49165ee8dbe2e5837b3ce31c90>@@$$QEAPEAVButton@@@Z 000000014002d610 f   menu-window.obj
 0002:0001a6a0       ??$_Call@AEAV<lambda_5f2a59844b8069354d5a17d44e450129>@@PEAVButton@@@?$_Invoker_ret@X$00@std@@SAXAEAV<lambda_5f2a59844b8069354d5a17d44e450129>@@$$QEAPEAVButton@@@Z 000000014002d6a0 f   menu-window.obj
 0002:0001a730       ??$_Call@AEAV<lambda_5f2a59844b8069354d5a17d44e450129>@@PEAVButton@@@_Invoker_functor@std@@SAXAEAV<lambda_5f2a59844b8069354d5a17d44e450129>@@$$QEAPEAVButton@@@Z 000000014002d730 f   menu-window.obj
 0002:0001a7c0       ??$_Call@AEAV<lambda_668a1179af56ef880bbabaf92a5d9839>@@PEAVButton@@@?$_Invoker_ret@X$00@std@@SAXAEAV<lambda_668a1179af56ef880bbabaf92a5d9839>@@$$QEAPEAVButton@@@Z 000000014002d7c0 f   menu-window.obj
 0002:0001a850       ??$_Call@AEAV<lambda_668a1179af56ef880bbabaf92a5d9839>@@PEAVButton@@@_Invoker_functor@std@@SAXAEAV<lambda_668a1179af56ef880bbabaf92a5d9839>@@$$QEAPEAVButton@@@Z 000000014002d850 f   menu-window.obj
 0002:0001a970       ??$_Reset@V<lambda_312b3f49165ee8dbe2e5837b3ce31c90>@@@?$_Func_class@XPEAVButton@@@std@@IEAAX$$QEAV<lambda_312b3f49165ee8dbe2e5837b3ce31c90>@@@Z 000000014002d970 f   menu-window.obj
 0002:0001aa00       ??$_Reset@V<lambda_5f2a59844b8069354d5a17d44e450129>@@@?$_Func_class@XPEAVButton@@@std@@IEAAX$$QEAV<lambda_5f2a59844b8069354d5a17d44e450129>@@@Z 000000014002da00 f   menu-window.obj
 0002:0001aa90       ??$_Reset@V<lambda_668a1179af56ef880bbabaf92a5d9839>@@@?$_Func_class@XPEAVButton@@@std@@IEAAX$$QEAV<lambda_668a1179af56ef880bbabaf92a5d9839>@@@Z 000000014002da90 f   menu-window.obj
 0002:0001ab20       ??$_Reset_impl@V?$_Func_impl_no_alloc@V<lambda_312b3f49165ee8dbe2e5837b3ce31c90>@@XPEAVButton@@@std@@V<lambda_312b3f49165ee8dbe2e5837b3ce31c90>@@@?$_Func_class@XPEAVButton@@@std@@IEAAX$$QEAV<lambda_312b3f49165ee8dbe2e5837b3ce31c90>@@U?$integral_constant@_N$0A@@1@@Z 000000014002db20 f   menu-window.obj
 0002:0001abd0       ??$_Reset_impl@V?$_Func_impl_no_alloc@V<lambda_5f2a59844b8069354d5a17d44e450129>@@XPEAVButton@@@std@@V<lambda_5f2a59844b8069354d5a17d44e450129>@@@?$_Func_class@XPEAVButton@@@std@@IEAAX$$QEAV<lambda_5f2a59844b8069354d5a17d44e450129>@@U?$integral_constant@_N$0A@@1@@Z 000000014002dbd0 f   menu-window.obj
 0002:0001ac80       ??$_Reset_impl@V?$_Func_impl_no_alloc@V<lambda_668a1179af56ef880bbabaf92a5d9839>@@XPEAVButton@@@std@@V<lambda_668a1179af56ef880bbabaf92a5d9839>@@@?$_Func_class@XPEAVButton@@@std@@IEAAX$$QEAV<lambda_668a1179af56ef880bbabaf92a5d9839>@@U?$integral_constant@_N$0A@@1@@Z 000000014002dc80 f   menu-window.obj
 0002:0001ad30       ??$_Test_callable@V<lambda_312b3f49165ee8dbe2e5837b3ce31c90>@@@std@@YA_NAEBV<lambda_312b3f49165ee8dbe2e5837b3ce31c90>@@@Z 000000014002dd30 f   menu-window.obj
 0002:0001ada0       ??$_Test_callable@V<lambda_312b3f49165ee8dbe2e5837b3ce31c90>@@@std@@YA_NAEBV<lambda_312b3f49165ee8dbe2e5837b3ce31c90>@@U?$integral_constant@_N$0A@@0@@Z 000000014002dda0 f   menu-window.obj
 0002:0001adf0       ??$_Test_callable@V<lambda_5f2a59844b8069354d5a17d44e450129>@@@std@@YA_NAEBV<lambda_5f2a59844b8069354d5a17d44e450129>@@@Z 000000014002ddf0 f   menu-window.obj
 0002:0001ae60       ??$_Test_callable@V<lambda_5f2a59844b8069354d5a17d44e450129>@@@std@@YA_NAEBV<lambda_5f2a59844b8069354d5a17d44e450129>@@U?$integral_constant@_N$0A@@0@@Z 000000014002de60 f   menu-window.obj
 0002:0001aeb0       ??$_Test_callable@V<lambda_668a1179af56ef880bbabaf92a5d9839>@@@std@@YA_NAEBV<lambda_668a1179af56ef880bbabaf92a5d9839>@@@Z 000000014002deb0 f   menu-window.obj
 0002:0001af20       ??$_Test_callable@V<lambda_668a1179af56ef880bbabaf92a5d9839>@@@std@@YA_NAEBV<lambda_668a1179af56ef880bbabaf92a5d9839>@@U?$integral_constant@_N$0A@@0@@Z 000000014002df20 f   menu-window.obj
 0002:0001af70       ??$addressof@$$CBV<lambda_312b3f49165ee8dbe2e5837b3ce31c90>@@@std@@YAPEBV<lambda_312b3f49165ee8dbe2e5837b3ce31c90>@@AEBV1@@Z 000000014002df70 f   menu-window.obj
 0002:0001afc0       ??$addressof@$$CBV<lambda_5f2a59844b8069354d5a17d44e450129>@@@std@@YAPEBV<lambda_5f2a59844b8069354d5a17d44e450129>@@AEBV1@@Z 000000014002dfc0 f   menu-window.obj
 0002:0001b010       ??$addressof@$$CBV<lambda_668a1179af56ef880bbabaf92a5d9839>@@@std@@YAPEBV<lambda_668a1179af56ef880bbabaf92a5d9839>@@AEBV1@@Z 000000014002e010 f   menu-window.obj
 0002:0001b060       ??$forward@AEAV<lambda_312b3f49165ee8dbe2e5837b3ce31c90>@@@std@@YAAEAV<lambda_312b3f49165ee8dbe2e5837b3ce31c90>@@AEAV1@@Z 000000014002e060 f   menu-window.obj
 0002:0001b0b0       ??$forward@AEAV<lambda_5f2a59844b8069354d5a17d44e450129>@@@std@@YAAEAV<lambda_5f2a59844b8069354d5a17d44e450129>@@AEAV1@@Z 000000014002e0b0 f   menu-window.obj
 0002:0001b100       ??$forward@AEAV<lambda_668a1179af56ef880bbabaf92a5d9839>@@@std@@YAAEAV<lambda_668a1179af56ef880bbabaf92a5d9839>@@AEAV1@@Z 000000014002e100 f   menu-window.obj
 0002:0001b150       ??$forward@AEBV<lambda_312b3f49165ee8dbe2e5837b3ce31c90>@@@std@@YAAEBV<lambda_312b3f49165ee8dbe2e5837b3ce31c90>@@AEBV1@@Z 000000014002e150 f   menu-window.obj
 0002:0001b1a0       ??$forward@AEBV<lambda_5f2a59844b8069354d5a17d44e450129>@@@std@@YAAEBV<lambda_5f2a59844b8069354d5a17d44e450129>@@AEBV1@@Z 000000014002e1a0 f   menu-window.obj
 0002:0001b1f0       ??$forward@AEBV<lambda_668a1179af56ef880bbabaf92a5d9839>@@@std@@YAAEBV<lambda_668a1179af56ef880bbabaf92a5d9839>@@AEBV1@@Z 000000014002e1f0 f   menu-window.obj
 0002:0001b240       ??$forward@V<lambda_312b3f49165ee8dbe2e5837b3ce31c90>@@@std@@YA$$QEAV<lambda_312b3f49165ee8dbe2e5837b3ce31c90>@@AEAV1@@Z 000000014002e240 f   menu-window.obj
 0002:0001b290       ??$forward@V<lambda_5f2a59844b8069354d5a17d44e450129>@@@std@@YA$$QEAV<lambda_5f2a59844b8069354d5a17d44e450129>@@AEAV1@@Z 000000014002e290 f   menu-window.obj
 0002:0001b2e0       ??$forward@V<lambda_668a1179af56ef880bbabaf92a5d9839>@@@std@@YA$$QEAV<lambda_668a1179af56ef880bbabaf92a5d9839>@@AEAV1@@Z 000000014002e2e0 f   menu-window.obj
 0002:0001b330       ??$invoke@AEAV<lambda_312b3f49165ee8dbe2e5837b3ce31c90>@@PEAVButton@@@std@@YAXAEAV<lambda_312b3f49165ee8dbe2e5837b3ce31c90>@@$$QEAPEAVButton@@@Z 000000014002e330 f   menu-window.obj
 0002:0001b3c0       ??$invoke@AEAV<lambda_5f2a59844b8069354d5a17d44e450129>@@PEAVButton@@@std@@YAXAEAV<lambda_5f2a59844b8069354d5a17d44e450129>@@$$QEAPEAVButton@@@Z 000000014002e3c0 f   menu-window.obj
 0002:0001b450       ??$invoke@AEAV<lambda_668a1179af56ef880bbabaf92a5d9839>@@PEAVButton@@@std@@YAXAEAV<lambda_668a1179af56ef880bbabaf92a5d9839>@@$$QEAPEAVButton@@@Z 000000014002e450 f   menu-window.obj
 0002:0001b4e0       ??$move@AEAV<lambda_312b3f49165ee8dbe2e5837b3ce31c90>@@@std@@YA$$QEAV<lambda_312b3f49165ee8dbe2e5837b3ce31c90>@@AEAV1@@Z 000000014002e4e0 f   menu-window.obj
 0002:0001b530       ??$move@AEAV<lambda_5f2a59844b8069354d5a17d44e450129>@@@std@@YA$$QEAV<lambda_5f2a59844b8069354d5a17d44e450129>@@AEAV1@@Z 000000014002e530 f   menu-window.obj
 0002:0001b580       ??$move@AEAV<lambda_668a1179af56ef880bbabaf92a5d9839>@@@std@@YA$$QEAV<lambda_668a1179af56ef880bbabaf92a5d9839>@@AEAV1@@Z 000000014002e580 f   menu-window.obj
 0002:0001b5d0       ??0<lambda_312b3f49165ee8dbe2e5837b3ce31c90>@@QEAA@QEAVMenuWindow@@@Z 000000014002e5d0 f   menu-window.obj
 0002:0001b640       ??0<lambda_5f2a59844b8069354d5a17d44e450129>@@QEAA@QEAVMenuWindow@@@Z 000000014002e640 f   menu-window.obj
 0002:0001b6b0       ??0<lambda_668a1179af56ef880bbabaf92a5d9839>@@QEAA@QEAVMenuWindow@@@Z 000000014002e6b0 f   menu-window.obj
 0002:0001bda0       ??R<lambda_312b3f49165ee8dbe2e5837b3ce31c90>@@QEBAXPEAVButton@@@Z 000000014002eda0 f   menu-window.obj
 0002:0001be10       ??R<lambda_5f2a59844b8069354d5a17d44e450129>@@QEBAXPEAVButton@@@Z 000000014002ee10 f   menu-window.obj
 0002:0001be80       ??R<lambda_668a1179af56ef880bbabaf92a5d9839>@@QEBAXPEAVButton@@@Z 000000014002ee80 f   menu-window.obj
 0002:0001bf80       ?_Clone@?$_Func_impl_no_alloc@V<lambda_312b3f49165ee8dbe2e5837b3ce31c90>@@XPEAVButton@@@std@@AEBAPEAV?$_Func_base@XPEAVButton@@@2@PEAXU?$integral_constant@_N$0A@@2@@Z 000000014002ef80 f   menu-window.obj
 0002:0001c010       ?_Clone@?$_Func_impl_no_alloc@V<lambda_5f2a59844b8069354d5a17d44e450129>@@XPEAVButton@@@std@@AEBAPEAV?$_Func_base@XPEAVButton@@@2@PEAXU?$integral_constant@_N$0A@@2@@Z 000000014002f010 f   menu-window.obj
 0002:0001c0a0       ?_Clone@?$_Func_impl_no_alloc@V<lambda_668a1179af56ef880bbabaf92a5d9839>@@XPEAVButton@@@std@@AEBAPEAV?$_Func_base@XPEAVButton@@@2@PEAXU?$integral_constant@_N$0A@@2@@Z 000000014002f0a0 f   menu-window.obj
 0002:0001c130       ?_Copy@?$_Func_impl_no_alloc@V<lambda_312b3f49165ee8dbe2e5837b3ce31c90>@@XPEAVButton@@@std@@EEBAPEAV?$_Func_base@XPEAVButton@@@2@PEAX@Z 000000014002f130 f   menu-window.obj
 0002:0001c1a0       ?_Copy@?$_Func_impl_no_alloc@V<lambda_5f2a59844b8069354d5a17d44e450129>@@XPEAVButton@@@std@@EEBAPEAV?$_Func_base@XPEAVButton@@@2@PEAX@Z 000000014002f1a0 f   menu-window.obj
 0002:0001c210       ?_Copy@?$_Func_impl_no_alloc@V<lambda_668a1179af56ef880bbabaf92a5d9839>@@XPEAVButton@@@std@@EEBAPEAV?$_Func_base@XPEAVButton@@@2@PEAX@Z 000000014002f210 f   menu-window.obj
 0002:0001c280       ?_Delete_this@?$_Func_impl_no_alloc@V<lambda_312b3f49165ee8dbe2e5837b3ce31c90>@@XPEAVButton@@@std@@EEAAX_N@Z 000000014002f280 f   menu-window.obj
 0002:0001c300       ?_Delete_this@?$_Func_impl_no_alloc@V<lambda_5f2a59844b8069354d5a17d44e450129>@@XPEAVButton@@@std@@EEAAX_N@Z 000000014002f300 f   menu-window.obj
 0002:0001c380       ?_Delete_this@?$_Func_impl_no_alloc@V<lambda_668a1179af56ef880bbabaf92a5d9839>@@XPEAVButton@@@std@@EEAAX_N@Z 000000014002f380 f   menu-window.obj
 0002:0001c400       ?_Do_call@?$_Func_impl_no_alloc@V<lambda_312b3f49165ee8dbe2e5837b3ce31c90>@@XPEAVButton@@@std@@EEAAX$$QEAPEAVButton@@@Z 000000014002f400 f   menu-window.obj
 0002:0001c470       ?_Do_call@?$_Func_impl_no_alloc@V<lambda_5f2a59844b8069354d5a17d44e450129>@@XPEAVButton@@@std@@EEAAX$$QEAPEAVButton@@@Z 000000014002f470 f   menu-window.obj
 0002:0001c4e0       ?_Do_call@?$_Func_impl_no_alloc@V<lambda_668a1179af56ef880bbabaf92a5d9839>@@XPEAVButton@@@std@@EEAAX$$QEAPEAVButton@@@Z 000000014002f4e0 f   menu-window.obj
 0002:0001c550       ?_Get@?$_Func_impl_no_alloc@V<lambda_312b3f49165ee8dbe2e5837b3ce31c90>@@XPEAVButton@@@std@@EEBAPEBXXZ 000000014002f550 f   menu-window.obj
 0002:0001c5b0       ?_Get@?$_Func_impl_no_alloc@V<lambda_5f2a59844b8069354d5a17d44e450129>@@XPEAVButton@@@std@@EEBAPEBXXZ 000000014002f5b0 f   menu-window.obj
 0002:0001c610       ?_Get@?$_Func_impl_no_alloc@V<lambda_668a1179af56ef880bbabaf92a5d9839>@@XPEAVButton@@@std@@EEBAPEBXXZ 000000014002f610 f   menu-window.obj
 0002:0001c670       ?_Move@?$_Func_impl_no_alloc@V<lambda_312b3f49165ee8dbe2e5837b3ce31c90>@@XPEAVButton@@@std@@EEAAPEAV?$_Func_base@XPEAVButton@@@2@PEAX@Z 000000014002f670 f   menu-window.obj
 0002:0001c700       ?_Move@?$_Func_impl_no_alloc@V<lambda_5f2a59844b8069354d5a17d44e450129>@@XPEAVButton@@@std@@EEAAPEAV?$_Func_base@XPEAVButton@@@2@PEAX@Z 000000014002f700 f   menu-window.obj
 0002:0001c790       ?_Move@?$_Func_impl_no_alloc@V<lambda_668a1179af56ef880bbabaf92a5d9839>@@XPEAVButton@@@std@@EEAAPEAV?$_Func_base@XPEAVButton@@@2@PEAX@Z 000000014002f790 f   menu-window.obj
 0002:0001c820       ?_Target_type@?$_Func_impl_no_alloc@V<lambda_312b3f49165ee8dbe2e5837b3ce31c90>@@XPEAVButton@@@std@@EEBAAEBVtype_info@@XZ 000000014002f820 f   menu-window.obj
 0002:0001c870       ?_Target_type@?$_Func_impl_no_alloc@V<lambda_5f2a59844b8069354d5a17d44e450129>@@XPEAVButton@@@std@@EEBAAEBVtype_info@@XZ 000000014002f870 f   menu-window.obj
 0002:0001c8c0       ?_Target_type@?$_Func_impl_no_alloc@V<lambda_668a1179af56ef880bbabaf92a5d9839>@@XPEAVButton@@@std@@EEBAAEBVtype_info@@XZ 000000014002f8c0 f   menu-window.obj
 0002:0001ca90       ??$_Reallocate_for@V<lambda_66f57f934f28d61049862f64df852ff0>@@PEBD@?$basic_string@DU?$char_traits@D@std@@V?$allocator@D@2@@std@@QEAAAEAV01@_KV<lambda_66f57f934f28d61049862f64df852ff0>@@PEBD@Z 000000014002fa90 f   object.obj
 0002:0001d2a0       ??R<lambda_66f57f934f28d61049862f64df852ff0>@@QEBAXQEAD_KQEBD@Z 00000001400302a0 f   object.obj
 0002:0001fbd0       ?<lambda_invoker_cdecl>@<lambda_d959d1f5d5308bc9905e6be0a7d8cebe>@@CAPEAVWidget@@PEAV2@@Z 0000000140032bd0 f   window-editor.obj
 0002:0001fe50       ??B<lambda_d959d1f5d5308bc9905e6be0a7d8cebe>@@QEBAP6APEAVWidget@@PEAV1@@ZXZ 0000000140032e50 f   window-editor.obj
 0002:0001fea0       ??R<lambda_d959d1f5d5308bc9905e6be0a7d8cebe>@@QEBAPEAVWidget@@PEAV1@@Z 0000000140032ea0 f   window-editor.obj
 0002:00020280       ?find_pe_section@@YAPEAU_IMAGE_SECTION_HEADER@@QEAE_K@Z 0000000140033280 f   MSVCRTD:utility.obj
 0002:000203a0       ?is_potentially_valid_image_base@@YA_NQEAX@Z 00000001400333a0 f   MSVCRTD:utility.obj
 0002:00021030       $$000000                   0000000140034030     MSVCRTD:_amdsecgs_.obj
 0002:00021100       ?DebuggerProbe@@YA_NK@Z    0000000140034100 f   MSVCRTD:_error_.obj
 0002:00021150       ?DebuggerRuntime@@YA_NKHPEAXPEB_W@Z 0000000140034150 f   MSVCRTD:_error_.obj
 0002:000214e0       ?_getMemBlockDataString@@YAXPEAD0PEBD_K@Z 00000001400344e0 f   MSVCRTD:_error_.obj
 0002:000215c0       ?_strlen_priv@@YA_KPEBD@Z  00000001400345c0 f   MSVCRTD:_error_.obj
 0002:000215e0       ?failwithmessage@@YAXPEAXHHPEBD@Z 00000001400345e0 f   MSVCRTD:_error_.obj
 0002:000218e0       ?notify_debugger@@YAXAEBUtagEXCEPTION_VISUALCPP_DEBUG_INFO@@@Z 00000001400348e0 f   MSVCRTD:_error_.obj
 0002:00021ac0       ?pre_c_initialization@@YAHXZ 0000000140034ac0 f   MSVCRTD:exe_winmain.obj
 0002:00021b90       ?post_pgo_initialization@@YAHXZ 0000000140034b90 f   MSVCRTD:exe_winmain.obj
 0002:00021bb0       ?pre_cpp_initialization@@YAXXZ 0000000140034bb0 f   MSVCRTD:exe_winmain.obj
 0002:00021bd0       ?__scrt_common_main@@YAHXZ 0000000140034bd0 f   MSVCRTD:exe_winmain.obj
 0002:00021bf0       ?__scrt_common_main_seh@@YAHXZ 0000000140034bf0 f   MSVCRTD:exe_winmain.obj
 0002:00021df0       ?invoke_main@@YAHXZ        0000000140034df0 f   MSVCRTD:exe_winmain.obj
 0002:00023140       capture_current_context    0000000140036140 f   MSVCRTD:gs_report.obj
 0002:00023200       capture_previous_context   0000000140036200 f   MSVCRTD:gs_report.obj
 0002:000232e0       ?GetPdbDll@@YAPEAUHINSTANCE__@@XZ 00000001400362e0 f   MSVCRTD:_pdblkup_.obj
 0002:00023480       ?GetPdbDllFromInstallPath@@YAPEAUHINSTANCE__@@XZ 0000000140036480 f   MSVCRTD:_pdblkup_.obj
 0002:000237e0       ?GetPdbDllPathFromFilePath@@YAHPEB_WPEA_W_K@Z 00000001400367e0 f   MSVCRTD:_pdblkup_.obj
 0002:00023df0       __get_entropy              0000000140036df0 f   MSVCRTD:gs_support.obj
 0002:00025bc0       $$000000                   0000000140038bc0     MSVCRTD:_guard_dispatch_.obj
 0002:00026be0       ?dtor$0@?0???0?$_String_alloc@U?$_String_base_types@DV?$allocator@D@std@@@std@@@std@@QEAA@XZ@4HA 0000000140039be0 f   button.obj
 0002:00026c10       ?dtor$0@?0???0?$basic_string@DU?$char_traits@D@std@@V?$allocator@D@2@@std@@QEAA@QEBD@Z@4HA 0000000140039c10 f   button.obj
 0002:00026c40       ?dtor$0@?0???0?$function@$$A6AXPEAVButton@@@Z@std@@QEAA@AEBV01@@Z@4HA 0000000140039c40 f   button.obj
 0002:00026c70       ?dtor$0@?0???0Button@@QEAA@AEBV?$Vector2@M@sf@@0@Z@4HA 0000000140039c70 f   button.obj
 0002:00026ca0       ?dtor$1@?0???0Button@@QEAA@AEBV?$Vector2@M@sf@@0@Z@4HA 0000000140039ca0 f   button.obj
 0002:00026ce0       ?dtor$2@?0???0Button@@QEAA@AEBV?$Vector2@M@sf@@0@Z@4HA 0000000140039ce0 f   button.obj
 0002:00026d20       ?dtor$3@?0???0Button@@QEAA@AEBV?$Vector2@M@sf@@0@Z@4HA 0000000140039d20 f   button.obj
 0002:00026d50       ?dtor$0@?0??SetOnClickedListener@Button@@QEAAXV?$function@$$A6AXPEAVButton@@@Z@std@@@Z@4HA 0000000140039d50 f   button.obj
 0002:00026d80       ?dtor$0@?0??SetText@Button@@QEAAXPEB_W@Z@4HA 0000000140039d80 f   button.obj
 0002:00026dc0       ?dtor$0@?0???$?0AEBV?$allocator@D@std@@X@?$_String_alloc@U?$_String_base_types@DV?$allocator@D@std@@@std@@@std@@QEAA@AEBV?$allocator@D@1@@Z@4HA 0000000140039dc0 f   config.obj
 0002:00026df0       ?catch$0@?0???$_Buynode@AEBUpiecewise_construct_t@std@@V?$tuple@$$QEAW4Object_Type@@@2@V?$tuple@$$V@2@@?$_Tree_comp_alloc@V?$_Tmap_traits@W4Object_Type@@PEBVGameObject@@U?$less@W4Object_Type@@@std@@V?$allocator@U?$pair@$$CBW4Object_Type@@PEBVGameObject@@@std@@@4@$0A@@std@@@std@@QEAAPEAU?$_Tree_node@U?$pair@$$CBW4Object_Type@@PEBVGameObject@@@std@@PEAX@1@AEBUpiecewise_construct_t@1@$$QEAV?$tuple@$$QEAW4Object_Type@@@1@$$QEAV?$tuple@$$V@1@@Z@4HA 0000000140039df0 f   config.obj
 0002:00026e04       __catch$??$_Buynode@AEBUpiecewise_construct_t@std@@V?$tuple@$$QEAW4Object_Type@@@2@V?$tuple@$$V@2@@?$_Tree_comp_alloc@V?$_Tmap_traits@W4Object_Type@@PEBVGameObject@@U?$less@W4Object_Type@@@std@@V?$allocator@U?$pair@$$CBW4Object_Type@@PEBVGameObject@@@std@@@4@$0A@@std@@@std@@QEAAPEAU?$_Tree_node@U?$pair@$$CBW4Object_Type@@PEBVGameObject@@@std@@PEAX@1@AEBUpiecewise_construct_t@1@$$QEAV?$tuple@$$QEAW4Object_Type@@@1@$$QEAV?$tuple@$$V@1@@Z$0 0000000140039e04 f   config.obj
 0002:00026e40       ?catch$10@?0???$_Insert_hint@AEAU?$pair@$$CBW4Object_Type@@PEBVGameObject@@@std@@PEAU?$_Tree_node@U?$pair@$$CBW4Object_Type@@PEBVGameObject@@@std@@PEAX@2@@?$_Tree@V?$_Tmap_traits@W4Object_Type@@PEBVGameObject@@U?$less@W4Object_Type@@@std@@V?$allocator@U?$pair@$$CBW4Object_Type@@PEBVGameObject@@@std@@@4@$0A@@std@@@std@@IEAA?AV?$_Tree_iterator@V?$_Tree_val@U?$_Tree_simple_types@U?$pair@$$CBW4Object_Type@@PEBVGameObject@@@std@@@std@@@std@@@1@V?$_Tree_const_iterator@V?$_Tree_val@U?$_Tree_simple_types@U?$pair@$$CBW4Object_Type@@PEBVGameObject@@@std@@@std@@@std@@@1@AEAU?$pair@$$CBW4Object_Type@@PEBVGameObject@@@1@PEAU?$_Tree_node@U?$pair@$$CBW4Object_Type@@PEBVGameObject@@@std@@PEAX@1@@Z@4HA 0000000140039e40 f   config.obj
 0002:00026e54       __catch$??$_Insert_hint@AEAU?$pair@$$CBW4Object_Type@@PEBVGameObject@@@std@@PEAU?$_Tree_node@U?$pair@$$CBW4Object_Type@@PEBVGameObject@@@std@@PEAX@2@@?$_Tree@V?$_Tmap_traits@W4Object_Type@@PEBVGameObject@@U?$less@W4Object_Type@@@std@@V?$allocator@U?$pair@$$CBW4Object_Type@@PEBVGameObject@@@std@@@4@$0A@@std@@@std@@IEAA?AV?$_Tree_iterator@V?$_Tree_val@U?$_Tree_simple_types@U?$pair@$$CBW4Object_Type@@PEBVGameObject@@@std@@@std@@@std@@@1@V?$_Tree_const_iterator@V?$_Tree_val@U?$_Tree_simple_types@U?$pair@$$CBW4Object_Type@@PEBVGameObject@@@std@@@std@@@std@@@1@AEAU?$pair@$$CBW4Object_Type@@PEBVGameObject@@@1@PEAU?$_Tree_node@U?$pair@$$CBW4Object_Type@@PEBVGameObject@@@std@@PEAX@1@@Z$0 0000000140039e54 f   config.obj
 0002:00026e90       ?dtor$0@?0???$_Insert_hint@AEAU?$pair@$$CBW4Object_Type@@PEBVGameObject@@@std@@PEAU?$_Tree_node@U?$pair@$$CBW4Object_Type@@PEBVGameObject@@@std@@PEAX@2@@?$_Tree@V?$_Tmap_traits@W4Object_Type@@PEBVGameObject@@U?$less@W4Object_Type@@@std@@V?$allocator@U?$pair@$$CBW4Object_Type@@PEBVGameObject@@@std@@@4@$0A@@std@@@std@@IEAA?AV?$_Tree_iterator@V?$_Tree_val@U?$_Tree_simple_types@U?$pair@$$CBW4Object_Type@@PEBVGameObject@@@std@@@std@@@std@@@1@V?$_Tree_const_iterator@V?$_Tree_val@U?$_Tree_simple_types@U?$pair@$$CBW4Object_Type@@PEBVGameObject@@@std@@@std@@@std@@@1@AEAU?$pair@$$CBW4Object_Type@@PEBVGameObject@@@1@PEAU?$_Tree_node@U?$pair@$$CBW4Object_Type@@PEBVGameObject@@@std@@PEAX@1@@Z@4HA 0000000140039e90 f   config.obj
 0002:00026ec0       ?dtor$1@?0???$_Insert_hint@AEAU?$pair@$$CBW4Object_Type@@PEBVGameObject@@@std@@PEAU?$_Tree_node@U?$pair@$$CBW4Object_Type@@PEBVGameObject@@@std@@PEAX@2@@?$_Tree@V?$_Tmap_traits@W4Object_Type@@PEBVGameObject@@U?$less@W4Object_Type@@@std@@V?$allocator@U?$pair@$$CBW4Object_Type@@PEBVGameObject@@@std@@@4@$0A@@std@@@std@@IEAA?AV?$_Tree_iterator@V?$_Tree_val@U?$_Tree_simple_types@U?$pair@$$CBW4Object_Type@@PEBVGameObject@@@std@@@std@@@std@@@1@V?$_Tree_const_iterator@V?$_Tree_val@U?$_Tree_simple_types@U?$pair@$$CBW4Object_Type@@PEBVGameObject@@@std@@@std@@@std@@@1@AEAU?$pair@$$CBW4Object_Type@@PEBVGameObject@@@1@PEAU?$_Tree_node@U?$pair@$$CBW4Object_Type@@PEBVGameObject@@@std@@PEAX@1@@Z@4HA 0000000140039ec0 f   config.obj
 0002:00026ef0       ?dtor$3@?0???$_Insert_hint@AEAU?$pair@$$CBW4Object_Type@@PEBVGameObject@@@std@@PEAU?$_Tree_node@U?$pair@$$CBW4Object_Type@@PEBVGameObject@@@std@@PEAX@2@@?$_Tree@V?$_Tmap_traits@W4Object_Type@@PEBVGameObject@@U?$less@W4Object_Type@@@std@@V?$allocator@U?$pair@$$CBW4Object_Type@@PEBVGameObject@@@std@@@4@$0A@@std@@@std@@IEAA?AV?$_Tree_iterator@V?$_Tree_val@U?$_Tree_simple_types@U?$pair@$$CBW4Object_Type@@PEBVGameObject@@@std@@@std@@@std@@@1@V?$_Tree_const_iterator@V?$_Tree_val@U?$_Tree_simple_types@U?$pair@$$CBW4Object_Type@@PEBVGameObject@@@std@@@std@@@std@@@1@AEAU?$pair@$$CBW4Object_Type@@PEBVGameObject@@@1@PEAU?$_Tree_node@U?$pair@$$CBW4Object_Type@@PEBVGameObject@@@std@@PEAX@1@@Z@4HA 0000000140039ef0 f   config.obj
 0002:00026f20       ?dtor$4@?0???$_Insert_hint@AEAU?$pair@$$CBW4Object_Type@@PEBVGameObject@@@std@@PEAU?$_Tree_node@U?$pair@$$CBW4Object_Type@@PEBVGameObject@@@std@@PEAX@2@@?$_Tree@V?$_Tmap_traits@W4Object_Type@@PEBVGameObject@@U?$less@W4Object_Type@@@std@@V?$allocator@U?$pair@$$CBW4Object_Type@@PEBVGameObject@@@std@@@4@$0A@@std@@@std@@IEAA?AV?$_Tree_iterator@V?$_Tree_val@U?$_Tree_simple_types@U?$pair@$$CBW4Object_Type@@PEBVGameObject@@@std@@@std@@@std@@@1@V?$_Tree_const_iterator@V?$_Tree_val@U?$_Tree_simple_types@U?$pair@$$CBW4Object_Type@@PEBVGameObject@@@std@@@std@@@std@@@1@AEAU?$pair@$$CBW4Object_Type@@PEBVGameObject@@@1@PEAU?$_Tree_node@U?$pair@$$CBW4Object_Type@@PEBVGameObject@@@std@@PEAX@1@@Z@4HA 0000000140039f20 f   config.obj
 0002:00026f50       ?dtor$5@?0???$_Insert_hint@AEAU?$pair@$$CBW4Object_Type@@PEBVGameObject@@@std@@PEAU?$_Tree_node@U?$pair@$$CBW4Object_Type@@PEBVGameObject@@@std@@PEAX@2@@?$_Tree@V?$_Tmap_traits@W4Object_Type@@PEBVGameObject@@U?$less@W4Object_Type@@@std@@V?$allocator@U?$pair@$$CBW4Object_Type@@PEBVGameObject@@@std@@@4@$0A@@std@@@std@@IEAA?AV?$_Tree_iterator@V?$_Tree_val@U?$_Tree_simple_types@U?$pair@$$CBW4Object_Type@@PEBVGameObject@@@std@@@std@@@std@@@1@V?$_Tree_const_iterator@V?$_Tree_val@U?$_Tree_simple_types@U?$pair@$$CBW4Object_Type@@PEBVGameObject@@@std@@@std@@@std@@@1@AEAU?$pair@$$CBW4Object_Type@@PEBVGameObject@@@1@PEAU?$_Tree_node@U?$pair@$$CBW4Object_Type@@PEBVGameObject@@@std@@PEAX@1@@Z@4HA 0000000140039f50 f   config.obj
 0002:00026fa0       ?dtor$6@?0???$_Insert_hint@AEAU?$pair@$$CBW4Object_Type@@PEBVGameObject@@@std@@PEAU?$_Tree_node@U?$pair@$$CBW4Object_Type@@PEBVGameObject@@@std@@PEAX@2@@?$_Tree@V?$_Tmap_traits@W4Object_Type@@PEBVGameObject@@U?$less@W4Object_Type@@@std@@V?$allocator@U?$pair@$$CBW4Object_Type@@PEBVGameObject@@@std@@@4@$0A@@std@@@std@@IEAA?AV?$_Tree_iterator@V?$_Tree_val@U?$_Tree_simple_types@U?$pair@$$CBW4Object_Type@@PEBVGameObject@@@std@@@std@@@std@@@1@V?$_Tree_const_iterator@V?$_Tree_val@U?$_Tree_simple_types@U?$pair@$$CBW4Object_Type@@PEBVGameObject@@@std@@@std@@@std@@@1@AEAU?$pair@$$CBW4Object_Type@@PEBVGameObject@@@1@PEAU?$_Tree_node@U?$pair@$$CBW4Object_Type@@PEBVGameObject@@@std@@PEAX@1@@Z@4HA 0000000140039fa0 f   config.obj
 0002:00026fd0       ?dtor$7@?0???$_Insert_hint@AEAU?$pair@$$CBW4Object_Type@@PEBVGameObject@@@std@@PEAU?$_Tree_node@U?$pair@$$CBW4Object_Type@@PEBVGameObject@@@std@@PEAX@2@@?$_Tree@V?$_Tmap_traits@W4Object_Type@@PEBVGameObject@@U?$less@W4Object_Type@@@std@@V?$allocator@U?$pair@$$CBW4Object_Type@@PEBVGameObject@@@std@@@4@$0A@@std@@@std@@IEAA?AV?$_Tree_iterator@V?$_Tree_val@U?$_Tree_simple_types@U?$pair@$$CBW4Object_Type@@PEBVGameObject@@@std@@@std@@@std@@@1@V?$_Tree_const_iterator@V?$_Tree_val@U?$_Tree_simple_types@U?$pair@$$CBW4Object_Type@@PEBVGameObject@@@std@@@std@@@std@@@1@AEAU?$pair@$$CBW4Object_Type@@PEBVGameObject@@@1@PEAU?$_Tree_node@U?$pair@$$CBW4Object_Type@@PEBVGameObject@@@std@@PEAX@1@@Z@4HA 0000000140039fd0 f   config.obj
 0002:00027000       ?dtor$8@?0???$_Insert_hint@AEAU?$pair@$$CBW4Object_Type@@PEBVGameObject@@@std@@PEAU?$_Tree_node@U?$pair@$$CBW4Object_Type@@PEBVGameObject@@@std@@PEAX@2@@?$_Tree@V?$_Tmap_traits@W4Object_Type@@PEBVGameObject@@U?$less@W4Object_Type@@@std@@V?$allocator@U?$pair@$$CBW4Object_Type@@PEBVGameObject@@@std@@@4@$0A@@std@@@std@@IEAA?AV?$_Tree_iterator@V?$_Tree_val@U?$_Tree_simple_types@U?$pair@$$CBW4Object_Type@@PEBVGameObject@@@std@@@std@@@std@@@1@V?$_Tree_const_iterator@V?$_Tree_val@U?$_Tree_simple_types@U?$pair@$$CBW4Object_Type@@PEBVGameObject@@@std@@@std@@@std@@@1@AEAU?$pair@$$CBW4Object_Type@@PEBVGameObject@@@1@PEAU?$_Tree_node@U?$pair@$$CBW4Object_Type@@PEBVGameObject@@@std@@PEAX@1@@Z@4HA 000000014003a000 f   config.obj
 0002:00027050       ?catch$6@?0???$_Insert_nohint@AEAU?$pair@$$CBW4Object_Type@@PEBVGameObject@@@std@@PEAU?$_Tree_node@U?$pair@$$CBW4Object_Type@@PEBVGameObject@@@std@@PEAX@2@@?$_Tree@V?$_Tmap_traits@W4Object_Type@@PEBVGameObject@@U?$less@W4Object_Type@@@std@@V?$allocator@U?$pair@$$CBW4Object_Type@@PEBVGameObject@@@std@@@4@$0A@@std@@@std@@IEAA?AU?$pair@V?$_Tree_iterator@V?$_Tree_val@U?$_Tree_simple_types@U?$pair@$$CBW4Object_Type@@PEBVGameObject@@@std@@@std@@@std@@@std@@_N@1@_NAEAU?$pair@$$CBW4Object_Type@@PEBVGameObject@@@1@PEAU?$_Tree_node@U?$pair@$$CBW4Object_Type@@PEBVGameObject@@@std@@PEAX@1@@Z@4HA 000000014003a050 f   config.obj
 0002:00027064       __catch$??$_Insert_nohint@AEAU?$pair@$$CBW4Object_Type@@PEBVGameObject@@@std@@PEAU?$_Tree_node@U?$pair@$$CBW4Object_Type@@PEBVGameObject@@@std@@PEAX@2@@?$_Tree@V?$_Tmap_traits@W4Object_Type@@PEBVGameObject@@U?$less@W4Object_Type@@@std@@V?$allocator@U?$pair@$$CBW4Object_Type@@PEBVGameObject@@@std@@@4@$0A@@std@@@std@@IEAA?AU?$pair@V?$_Tree_iterator@V?$_Tree_val@U?$_Tree_simple_types@U?$pair@$$CBW4Object_Type@@PEBVGameObject@@@std@@@std@@@std@@@std@@_N@1@_NAEAU?$pair@$$CBW4Object_Type@@PEBVGameObject@@@1@PEAU?$_Tree_node@U?$pair@$$CBW4Object_Type@@PEBVGameObject@@@std@@PEAX@1@@Z$0 000000014003a064 f   config.obj
 0002:000270a0       ?dtor$2@?0???$_Insert_nohint@AEAU?$pair@$$CBW4Object_Type@@PEBVGameObject@@@std@@PEAU?$_Tree_node@U?$pair@$$CBW4Object_Type@@PEBVGameObject@@@std@@PEAX@2@@?$_Tree@V?$_Tmap_traits@W4Object_Type@@PEBVGameObject@@U?$less@W4Object_Type@@@std@@V?$allocator@U?$pair@$$CBW4Object_Type@@PEBVGameObject@@@std@@@4@$0A@@std@@@std@@IEAA?AU?$pair@V?$_Tree_iterator@V?$_Tree_val@U?$_Tree_simple_types@U?$pair@$$CBW4Object_Type@@PEBVGameObject@@@std@@@std@@@std@@@std@@_N@1@_NAEAU?$pair@$$CBW4Object_Type@@PEBVGameObject@@@1@PEAU?$_Tree_node@U?$pair@$$CBW4Object_Type@@PEBVGameObject@@@std@@PEAX@1@@Z@4HA 000000014003a0a0 f   config.obj
 0002:000270d0       ?dtor$3@?0???$_Insert_nohint@AEAU?$pair@$$CBW4Object_Type@@PEBVGameObject@@@std@@PEAU?$_Tree_node@U?$pair@$$CBW4Object_Type@@PEBVGameObject@@@std@@PEAX@2@@?$_Tree@V?$_Tmap_traits@W4Object_Type@@PEBVGameObject@@U?$less@W4Object_Type@@@std@@V?$allocator@U?$pair@$$CBW4Object_Type@@PEBVGameObject@@@std@@@4@$0A@@std@@@std@@IEAA?AU?$pair@V?$_Tree_iterator@V?$_Tree_val@U?$_Tree_simple_types@U?$pair@$$CBW4Object_Type@@PEBVGameObject@@@std@@@std@@@std@@@std@@_N@1@_NAEAU?$pair@$$CBW4Object_Type@@PEBVGameObject@@@1@PEAU?$_Tree_node@U?$pair@$$CBW4Object_Type@@PEBVGameObject@@@std@@PEAX@1@@Z@4HA 000000014003a0d0 f   config.obj
 0002:00027100       ?dtor$0@?0???$_Try_emplace@W4Object_Type@@$$V@?$map@W4Object_Type@@PEBVGameObject@@U?$less@W4Object_Type@@@std@@V?$allocator@U?$pair@$$CBW4Object_Type@@PEBVGameObject@@@std@@@4@@std@@QEAA?AU?$pair@V?$_Tree_iterator@V?$_Tree_val@U?$_Tree_simple_types@U?$pair@$$CBW4Object_Type@@PEBVGameObject@@@std@@@std@@@std@@@std@@_N@1@$$QEAW4Object_Type@@@Z@4HA 000000014003a100 f   config.obj
 0002:00027130       ?dtor$1@?0???$_Try_emplace@W4Object_Type@@$$V@?$map@W4Object_Type@@PEBVGameObject@@U?$less@W4Object_Type@@@std@@V?$allocator@U?$pair@$$CBW4Object_Type@@PEBVGameObject@@@std@@@4@@std@@QEAA?AU?$pair@V?$_Tree_iterator@V?$_Tree_val@U?$_Tree_simple_types@U?$pair@$$CBW4Object_Type@@PEBVGameObject@@@std@@@std@@@std@@@std@@_N@1@$$QEAW4Object_Type@@@Z@4HA 000000014003a130 f   config.obj
 0002:00027180       ?dtor$0@?0???$emplace_hint@AEBUpiecewise_construct_t@std@@V?$tuple@$$QEAW4Object_Type@@@2@V?$tuple@$$V@2@@?$_Tree@V?$_Tmap_traits@W4Object_Type@@PEBVGameObject@@U?$less@W4Object_Type@@@std@@V?$allocator@U?$pair@$$CBW4Object_Type@@PEBVGameObject@@@std@@@4@$0A@@std@@@std@@QEAA?AV?$_Tree_iterator@V?$_Tree_val@U?$_Tree_simple_types@U?$pair@$$CBW4Object_Type@@PEBVGameObject@@@std@@@std@@@std@@@1@V?$_Tree_const_iterator@V?$_Tree_val@U?$_Tree_simple_types@U?$pair@$$CBW4Object_Type@@PEBVGameObject@@@std@@@std@@@std@@@1@AEBUpiecewise_construct_t@1@$$QEAV?$tuple@$$QEAW4Object_Type@@@1@$$QEAV?$tuple@$$V@1@@Z@4HA 000000014003a180 f   config.obj
 0002:000271b0       ?dtor$0@?0???0?$basic_string@DU?$char_traits@D@std@@V?$allocator@D@2@@std@@QEAA@AEBV01@_K1AEBV?$allocator@D@1@@Z@4HA 000000014003a1b0 f   config.obj
 0002:000271e0       ?dtor$0@?0???A?$map@W4Object_Type@@PEBVGameObject@@U?$less@W4Object_Type@@@std@@V?$allocator@U?$pair@$$CBW4Object_Type@@PEBVGameObject@@@std@@@4@@std@@QEAAAEAPEBVGameObject@@$$QEAW4Object_Type@@@Z@4HA 000000014003a1e0 f   config.obj
 0002:00027210       ?dtor$0@?0??Create_Object@ConfigManager@@QEBAPEAVGameObject@@W4Object_Type@@@Z@4HA 000000014003a210 f   config.obj
 0002:00027240       ?dtor$1@?0??Create_Object@ConfigManager@@QEBAPEAVGameObject@@W4Object_Type@@@Z@4HA 000000014003a240 f   config.obj
 0002:00027270       ?dtor$0@?0??Read@Config_Parser@@YAPEBDPEBDAEAH@Z@4HA 000000014003a270 f   config.obj
 0002:000272a0       ?dtor$1@?0??Read@Config_Parser@@YAPEBDPEBDAEAH@Z@4HA 000000014003a2a0 f   config.obj
 0002:000272d0       ?dtor$0@?0??Read@Config_Parser@@YAPEBDPEBDAEAM@Z@4HA 000000014003a2d0 f   config.obj
 0002:00027300       ?dtor$1@?0??Read@Config_Parser@@YAPEBDPEBDAEAM@Z@4HA 000000014003a300 f   config.obj
 0002:00027330       ?dtor$0@?0??Read@Config_Parser@@YAPEBDPEBDAEAV?$basic_string@DU?$char_traits@D@std@@V?$allocator@D@2@@std@@@Z@4HA 000000014003a330 f   config.obj
 0002:00027360       ?catch$0@?0??_Buynode0@?$_Tree_comp_alloc@V?$_Tmap_traits@W4Object_Type@@PEBVGameObject@@U?$less@W4Object_Type@@@std@@V?$allocator@U?$pair@$$CBW4Object_Type@@PEBVGameObject@@@std@@@4@$0A@@std@@@std@@QEAAPEAU?$_Tree_node@U?$pair@$$CBW4Object_Type@@PEBVGameObject@@@std@@PEAX@2@XZ@4HA 000000014003a360 f   config.obj
 0002:00027374       __catch$?_Buynode0@?$_Tree_comp_alloc@V?$_Tmap_traits@W4Object_Type@@PEBVGameObject@@U?$less@W4Object_Type@@@std@@V?$allocator@U?$pair@$$CBW4Object_Type@@PEBVGameObject@@@std@@@4@$0A@@std@@@std@@QEAAPEAU?$_Tree_node@U?$pair@$$CBW4Object_Type@@PEBVGameObject@@@std@@PEAX@2@XZ$0 000000014003a374 f   config.obj
 0002:000273b0       ?dtor$0@?0??find@?$_Tree@V?$_Tmap_traits@W4Object_Type@@PEBVGameObject@@U?$less@W4Object_Type@@@std@@V?$allocator@U?$pair@$$CBW4Object_Type@@PEBVGameObject@@@std@@@4@$0A@@std@@@std@@QEBA?AV?$_Tree_const_iterator@V?$_Tree_val@U?$_Tree_simple_types@U?$pair@$$CBW4Object_Type@@PEBVGameObject@@@std@@@std@@@std@@@2@AEBW4Object_Type@@@Z@4HA 000000014003a3b0 f   config.obj
 0002:000273e0       ?dtor$1@?0??find@?$_Tree@V?$_Tmap_traits@W4Object_Type@@PEBVGameObject@@U?$less@W4Object_Type@@@std@@V?$allocator@U?$pair@$$CBW4Object_Type@@PEBVGameObject@@@std@@@4@$0A@@std@@@std@@QEBA?AV?$_Tree_const_iterator@V?$_Tree_val@U?$_Tree_simple_types@U?$pair@$$CBW4Object_Type@@PEBVGameObject@@@std@@@std@@@std@@@2@AEBW4Object_Type@@@Z@4HA 000000014003a3e0 f   config.obj
 0002:00027430       ?catch$0@?0???$_Emplace_reallocate@AEBQEAV?$Container@VWidget@@@@@?$vector@PEAV?$Container@VWidget@@@@V?$allocator@PEAV?$Container@VWidget@@@@@std@@@std@@QEAAPEAPEAV?$Container@VWidget@@@@QEAPEAV2@AEBQEAV2@@Z@4HA 000000014003a430 f   engine.obj
 0002:00027444       __catch$??$_Emplace_reallocate@AEBQEAV?$Container@VWidget@@@@@?$vector@PEAV?$Container@VWidget@@@@V?$allocator@PEAV?$Container@VWidget@@@@@std@@@std@@QEAAPEAPEAV?$Container@VWidget@@@@QEAPEAV2@AEBQEAV2@@Z$0 000000014003a444 f   engine.obj
 0002:000274b0       ?dtor$0@?0???0Engine@@QEAA@XZ@4HA 000000014003a4b0 f   engine.obj
 0002:000274f0       ?dtor$1@?0???0Engine@@QEAA@XZ@4HA 000000014003a4f0 f   engine.obj
 0002:00027530       ?dtor$2@?0???0Engine@@QEAA@XZ@4HA 000000014003a530 f   engine.obj
 0002:00027570       ?dtor$3@?0???0Engine@@QEAA@XZ@4HA 000000014003a570 f   engine.obj
 0002:000275c0       ?dtor$4@?0???0Engine@@QEAA@XZ@4HA 000000014003a5c0 f   engine.obj
 0002:00027610       ?dtor$0@?0???E?$_Tree_const_iterator@V?$_Tree_val@U?$_Tree_simple_types@U?$pair@$$CBW4Object_Type@@PEBVGameObject@@@std@@@std@@@std@@@std@@QEAA?AV01@H@Z@4HA 000000014003a610 f   engine.obj
 0002:00027640       ?dtor$0@?0??Execute@Engine@@QEAAXXZ@4HA 000000014003a640 f   engine.obj
 0002:00027680       ?catch$0@?0??_Buyheadnode@?$_Tree_comp_alloc@V?$_Tmap_traits@W4Object_Type@@PEBVGameObject@@U?$less@W4Object_Type@@@std@@V?$allocator@U?$pair@$$CBW4Object_Type@@PEBVGameObject@@@std@@@4@$0A@@std@@@std@@QEAAPEAU?$_Tree_node@U?$pair@$$CBW4Object_Type@@PEBVGameObject@@@std@@PEAX@2@XZ@4HA 000000014003a680 f   engine.obj
 0002:00027694       __catch$?_Buyheadnode@?$_Tree_comp_alloc@V?$_Tmap_traits@W4Object_Type@@PEBVGameObject@@U?$less@W4Object_Type@@@std@@V?$allocator@U?$pair@$$CBW4Object_Type@@PEBVGameObject@@@std@@@4@$0A@@std@@@std@@QEAAPEAU?$_Tree_node@U?$pair@$$CBW4Object_Type@@PEBVGameObject@@@std@@PEAX@2@XZ$0 000000014003a694 f   engine.obj
 0002:000276d0       ?catch$0@?0??_Construct@?$_Tree_comp_alloc@V?$_Tmap_traits@W4Object_Type@@PEBVGameObject@@U?$less@W4Object_Type@@@std@@V?$allocator@U?$pair@$$CBW4Object_Type@@PEBVGameObject@@@std@@@4@$0A@@std@@@std@@QEAAXXZ@4HA 000000014003a6d0 f   engine.obj
 0002:000276e4       __catch$?_Construct@?$_Tree_comp_alloc@V?$_Tmap_traits@W4Object_Type@@PEBVGameObject@@U?$less@W4Object_Type@@@std@@V?$allocator@U?$pair@$$CBW4Object_Type@@PEBVGameObject@@@std@@@4@$0A@@std@@@std@@QEAAXXZ$0 000000014003a6e4 f   engine.obj
 0002:00027730       ?dtor$0@?0??_Extract@?$_Tree_val@U?$_Tree_simple_types@U?$pair@$$CBW4Object_Type@@PEBVGameObject@@@std@@@std@@@std@@QEAAPEAU?$_Tree_node@U?$pair@$$CBW4Object_Type@@PEBVGameObject@@@std@@PEAX@2@V?$_Tree_const_iterator@V?$_Tree_val@U?$_Tree_simple_types@U?$pair@$$CBW4Object_Type@@PEBVGameObject@@@std@@@std@@@std@@@2@@Z@4HA 000000014003a730 f   engine.obj
 0002:00027760       ?dtor$0@?0??_Orphan_ptr@?$_Tree@V?$_Tmap_traits@W4Object_Type@@PEBVGameObject@@U?$less@W4Object_Type@@@std@@V?$allocator@U?$pair@$$CBW4Object_Type@@PEBVGameObject@@@std@@@4@$0A@@std@@@std@@IEAAXPEAU?$_Tree_node@U?$pair@$$CBW4Object_Type@@PEBVGameObject@@@std@@PEAX@2@@Z@4HA 000000014003a760 f   engine.obj
 0002:00027790       ?dtor$0@?0??_Orphan_range@?$vector@PEAV?$Container@VWidget@@@@V?$allocator@PEAV?$Container@VWidget@@@@@std@@@std@@AEBAXPEAPEAV?$Container@VWidget@@@@0@Z@4HA 000000014003a790 f   engine.obj
 0002:000277c0       ?dtor$0@?0??_Tidy@?$_Tree@V?$_Tmap_traits@W4Object_Type@@PEBVGameObject@@U?$less@W4Object_Type@@@std@@V?$allocator@U?$pair@$$CBW4Object_Type@@PEBVGameObject@@@std@@@4@$0A@@std@@@std@@IEAAXXZ@4HA 000000014003a7c0 f   engine.obj
 0002:000277f0       ?dtor$2@?0??_Tidy@?$_Tree@V?$_Tmap_traits@W4Object_Type@@PEBVGameObject@@U?$less@W4Object_Type@@@std@@V?$allocator@U?$pair@$$CBW4Object_Type@@PEBVGameObject@@@std@@@4@$0A@@std@@@std@@IEAAXXZ@4HA 000000014003a7f0 f   engine.obj
 0002:00027820       ?dtor$0@?0??erase@?$_Tree@V?$_Tmap_traits@W4Object_Type@@PEBVGameObject@@U?$less@W4Object_Type@@@std@@V?$allocator@U?$pair@$$CBW4Object_Type@@PEBVGameObject@@@std@@@4@$0A@@std@@@std@@QEAA?AV?$_Tree_iterator@V?$_Tree_val@U?$_Tree_simple_types@U?$pair@$$CBW4Object_Type@@PEBVGameObject@@@std@@@std@@@std@@@2@V?$_Tree_const_iterator@V?$_Tree_val@U?$_Tree_simple_types@U?$pair@$$CBW4Object_Type@@PEBVGameObject@@@std@@@std@@@std@@@2@0@Z@4HA 000000014003a820 f   engine.obj
 0002:00027850       ?dtor$1@?0??erase@?$_Tree@V?$_Tmap_traits@W4Object_Type@@PEBVGameObject@@U?$less@W4Object_Type@@@std@@V?$allocator@U?$pair@$$CBW4Object_Type@@PEBVGameObject@@@std@@@4@$0A@@std@@@std@@QEAA?AV?$_Tree_iterator@V?$_Tree_val@U?$_Tree_simple_types@U?$pair@$$CBW4Object_Type@@PEBVGameObject@@@std@@@std@@@std@@@2@V?$_Tree_const_iterator@V?$_Tree_val@U?$_Tree_simple_types@U?$pair@$$CBW4Object_Type@@PEBVGameObject@@@std@@@std@@@std@@@2@0@Z@4HA 000000014003a850 f   engine.obj
 0002:00027880       ?dtor$2@?0??erase@?$_Tree@V?$_Tmap_traits@W4Object_Type@@PEBVGameObject@@U?$less@W4Object_Type@@@std@@V?$allocator@U?$pair@$$CBW4Object_Type@@PEBVGameObject@@@std@@@4@$0A@@std@@@std@@QEAA?AV?$_Tree_iterator@V?$_Tree_val@U?$_Tree_simple_types@U?$pair@$$CBW4Object_Type@@PEBVGameObject@@@std@@@std@@@std@@@2@V?$_Tree_const_iterator@V?$_Tree_val@U?$_Tree_simple_types@U?$pair@$$CBW4Object_Type@@PEBVGameObject@@@std@@@std@@@std@@@2@0@Z@4HA 000000014003a880 f   engine.obj
 0002:000278d0       ?dtor$3@?0??erase@?$_Tree@V?$_Tmap_traits@W4Object_Type@@PEBVGameObject@@U?$less@W4Object_Type@@@std@@V?$allocator@U?$pair@$$CBW4Object_Type@@PEBVGameObject@@@std@@@4@$0A@@std@@@std@@QEAA?AV?$_Tree_iterator@V?$_Tree_val@U?$_Tree_simple_types@U?$pair@$$CBW4Object_Type@@PEBVGameObject@@@std@@@std@@@std@@@2@V?$_Tree_const_iterator@V?$_Tree_val@U?$_Tree_simple_types@U?$pair@$$CBW4Object_Type@@PEBVGameObject@@@std@@@std@@@std@@@2@0@Z@4HA 000000014003a8d0 f   engine.obj
 0002:00027920       ?dtor$0@?0??erase@?$_Tree@V?$_Tmap_traits@W4Object_Type@@PEBVGameObject@@U?$less@W4Object_Type@@@std@@V?$allocator@U?$pair@$$CBW4Object_Type@@PEBVGameObject@@@std@@@4@$0A@@std@@@std@@QEAA?AV?$_Tree_iterator@V?$_Tree_val@U?$_Tree_simple_types@U?$pair@$$CBW4Object_Type@@PEBVGameObject@@@std@@@std@@@std@@@2@V?$_Tree_const_iterator@V?$_Tree_val@U?$_Tree_simple_types@U?$pair@$$CBW4Object_Type@@PEBVGameObject@@@std@@@std@@@std@@@2@@Z@4HA 000000014003a920 f   engine.obj
 0002:00027950       ?dtor$1@?0??erase@?$_Tree@V?$_Tmap_traits@W4Object_Type@@PEBVGameObject@@U?$less@W4Object_Type@@@std@@V?$allocator@U?$pair@$$CBW4Object_Type@@PEBVGameObject@@@std@@@4@$0A@@std@@@std@@QEAA?AV?$_Tree_iterator@V?$_Tree_val@U?$_Tree_simple_types@U?$pair@$$CBW4Object_Type@@PEBVGameObject@@@std@@@std@@@std@@@2@V?$_Tree_const_iterator@V?$_Tree_val@U?$_Tree_simple_types@U?$pair@$$CBW4Object_Type@@PEBVGameObject@@@std@@@std@@@std@@@2@@Z@4HA 000000014003a950 f   engine.obj
 0002:00027980       WinMain$dtor$0             000000014003a980 f   main.obj
 0002:000279b0       ?dtor$0@?0???0?$ContainerMoving@VWidget@@@@QEAA@AEBV?$Vector2@M@sf@@0@Z@4HA 000000014003a9b0 f   container-moving.obj
 0002:000279e0       ?dtor$0@?0???0GameObject@@QEAA@PEBD@Z@4HA 000000014003a9e0 f   game-object.obj
 0002:00027a10       ?dtor$1@?0???0GameObject@@QEAA@PEBD@Z@4HA 000000014003aa10 f   game-object.obj
 0002:00027a50       ?dtor$2@?0???0GameObject@@QEAA@PEBD@Z@4HA 000000014003aa50 f   game-object.obj
 0002:00027a80       ?dtor$0@?0???0GameObject@@QEAA@PEBV0@@Z@4HA 000000014003aa80 f   game-object.obj
 0002:00027ab0       ?dtor$1@?0???0GameObject@@QEAA@PEBV0@@Z@4HA 000000014003aab0 f   game-object.obj
 0002:00027af0       ?dtor$0@?0??Create@GameObject@@SAPEBV1@PEBD@Z@4HA 000000014003aaf0 f   game-object.obj
 0002:00027b20       ?catch$2@?0??CreateImpl@GameObject@@CAPEAV1@W4Object_Type@@PEBD@Z@4HA 000000014003ab20 f   game-object.obj
 0002:00027b34       __catch$?CreateImpl@GameObject@@CAPEAV1@W4Object_Type@@PEBD@Z$0 000000014003ab34 f   game-object.obj
 0002:00027b60       ?dtor$0@?0??CreateImpl@GameObject@@CAPEAV1@W4Object_Type@@PEBD@Z@4HA 000000014003ab60 f   game-object.obj
 0002:00027ba0       ?dtor$1@?0??CreateImpl@GameObject@@CAPEAV1@W4Object_Type@@PEBD@Z@4HA 000000014003aba0 f   game-object.obj
 0002:00027be0       ?dtor$0@?0???$?0V<lambda_312b3f49165ee8dbe2e5837b3ce31c90>@@X@?$function@$$A6AXPEAVButton@@@Z@std@@QEAA@V<lambda_312b3f49165ee8dbe2e5837b3ce31c90>@@@Z@4HA 000000014003abe0 f   menu-window.obj
 0002:00027c10       ?dtor$0@?0???$?0V<lambda_5f2a59844b8069354d5a17d44e450129>@@X@?$function@$$A6AXPEAVButton@@@Z@std@@QEAA@V<lambda_5f2a59844b8069354d5a17d44e450129>@@@Z@4HA 000000014003ac10 f   menu-window.obj
 0002:00027c40       ?dtor$0@?0???$?0V<lambda_668a1179af56ef880bbabaf92a5d9839>@@X@?$function@$$A6AXPEAVButton@@@Z@std@@QEAA@V<lambda_668a1179af56ef880bbabaf92a5d9839>@@@Z@4HA 000000014003ac40 f   menu-window.obj
 0002:00027c70       ?dtor$0@?0???0MenuWindow@@QEAA@PEAVEngine@@AEBV?$Vector2@M@sf@@1@Z@4HA 000000014003ac70 f   menu-window.obj
 0002:00027ca0       ?dtor$1@?0???0MenuWindow@@QEAA@PEAVEngine@@AEBV?$Vector2@M@sf@@1@Z@4HA 000000014003aca0 f   menu-window.obj
 0002:00027ce0       ?dtor$3@?0???0MenuWindow@@QEAA@PEAVEngine@@AEBV?$Vector2@M@sf@@1@Z@4HA 000000014003ace0 f   menu-window.obj
 0002:00027d20       ?dtor$5@?0???0MenuWindow@@QEAA@PEAVEngine@@AEBV?$Vector2@M@sf@@1@Z@4HA 000000014003ad20 f   menu-window.obj
 0002:00027d60       ?dtor$0@?0???0Object@@QEAA@AEBV?$Vector2@M@sf@@0@Z@4HA 000000014003ad60 f   object.obj
 0002:00027da0       ?dtor$1@?0???0Object@@QEAA@AEBV?$Vector2@M@sf@@0@Z@4HA 000000014003ada0 f   object.obj
 0002:00027de0       ?dtor$0@?0???0Object@@QEAA@PEBD@Z@4HA 000000014003ade0 f   object.obj
 0002:00027e20       ?dtor$1@?0???0Object@@QEAA@PEBD@Z@4HA 000000014003ae20 f   object.obj
 0002:00027e60       ?dtor$0@?0???0Object@@QEAA@PEBV0@@Z@4HA 000000014003ae60 f   object.obj
 0002:00027ea0       ?dtor$1@?0???0Object@@QEAA@PEBV0@@Z@4HA 000000014003aea0 f   object.obj
 0002:00027ee0       ?dtor$0@?0??SetTexture@Object@@QEAA_NPEBD@Z@4HA 000000014003aee0 f   object.obj
 0002:00027f10       ?dtor$0@?0??Clone@Tank@@UEBAPEAVGameObject@@XZ@4HA 000000014003af10 f   tank.obj
 0002:00027f50       ?dtor$0@?0??Clone@Wall@@UEBAPEAVGameObject@@XZ@4HA 000000014003af50 f   wall.obj
 0002:00027f90       ?dtor$0@?0???0WidgetGame@@QEAA@PEAVEngine@@AEBV?$Vector2@M@sf@@1@Z@4HA 000000014003af90 f   widget-game.obj
 0002:00027fc0       ?dtor$1@?0???0WidgetGame@@QEAA@PEAVEngine@@AEBV?$Vector2@M@sf@@1@Z@4HA 000000014003afc0 f   widget-game.obj
 0002:00028000       ?dtor$0@?0???0WindowGame@@QEAA@PEAVEngine@@AEBV?$Vector2@M@sf@@1@Z@4HA 000000014003b000 f   window-game.obj
 0002:00028030       ?dtor$1@?0???0WindowGame@@QEAA@PEAVEngine@@AEBV?$Vector2@M@sf@@1@Z@4HA 000000014003b030 f   window-game.obj
 0002:00028070       ?dtor$0@?0???0WindowEditor@@QEAA@PEAVEngine@@AEBV?$Vector2@M@sf@@1@Z@4HA 000000014003b070 f   window-editor.obj
 0002:000280a0       ?dtor$1@?0???0WindowEditor@@QEAA@PEAVEngine@@AEBV?$Vector2@M@sf@@1@Z@4HA 000000014003b0a0 f   window-editor.obj
 0002:000280e0       __scrt_is_nonwritable_in_current_image$filt$0 000000014003b0e0 f   MSVCRTD:utility.obj
 0002:00028130       ?filt$0@?0??notify_debugger@@YAXAEBUtagEXCEPTION_VISUALCPP_DEBUG_INFO@@@Z@4HA 000000014003b130 f   MSVCRTD:_error_.obj
 0002:00028160       ?filt$0@?0??__scrt_common_main_seh@@YAHXZ@4HA 000000014003b160 f   MSVCRTD:exe_winmain.obj
 0002:00029220       ??__Ffont@@YAXXZ           000000014003c220 f   button.obj
 0003:00000110       ?pre_cpp_initializer@@3P6AXXZEA 000000014003e110     MSVCRTD:exe_winmain.obj
 0003:00000220       ?font$initializer$@@3P6AXXZEA 000000014003e220     button.obj
 0003:00000550       ?pre_c_initializer@@3P6AHXZEA 000000014003e550     MSVCRTD:exe_winmain.obj
 0003:00000660       ?post_pgo_initializer@@3P6AHXZEA 000000014003e660     MSVCRTD:exe_winmain.obj
 0003:00000cc0       ?_Orphan_all@_Container_base12@std@@QEAAXXZ$rtcName$0 000000014003ecc0     button.obj
 0003:00000cd0       ?_Orphan_all@_Container_base12@std@@QEAAXXZ$rtcVarDesc 000000014003ecd0     button.obj
 0003:00000d10       ?_Orphan_all@_Container_base12@std@@QEAAXXZ$rtcFrameData 000000014003ed10     button.obj
 0003:00000d20       $cppxdata$?_Orphan_all@_Container_base12@std@@QEAAXXZ 000000014003ed20     button.obj
 0003:00000d68       $cppxdata$??0?$_String_alloc@U?$_String_base_types@DV?$allocator@D@std@@@std@@@std@@QEAA@XZ 000000014003ed68     button.obj
 0003:00000d98       $cppxdata$??1?$_String_alloc@U?$_String_base_types@DV?$allocator@D@std@@@std@@@std@@QEAA@XZ 000000014003ed98     button.obj
 0003:00000dd0       ?_Alloc_proxy@?$_String_alloc@U?$_String_base_types@DV?$allocator@D@std@@@std@@@std@@QEAAXXZ$rtcName$0 000000014003edd0     button.obj
 0003:00000df0       ?_Alloc_proxy@?$_String_alloc@U?$_String_base_types@DV?$allocator@D@std@@@std@@@std@@QEAAXXZ$rtcVarDesc 000000014003edf0     button.obj
 0003:00000e30       ?_Alloc_proxy@?$_String_alloc@U?$_String_base_types@DV?$allocator@D@std@@@std@@@std@@QEAAXXZ$rtcFrameData 000000014003ee30     button.obj
 0003:00000e60       ?_Free_proxy@?$_String_alloc@U?$_String_base_types@DV?$allocator@D@std@@@std@@@std@@QEAAXXZ$rtcName$0 000000014003ee60     button.obj
 0003:00000e80       ?_Free_proxy@?$_String_alloc@U?$_String_base_types@DV?$allocator@D@std@@@std@@@std@@QEAAXXZ$rtcVarDesc 000000014003ee80     button.obj
 0003:00000ec0       ?_Free_proxy@?$_String_alloc@U?$_String_base_types@DV?$allocator@D@std@@@std@@@std@@QEAAXXZ$rtcFrameData 000000014003eec0     button.obj
 0003:00000ee8       $cppxdata$??0?$basic_string@DU?$char_traits@D@std@@V?$allocator@D@2@@std@@QEAA@QEBD@Z 000000014003eee8     button.obj
 0003:00000f18       $cppxdata$??1?$basic_string@DU?$char_traits@D@std@@V?$allocator@D@2@@std@@QEAA@XZ 000000014003ef18     button.obj
 0003:00000f50       ?max_size@?$basic_string@DU?$char_traits@D@std@@V?$allocator@D@2@@std@@QEBA_KXZ$rtcName$0 000000014003ef50     button.obj
 0003:00000f60       ?max_size@?$basic_string@DU?$char_traits@D@std@@V?$allocator@D@2@@std@@QEBA_KXZ$rtcVarDesc 000000014003ef60     button.obj
 0003:00000fa0       ?max_size@?$basic_string@DU?$char_traits@D@std@@V?$allocator@D@2@@std@@QEBA_KXZ$rtcFrameData 000000014003efa0     button.obj
 0003:00000fd0       ?_Calculate_growth@?$basic_string@DU?$char_traits@D@std@@V?$allocator@D@2@@std@@QEBA_K_K@Z$rtcName$0 000000014003efd0     button.obj
 0003:00000fe0       ?_Calculate_growth@?$basic_string@DU?$char_traits@D@std@@V?$allocator@D@2@@std@@QEBA_K_K@Z$rtcVarDesc 000000014003efe0     button.obj
 0003:00001020       ?_Calculate_growth@?$basic_string@DU?$char_traits@D@std@@V?$allocator@D@2@@std@@QEBA_K_K@Z$rtcFrameData 000000014003f020     button.obj
 0003:00001050       ??$_Maklocstr@_W@std@@YAPEA_WPEBDPEA_WAEBU_Cvtvec@@@Z$rtcName$0 000000014003f050     button.obj
 0003:00001054       ??$_Maklocstr@_W@std@@YAPEA_WPEBDPEA_WAEBU_Cvtvec@@@Z$rtcName$1 000000014003f054     button.obj
 0003:0000105c       ??$_Maklocstr@_W@std@@YAPEA_WPEBDPEA_WAEBU_Cvtvec@@@Z$rtcName$2 000000014003f05c     button.obj
 0003:00001070       ??$_Maklocstr@_W@std@@YAPEA_WPEBDPEA_WAEBU_Cvtvec@@@Z$rtcVarDesc 000000014003f070     button.obj
 0003:00001130       ??$_Maklocstr@_W@std@@YAPEA_WPEBDPEA_WAEBU_Cvtvec@@@Z$rtcFrameData 000000014003f130     button.obj
 0003:00001170       $cppxdata$??1?$_String_alloc@U?$_String_base_types@_WV?$allocator@_W@std@@@std@@@std@@QEAA@XZ 000000014003f170     button.obj
 0003:000011a0       ?_Free_proxy@?$_String_alloc@U?$_String_base_types@_WV?$allocator@_W@std@@@std@@@std@@QEAAXXZ$rtcName$0 000000014003f1a0     button.obj
 0003:000011c0       ?_Free_proxy@?$_String_alloc@U?$_String_base_types@_WV?$allocator@_W@std@@@std@@@std@@QEAAXXZ$rtcVarDesc 000000014003f1c0     button.obj
 0003:00001200       ?_Free_proxy@?$_String_alloc@U?$_String_base_types@_WV?$allocator@_W@std@@@std@@@std@@QEAAXXZ$rtcFrameData 000000014003f200     button.obj
 0003:00001228       $cppxdata$??1?$basic_string@_WU?$char_traits@_W@std@@V?$allocator@_W@2@@std@@QEAA@XZ 000000014003f228     button.obj
 0003:00001258       $cppxdata$?c_str@?$basic_string@_WU?$char_traits@_W@std@@V?$allocator@_W@2@@std@@QEBAPEB_WXZ 000000014003f258     button.obj
 0003:00001288       $cppxdata$??0Button@@QEAA@AEBV?$Vector2@M@sf@@0@Z 000000014003f288     button.obj
 0003:000012b8       $cppxdata$?SetText@Button@@QEAAXPEB_W@Z 000000014003f2b8     button.obj
 0003:000012e8       $cppxdata$?SetOnClickedListener@Button@@QEAAXV?$function@$$A6AXPEAVButton@@@Z@std@@@Z 000000014003f2e8     button.obj
 0003:00001320       ?_Swap@?$_Func_class@XPEAVButton@@@std@@IEAAXAEAV12@@Z$rtcName$0 000000014003f320     button.obj
 0003:00001330       ?_Swap@?$_Func_class@XPEAVButton@@@std@@IEAAXAEAV12@@Z$rtcVarDesc 000000014003f330     button.obj
 0003:00001370       ?_Swap@?$_Func_class@XPEAVButton@@@std@@IEAAXAEAV12@@Z$rtcFrameData 000000014003f370     button.obj
 0003:00001380       $cppxdata$?_Swap@?$_Func_class@XPEAVButton@@@std@@IEAAXAEAV12@@Z 000000014003f380     button.obj
 0003:000013c8       $cppxdata$??0?$function@$$A6AXPEAVButton@@@Z@std@@QEAA@AEBV01@@Z 000000014003f3c8     button.obj
 0003:00001400       ??$_Reallocate_for@V<lambda_66f57f934f28d61049862f64df852ff0>@@PEBD@?$basic_string@DU?$char_traits@D@std@@V?$allocator@D@2@@std@@QEAAAEAV01@_KV<lambda_66f57f934f28d61049862f64df852ff0>@@PEBD@Z$rtcName$0 000000014003f400     button.obj
 0003:00001410       ??$_Reallocate_for@V<lambda_66f57f934f28d61049862f64df852ff0>@@PEBD@?$basic_string@DU?$char_traits@D@std@@V?$allocator@D@2@@std@@QEAAAEAV01@_KV<lambda_66f57f934f28d61049862f64df852ff0>@@PEBD@Z$rtcVarDesc 000000014003f410     button.obj
 0003:00001450       ??$_Reallocate_for@V<lambda_66f57f934f28d61049862f64df852ff0>@@PEBD@?$basic_string@DU?$char_traits@D@std@@V?$allocator@D@2@@std@@QEAAAEAV01@_KV<lambda_66f57f934f28d61049862f64df852ff0>@@PEBD@Z$rtcFrameData 000000014003f450     button.obj
 0003:000018c4       ?piecewise_construct@std@@3Upiecewise_construct_t@1@B 000000014003f8c4     config.obj
 0003:000018d0       printf$rtcName$0           000000014003f8d0     config.obj
 0003:000018e0       printf$rtcVarDesc          000000014003f8e0     config.obj
 0003:00001920       printf$rtcFrameData        000000014003f920     config.obj
 0003:00001950       ?_Swap_all@_Container_base12@std@@QEAAXAEAU12@@Z$rtcName$0 000000014003f950     config.obj
 0003:00001960       ?_Swap_all@_Container_base12@std@@QEAAXAEAU12@@Z$rtcVarDesc 000000014003f960     config.obj
 0003:000019a0       ?_Swap_all@_Container_base12@std@@QEAAXAEAU12@@Z$rtcFrameData 000000014003f9a0     config.obj
 0003:000019b0       $cppxdata$?_Swap_all@_Container_base12@std@@QEAAXAEAU12@@Z 000000014003f9b0     config.obj
 0003:00001a00       ??4_Iterator_base12@std@@QEAAAEAU01@AEBU01@@Z$rtcName$0 000000014003fa00     config.obj
 0003:00001a10       ??4_Iterator_base12@std@@QEAAAEAU01@AEBU01@@Z$rtcVarDesc 000000014003fa10     config.obj
 0003:00001a50       ??4_Iterator_base12@std@@QEAAAEAU01@AEBU01@@Z$rtcFrameData 000000014003fa50     config.obj
 0003:00001a60       $cppxdata$??4_Iterator_base12@std@@QEAAAEAU01@AEBU01@@Z 000000014003fa60     config.obj
 0003:00001ab0       ??1_Iterator_base12@std@@QEAA@XZ$rtcName$0 000000014003fab0     config.obj
 0003:00001ac0       ??1_Iterator_base12@std@@QEAA@XZ$rtcVarDesc 000000014003fac0     config.obj
 0003:00001b00       ??1_Iterator_base12@std@@QEAA@XZ$rtcFrameData 000000014003fb00     config.obj
 0003:00001b10       $cppxdata$??1_Iterator_base12@std@@QEAA@XZ 000000014003fb10     config.obj
 0003:00001b60       ?_Adopt@_Iterator_base12@std@@QEAAXPEBU_Container_base12@2@@Z$rtcName$0 000000014003fb60     config.obj
 0003:00001b68       ?_Adopt@_Iterator_base12@std@@QEAAXPEBU_Container_base12@2@@Z$rtcName$1 000000014003fb68     config.obj
 0003:00001b70       ?_Adopt@_Iterator_base12@std@@QEAAXPEBU_Container_base12@2@@Z$rtcVarDesc 000000014003fb70     config.obj
 0003:00001bf0       ?_Adopt@_Iterator_base12@std@@QEAAXPEBU_Container_base12@2@@Z$rtcFrameData 000000014003fbf0     config.obj
 0003:00001c00       $cppxdata$?_Adopt@_Iterator_base12@std@@QEAAXPEBU_Container_base12@2@@Z 000000014003fc00     config.obj
 0003:00001c50       $cppxdata$?_Orphan_me@_Iterator_base12@std@@QEAAXXZ 000000014003fc50     config.obj
 0003:00001c80       $cppxdata$??0?$basic_string@DU?$char_traits@D@std@@V?$allocator@D@2@@std@@QEAA@AEBV01@_K1AEBV?$allocator@D@1@@Z 000000014003fc80     config.obj
 0003:00001cb0       $cppxdata$??4?$basic_string@DU?$char_traits@D@std@@V?$allocator@D@2@@std@@QEAAAEAV01@$$QEAV01@@Z 000000014003fcb0     config.obj
 0003:00001ce0       $cppxdata$?_Assign_rv_contents_with_alloc_always_equal@?$basic_string@DU?$char_traits@D@std@@V?$allocator@D@2@@std@@QEAAX$$QEAV12@U?$integral_constant@_N$00@2@@Z 000000014003fce0     config.obj
 0003:00001d10       $cppxdata$?c_str@?$basic_string@DU?$char_traits@D@std@@V?$allocator@D@2@@std@@QEBAPEBDXZ 000000014003fd10     config.obj
 0003:00001d40       ?stoi@std@@YAHAEBV?$basic_string@DU?$char_traits@D@std@@V?$allocator@D@2@@1@PEA_KH@Z$rtcName$0 000000014003fd40     config.obj
 0003:00001d50       ?stoi@std@@YAHAEBV?$basic_string@DU?$char_traits@D@std@@V?$allocator@D@2@@1@PEA_KH@Z$rtcVarDesc 000000014003fd50     config.obj
 0003:00001d90       ?stoi@std@@YAHAEBV?$basic_string@DU?$char_traits@D@std@@V?$allocator@D@2@@1@PEA_KH@Z$rtcFrameData 000000014003fd90     config.obj
 0003:00001dc0       ?stof@std@@YAMAEBV?$basic_string@DU?$char_traits@D@std@@V?$allocator@D@2@@1@PEA_K@Z$rtcName$0 000000014003fdc0     config.obj
 0003:00001dd0       ?stof@std@@YAMAEBV?$basic_string@DU?$char_traits@D@std@@V?$allocator@D@2@@1@PEA_K@Z$rtcVarDesc 000000014003fdd0     config.obj
 0003:00001e10       ?stof@std@@YAMAEBV?$basic_string@DU?$char_traits@D@std@@V?$allocator@D@2@@1@PEA_K@Z$rtcFrameData 000000014003fe10     config.obj
 0003:00001e38       $cppxdata$?Read@Config_Parser@@YAPEBDPEBDAEAV?$basic_string@DU?$char_traits@D@std@@V?$allocator@D@2@@std@@@Z 000000014003fe38     config.obj
 0003:00001e68       $cppxdata$?Read@Config_Parser@@YAPEBDPEBDAEAH@Z 000000014003fe68     config.obj
 0003:00001e98       $cppxdata$?Read@Config_Parser@@YAPEBDPEBDAEAM@Z 000000014003fe98     config.obj
 0003:00001ed0       ?Load@ConfigManager@@QEAA_NPEBD@Z$rtcName$0 000000014003fed0     config.obj
 0003:00001ee0       ?Load@ConfigManager@@QEAA_NPEBD@Z$rtcVarDesc 000000014003fee0     config.obj
 0003:00001f20       ?Load@ConfigManager@@QEAA_NPEBD@Z$rtcFrameData 000000014003ff20     config.obj
 0003:00001f50       ?Create_Object@ConfigManager@@QEBAPEAVGameObject@@W4Object_Type@@@Z$rtcName$0 000000014003ff50     config.obj
 0003:00001f60       ?Create_Object@ConfigManager@@QEBAPEAVGameObject@@W4Object_Type@@@Z$rtcVarDesc 000000014003ff60     config.obj
 0003:00001fa0       ?Create_Object@ConfigManager@@QEBAPEAVGameObject@@W4Object_Type@@@Z$rtcFrameData 000000014003ffa0     config.obj
 0003:00001fb0       $cppxdata$?Create_Object@ConfigManager@@QEBAPEAVGameObject@@W4Object_Type@@@Z 000000014003ffb0     config.obj
 0003:00001ff8       $cppxdata$?_Buynode0@?$_Tree_comp_alloc@V?$_Tmap_traits@W4Object_Type@@PEBVGameObject@@U?$less@W4Object_Type@@@std@@V?$allocator@U?$pair@$$CBW4Object_Type@@PEBVGameObject@@@std@@@4@$0A@@std@@@std@@QEAAPEAU?$_Tree_node@U?$pair@$$CBW4Object_Type@@PEBVGameObject@@@std@@PEAX@2@XZ 000000014003fff8     config.obj
 0003:00002028       $cppxdata$?begin@?$_Tree@V?$_Tmap_traits@W4Object_Type@@PEBVGameObject@@U?$less@W4Object_Type@@@std@@V?$allocator@U?$pair@$$CBW4Object_Type@@PEBVGameObject@@@std@@@4@$0A@@std@@@std@@QEAA?AV?$_Tree_iterator@V?$_Tree_val@U?$_Tree_simple_types@U?$pair@$$CBW4Object_Type@@PEBVGameObject@@@std@@@std@@@std@@@2@XZ 0000000140040028     config.obj
 0003:00002058       $cppxdata$?end@?$_Tree@V?$_Tmap_traits@W4Object_Type@@PEBVGameObject@@U?$less@W4Object_Type@@@std@@V?$allocator@U?$pair@$$CBW4Object_Type@@PEBVGameObject@@@std@@@4@$0A@@std@@@std@@QEAA?AV?$_Tree_iterator@V?$_Tree_val@U?$_Tree_simple_types@U?$pair@$$CBW4Object_Type@@PEBVGameObject@@@std@@@std@@@std@@@2@XZ 0000000140040058     config.obj
 0003:00002088       $cppxdata$?end@?$_Tree@V?$_Tmap_traits@W4Object_Type@@PEBVGameObject@@U?$less@W4Object_Type@@@std@@V?$allocator@U?$pair@$$CBW4Object_Type@@PEBVGameObject@@@std@@@4@$0A@@std@@@std@@QEBA?AV?$_Tree_const_iterator@V?$_Tree_val@U?$_Tree_simple_types@U?$pair@$$CBW4Object_Type@@PEBVGameObject@@@std@@@std@@@std@@@2@XZ 0000000140040088     config.obj
 0003:000020c0       ?find@?$_Tree@V?$_Tmap_traits@W4Object_Type@@PEBVGameObject@@U?$less@W4Object_Type@@@std@@V?$allocator@U?$pair@$$CBW4Object_Type@@PEBVGameObject@@@std@@@4@$0A@@std@@@std@@QEBA?AV?$_Tree_const_iterator@V?$_Tree_val@U?$_Tree_simple_types@U?$pair@$$CBW4Object_Type@@PEBVGameObject@@@std@@@std@@@std@@@2@AEBW4Object_Type@@@Z$rtcName$0 00000001400400c0     config.obj
 0003:000020d0       ?find@?$_Tree@V?$_Tmap_traits@W4Object_Type@@PEBVGameObject@@U?$less@W4Object_Type@@@std@@V?$allocator@U?$pair@$$CBW4Object_Type@@PEBVGameObject@@@std@@@4@$0A@@std@@@std@@QEBA?AV?$_Tree_const_iterator@V?$_Tree_val@U?$_Tree_simple_types@U?$pair@$$CBW4Object_Type@@PEBVGameObject@@@std@@@std@@@std@@@2@AEBW4Object_Type@@@Z$rtcVarDesc 00000001400400d0     config.obj
 0003:00002110       ?find@?$_Tree@V?$_Tmap_traits@W4Object_Type@@PEBVGameObject@@U?$less@W4Object_Type@@@std@@V?$allocator@U?$pair@$$CBW4Object_Type@@PEBVGameObject@@@std@@@4@$0A@@std@@@std@@QEBA?AV?$_Tree_const_iterator@V?$_Tree_val@U?$_Tree_simple_types@U?$pair@$$CBW4Object_Type@@PEBVGameObject@@@std@@@std@@@std@@@2@AEBW4Object_Type@@@Z$rtcFrameData 0000000140040110     config.obj
 0003:00002120       $cppxdata$?find@?$_Tree@V?$_Tmap_traits@W4Object_Type@@PEBVGameObject@@U?$less@W4Object_Type@@@std@@V?$allocator@U?$pair@$$CBW4Object_Type@@PEBVGameObject@@@std@@@4@$0A@@std@@@std@@QEBA?AV?$_Tree_const_iterator@V?$_Tree_val@U?$_Tree_simple_types@U?$pair@$$CBW4Object_Type@@PEBVGameObject@@@std@@@std@@@std@@@2@AEBW4Object_Type@@@Z 0000000140040120     config.obj
 0003:00002168       $cppxdata$??A?$map@W4Object_Type@@PEBVGameObject@@U?$less@W4Object_Type@@@std@@V?$allocator@U?$pair@$$CBW4Object_Type@@PEBVGameObject@@@std@@@4@@std@@QEAAAEAPEBVGameObject@@$$QEAW4Object_Type@@@Z 0000000140040168     config.obj
 0003:00002198       $cppxdata$??$?0AEBV?$allocator@D@std@@X@?$_String_alloc@U?$_String_base_types@DV?$allocator@D@std@@@std@@@std@@QEAA@AEBV?$allocator@D@1@@Z 0000000140040198     config.obj
 0003:000021d0       ??$_Pocma@V?$allocator@D@std@@@std@@YAXAEAV?$allocator@D@0@0@Z$rtcName$0 00000001400401d0     config.obj
 0003:000021e0       ??$_Pocma@V?$allocator@D@std@@@std@@YAXAEAV?$allocator@D@0@0@Z$rtcVarDesc 00000001400401e0     config.obj
 0003:00002220       ??$_Pocma@V?$allocator@D@std@@@std@@YAXAEAV?$allocator@D@0@0@Z$rtcFrameData 0000000140040220     config.obj
 0003:00002250       ??$_Reallocate_for@V<lambda_66f57f934f28d61049862f64df852ff0>@@PEBD@?$basic_string@DU?$char_traits@D@std@@V?$allocator@D@2@@std@@QEAAAEAV01@_KV<lambda_66f57f934f28d61049862f64df852ff0>@@PEBD@Z$rtcName$0 0000000140040250     config.obj
 0003:00002260       ??$_Reallocate_for@V<lambda_66f57f934f28d61049862f64df852ff0>@@PEBD@?$basic_string@DU?$char_traits@D@std@@V?$allocator@D@2@@std@@QEAAAEAV01@_KV<lambda_66f57f934f28d61049862f64df852ff0>@@PEBD@Z$rtcVarDesc 0000000140040260     config.obj
 0003:000022a0       ??$_Reallocate_for@V<lambda_66f57f934f28d61049862f64df852ff0>@@PEBD@?$basic_string@DU?$char_traits@D@std@@V?$allocator@D@2@@std@@QEAAAEAV01@_KV<lambda_66f57f934f28d61049862f64df852ff0>@@PEBD@Z$rtcFrameData 00000001400402a0     config.obj
 0003:000022d0       ??$_Try_emplace@W4Object_Type@@$$V@?$map@W4Object_Type@@PEBVGameObject@@U?$less@W4Object_Type@@@std@@V?$allocator@U?$pair@$$CBW4Object_Type@@PEBVGameObject@@@std@@@4@@std@@QEAA?AU?$pair@V?$_Tree_iterator@V?$_Tree_val@U?$_Tree_simple_types@U?$pair@$$CBW4Object_Type@@PEBVGameObject@@@std@@@std@@@std@@@std@@_N@1@$$QEAW4Object_Type@@@Z$rtcName$0 00000001400402d0     config.obj
 0003:000022e0       ??$_Try_emplace@W4Object_Type@@$$V@?$map@W4Object_Type@@PEBVGameObject@@U?$less@W4Object_Type@@@std@@V?$allocator@U?$pair@$$CBW4Object_Type@@PEBVGameObject@@@std@@@4@@std@@QEAA?AU?$pair@V?$_Tree_iterator@V?$_Tree_val@U?$_Tree_simple_types@U?$pair@$$CBW4Object_Type@@PEBVGameObject@@@std@@@std@@@std@@@std@@_N@1@$$QEAW4Object_Type@@@Z$rtcVarDesc 00000001400402e0     config.obj
 0003:00002320       ??$_Try_emplace@W4Object_Type@@$$V@?$map@W4Object_Type@@PEBVGameObject@@U?$less@W4Object_Type@@@std@@V?$allocator@U?$pair@$$CBW4Object_Type@@PEBVGameObject@@@std@@@4@@std@@QEAA?AU?$pair@V?$_Tree_iterator@V?$_Tree_val@U?$_Tree_simple_types@U?$pair@$$CBW4Object_Type@@PEBVGameObject@@@std@@@std@@@std@@@std@@_N@1@$$QEAW4Object_Type@@@Z$rtcFrameData 0000000140040320     config.obj
 0003:00002330       $cppxdata$??$_Try_emplace@W4Object_Type@@$$V@?$map@W4Object_Type@@PEBVGameObject@@U?$less@W4Object_Type@@@std@@V?$allocator@U?$pair@$$CBW4Object_Type@@PEBVGameObject@@@std@@@4@@std@@QEAA?AU?$pair@V?$_Tree_iterator@V?$_Tree_val@U?$_Tree_simple_types@U?$pair@$$CBW4Object_Type@@PEBVGameObject@@@std@@@std@@@std@@@std@@_N@1@$$QEAW4Object_Type@@@Z 0000000140040330     config.obj
 0003:00002378       $cppxdata$??$forward_as_tuple@W4Object_Type@@@std@@YA?AV?$tuple@$$QEAW4Object_Type@@@0@$$QEAW4Object_Type@@@Z 0000000140040378     config.obj
 0003:000023a8       $cppxdata$??$emplace_hint@AEBUpiecewise_construct_t@std@@V?$tuple@$$QEAW4Object_Type@@@2@V?$tuple@$$V@2@@?$_Tree@V?$_Tmap_traits@W4Object_Type@@PEBVGameObject@@U?$less@W4Object_Type@@@std@@V?$allocator@U?$pair@$$CBW4Object_Type@@PEBVGameObject@@@std@@@4@$0A@@std@@@std@@QEAA?AV?$_Tree_iterator@V?$_Tree_val@U?$_Tree_simple_types@U?$pair@$$CBW4Object_Type@@PEBVGameObject@@@std@@@std@@@std@@@1@V?$_Tree_const_iterator@V?$_Tree_val@U?$_Tree_simple_types@U?$pair@$$CBW4Object_Type@@PEBVGameObject@@@std@@@std@@@std@@@1@AEBUpiecewise_construct_t@1@$$QEAV?$tuple@$$QEAW4Object_Type@@@1@$$QEAV?$tuple@$$V@1@@Z 00000001400403a8     config.obj
 0003:000023d8       $cppxdata$??$_Buynode@AEBUpiecewise_construct_t@std@@V?$tuple@$$QEAW4Object_Type@@@2@V?$tuple@$$V@2@@?$_Tree_comp_alloc@V?$_Tmap_traits@W4Object_Type@@PEBVGameObject@@U?$less@W4Object_Type@@@std@@V?$allocator@U?$pair@$$CBW4Object_Type@@PEBVGameObject@@@std@@@4@$0A@@std@@@std@@QEAAPEAU?$_Tree_node@U?$pair@$$CBW4Object_Type@@PEBVGameObject@@@std@@PEAX@1@AEBUpiecewise_construct_t@1@$$QEAV?$tuple@$$QEAW4Object_Type@@@1@$$QEAV?$tuple@$$V@1@@Z 00000001400403d8     config.obj
 0003:00002410       ??$_Insert_hint@AEAU?$pair@$$CBW4Object_Type@@PEBVGameObject@@@std@@PEAU?$_Tree_node@U?$pair@$$CBW4Object_Type@@PEBVGameObject@@@std@@PEAX@2@@?$_Tree@V?$_Tmap_traits@W4Object_Type@@PEBVGameObject@@U?$less@W4Object_Type@@@std@@V?$allocator@U?$pair@$$CBW4Object_Type@@PEBVGameObject@@@std@@@4@$0A@@std@@@std@@IEAA?AV?$_Tree_iterator@V?$_Tree_val@U?$_Tree_simple_types@U?$pair@$$CBW4Object_Type@@PEBVGameObject@@@std@@@std@@@std@@@1@V?$_Tree_const_iterator@V?$_Tree_val@U?$_Tree_simple_types@U?$pair@$$CBW4Object_Type@@PEBVGameObject@@@std@@@std@@@std@@@1@AEAU?$pair@$$CBW4Object_Type@@PEBVGameObject@@@1@PEAU?$_Tree_node@U?$pair@$$CBW4Object_Type@@PEBVGameObject@@@std@@PEAX@1@@Z$rtcName$0 0000000140040410     config.obj
 0003:00002420       ??$_Insert_hint@AEAU?$pair@$$CBW4Object_Type@@PEBVGameObject@@@std@@PEAU?$_Tree_node@U?$pair@$$CBW4Object_Type@@PEBVGameObject@@@std@@PEAX@2@@?$_Tree@V?$_Tmap_traits@W4Object_Type@@PEBVGameObject@@U?$less@W4Object_Type@@@std@@V?$allocator@U?$pair@$$CBW4Object_Type@@PEBVGameObject@@@std@@@4@$0A@@std@@@std@@IEAA?AV?$_Tree_iterator@V?$_Tree_val@U?$_Tree_simple_types@U?$pair@$$CBW4Object_Type@@PEBVGameObject@@@std@@@std@@@std@@@1@V?$_Tree_const_iterator@V?$_Tree_val@U?$_Tree_simple_types@U?$pair@$$CBW4Object_Type@@PEBVGameObject@@@std@@@std@@@std@@@1@AEAU?$pair@$$CBW4Object_Type@@PEBVGameObject@@@1@PEAU?$_Tree_node@U?$pair@$$CBW4Object_Type@@PEBVGameObject@@@std@@PEAX@1@@Z$rtcVarDesc 0000000140040420     config.obj
 0003:00002460       ??$_Insert_hint@AEAU?$pair@$$CBW4Object_Type@@PEBVGameObject@@@std@@PEAU?$_Tree_node@U?$pair@$$CBW4Object_Type@@PEBVGameObject@@@std@@PEAX@2@@?$_Tree@V?$_Tmap_traits@W4Object_Type@@PEBVGameObject@@U?$less@W4Object_Type@@@std@@V?$allocator@U?$pair@$$CBW4Object_Type@@PEBVGameObject@@@std@@@4@$0A@@std@@@std@@IEAA?AV?$_Tree_iterator@V?$_Tree_val@U?$_Tree_simple_types@U?$pair@$$CBW4Object_Type@@PEBVGameObject@@@std@@@std@@@std@@@1@V?$_Tree_const_iterator@V?$_Tree_val@U?$_Tree_simple_types@U?$pair@$$CBW4Object_Type@@PEBVGameObject@@@std@@@std@@@std@@@1@AEAU?$pair@$$CBW4Object_Type@@PEBVGameObject@@@1@PEAU?$_Tree_node@U?$pair@$$CBW4Object_Type@@PEBVGameObject@@@std@@PEAX@1@@Z$rtcFrameData 0000000140040460     config.obj
 0003:00002470       $cppxdata$??$_Insert_hint@AEAU?$pair@$$CBW4Object_Type@@PEBVGameObject@@@std@@PEAU?$_Tree_node@U?$pair@$$CBW4Object_Type@@PEBVGameObject@@@std@@PEAX@2@@?$_Tree@V?$_Tmap_traits@W4Object_Type@@PEBVGameObject@@U?$less@W4Object_Type@@@std@@V?$allocator@U?$pair@$$CBW4Object_Type@@PEBVGameObject@@@std@@@4@$0A@@std@@@std@@IEAA?AV?$_Tree_iterator@V?$_Tree_val@U?$_Tree_simple_types@U?$pair@$$CBW4Object_Type@@PEBVGameObject@@@std@@@std@@@std@@@1@V?$_Tree_const_iterator@V?$_Tree_val@U?$_Tree_simple_types@U?$pair@$$CBW4Object_Type@@PEBVGameObject@@@std@@@std@@@std@@@1@AEAU?$pair@$$CBW4Object_Type@@PEBVGameObject@@@1@PEAU?$_Tree_node@U?$pair@$$CBW4Object_Type@@PEBVGameObject@@@std@@PEAX@1@@Z 0000000140040470     config.obj
 0003:000024c0       ??$_Insert_nohint@AEAU?$pair@$$CBW4Object_Type@@PEBVGameObject@@@std@@PEAU?$_Tree_node@U?$pair@$$CBW4Object_Type@@PEBVGameObject@@@std@@PEAX@2@@?$_Tree@V?$_Tmap_traits@W4Object_Type@@PEBVGameObject@@U?$less@W4Object_Type@@@std@@V?$allocator@U?$pair@$$CBW4Object_Type@@PEBVGameObject@@@std@@@4@$0A@@std@@@std@@IEAA?AU?$pair@V?$_Tree_iterator@V?$_Tree_val@U?$_Tree_simple_types@U?$pair@$$CBW4Object_Type@@PEBVGameObject@@@std@@@std@@@std@@@std@@_N@1@_NAEAU?$pair@$$CBW4Object_Type@@PEBVGameObject@@@1@PEAU?$_Tree_node@U?$pair@$$CBW4Object_Type@@PEBVGameObject@@@std@@PEAX@1@@Z$rtcName$0 00000001400404c0     config.obj
 0003:000024d0       ??$_Insert_nohint@AEAU?$pair@$$CBW4Object_Type@@PEBVGameObject@@@std@@PEAU?$_Tree_node@U?$pair@$$CBW4Object_Type@@PEBVGameObject@@@std@@PEAX@2@@?$_Tree@V?$_Tmap_traits@W4Object_Type@@PEBVGameObject@@U?$less@W4Object_Type@@@std@@V?$allocator@U?$pair@$$CBW4Object_Type@@PEBVGameObject@@@std@@@4@$0A@@std@@@std@@IEAA?AU?$pair@V?$_Tree_iterator@V?$_Tree_val@U?$_Tree_simple_types@U?$pair@$$CBW4Object_Type@@PEBVGameObject@@@std@@@std@@@std@@@std@@_N@1@_NAEAU?$pair@$$CBW4Object_Type@@PEBVGameObject@@@1@PEAU?$_Tree_node@U?$pair@$$CBW4Object_Type@@PEBVGameObject@@@std@@PEAX@1@@Z$rtcVarDesc 00000001400404d0     config.obj
 0003:00002510       ??$_Insert_nohint@AEAU?$pair@$$CBW4Object_Type@@PEBVGameObject@@@std@@PEAU?$_Tree_node@U?$pair@$$CBW4Object_Type@@PEBVGameObject@@@std@@PEAX@2@@?$_Tree@V?$_Tmap_traits@W4Object_Type@@PEBVGameObject@@U?$less@W4Object_Type@@@std@@V?$allocator@U?$pair@$$CBW4Object_Type@@PEBVGameObject@@@std@@@4@$0A@@std@@@std@@IEAA?AU?$pair@V?$_Tree_iterator@V?$_Tree_val@U?$_Tree_simple_types@U?$pair@$$CBW4Object_Type@@PEBVGameObject@@@std@@@std@@@std@@@std@@_N@1@_NAEAU?$pair@$$CBW4Object_Type@@PEBVGameObject@@@1@PEAU?$_Tree_node@U?$pair@$$CBW4Object_Type@@PEBVGameObject@@@std@@PEAX@1@@Z$rtcFrameData 0000000140040510     config.obj
 0003:00002520       $cppxdata$??$_Insert_nohint@AEAU?$pair@$$CBW4Object_Type@@PEBVGameObject@@@std@@PEAU?$_Tree_node@U?$pair@$$CBW4Object_Type@@PEBVGameObject@@@std@@PEAX@2@@?$_Tree@V?$_Tmap_traits@W4Object_Type@@PEBVGameObject@@U?$less@W4Object_Type@@@std@@V?$allocator@U?$pair@$$CBW4Object_Type@@PEBVGameObject@@@std@@@4@$0A@@std@@@std@@IEAA?AU?$pair@V?$_Tree_iterator@V?$_Tree_val@U?$_Tree_simple_types@U?$pair@$$CBW4Object_Type@@PEBVGameObject@@@std@@@std@@@std@@@std@@_N@1@_NAEAU?$pair@$$CBW4Object_Type@@PEBVGameObject@@@1@PEAU?$_Tree_node@U?$pair@$$CBW4Object_Type@@PEBVGameObject@@@std@@PEAX@1@@Z 0000000140040520     config.obj
 0003:00002570       ??$_Freenode0@V?$allocator@U?$_Tree_node@U?$pair@$$CBW4Object_Type@@PEBVGameObject@@@std@@PEAX@std@@@std@@@?$_Tree_node@U?$pair@$$CBW4Object_Type@@PEBVGameObject@@@std@@PEAX@std@@SAXAEAV?$allocator@U?$_Tree_node@U?$pair@$$CBW4Object_Type@@PEBVGameObject@@@std@@PEAX@std@@@1@PEAU01@@Z$rtcName$0 0000000140040570     config.obj
 0003:00002580       ??$_Freenode0@V?$allocator@U?$_Tree_node@U?$pair@$$CBW4Object_Type@@PEBVGameObject@@@std@@PEAX@std@@@std@@@?$_Tree_node@U?$pair@$$CBW4Object_Type@@PEBVGameObject@@@std@@PEAX@std@@SAXAEAV?$allocator@U?$_Tree_node@U?$pair@$$CBW4Object_Type@@PEBVGameObject@@@std@@PEAX@std@@@1@PEAU01@@Z$rtcVarDesc 0000000140040580     config.obj
 0003:000025c0       ??$_Freenode0@V?$allocator@U?$_Tree_node@U?$pair@$$CBW4Object_Type@@PEBVGameObject@@@std@@PEAX@std@@@std@@@?$_Tree_node@U?$pair@$$CBW4Object_Type@@PEBVGameObject@@@std@@PEAX@std@@SAXAEAV?$allocator@U?$_Tree_node@U?$pair@$$CBW4Object_Type@@PEBVGameObject@@@std@@PEAX@std@@@1@PEAU01@@Z$rtcFrameData 00000001400405c0     config.obj
 0003:000025d0       $cppxdata$??$_Freenode0@V?$allocator@U?$_Tree_node@U?$pair@$$CBW4Object_Type@@PEBVGameObject@@@std@@PEAX@std@@@std@@@?$_Tree_node@U?$pair@$$CBW4Object_Type@@PEBVGameObject@@@std@@PEAX@std@@SAXAEAV?$allocator@U?$_Tree_node@U?$pair@$$CBW4Object_Type@@PEBVGameObject@@@std@@PEAX@std@@@1@PEAU01@@Z 00000001400405d0     config.obj
 0003:00003840       $cppxdata$??0locale@std@@QEAA@XZ 0000000140041840     engine.obj
 0003:00003870       $cppxdata$??1locale@std@@QEAA@XZ 0000000140041870     engine.obj
 0003:000038a0       $cppxdata$?_Construct@?$_Tree_comp_alloc@V?$_Tmap_traits@W4Object_Type@@PEBVGameObject@@U?$less@W4Object_Type@@@std@@V?$allocator@U?$pair@$$CBW4Object_Type@@PEBVGameObject@@@std@@@4@$0A@@std@@@std@@QEAAXXZ 00000001400418a0     engine.obj
 0003:000038d0       $cppxdata$??1?$_Tree_comp_alloc@V?$_Tmap_traits@W4Object_Type@@PEBVGameObject@@U?$less@W4Object_Type@@@std@@V?$allocator@U?$pair@$$CBW4Object_Type@@PEBVGameObject@@@std@@@4@$0A@@std@@@std@@QEAA@XZ 00000001400418d0     engine.obj
 0003:00003900       ?_Alloc_proxy@?$_Tree_comp_alloc@V?$_Tmap_traits@W4Object_Type@@PEBVGameObject@@U?$less@W4Object_Type@@@std@@V?$allocator@U?$pair@$$CBW4Object_Type@@PEBVGameObject@@@std@@@4@$0A@@std@@@std@@QEAAXXZ$rtcName$0 0000000140041900     engine.obj
 0003:00003920       ?_Alloc_proxy@?$_Tree_comp_alloc@V?$_Tmap_traits@W4Object_Type@@PEBVGameObject@@U?$less@W4Object_Type@@@std@@V?$allocator@U?$pair@$$CBW4Object_Type@@PEBVGameObject@@@std@@@4@$0A@@std@@@std@@QEAAXXZ$rtcVarDesc 0000000140041920     engine.obj
 0003:00003960       ?_Alloc_proxy@?$_Tree_comp_alloc@V?$_Tmap_traits@W4Object_Type@@PEBVGameObject@@U?$less@W4Object_Type@@@std@@V?$allocator@U?$pair@$$CBW4Object_Type@@PEBVGameObject@@@std@@@4@$0A@@std@@@std@@QEAAXXZ$rtcFrameData 0000000140041960     engine.obj
 0003:00003990       ?_Free_proxy@?$_Tree_comp_alloc@V?$_Tmap_traits@W4Object_Type@@PEBVGameObject@@U?$less@W4Object_Type@@@std@@V?$allocator@U?$pair@$$CBW4Object_Type@@PEBVGameObject@@@std@@@4@$0A@@std@@@std@@QEAAXXZ$rtcName$0 0000000140041990     engine.obj
 0003:000039b0       ?_Free_proxy@?$_Tree_comp_alloc@V?$_Tmap_traits@W4Object_Type@@PEBVGameObject@@U?$less@W4Object_Type@@@std@@V?$allocator@U?$pair@$$CBW4Object_Type@@PEBVGameObject@@@std@@@4@$0A@@std@@@std@@QEAAXXZ$rtcVarDesc 00000001400419b0     engine.obj
 0003:000039f0       ?_Free_proxy@?$_Tree_comp_alloc@V?$_Tmap_traits@W4Object_Type@@PEBVGameObject@@U?$less@W4Object_Type@@@std@@V?$allocator@U?$pair@$$CBW4Object_Type@@PEBVGameObject@@@std@@@4@$0A@@std@@@std@@QEAAXXZ$rtcFrameData 00000001400419f0     engine.obj
 0003:00003a20       ?_Buyheadnode@?$_Tree_comp_alloc@V?$_Tmap_traits@W4Object_Type@@PEBVGameObject@@U?$less@W4Object_Type@@@std@@V?$allocator@U?$pair@$$CBW4Object_Type@@PEBVGameObject@@@std@@@4@$0A@@std@@@std@@QEAAPEAU?$_Tree_node@U?$pair@$$CBW4Object_Type@@PEBVGameObject@@@std@@PEAX@2@XZ$rtcName$0 0000000140041a20     engine.obj
 0003:00003a30       ?_Buyheadnode@?$_Tree_comp_alloc@V?$_Tmap_traits@W4Object_Type@@PEBVGameObject@@U?$less@W4Object_Type@@@std@@V?$allocator@U?$pair@$$CBW4Object_Type@@PEBVGameObject@@@std@@@4@$0A@@std@@@std@@QEAAPEAU?$_Tree_node@U?$pair@$$CBW4Object_Type@@PEBVGameObject@@@std@@PEAX@2@XZ$rtcVarDesc 0000000140041a30     engine.obj
 0003:00003a70       ?_Buyheadnode@?$_Tree_comp_alloc@V?$_Tmap_traits@W4Object_Type@@PEBVGameObject@@U?$less@W4Object_Type@@@std@@V?$allocator@U?$pair@$$CBW4Object_Type@@PEBVGameObject@@@std@@@4@$0A@@std@@@std@@QEAAPEAU?$_Tree_node@U?$pair@$$CBW4Object_Type@@PEBVGameObject@@@std@@PEAX@2@XZ$rtcFrameData 0000000140041a70     engine.obj
 0003:00003a80       $cppxdata$?_Buyheadnode@?$_Tree_comp_alloc@V?$_Tmap_traits@W4Object_Type@@PEBVGameObject@@U?$less@W4Object_Type@@@std@@V?$allocator@U?$pair@$$CBW4Object_Type@@PEBVGameObject@@@std@@@4@$0A@@std@@@std@@QEAAPEAU?$_Tree_node@U?$pair@$$CBW4Object_Type@@PEBVGameObject@@@std@@PEAX@2@XZ 0000000140041a80     engine.obj
 0003:00003ac8       $cppxdata$?_Extract@?$_Tree_val@U?$_Tree_simple_types@U?$pair@$$CBW4Object_Type@@PEBVGameObject@@@std@@@std@@@std@@QEAAPEAU?$_Tree_node@U?$pair@$$CBW4Object_Type@@PEBVGameObject@@@std@@PEAX@2@V?$_Tree_const_iterator@V?$_Tree_val@U?$_Tree_simple_types@U?$pair@$$CBW4Object_Type@@PEBVGameObject@@@std@@@std@@@std@@@2@@Z 0000000140041ac8     engine.obj
 0003:00003af8       $cppxdata$??1?$_Tree@V?$_Tmap_traits@W4Object_Type@@PEBVGameObject@@U?$less@W4Object_Type@@@std@@V?$allocator@U?$pair@$$CBW4Object_Type@@PEBVGameObject@@@std@@@4@$0A@@std@@@std@@QEAA@XZ 0000000140041af8     engine.obj
 0003:00003b30       ?erase@?$_Tree@V?$_Tmap_traits@W4Object_Type@@PEBVGameObject@@U?$less@W4Object_Type@@@std@@V?$allocator@U?$pair@$$CBW4Object_Type@@PEBVGameObject@@@std@@@4@$0A@@std@@@std@@QEAA?AV?$_Tree_iterator@V?$_Tree_val@U?$_Tree_simple_types@U?$pair@$$CBW4Object_Type@@PEBVGameObject@@@std@@@std@@@std@@@2@V?$_Tree_const_iterator@V?$_Tree_val@U?$_Tree_simple_types@U?$pair@$$CBW4Object_Type@@PEBVGameObject@@@std@@@std@@@std@@@2@@Z$rtcName$0 0000000140041b30     engine.obj
 0003:00003b40       ?erase@?$_Tree@V?$_Tmap_traits@W4Object_Type@@PEBVGameObject@@U?$less@W4Object_Type@@@std@@V?$allocator@U?$pair@$$CBW4Object_Type@@PEBVGameObject@@@std@@@4@$0A@@std@@@std@@QEAA?AV?$_Tree_iterator@V?$_Tree_val@U?$_Tree_simple_types@U?$pair@$$CBW4Object_Type@@PEBVGameObject@@@std@@@std@@@std@@@2@V?$_Tree_const_iterator@V?$_Tree_val@U?$_Tree_simple_types@U?$pair@$$CBW4Object_Type@@PEBVGameObject@@@std@@@std@@@std@@@2@@Z$rtcVarDesc 0000000140041b40     engine.obj
 0003:00003b80       ?erase@?$_Tree@V?$_Tmap_traits@W4Object_Type@@PEBVGameObject@@U?$less@W4Object_Type@@@std@@V?$allocator@U?$pair@$$CBW4Object_Type@@PEBVGameObject@@@std@@@4@$0A@@std@@@std@@QEAA?AV?$_Tree_iterator@V?$_Tree_val@U?$_Tree_simple_types@U?$pair@$$CBW4Object_Type@@PEBVGameObject@@@std@@@std@@@std@@@2@V?$_Tree_const_iterator@V?$_Tree_val@U?$_Tree_simple_types@U?$pair@$$CBW4Object_Type@@PEBVGameObject@@@std@@@std@@@std@@@2@@Z$rtcFrameData 0000000140041b80     engine.obj
 0003:00003b90       $cppxdata$?erase@?$_Tree@V?$_Tmap_traits@W4Object_Type@@PEBVGameObject@@U?$less@W4Object_Type@@@std@@V?$allocator@U?$pair@$$CBW4Object_Type@@PEBVGameObject@@@std@@@4@$0A@@std@@@std@@QEAA?AV?$_Tree_iterator@V?$_Tree_val@U?$_Tree_simple_types@U?$pair@$$CBW4Object_Type@@PEBVGameObject@@@std@@@std@@@std@@@2@V?$_Tree_const_iterator@V?$_Tree_val@U?$_Tree_simple_types@U?$pair@$$CBW4Object_Type@@PEBVGameObject@@@std@@@std@@@std@@@2@@Z 0000000140041b90     engine.obj
 0003:00003bd8       $cppxdata$?erase@?$_Tree@V?$_Tmap_traits@W4Object_Type@@PEBVGameObject@@U?$less@W4Object_Type@@@std@@V?$allocator@U?$pair@$$CBW4Object_Type@@PEBVGameObject@@@std@@@4@$0A@@std@@@std@@QEAA?AV?$_Tree_iterator@V?$_Tree_val@U?$_Tree_simple_types@U?$pair@$$CBW4Object_Type@@PEBVGameObject@@@std@@@std@@@std@@@2@V?$_Tree_const_iterator@V?$_Tree_val@U?$_Tree_simple_types@U?$pair@$$CBW4Object_Type@@PEBVGameObject@@@std@@@std@@@std@@@2@0@Z 0000000140041bd8     engine.obj
 0003:00003c08       $cppxdata$?clear@?$_Tree@V?$_Tmap_traits@W4Object_Type@@PEBVGameObject@@U?$less@W4Object_Type@@@std@@V?$allocator@U?$pair@$$CBW4Object_Type@@PEBVGameObject@@@std@@@4@$0A@@std@@@std@@QEAAXXZ 0000000140041c08     engine.obj
 0003:00003c40       ?_Orphan_ptr@?$_Tree@V?$_Tmap_traits@W4Object_Type@@PEBVGameObject@@U?$less@W4Object_Type@@@std@@V?$allocator@U?$pair@$$CBW4Object_Type@@PEBVGameObject@@@std@@@4@$0A@@std@@@std@@IEAAXPEAU?$_Tree_node@U?$pair@$$CBW4Object_Type@@PEBVGameObject@@@std@@PEAX@2@@Z$rtcName$0 0000000140041c40     engine.obj
 0003:00003c50       ?_Orphan_ptr@?$_Tree@V?$_Tmap_traits@W4Object_Type@@PEBVGameObject@@U?$less@W4Object_Type@@@std@@V?$allocator@U?$pair@$$CBW4Object_Type@@PEBVGameObject@@@std@@@4@$0A@@std@@@std@@IEAAXPEAU?$_Tree_node@U?$pair@$$CBW4Object_Type@@PEBVGameObject@@@std@@PEAX@2@@Z$rtcVarDesc 0000000140041c50     engine.obj
 0003:00003c90       ?_Orphan_ptr@?$_Tree@V?$_Tmap_traits@W4Object_Type@@PEBVGameObject@@U?$less@W4Object_Type@@@std@@V?$allocator@U?$pair@$$CBW4Object_Type@@PEBVGameObject@@@std@@@4@$0A@@std@@@std@@IEAAXPEAU?$_Tree_node@U?$pair@$$CBW4Object_Type@@PEBVGameObject@@@std@@PEAX@2@@Z$rtcFrameData 0000000140041c90     engine.obj
 0003:00003ca0       $cppxdata$?_Orphan_ptr@?$_Tree@V?$_Tmap_traits@W4Object_Type@@PEBVGameObject@@U?$less@W4Object_Type@@@std@@V?$allocator@U?$pair@$$CBW4Object_Type@@PEBVGameObject@@@std@@@4@$0A@@std@@@std@@IEAAXPEAU?$_Tree_node@U?$pair@$$CBW4Object_Type@@PEBVGameObject@@@std@@PEAX@2@@Z 0000000140041ca0     engine.obj
 0003:00003ce8       $cppxdata$?_Tidy@?$_Tree@V?$_Tmap_traits@W4Object_Type@@PEBVGameObject@@U?$less@W4Object_Type@@@std@@V?$allocator@U?$pair@$$CBW4Object_Type@@PEBVGameObject@@@std@@@4@$0A@@std@@@std@@IEAAXXZ 0000000140041ce8     engine.obj
 0003:00003d18       $cppxdata$??0Engine@@QEAA@XZ 0000000140041d18     engine.obj
 0003:00003d50       ?Execute@Engine@@QEAAXXZ$rtcName$0 0000000140041d50     engine.obj
 0003:00003d5c       ?Execute@Engine@@QEAAXXZ$rtcName$1 0000000140041d5c     engine.obj
 0003:00003d68       ?Execute@Engine@@QEAAXXZ$rtcName$2 0000000140041d68     engine.obj
 0003:00003d74       ?Execute@Engine@@QEAAXXZ$rtcName$3 0000000140041d74     engine.obj
 0003:00003d80       ?Execute@Engine@@QEAAXXZ$rtcVarDesc 0000000140041d80     engine.obj
 0003:00003e80       ?Execute@Engine@@QEAAXXZ$rtcFrameData 0000000140041e80     engine.obj
 0003:00003e90       $cppxdata$?Execute@Engine@@QEAAXXZ 0000000140041e90     engine.obj
 0003:00003f00       ?HandleEvents@Engine@@QEAAXXZ$rtcName$0 0000000140041f00     engine.obj
 0003:00003f10       ?HandleEvents@Engine@@QEAAXXZ$rtcVarDesc 0000000140041f10     engine.obj
 0003:00003f50       ?HandleEvents@Engine@@QEAAXXZ$rtcFrameData 0000000140041f50     engine.obj
 0003:00003f78       $cppxdata$??1?$_Vector_alloc@U?$_Vec_base_types@PEAV?$Container@VWidget@@@@V?$allocator@PEAV?$Container@VWidget@@@@@std@@@std@@@std@@QEAA@XZ 0000000140041f78     engine.obj
 0003:00003fb0       ?_Alloc_proxy@?$_Vector_alloc@U?$_Vec_base_types@PEAV?$Container@VWidget@@@@V?$allocator@PEAV?$Container@VWidget@@@@@std@@@std@@@std@@QEAAXXZ$rtcName$0 0000000140041fb0     engine.obj
 0003:00003fd0       ?_Alloc_proxy@?$_Vector_alloc@U?$_Vec_base_types@PEAV?$Container@VWidget@@@@V?$allocator@PEAV?$Container@VWidget@@@@@std@@@std@@@std@@QEAAXXZ$rtcVarDesc 0000000140041fd0     engine.obj
 0003:00004010       ?_Alloc_proxy@?$_Vector_alloc@U?$_Vec_base_types@PEAV?$Container@VWidget@@@@V?$allocator@PEAV?$Container@VWidget@@@@@std@@@std@@@std@@QEAAXXZ$rtcFrameData 0000000140042010     engine.obj
 0003:00004040       ?_Free_proxy@?$_Vector_alloc@U?$_Vec_base_types@PEAV?$Container@VWidget@@@@V?$allocator@PEAV?$Container@VWidget@@@@@std@@@std@@@std@@QEAAXXZ$rtcName$0 0000000140042040     engine.obj
 0003:00004060       ?_Free_proxy@?$_Vector_alloc@U?$_Vec_base_types@PEAV?$Container@VWidget@@@@V?$allocator@PEAV?$Container@VWidget@@@@@std@@@std@@@std@@QEAAXXZ$rtcVarDesc 0000000140042060     engine.obj
 0003:000040a0       ?_Free_proxy@?$_Vector_alloc@U?$_Vec_base_types@PEAV?$Container@VWidget@@@@V?$allocator@PEAV?$Container@VWidget@@@@@std@@@std@@@std@@QEAAXXZ$rtcFrameData 00000001400420a0     engine.obj
 0003:000040c8       $cppxdata$??0?$vector@PEAV?$Container@VWidget@@@@V?$allocator@PEAV?$Container@VWidget@@@@@std@@@std@@QEAA@XZ 00000001400420c8     engine.obj
 0003:000040f8       $cppxdata$??1?$vector@PEAV?$Container@VWidget@@@@V?$allocator@PEAV?$Container@VWidget@@@@@std@@@std@@QEAA@XZ 00000001400420f8     engine.obj
 0003:00004130       ?_Orphan_range@?$vector@PEAV?$Container@VWidget@@@@V?$allocator@PEAV?$Container@VWidget@@@@@std@@@std@@AEBAXPEAPEAV?$Container@VWidget@@@@0@Z$rtcName$0 0000000140042130     engine.obj
 0003:00004140       ?_Orphan_range@?$vector@PEAV?$Container@VWidget@@@@V?$allocator@PEAV?$Container@VWidget@@@@@std@@@std@@AEBAXPEAPEAV?$Container@VWidget@@@@0@Z$rtcVarDesc 0000000140042140     engine.obj
 0003:00004180       ?_Orphan_range@?$vector@PEAV?$Container@VWidget@@@@V?$allocator@PEAV?$Container@VWidget@@@@@std@@@std@@AEBAXPEAPEAV?$Container@VWidget@@@@0@Z$rtcFrameData 0000000140042180     engine.obj
 0003:00004190       $cppxdata$?_Orphan_range@?$vector@PEAV?$Container@VWidget@@@@V?$allocator@PEAV?$Container@VWidget@@@@@std@@@std@@AEBAXPEAPEAV?$Container@VWidget@@@@0@Z 0000000140042190     engine.obj
 0003:000041d8       $cppxdata$??$_Emplace_reallocate@AEBQEAV?$Container@VWidget@@@@@?$vector@PEAV?$Container@VWidget@@@@V?$allocator@PEAV?$Container@VWidget@@@@@std@@@std@@QEAAPEAPEAV?$Container@VWidget@@@@QEAPEAV2@AEBQEAV2@@Z 00000001400421d8     engine.obj
 0003:00004210       ??E?$_Tree_const_iterator@V?$_Tree_val@U?$_Tree_simple_types@U?$pair@$$CBW4Object_Type@@PEBVGameObject@@@std@@@std@@@std@@@std@@QEAA?AV01@H@Z$rtcName$0 0000000140042210     engine.obj
 0003:00004220       ??E?$_Tree_const_iterator@V?$_Tree_val@U?$_Tree_simple_types@U?$pair@$$CBW4Object_Type@@PEBVGameObject@@@std@@@std@@@std@@@std@@QEAA?AV01@H@Z$rtcVarDesc 0000000140042220     engine.obj
 0003:00004260       ??E?$_Tree_const_iterator@V?$_Tree_val@U?$_Tree_simple_types@U?$pair@$$CBW4Object_Type@@PEBVGameObject@@@std@@@std@@@std@@@std@@QEAA?AV01@H@Z$rtcFrameData 0000000140042260     engine.obj
 0003:00004270       $cppxdata$??E?$_Tree_const_iterator@V?$_Tree_val@U?$_Tree_simple_types@U?$pair@$$CBW4Object_Type@@PEBVGameObject@@@std@@@std@@@std@@@std@@QEAA?AV01@H@Z 0000000140042270     engine.obj
 0003:000042c0       ??$swap@DX@std@@YAXAEAD0@Z$rtcName$0 00000001400422c0     engine.obj
 0003:000042d0       ??$swap@DX@std@@YAXAEAD0@Z$rtcVarDesc 00000001400422d0     engine.obj
 0003:00004310       ??$swap@DX@std@@YAXAEAD0@Z$rtcFrameData 0000000140042310     engine.obj
 0003:00004340       ??$_Uninitialized_move@PEAPEAV?$Container@VWidget@@@@PEAPEAV1@V?$allocator@PEAV?$Container@VWidget@@@@@std@@@std@@YAPEAPEAV?$Container@VWidget@@@@QEAPEAV1@0PEAPEAV1@AEAV?$allocator@PEAV?$Container@VWidget@@@@@0@@Z$rtcName$0 0000000140042340     engine.obj
 0003:00004348       ??$_Uninitialized_move@PEAPEAV?$Container@VWidget@@@@PEAPEAV1@V?$allocator@PEAV?$Container@VWidget@@@@@std@@@std@@YAPEAPEAV?$Container@VWidget@@@@QEAPEAV1@0PEAPEAV1@AEAV?$allocator@PEAV?$Container@VWidget@@@@@0@@Z$rtcName$1 0000000140042348     engine.obj
 0003:00004350       ??$_Uninitialized_move@PEAPEAV?$Container@VWidget@@@@PEAPEAV1@V?$allocator@PEAV?$Container@VWidget@@@@@std@@@std@@YAPEAPEAV?$Container@VWidget@@@@QEAPEAV1@0PEAPEAV1@AEAV?$allocator@PEAV?$Container@VWidget@@@@@0@@Z$rtcVarDesc 0000000140042350     engine.obj
 0003:000043d0       ??$_Uninitialized_move@PEAPEAV?$Container@VWidget@@@@PEAPEAV1@V?$allocator@PEAV?$Container@VWidget@@@@@std@@@std@@YAPEAPEAV?$Container@VWidget@@@@QEAPEAV1@0PEAPEAV1@AEAV?$allocator@PEAV?$Container@VWidget@@@@@0@@Z$rtcFrameData 00000001400423d0     engine.obj
 0003:00004b30       WinMain$rtcName$0          0000000140042b30     main.obj
 0003:00004b40       WinMain$rtcVarDesc         0000000140042b40     main.obj
 0003:00004b80       WinMain$rtcFrameData       0000000140042b80     main.obj
 0003:00004b90       $cppxdata$WinMain          0000000140042b90     main.obj
 0003:00004bd8       $cppxdata$??0?$ContainerMoving@VWidget@@@@QEAA@AEBV?$Vector2@M@sf@@0@Z 0000000140042bd8     container-moving.obj
 0003:00004c10       ?HandleEvent@?$ContainerMoving@VWidget@@@@UEAAXAEBVEvent@sf@@@Z$rtcName$0 0000000140042c10     container-moving.obj
 0003:00004c14       ?HandleEvent@?$ContainerMoving@VWidget@@@@UEAAXAEBVEvent@sf@@@Z$rtcName$1 0000000140042c14     container-moving.obj
 0003:00004c18       ?HandleEvent@?$ContainerMoving@VWidget@@@@UEAAXAEBVEvent@sf@@@Z$rtcName$2 0000000140042c18     container-moving.obj
 0003:00004c1c       ?HandleEvent@?$ContainerMoving@VWidget@@@@UEAAXAEBVEvent@sf@@@Z$rtcName$3 0000000140042c1c     container-moving.obj
 0003:00004c20       ?HandleEvent@?$ContainerMoving@VWidget@@@@UEAAXAEBVEvent@sf@@@Z$rtcVarDesc 0000000140042c20     container-moving.obj
 0003:00004d20       ?HandleEvent@?$ContainerMoving@VWidget@@@@UEAAXAEBVEvent@sf@@@Z$rtcFrameData 0000000140042d20     container-moving.obj
 0003:00004db0       $cppxdata$??0?$basic_string@DU?$char_traits@D@std@@V?$allocator@D@2@@std@@QEAA@XZ 0000000140042db0     game-object.obj
 0003:00004de0       ??0GameObject@@QEAA@PEBD@Z$rtcName$0 0000000140042de0     game-object.obj
 0003:00004de8       ??0GameObject@@QEAA@PEBD@Z$rtcName$1 0000000140042de8     game-object.obj
 0003:00004df0       ??0GameObject@@QEAA@PEBD@Z$rtcName$2 0000000140042df0     game-object.obj
 0003:00004df8       ??0GameObject@@QEAA@PEBD@Z$rtcName$3 0000000140042df8     game-object.obj
 0003:00004e00       ??0GameObject@@QEAA@PEBD@Z$rtcName$4 0000000140042e00     game-object.obj
 0003:00004e10       ??0GameObject@@QEAA@PEBD@Z$rtcVarDesc 0000000140042e10     game-object.obj
 0003:00004f50       ??0GameObject@@QEAA@PEBD@Z$rtcFrameData 0000000140042f50     game-object.obj
 0003:00004f60       $cppxdata$??0GameObject@@QEAA@PEBD@Z 0000000140042f60     game-object.obj
 0003:00004fe0       $cppxdata$??0GameObject@@QEAA@PEBV0@@Z 0000000140042fe0     game-object.obj
 0003:00005010       ?Create@GameObject@@SAPEBV1@PEBD@Z$rtcName$0 0000000140043010     game-object.obj
 0003:00005018       ?Create@GameObject@@SAPEBV1@PEBD@Z$rtcName$1 0000000140043018     game-object.obj
 0003:00005020       ?Create@GameObject@@SAPEBV1@PEBD@Z$rtcVarDesc 0000000140043020     game-object.obj
 0003:000050a0       ?Create@GameObject@@SAPEBV1@PEBD@Z$rtcFrameData 00000001400430a0     game-object.obj
 0003:000050b0       $cppxdata$?Create@GameObject@@SAPEBV1@PEBD@Z 00000001400430b0     game-object.obj
 0003:00005100       ?CreateImpl@GameObject@@CAPEAV1@W4Object_Type@@PEBD@Z$rtcName$0 0000000140043100     game-object.obj
 0003:00005108       $cppxdata$?CreateImpl@GameObject@@CAPEAV1@W4Object_Type@@PEBD@Z 0000000140043108     game-object.obj
 0003:00005230       $cppxdata$??0MenuWindow@@QEAA@PEAVEngine@@AEBV?$Vector2@M@sf@@1@Z 0000000140043230     menu-window.obj
 0003:00005260       $cppxdata$??$?0V<lambda_668a1179af56ef880bbabaf92a5d9839>@@X@?$function@$$A6AXPEAVButton@@@Z@std@@QEAA@V<lambda_668a1179af56ef880bbabaf92a5d9839>@@@Z 0000000140043260     menu-window.obj
 0003:00005290       $cppxdata$??$?0V<lambda_312b3f49165ee8dbe2e5837b3ce31c90>@@X@?$function@$$A6AXPEAVButton@@@Z@std@@QEAA@V<lambda_312b3f49165ee8dbe2e5837b3ce31c90>@@@Z 0000000140043290     menu-window.obj
 0003:000052c0       $cppxdata$??$?0V<lambda_5f2a59844b8069354d5a17d44e450129>@@X@?$function@$$A6AXPEAVButton@@@Z@std@@QEAA@V<lambda_5f2a59844b8069354d5a17d44e450129>@@@Z 00000001400432c0     menu-window.obj
 0003:000052f0       ??$_Test_callable@V<lambda_668a1179af56ef880bbabaf92a5d9839>@@@std@@YA_NAEBV<lambda_668a1179af56ef880bbabaf92a5d9839>@@@Z$rtcName$0 00000001400432f0     menu-window.obj
 0003:00005300       ??$_Test_callable@V<lambda_668a1179af56ef880bbabaf92a5d9839>@@@std@@YA_NAEBV<lambda_668a1179af56ef880bbabaf92a5d9839>@@@Z$rtcVarDesc 0000000140043300     menu-window.obj
 0003:00005340       ??$_Test_callable@V<lambda_668a1179af56ef880bbabaf92a5d9839>@@@std@@YA_NAEBV<lambda_668a1179af56ef880bbabaf92a5d9839>@@@Z$rtcFrameData 0000000140043340     menu-window.obj
 0003:00005368       $cppxdata$?_Delete_this@?$_Func_impl_no_alloc@V<lambda_668a1179af56ef880bbabaf92a5d9839>@@XPEAVButton@@@std@@EEAAX_N@Z 0000000140043368     menu-window.obj
 0003:000053a0       ??$_Test_callable@V<lambda_312b3f49165ee8dbe2e5837b3ce31c90>@@@std@@YA_NAEBV<lambda_312b3f49165ee8dbe2e5837b3ce31c90>@@@Z$rtcName$0 00000001400433a0     menu-window.obj
 0003:000053b0       ??$_Test_callable@V<lambda_312b3f49165ee8dbe2e5837b3ce31c90>@@@std@@YA_NAEBV<lambda_312b3f49165ee8dbe2e5837b3ce31c90>@@@Z$rtcVarDesc 00000001400433b0     menu-window.obj
 0003:000053f0       ??$_Test_callable@V<lambda_312b3f49165ee8dbe2e5837b3ce31c90>@@@std@@YA_NAEBV<lambda_312b3f49165ee8dbe2e5837b3ce31c90>@@@Z$rtcFrameData 00000001400433f0     menu-window.obj
 0003:00005418       $cppxdata$?_Delete_this@?$_Func_impl_no_alloc@V<lambda_312b3f49165ee8dbe2e5837b3ce31c90>@@XPEAVButton@@@std@@EEAAX_N@Z 0000000140043418     menu-window.obj
 0003:00005450       ??$_Test_callable@V<lambda_5f2a59844b8069354d5a17d44e450129>@@@std@@YA_NAEBV<lambda_5f2a59844b8069354d5a17d44e450129>@@@Z$rtcName$0 0000000140043450     menu-window.obj
 0003:00005460       ??$_Test_callable@V<lambda_5f2a59844b8069354d5a17d44e450129>@@@std@@YA_NAEBV<lambda_5f2a59844b8069354d5a17d44e450129>@@@Z$rtcVarDesc 0000000140043460     menu-window.obj
 0003:000054a0       ??$_Test_callable@V<lambda_5f2a59844b8069354d5a17d44e450129>@@@std@@YA_NAEBV<lambda_5f2a59844b8069354d5a17d44e450129>@@@Z$rtcFrameData 00000001400434a0     menu-window.obj
 0003:000054c8       $cppxdata$?_Delete_this@?$_Func_impl_no_alloc@V<lambda_5f2a59844b8069354d5a17d44e450129>@@XPEAVButton@@@std@@EEAAX_N@Z 00000001400434c8     menu-window.obj
 0003:00005578       ??_7?$_Func_impl_no_alloc@V<lambda_668a1179af56ef880bbabaf92a5d9839>@@XPEAVButton@@@std@@6B@ 0000000140043578     menu-window.obj
 0003:000055c0       ??_7?$_Func_impl_no_alloc@V<lambda_312b3f49165ee8dbe2e5837b3ce31c90>@@XPEAVButton@@@std@@6B@ 00000001400435c0     menu-window.obj
 0003:00005608       ??_7?$_Func_impl_no_alloc@V<lambda_5f2a59844b8069354d5a17d44e450129>@@XPEAVButton@@@std@@6B@ 0000000140043608     menu-window.obj
 0003:00005650       $cppxdata$??0Object@@QEAA@PEBD@Z 0000000140043650     object.obj
 0003:00005680       $cppxdata$??0Object@@QEAA@AEBV?$Vector2@M@sf@@0@Z 0000000140043680     object.obj
 0003:000056b0       $cppxdata$??0Object@@QEAA@PEBV0@@Z 00000001400436b0     object.obj
 0003:000056e0       $cppxdata$?SetTexture@Object@@QEAA_NPEBD@Z 00000001400436e0     object.obj
 0003:00005710       ?GetAbsolutePos@Object@@QEBA?AV?$Vector2@M@sf@@XZ$rtcName$0 0000000140043710     object.obj
 0003:00005720       ?GetAbsolutePos@Object@@QEBA?AV?$Vector2@M@sf@@XZ$rtcVarDesc 0000000140043720     object.obj
 0003:00005760       ?GetAbsolutePos@Object@@QEBA?AV?$Vector2@M@sf@@XZ$rtcFrameData 0000000140043760     object.obj
 0003:00005790       ?CheckIntersect@Object@@QEBA_NAEBV?$Vector2@M@sf@@@Z$rtcName$0 0000000140043790     object.obj
 0003:00005794       ?CheckIntersect@Object@@QEBA_NAEBV?$Vector2@M@sf@@@Z$rtcName$1 0000000140043794     object.obj
 0003:000057a0       ?CheckIntersect@Object@@QEBA_NAEBV?$Vector2@M@sf@@@Z$rtcVarDesc 00000001400437a0     object.obj
 0003:00005820       ?CheckIntersect@Object@@QEBA_NAEBV?$Vector2@M@sf@@@Z$rtcFrameData 0000000140043820     object.obj
 0003:00005850       ?calculateSpriteSize@Object@@AEAAXXZ$rtcName$0 0000000140043850     object.obj
 0003:00005860       ?calculateSpriteSize@Object@@AEAAXXZ$rtcVarDesc 0000000140043860     object.obj
 0003:000058a0       ?calculateSpriteSize@Object@@AEAAXXZ$rtcFrameData 00000001400438a0     object.obj
 0003:000058d0       ??$_Reallocate_for@V<lambda_66f57f934f28d61049862f64df852ff0>@@PEBD@?$basic_string@DU?$char_traits@D@std@@V?$allocator@D@2@@std@@QEAAAEAV01@_KV<lambda_66f57f934f28d61049862f64df852ff0>@@PEBD@Z$rtcName$0 00000001400438d0     object.obj
 0003:000058e0       ??$_Reallocate_for@V<lambda_66f57f934f28d61049862f64df852ff0>@@PEBD@?$basic_string@DU?$char_traits@D@std@@V?$allocator@D@2@@std@@QEAAAEAV01@_KV<lambda_66f57f934f28d61049862f64df852ff0>@@PEBD@Z$rtcVarDesc 00000001400438e0     object.obj
 0003:00005920       ??$_Reallocate_for@V<lambda_66f57f934f28d61049862f64df852ff0>@@PEBD@?$basic_string@DU?$char_traits@D@std@@V?$allocator@D@2@@std@@QEAAAEAV01@_KV<lambda_66f57f934f28d61049862f64df852ff0>@@PEBD@Z$rtcFrameData 0000000140043920     object.obj
 0003:00005980       $cppxdata$?Clone@Tank@@UEBAPEAVGameObject@@XZ 0000000140043980     tank.obj
 0003:000059f8       $cppxdata$?Clone@Wall@@UEBAPEAVGameObject@@XZ 00000001400439f8     wall.obj
 0003:00005a70       $cppxdata$??0WidgetGame@@QEAA@PEAVEngine@@AEBV?$Vector2@M@sf@@1@Z 0000000140043a70     widget-game.obj
 0003:00005ae0       ?Draw@Widget@@UEAAXPEAVRenderWindow@sf@@@Z$rtcName$0 0000000140043ae0     widget.obj
 0003:00005aec       ?Draw@Widget@@UEAAXPEAVRenderWindow@sf@@@Z$rtcName$1 0000000140043aec     widget.obj
 0003:00005b00       ?Draw@Widget@@UEAAXPEAVRenderWindow@sf@@@Z$rtcVarDesc 0000000140043b00     widget.obj
 0003:00005b80       ?Draw@Widget@@UEAAXPEAVRenderWindow@sf@@@Z$rtcFrameData 0000000140043b80     widget.obj
 0003:00005c78       $cppxdata$??0WindowGame@@QEAA@PEAVEngine@@AEBV?$Vector2@M@sf@@1@Z 0000000140043c78     window-game.obj
 0003:00005cf0       $cppxdata$??0WindowEditor@@QEAA@PEAVEngine@@AEBV?$Vector2@M@sf@@1@Z 0000000140043cf0     window-editor.obj
 0003:00005d78       ?_RTC_ErrorMessages@@3QBQEBDB 0000000140043d78     MSVCRTD:_error_.obj
 0003:00005da8       ?_RTC_NoFalsePositives@@3QBHB 0000000140043da8     MSVCRTD:_error_.obj
 0003:00005dc0       ?stack_premsg@@3QBDB       0000000140043dc0     MSVCRTD:_error_.obj
 0003:00005de0       ?stack_postmsg@@3QBDB      0000000140043de0     MSVCRTD:_error_.obj
 0003:00005df8       ?uninit_premsg@@3QBDB      0000000140043df8     MSVCRTD:_error_.obj
 0003:00005e08       ?uninit_postmsg@@3QBDB     0000000140043e08     MSVCRTD:_error_.obj
 0003:00006538       ?_RTC_errlist@@3QBQEBDB    0000000140044538     MSVCRTD:_userapi_.obj
 0003:00006640       GS_ExceptionPointers       0000000140044640     MSVCRTD:gs_report.obj
 0003:00006658       ?mspdbName@@3QB_WB         0000000140044658     MSVCRTD:_pdblkup_.obj
 0003:00006688       ?debugCrtFileName@@3QB_WB  0000000140044688     MSVCRTD:_pdblkup_.obj
 0003:00006820       ?dllExt@?1??GetPdbDllPathFromFilePath@@YAHPEB_WPEA_W_K@Z@4QB_WB 0000000140044820     MSVCRTD:_pdblkup_.obj
 0003:00006830       ?mspdbFilename@?1??GetPdbDllPathFromFilePath@@YAHPEB_WPEA_W_K@Z@4QB_WB 0000000140044830     MSVCRTD:_pdblkup_.obj
 0003:00007510       ??_R4?$_Func_impl_no_alloc@V<lambda_668a1179af56ef880bbabaf92a5d9839>@@XPEAVButton@@@std@@6B@ 0000000140045510     menu-window.obj
 0003:00007540       ??_R3?$_Func_impl_no_alloc@V<lambda_668a1179af56ef880bbabaf92a5d9839>@@XPEAVButton@@@std@@8 0000000140045540     menu-window.obj
 0003:00007558       ??_R2?$_Func_impl_no_alloc@V<lambda_668a1179af56ef880bbabaf92a5d9839>@@XPEAVButton@@@std@@8 0000000140045558     menu-window.obj
 0003:00007570       ??_R1A@?0A@EA@?$_Func_impl_no_alloc@V<lambda_668a1179af56ef880bbabaf92a5d9839>@@XPEAVButton@@@std@@8 0000000140045570     menu-window.obj
 0003:000075a0       ??_R4?$_Func_impl_no_alloc@V<lambda_312b3f49165ee8dbe2e5837b3ce31c90>@@XPEAVButton@@@std@@6B@ 00000001400455a0     menu-window.obj
 0003:000075d0       ??_R3?$_Func_impl_no_alloc@V<lambda_312b3f49165ee8dbe2e5837b3ce31c90>@@XPEAVButton@@@std@@8 00000001400455d0     menu-window.obj
 0003:000075e8       ??_R2?$_Func_impl_no_alloc@V<lambda_312b3f49165ee8dbe2e5837b3ce31c90>@@XPEAVButton@@@std@@8 00000001400455e8     menu-window.obj
 0003:00007600       ??_R1A@?0A@EA@?$_Func_impl_no_alloc@V<lambda_312b3f49165ee8dbe2e5837b3ce31c90>@@XPEAVButton@@@std@@8 0000000140045600     menu-window.obj
 0003:00007630       ??_R4?$_Func_impl_no_alloc@V<lambda_5f2a59844b8069354d5a17d44e450129>@@XPEAVButton@@@std@@6B@ 0000000140045630     menu-window.obj
 0003:00007660       ??_R3?$_Func_impl_no_alloc@V<lambda_5f2a59844b8069354d5a17d44e450129>@@XPEAVButton@@@std@@8 0000000140045660     menu-window.obj
 0003:00007678       ??_R2?$_Func_impl_no_alloc@V<lambda_5f2a59844b8069354d5a17d44e450129>@@XPEAVButton@@@std@@8 0000000140045678     menu-window.obj
 0003:00007690       ??_R1A@?0A@EA@?$_Func_impl_no_alloc@V<lambda_5f2a59844b8069354d5a17d44e450129>@@XPEAVButton@@@std@@8 0000000140045690     menu-window.obj
 0003:00008148       _RTC_InitBase.rtc$IMZ      0000000140046148     button.obj
 0003:00008158       _RTC_InitBase.rtc$IMZ      0000000140046158     config.obj
 0003:00008168       _RTC_InitBase.rtc$IMZ      0000000140046168     container.obj
 0003:00008178       _RTC_InitBase.rtc$IMZ      0000000140046178     engine.obj
 0003:00008188       _RTC_InitBase.rtc$IMZ      0000000140046188     main.obj
 0003:00008198       _RTC_InitBase.rtc$IMZ      0000000140046198     container-moving.obj
 0003:000081a8       _RTC_InitBase.rtc$IMZ      00000001400461a8     game-object.obj
 0003:000081b8       _RTC_InitBase.rtc$IMZ      00000001400461b8     menu-window.obj
 0003:000081c8       _RTC_InitBase.rtc$IMZ      00000001400461c8     missile.obj
 0003:000081d8       _RTC_InitBase.rtc$IMZ      00000001400461d8     object.obj
 0003:000081e8       _RTC_InitBase.rtc$IMZ      00000001400461e8     player.obj
 0003:000081f8       _RTC_InitBase.rtc$IMZ      00000001400461f8     tank.obj
 0003:00008208       _RTC_InitBase.rtc$IMZ      0000000140046208     wall.obj
 0003:00008218       _RTC_InitBase.rtc$IMZ      0000000140046218     widget-game.obj
 0003:00008228       _RTC_InitBase.rtc$IMZ      0000000140046228     widget.obj
 0003:00008238       _RTC_InitBase.rtc$IMZ      0000000140046238     widget-templates.obj
 0003:00008248       _RTC_InitBase.rtc$IMZ      0000000140046248     window.obj
 0003:00008258       _RTC_InitBase.rtc$IMZ      0000000140046258     window-game.obj
 0003:00008268       _RTC_InitBase.rtc$IMZ      0000000140046268     window-editor.obj
 0003:000085b8       _RTC_Shutdown.rtc$TMZ      00000001400465b8     button.obj
 0003:000085c8       _RTC_Shutdown.rtc$TMZ      00000001400465c8     config.obj
 0003:000085d8       _RTC_Shutdown.rtc$TMZ      00000001400465d8     container.obj
 0003:000085e8       _RTC_Shutdown.rtc$TMZ      00000001400465e8     engine.obj
 0003:000085f8       _RTC_Shutdown.rtc$TMZ      00000001400465f8     main.obj
 0003:00008608       _RTC_Shutdown.rtc$TMZ      0000000140046608     container-moving.obj
 0003:00008618       _RTC_Shutdown.rtc$TMZ      0000000140046618     game-object.obj
 0003:00008628       _RTC_Shutdown.rtc$TMZ      0000000140046628     menu-window.obj
 0003:00008638       _RTC_Shutdown.rtc$TMZ      0000000140046638     missile.obj
 0003:00008648       _RTC_Shutdown.rtc$TMZ      0000000140046648     object.obj
 0003:00008658       _RTC_Shutdown.rtc$TMZ      0000000140046658     player.obj
 0003:00008668       _RTC_Shutdown.rtc$TMZ      0000000140046668     tank.obj
 0003:00008678       _RTC_Shutdown.rtc$TMZ      0000000140046678     wall.obj
 0003:00008688       _RTC_Shutdown.rtc$TMZ      0000000140046688     widget-game.obj
 0003:00008698       _RTC_Shutdown.rtc$TMZ      0000000140046698     widget.obj
 0003:000086a8       _RTC_Shutdown.rtc$TMZ      00000001400466a8     widget-templates.obj
 0003:000086b8       _RTC_Shutdown.rtc$TMZ      00000001400466b8     window.obj
 0003:000086c8       _RTC_Shutdown.rtc$TMZ      00000001400466c8     window-game.obj
 0003:000086d8       _RTC_Shutdown.rtc$TMZ      00000001400466d8     window-editor.obj
 0003:00008920       $unwind$?__empty_global_delete@@YAXPEAX@Z 0000000140046920     button.obj
 0003:00008934       $unwind$?__empty_global_delete@@YAXPEAX_K@Z 0000000140046934     button.obj
 0003:00008948       $unwind$wmemcpy            0000000140046948     button.obj
 0003:0000895c       $unwind$?max@?$numeric_limits@_J@std@@SA_JXZ 000000014004695c     button.obj
 0003:00008970       $unwind$??2@YAPEAX_KPEAX@Z 0000000140046970     button.obj
 0003:00008984       $unwind$?assign@?$_WChar_traits@_W@std@@SAXAEA_WAEB_W@Z 0000000140046984     button.obj
 0003:00008998       $unwind$?length@?$char_traits@D@std@@SA_KQEBD@Z 0000000140046998     button.obj
 0003:000089ac       $unwind$?copy@?$char_traits@D@std@@SAPEADQEADQEBD_K@Z 00000001400469ac     button.obj
 0003:000089c0       $unwind$?move@?$char_traits@D@std@@SAPEADQEADQEBD_K@Z 00000001400469c0     button.obj
 0003:000089d4       $unwind$?assign@?$char_traits@D@std@@SAXAEADAEBD@Z 00000001400469d4     button.obj
 0003:000089e8       $unwind$??0_Container_proxy@std@@QEAA@XZ 00000001400469e8     button.obj
 0003:000089fc       $unwind$??0_Container_base12@std@@QEAA@XZ 00000001400469fc     button.obj
 0003:00008a10       $unwind$?_Orphan_all@_Container_base12@std@@QEAAXXZ 0000000140046a10     button.obj
 0003:00008a30       $ip2state$?_Orphan_all@_Container_base12@std@@QEAAXXZ 0000000140046a30     button.obj
 0003:00008a38       $unwind$??$_Get_size_of_n@$00@std@@YA_K_K@Z 0000000140046a38     button.obj
 0003:00008a4c       $unwind$?_Allocate@_Default_allocate_traits@std@@SAPEAX_K@Z 0000000140046a4c     button.obj
 0003:00008a60       $unwind$?_Adjust_manually_vector_aligned@std@@YAXAEAPEAXAEA_K@Z 0000000140046a60     button.obj
 0003:00008a74       $unwind$??$_Convert_size@_K@std@@YA_K_K@Z 0000000140046a74     button.obj
 0003:00008a88       $unwind$??0?$allocator@D@std@@QEAA@XZ 0000000140046a88     button.obj
 0003:00008a9c       $unwind$?deallocate@?$allocator@D@std@@QEAAXQEAD_K@Z 0000000140046a9c     button.obj
 0003:00008ab0       $unwind$?allocate@?$allocator@D@std@@QEAAPEAD_K@Z 0000000140046ab0     button.obj
 0003:00008ac4       $unwind$?max_size@?$_Default_allocator_traits@V?$allocator@D@std@@@std@@SA_KAEBV?$allocator@D@2@@Z 0000000140046ac4     button.obj
 0003:00008ad8       $unwind$??0?$_String_val@U?$_Simple_types@D@std@@@std@@QEAA@XZ 0000000140046ad8     button.obj
 0003:00008aec       $unwind$?_Myptr@?$_String_val@U?$_Simple_types@D@std@@@std@@QEAAPEADXZ 0000000140046aec     button.obj
 0003:00008b00       $unwind$?_Large_string_engaged@?$_String_val@U?$_Simple_types@D@std@@@std@@QEBA_NXZ 0000000140046b00     button.obj
 0003:00008b14       $unwind$??0_Bxty@?$_String_val@U?$_Simple_types@D@std@@@std@@QEAA@XZ 0000000140046b14     button.obj
 0003:00008b28       $unwind$??1_Bxty@?$_String_val@U?$_Simple_types@D@std@@@std@@QEAA@XZ 0000000140046b28     button.obj
 0003:00008b3c       $unwind$??1?$_String_val@U?$_Simple_types@D@std@@@std@@QEAA@XZ 0000000140046b3c     button.obj
 0003:00008b50       $unwind$??0?$_String_alloc@U?$_String_base_types@DV?$allocator@D@std@@@std@@@std@@QEAA@XZ 0000000140046b50     button.obj
 0003:00008b6c       $stateUnwindMap$??0?$_String_alloc@U?$_String_base_types@DV?$allocator@D@std@@@std@@@std@@QEAA@XZ 0000000140046b6c     button.obj
 0003:00008b78       $ip2state$??0?$_String_alloc@U?$_String_base_types@DV?$allocator@D@std@@@std@@@std@@QEAA@XZ 0000000140046b78     button.obj
 0003:00008b94       $unwind$?dtor$0@?0???0?$_String_alloc@U?$_String_base_types@DV?$allocator@D@std@@@std@@@std@@QEAA@XZ@4HA 0000000140046b94     button.obj
 0003:00008ba4       $unwind$??1?$_String_alloc@U?$_String_base_types@DV?$allocator@D@std@@@std@@@std@@QEAA@XZ 0000000140046ba4     button.obj
 0003:00008bc0       $ip2state$??1?$_String_alloc@U?$_String_base_types@DV?$allocator@D@std@@@std@@@std@@QEAA@XZ 0000000140046bc0     button.obj
 0003:00008bc8       $unwind$?_Alloc_proxy@?$_String_alloc@U?$_String_base_types@DV?$allocator@D@std@@@std@@@std@@QEAAXXZ 0000000140046bc8     button.obj
 0003:00008bdc       $unwind$?_Free_proxy@?$_String_alloc@U?$_String_base_types@DV?$allocator@D@std@@@std@@@std@@QEAAXXZ 0000000140046bdc     button.obj
 0003:00008bf0       $unwind$?_Myproxy@?$_String_alloc@U?$_String_base_types@DV?$allocator@D@std@@@std@@@std@@QEAAAEAPEAU_Container_proxy@2@XZ 0000000140046bf0     button.obj
 0003:00008c04       $unwind$?_Orphan_all@?$_String_alloc@U?$_String_base_types@DV?$allocator@D@std@@@std@@@std@@QEAAXXZ 0000000140046c04     button.obj
 0003:00008c18       $unwind$?_Getal@?$_String_alloc@U?$_String_base_types@DV?$allocator@D@std@@@std@@@std@@QEAAAEAV?$allocator@D@2@XZ 0000000140046c18     button.obj
 0003:00008c2c       $unwind$?_Getal@?$_String_alloc@U?$_String_base_types@DV?$allocator@D@std@@@std@@@std@@QEBAAEBV?$allocator@D@2@XZ 0000000140046c2c     button.obj
 0003:00008c40       $unwind$?_Get_data@?$_String_alloc@U?$_String_base_types@DV?$allocator@D@std@@@std@@@std@@QEAAAEAV?$_String_val@U?$_Simple_types@D@std@@@2@XZ 0000000140046c40     button.obj
 0003:00008c54       $unwind$?_Get_data@?$_String_alloc@U?$_String_base_types@DV?$allocator@D@std@@@std@@@std@@QEBAAEBV?$_String_val@U?$_Simple_types@D@std@@@2@XZ 0000000140046c54     button.obj
 0003:00008c68       $unwind$?_Get_first@?$_Compressed_pair@V?$allocator@D@std@@V?$_String_val@U?$_Simple_types@D@std@@@2@$00@std@@QEAAAEAV?$allocator@D@2@XZ 0000000140046c68     button.obj
 0003:00008c7c       $unwind$?_Get_first@?$_Compressed_pair@V?$allocator@D@std@@V?$_String_val@U?$_Simple_types@D@std@@@2@$00@std@@QEBAAEBV?$allocator@D@2@XZ 0000000140046c7c     button.obj
 0003:00008c90       $unwind$?_Get_second@?$_Compressed_pair@V?$allocator@D@std@@V?$_String_val@U?$_Simple_types@D@std@@@2@$00@std@@QEAAAEAV?$_String_val@U?$_Simple_types@D@std@@@2@XZ 0000000140046c90     button.obj
 0003:00008ca4       $unwind$?_Get_second@?$_Compressed_pair@V?$allocator@D@std@@V?$_String_val@U?$_Simple_types@D@std@@@2@$00@std@@QEBAAEBV?$_String_val@U?$_Simple_types@D@std@@@2@XZ 0000000140046ca4     button.obj
 0003:00008cb8       $unwind$??1?$_Compressed_pair@V?$allocator@D@std@@V?$_String_val@U?$_Simple_types@D@std@@@2@$00@std@@QEAA@XZ 0000000140046cb8     button.obj
 0003:00008ccc       $unwind$??0?$basic_string@DU?$char_traits@D@std@@V?$allocator@D@2@@std@@QEAA@QEBD@Z 0000000140046ccc     button.obj
 0003:00008ce8       $stateUnwindMap$??0?$basic_string@DU?$char_traits@D@std@@V?$allocator@D@2@@std@@QEAA@QEBD@Z 0000000140046ce8     button.obj
 0003:00008cf0       $ip2state$??0?$basic_string@DU?$char_traits@D@std@@V?$allocator@D@2@@std@@QEAA@QEBD@Z 0000000140046cf0     button.obj
 0003:00008d0c       $unwind$?dtor$0@?0???0?$basic_string@DU?$char_traits@D@std@@V?$allocator@D@2@@std@@QEAA@QEBD@Z@4HA 0000000140046d0c     button.obj
 0003:00008d1c       $unwind$??1?$basic_string@DU?$char_traits@D@std@@V?$allocator@D@2@@std@@QEAA@XZ 0000000140046d1c     button.obj
 0003:00008d38       $ip2state$??1?$basic_string@DU?$char_traits@D@std@@V?$allocator@D@2@@std@@QEAA@XZ 0000000140046d38     button.obj
 0003:00008d40       $unwind$?assign@?$basic_string@DU?$char_traits@D@std@@V?$allocator@D@2@@std@@QEAAAEAV12@QEBD_K@Z 0000000140046d40     button.obj
 0003:00008d54       $unwind$?assign@?$basic_string@DU?$char_traits@D@std@@V?$allocator@D@2@@std@@QEAAAEAV12@QEBD@Z 0000000140046d54     button.obj
 0003:00008d68       $unwind$?max_size@?$basic_string@DU?$char_traits@D@std@@V?$allocator@D@2@@std@@QEBA_KXZ 0000000140046d68     button.obj
 0003:00008d7c       $unwind$?_Calculate_growth@?$basic_string@DU?$char_traits@D@std@@V?$allocator@D@2@@std@@QEBA_K_K@Z 0000000140046d7c     button.obj
 0003:00008d90       $unwind$?_Tidy_init@?$basic_string@DU?$char_traits@D@std@@V?$allocator@D@2@@std@@QEAAXXZ 0000000140046d90     button.obj
 0003:00008da4       $unwind$?_Tidy_deallocate@?$basic_string@DU?$char_traits@D@std@@V?$allocator@D@2@@std@@QEAAXXZ 0000000140046da4     button.obj
 0003:00008db8       $unwind$?_Xlen@?$basic_string@DU?$char_traits@D@std@@V?$allocator@D@2@@std@@SAXXZ 0000000140046db8     button.obj
 0003:00008dcc       $unwind$??$_Maklocstr@_W@std@@YAPEA_WPEBDPEA_WAEBU_Cvtvec@@@Z 0000000140046dcc     button.obj
 0003:00008de0       $unwind$?_Maklocwcs@std@@YAPEA_WPEB_W@Z 0000000140046de0     button.obj
 0003:00008df4       $unwind$?deallocate@?$allocator@_W@std@@QEAAXQEA_W_K@Z 0000000140046df4     button.obj
 0003:00008e08       $unwind$?_Myptr@?$_String_val@U?$_Simple_types@_W@std@@@std@@QEBAPEB_WXZ 0000000140046e08     button.obj
 0003:00008e1c       $unwind$?_Large_string_engaged@?$_String_val@U?$_Simple_types@_W@std@@@std@@QEBA_NXZ 0000000140046e1c     button.obj
 0003:00008e30       $unwind$??1_Bxty@?$_String_val@U?$_Simple_types@_W@std@@@std@@QEAA@XZ 0000000140046e30     button.obj
 0003:00008e44       $unwind$??1?$_String_val@U?$_Simple_types@_W@std@@@std@@QEAA@XZ 0000000140046e44     button.obj
 0003:00008e58       $unwind$??1?$_String_alloc@U?$_String_base_types@_WV?$allocator@_W@std@@@std@@@std@@QEAA@XZ 0000000140046e58     button.obj
 0003:00008e78       $ip2state$??1?$_String_alloc@U?$_String_base_types@_WV?$allocator@_W@std@@@std@@@std@@QEAA@XZ 0000000140046e78     button.obj
 0003:00008e80       $unwind$?_Free_proxy@?$_String_alloc@U?$_String_base_types@_WV?$allocator@_W@std@@@std@@@std@@QEAAXXZ 0000000140046e80     button.obj
 0003:00008e94       $unwind$?_Myproxy@?$_String_alloc@U?$_String_base_types@_WV?$allocator@_W@std@@@std@@@std@@QEAAAEAPEAU_Container_proxy@2@XZ 0000000140046e94     button.obj
 0003:00008ea8       $unwind$?_Orphan_all@?$_String_alloc@U?$_String_base_types@_WV?$allocator@_W@std@@@std@@@std@@QEAAXXZ 0000000140046ea8     button.obj
 0003:00008ebc       $unwind$?_Getal@?$_String_alloc@U?$_String_base_types@_WV?$allocator@_W@std@@@std@@@std@@QEAAAEAV?$allocator@_W@2@XZ 0000000140046ebc     button.obj
 0003:00008ed0       $unwind$?_Get_data@?$_String_alloc@U?$_String_base_types@_WV?$allocator@_W@std@@@std@@@std@@QEAAAEAV?$_String_val@U?$_Simple_types@_W@std@@@2@XZ 0000000140046ed0     button.obj
 0003:00008ee4       $unwind$?_Get_data@?$_String_alloc@U?$_String_base_types@_WV?$allocator@_W@std@@@std@@@std@@QEBAAEBV?$_String_val@U?$_Simple_types@_W@std@@@2@XZ 0000000140046ee4     button.obj
 0003:00008ef8       $unwind$?_Get_first@?$_Compressed_pair@V?$allocator@_W@std@@V?$_String_val@U?$_Simple_types@_W@std@@@2@$00@std@@QEAAAEAV?$allocator@_W@2@XZ 0000000140046ef8     button.obj
 0003:00008f0c       $unwind$?_Get_second@?$_Compressed_pair@V?$allocator@_W@std@@V?$_String_val@U?$_Simple_types@_W@std@@@2@$00@std@@QEAAAEAV?$_String_val@U?$_Simple_types@_W@std@@@2@XZ 0000000140046f0c     button.obj
 0003:00008f20       $unwind$?_Get_second@?$_Compressed_pair@V?$allocator@_W@std@@V?$_String_val@U?$_Simple_types@_W@std@@@2@$00@std@@QEBAAEBV?$_String_val@U?$_Simple_types@_W@std@@@2@XZ 0000000140046f20     button.obj
 0003:00008f34       $unwind$??1?$_Compressed_pair@V?$allocator@_W@std@@V?$_String_val@U?$_Simple_types@_W@std@@@2@$00@std@@QEAA@XZ 0000000140046f34     button.obj
 0003:00008f48       $unwind$??1?$basic_string@_WU?$char_traits@_W@std@@V?$allocator@_W@2@@std@@QEAA@XZ 0000000140046f48     button.obj
 0003:00008f68       $ip2state$??1?$basic_string@_WU?$char_traits@_W@std@@V?$allocator@_W@2@@std@@QEAA@XZ 0000000140046f68     button.obj
 0003:00008f70       $unwind$?c_str@?$basic_string@_WU?$char_traits@_W@std@@V?$allocator@_W@2@@std@@QEBAPEB_WXZ 0000000140046f70     button.obj
 0003:00008f90       $ip2state$?c_str@?$basic_string@_WU?$char_traits@_W@std@@V?$allocator@_W@2@@std@@QEBAPEB_WXZ 0000000140046f90     button.obj
 0003:00008f98       $unwind$?_Tidy_deallocate@?$basic_string@_WU?$char_traits@_W@std@@V?$allocator@_W@2@@std@@QEAAXXZ 0000000140046f98     button.obj
 0003:00008fac       $unwind$??$_Getvals@_W@?$time_get@DV?$istreambuf_iterator@DU?$char_traits@D@std@@@std@@@std@@IEAAX_WAEBV_Locinfo@1@@Z 0000000140046fac     button.obj
 0003:00008fc8       $unwind$??$_Getvals@_W@?$time_get@_WV?$istreambuf_iterator@_WU?$char_traits@_W@std@@@std@@@std@@IEAAX_WAEBV_Locinfo@1@@Z 0000000140046fc8     button.obj
 0003:00008fe4       $unwind$??0?$Vector2@M@sf@@QEAA@MM@Z 0000000140046fe4     button.obj
 0003:00008ff8       $unwind$??0Button@@QEAA@AEBV?$Vector2@M@sf@@0@Z 0000000140046ff8     button.obj
 0003:00009018       $stateUnwindMap$??0Button@@QEAA@AEBV?$Vector2@M@sf@@0@Z 0000000140047018     button.obj
 0003:00009040       $ip2state$??0Button@@QEAA@AEBV?$Vector2@M@sf@@0@Z 0000000140047040     button.obj
 0003:00009080       $unwind$?dtor$0@?0???0Button@@QEAA@AEBV?$Vector2@M@sf@@0@Z@4HA 0000000140047080     button.obj
 0003:00009090       $unwind$?dtor$1@?0???0Button@@QEAA@AEBV?$Vector2@M@sf@@0@Z@4HA 0000000140047090     button.obj
 0003:000090a0       $unwind$?dtor$2@?0???0Button@@QEAA@AEBV?$Vector2@M@sf@@0@Z@4HA 00000001400470a0     button.obj
 0003:000090b0       $unwind$?dtor$3@?0???0Button@@QEAA@AEBV?$Vector2@M@sf@@0@Z@4HA 00000001400470b0     button.obj
 0003:000090c0       $unwind$??1Button@@UEAA@XZ 00000001400470c0     button.obj
 0003:000090d4       $unwind$?SetText@Button@@QEAAXPEB_W@Z 00000001400470d4     button.obj
 0003:000090f4       $stateUnwindMap$?SetText@Button@@QEAAXPEB_W@Z 00000001400470f4     button.obj
 0003:00009100       $ip2state$?SetText@Button@@QEAAXPEB_W@Z 0000000140047100     button.obj
 0003:0000911c       $unwind$?dtor$0@?0??SetText@Button@@QEAAXPEB_W@Z@4HA 000000014004711c     button.obj
 0003:0000912c       $unwind$?GetText@Button@@QEBAPEB_WXZ 000000014004712c     button.obj
 0003:00009148       $unwind$?SetOnClickedListener@Button@@QEAAXV?$function@$$A6AXPEAVButton@@@Z@std@@@Z 0000000140047148     button.obj
 0003:00009164       $stateUnwindMap$?SetOnClickedListener@Button@@QEAAXV?$function@$$A6AXPEAVButton@@@Z@std@@@Z 0000000140047164     button.obj
 0003:00009170       $ip2state$?SetOnClickedListener@Button@@QEAAXV?$function@$$A6AXPEAVButton@@@Z@std@@@Z 0000000140047170     button.obj
 0003:0000918c       $unwind$?dtor$0@?0??SetOnClickedListener@Button@@QEAAXV?$function@$$A6AXPEAVButton@@@Z@std@@@Z@4HA 000000014004718c     button.obj
 0003:0000919c       $unwind$?Draw@Button@@UEAAXPEAVRenderWindow@sf@@@Z 000000014004719c     button.obj
 0003:000091b0       $unwind$?Update@Button@@UEAAXAEBVTime@sf@@@Z 00000001400471b0     button.obj
 0003:000091c4       $unwind$?HandleEvent@Button@@UEAAXAEBVEvent@sf@@@Z 00000001400471c4     button.obj
 0003:000091d8       $unwind$?SetPos@Button@@UEAAXAEBV?$Vector2@M@sf@@@Z 00000001400471d8     button.obj
 0003:000091ec       $unwind$?calculatePosText@Button@@AEAAXXZ 00000001400471ec     button.obj
 0003:00009200       $unwind$??0?$_Func_class@XPEAVButton@@@std@@QEAA@XZ 0000000140047200     button.obj
 0003:00009214       $unwind$??R?$_Func_class@XPEAVButton@@@std@@QEBAXPEAVButton@@@Z 0000000140047214     button.obj
 0003:00009228       $unwind$??1?$_Func_class@XPEAVButton@@@std@@QEAA@XZ 0000000140047228     button.obj
 0003:0000923c       $unwind$?_Empty@?$_Func_class@XPEAVButton@@@std@@IEBA_NXZ 000000014004723c     button.obj
 0003:00009250       $unwind$?_Reset_copy@?$_Func_class@XPEAVButton@@@std@@IEAAXAEBV12@@Z 0000000140047250     button.obj
 0003:00009264       $unwind$?_Reset_move@?$_Func_class@XPEAVButton@@@std@@IEAAX$$QEAV12@@Z 0000000140047264     button.obj
 0003:00009278       $unwind$?_Tidy@?$_Func_class@XPEAVButton@@@std@@IEAAXXZ 0000000140047278     button.obj
 0003:0000928c       $unwind$?_Swap@?$_Func_class@XPEAVButton@@@std@@IEAAXAEAV12@@Z 000000014004728c     button.obj
 0003:000092b0       $ip2state$?_Swap@?$_Func_class@XPEAVButton@@@std@@IEAAXAEAV12@@Z 00000001400472b0     button.obj
 0003:000092b8       $unwind$?_Local@?$_Func_class@XPEAVButton@@@std@@AEBA_NXZ 00000001400472b8     button.obj
 0003:000092cc       $unwind$?_Getimpl@?$_Func_class@XPEAVButton@@@std@@AEBAPEAV?$_Func_base@XPEAVButton@@@2@XZ 00000001400472cc     button.obj
 0003:000092e0       $unwind$?_Set@?$_Func_class@XPEAVButton@@@std@@AEAAXPEAV?$_Func_base@XPEAVButton@@@2@@Z 00000001400472e0     button.obj
 0003:000092f4       $unwind$?_Getspace@?$_Func_class@XPEAVButton@@@std@@AEAAPEAXXZ 00000001400472f4     button.obj
 0003:00009308       $unwind$?_Getspace@?$_Func_class@XPEAVButton@@@std@@AEBAPEBXXZ 0000000140047308     button.obj
 0003:0000931c       $unwind$??0?$function@$$A6AXPEAVButton@@@Z@std@@QEAA@$$T@Z 000000014004731c     button.obj
 0003:00009330       $unwind$??0?$function@$$A6AXPEAVButton@@@Z@std@@QEAA@AEBV01@@Z 0000000140047330     button.obj
 0003:0000934c       $stateUnwindMap$??0?$function@$$A6AXPEAVButton@@@Z@std@@QEAA@AEBV01@@Z 000000014004734c     button.obj
 0003:00009358       $ip2state$??0?$function@$$A6AXPEAVButton@@@Z@std@@QEAA@AEBV01@@Z 0000000140047358     button.obj
 0003:00009374       $unwind$?dtor$0@?0???0?$function@$$A6AXPEAVButton@@@Z@std@@QEAA@AEBV01@@Z@4HA 0000000140047374     button.obj
 0003:00009384       $unwind$??4?$function@$$A6AXPEAVButton@@@Z@std@@QEAAAEAV01@AEBV01@@Z 0000000140047384     button.obj
 0003:000093a0       $unwind$?swap@?$function@$$A6AXPEAVButton@@@Z@std@@QEAAXAEAV12@@Z 00000001400473a0     button.obj
 0003:000093b4       $unwind$??B?$function@$$A6AXPEAVButton@@@Z@std@@QEBA_NXZ 00000001400473b4     button.obj
 0003:000093c8       $unwind$??1?$function@$$A6AXPEAVButton@@@Z@std@@QEAA@XZ 00000001400473c8     button.obj
 0003:000093dc       $unwind$??_GButton@@UEAAPEAXI@Z 00000001400473dc     button.obj
 0003:000093f0       $unwind$??__Efont@@YAXXZ   00000001400473f0     button.obj
 0003:00009404       $unwind$??__Ffont@@YAXXZ   0000000140047404     button.obj
 0003:00009418       $unwind$??$forward@PEAVButton@@@std@@YA$$QEAPEAVButton@@AEAPEAV1@@Z 0000000140047418     button.obj
 0003:0000942c       $unwind$??$_Min_value@_K@std@@YAAEB_KAEB_K0@Z 000000014004742c     button.obj
 0003:00009440       $unwind$??$_Unfancy@D@std@@YAPEADPEAD@Z 0000000140047440     button.obj
 0003:00009454       $unwind$??$_Unfancy@_W@std@@YAPEA_WPEA_W@Z 0000000140047454     button.obj
 0003:00009468       $unwind$??$?0$$V@?$_Compressed_pair@V?$allocator@D@std@@V?$_String_val@U?$_Simple_types@D@std@@@2@$00@std@@QEAA@U_Zero_then_variadic_args_t@1@@Z 0000000140047468     button.obj
 0003:0000947c       $unwind$??$addressof@PEA_W@std@@YAPEAPEA_WAEAPEA_W@Z 000000014004747c     button.obj
 0003:00009490       $unwind$??$destroy@PEA_W@?$_Default_allocator_traits@V?$allocator@_W@std@@@std@@SAXAEAV?$allocator@_W@1@QEAPEA_W@Z 0000000140047490     button.obj
 0003:000094a4       $unwind$??$addressof@PEAD@std@@YAPEAPEADAEAPEAD@Z 00000001400474a4     button.obj
 0003:000094b8       $unwind$??$destroy@PEAD@?$_Default_allocator_traits@V?$allocator@D@std@@@std@@SAXAEAV?$allocator@D@1@QEAPEAD@Z 00000001400474b8     button.obj
 0003:000094cc       $unwind$??$_Max_value@_K@std@@YAAEB_KAEB_K0@Z 00000001400474cc     button.obj
 0003:000094e0       $unwind$??$addressof@V?$_String_val@U?$_Simple_types@D@std@@@std@@@std@@YAPEAV?$_String_val@U?$_Simple_types@D@std@@@0@AEAV10@@Z 00000001400474e0     button.obj
 0003:000094f4       $unwind$??R<lambda_66f57f934f28d61049862f64df852ff0>@@QEBAXQEAD_KQEBD@Z 00000001400474f4     button.obj
 0003:00009508       $unwind$??$_Reallocate_for@V<lambda_66f57f934f28d61049862f64df852ff0>@@PEBD@?$basic_string@DU?$char_traits@D@std@@V?$allocator@D@2@@std@@QEAAAEAV01@_KV<lambda_66f57f934f28d61049862f64df852ff0>@@PEBD@Z 0000000140047508     button.obj
 0003:0000951c       $unwind$??$construct@PEADAEBQEAD@?$_Default_allocator_traits@V?$allocator@D@std@@@std@@SAXAEAV?$allocator@D@1@QEAPEADAEBQEAD@Z 000000014004751c     button.obj
 0003:00009530       $unwind$??$_Allocate@$0BA@U_Default_allocate_traits@std@@$0A@@std@@YAPEAX_K@Z 0000000140047530     button.obj
 0003:00009544       $unwind$??$_Deallocate@$0BA@$0A@@std@@YAXPEAX_K@Z 0000000140047544     button.obj
 0003:00009558       $unwind$??$move@AEAV?$_Func_class@XPEAVButton@@@std@@@std@@YA$$QEAV?$_Func_class@XPEAVButton@@@0@AEAV10@@Z 0000000140047558     button.obj
 0003:0000956c       $unwind$?allocate@?$allocator@U_Container_proxy@std@@@std@@QEAAPEAU_Container_proxy@2@_K@Z 000000014004756c     button.obj
 0003:00009580       $unwind$?deallocate@?$_Default_allocator_traits@V?$allocator@U_Container_proxy@std@@@std@@@std@@SAXAEAV?$allocator@U_Container_proxy@std@@@2@QEAU_Container_proxy@2@_K@Z 0000000140047580     button.obj
 0003:00009594       $unwind$??$destroy@U_Container_proxy@std@@@?$_Default_allocator_traits@V?$allocator@U_Container_proxy@std@@@std@@@std@@SAXAEAV?$allocator@U_Container_proxy@std@@@1@QEAU_Container_proxy@1@@Z 0000000140047594     button.obj
 0003:000095a8       $unwind$??$_Deallocate_plain@V?$allocator@U_Container_proxy@std@@@std@@$0A@@std@@YAXAEAV?$allocator@U_Container_proxy@std@@@0@QEAU_Container_proxy@0@@Z 00000001400475a8     button.obj
 0003:000095bc       $unwind$??$_Unfancy@U_Container_proxy@std@@@std@@YAPEAU_Container_proxy@0@PEAU10@@Z 00000001400475bc     button.obj
 0003:000095d0       $unwind$??$construct@U_Container_proxy@std@@U12@@?$_Default_allocator_traits@V?$allocator@U_Container_proxy@std@@@std@@@std@@SAXAEAV?$allocator@U_Container_proxy@std@@@1@QEAU_Container_proxy@1@$$QEAU31@@Z 00000001400475d0     button.obj
 0003:000095e4       $unwind$??$?0_W@?$allocator@U_Container_proxy@std@@@std@@QEAA@AEBV?$allocator@_W@1@@Z 00000001400475e4     button.obj
 0003:000095f8       $unwind$??$?0D@?$allocator@U_Container_proxy@std@@@std@@QEAA@AEBV?$allocator@D@1@@Z 00000001400475f8     button.obj
 0003:0000960c       $unwind$??$_Get_size_of_n@$0BA@@std@@YA_K_K@Z 000000014004760c     button.obj
 0003:00009620       $unwind$??$_Maklocstr@D@std@@YAPEADPEBDPEADAEBU_Cvtvec@@@Z 0000000140047620     button.obj
 0003:00009634       $unwind$??$forward@AEBQEAD@std@@YAAEBQEADAEBQEAD@Z 0000000140047634     button.obj
 0003:00009648       $unwind$??$_Allocate_manually_vector_aligned@U_Default_allocate_traits@std@@@std@@YAPEAX_K@Z 0000000140047648     button.obj
 0003:0000965c       $unwind$??$forward@U_Container_proxy@std@@@std@@YA$$QEAU_Container_proxy@0@AEAU10@@Z 000000014004765c     button.obj
 0003:00009670       $unwind$__local_stdio_printf_options 0000000140047670     config.obj
 0003:00009684       $unwind$_vfprintf_l        0000000140047684     config.obj
 0003:00009698       $unwind$printf             0000000140047698     config.obj
 0003:000096ac       $unwind$?_Swap_all@_Container_base12@std@@QEAAXAEAU12@@Z 00000001400476ac     config.obj
 0003:000096c8       $ip2state$?_Swap_all@_Container_base12@std@@QEAAXAEAU12@@Z 00000001400476c8     config.obj
 0003:000096d0       $unwind$??0_Iterator_base12@std@@QEAA@XZ 00000001400476d0     config.obj
 0003:000096e4       $unwind$??0_Iterator_base12@std@@QEAA@AEBU01@@Z 00000001400476e4     config.obj
 0003:000096f8       $unwind$??4_Iterator_base12@std@@QEAAAEAU01@AEBU01@@Z 00000001400476f8     config.obj
 0003:00009718       $ip2state$??4_Iterator_base12@std@@QEAAAEAU01@AEBU01@@Z 0000000140047718     config.obj
 0003:00009720       $unwind$??1_Iterator_base12@std@@QEAA@XZ 0000000140047720     config.obj
 0003:00009740       $ip2state$??1_Iterator_base12@std@@QEAA@XZ 0000000140047740     config.obj
 0003:00009748       $unwind$?_Adopt@_Iterator_base12@std@@QEAAXPEBU_Container_base12@2@@Z 0000000140047748     config.obj
 0003:00009768       $ip2state$?_Adopt@_Iterator_base12@std@@QEAAXPEBU_Container_base12@2@@Z 0000000140047768     config.obj
 0003:00009770       $unwind$?_Getcont@_Iterator_base12@std@@QEBAPEBU_Container_base12@2@XZ 0000000140047770     config.obj
 0003:00009784       $unwind$?_Orphan_me@_Iterator_base12@std@@QEAAXXZ 0000000140047784     config.obj
 0003:000097a0       $ip2state$?_Orphan_me@_Iterator_base12@std@@QEAAXXZ 00000001400477a0     config.obj
 0003:000097a8       $unwind$??0?$tuple@$$V@std@@QEAA@XZ 00000001400477a8     config.obj
 0003:000097bc       $unwind$??0?$tuple@$$V@std@@QEAA@AEBV01@@Z 00000001400477bc     config.obj
 0003:000097d0       $unwind$?_Myptr@?$_String_val@U?$_Simple_types@D@std@@@std@@QEBAPEBDXZ 00000001400477d0     config.obj
 0003:000097e4       $unwind$?_Check_offset@?$_String_val@U?$_Simple_types@D@std@@@std@@QEBAX_K@Z 00000001400477e4     config.obj
 0003:000097f8       $unwind$?_Xran@?$_String_val@U?$_Simple_types@D@std@@@std@@SAXXZ 00000001400477f8     config.obj
 0003:0000980c       $unwind$?_Clamp_suffix_size@?$_String_val@U?$_Simple_types@D@std@@@std@@QEBA_K_K0@Z 000000014004780c     config.obj
 0003:00009820       $unwind$?_Move_alloc@?$_String_alloc@U?$_String_base_types@DV?$allocator@D@std@@@std@@@std@@QEAAXAEAV?$allocator@D@2@@Z 0000000140047820     config.obj
 0003:00009834       $unwind$?_Swap_all@?$_String_alloc@U?$_String_base_types@DV?$allocator@D@std@@@std@@@std@@QEAAXAEAV12@@Z 0000000140047834     config.obj
 0003:00009848       $unwind$??0?$basic_string@DU?$char_traits@D@std@@V?$allocator@D@2@@std@@QEAA@AEBV01@_K1AEBV?$allocator@D@1@@Z 0000000140047848     config.obj
 0003:00009864       $stateUnwindMap$??0?$basic_string@DU?$char_traits@D@std@@V?$allocator@D@2@@std@@QEAA@AEBV01@_K1AEBV?$allocator@D@1@@Z 0000000140047864     config.obj
 0003:00009870       $ip2state$??0?$basic_string@DU?$char_traits@D@std@@V?$allocator@D@2@@std@@QEAA@AEBV01@_K1AEBV?$allocator@D@1@@Z 0000000140047870     config.obj
 0003:0000988c       $unwind$?dtor$0@?0???0?$basic_string@DU?$char_traits@D@std@@V?$allocator@D@2@@std@@QEAA@AEBV01@_K1AEBV?$allocator@D@1@@Z@4HA 000000014004788c     config.obj
 0003:0000989c       $unwind$??4?$basic_string@DU?$char_traits@D@std@@V?$allocator@D@2@@std@@QEAAAEAV01@$$QEAV01@@Z 000000014004789c     config.obj
 0003:000098b8       $ip2state$??4?$basic_string@DU?$char_traits@D@std@@V?$allocator@D@2@@std@@QEAAAEAV01@$$QEAV01@@Z 00000001400478b8     config.obj
 0003:000098c0       $unwind$?_Assign_rv_contents@?$basic_string@DU?$char_traits@D@std@@V?$allocator@D@2@@std@@QEAAX$$QEAV12@U?$integral_constant@_N$00@2@@Z 00000001400478c0     config.obj
 0003:000098d4       $unwind$?_Assign_rv_contents_with_alloc_always_equal@?$basic_string@DU?$char_traits@D@std@@V?$allocator@D@2@@std@@QEAAX$$QEAV12@U?$integral_constant@_N$00@2@@Z 00000001400478d4     config.obj
 0003:000098f0       $ip2state$?_Assign_rv_contents_with_alloc_always_equal@?$basic_string@DU?$char_traits@D@std@@V?$allocator@D@2@@std@@QEAAX$$QEAV12@U?$integral_constant@_N$00@2@@Z 00000001400478f0     config.obj
 0003:000098f8       $unwind$?assign@?$basic_string@DU?$char_traits@D@std@@V?$allocator@D@2@@std@@QEAAAEAV12@AEBV12@_K_K@Z 00000001400478f8     config.obj
 0003:0000990c       $unwind$?c_str@?$basic_string@DU?$char_traits@D@std@@V?$allocator@D@2@@std@@QEBAPEBDXZ 000000014004790c     config.obj
 0003:00009928       $ip2state$?c_str@?$basic_string@DU?$char_traits@D@std@@V?$allocator@D@2@@std@@QEBAPEBDXZ 0000000140047928     config.obj
 0003:00009930       $unwind$?stoi@std@@YAHAEBV?$basic_string@DU?$char_traits@D@std@@V?$allocator@D@2@@1@PEA_KH@Z 0000000140047930     config.obj
 0003:00009944       $unwind$?stof@std@@YAMAEBV?$basic_string@DU?$char_traits@D@std@@V?$allocator@D@2@@1@PEA_K@Z 0000000140047944     config.obj
 0003:00009958       $unwind$?Is_Comment_Line@Config_Parser@@YA_NPEBD@Z 0000000140047958     config.obj
 0003:0000996c       $unwind$?Read@Config_Parser@@YAPEBDPEBDAEAV?$basic_string@DU?$char_traits@D@std@@V?$allocator@D@2@@std@@@Z 000000014004796c     config.obj
 0003:0000998c       $stateUnwindMap$?Read@Config_Parser@@YAPEBDPEBDAEAV?$basic_string@DU?$char_traits@D@std@@V?$allocator@D@2@@std@@@Z 000000014004798c     config.obj
 0003:00009998       $ip2state$?Read@Config_Parser@@YAPEBDPEBDAEAV?$basic_string@DU?$char_traits@D@std@@V?$allocator@D@2@@std@@@Z 0000000140047998     config.obj
 0003:000099b4       $unwind$?dtor$0@?0??Read@Config_Parser@@YAPEBDPEBDAEAV?$basic_string@DU?$char_traits@D@std@@V?$allocator@D@2@@std@@@Z@4HA 00000001400479b4     config.obj
 0003:000099c4       $unwind$?Read@Config_Parser@@YAPEBDPEBDAEAH@Z 00000001400479c4     config.obj
 0003:000099e4       $stateUnwindMap$?Read@Config_Parser@@YAPEBDPEBDAEAH@Z 00000001400479e4     config.obj
 0003:000099f8       $ip2state$?Read@Config_Parser@@YAPEBDPEBDAEAH@Z 00000001400479f8     config.obj
 0003:00009a24       $unwind$?dtor$0@?0??Read@Config_Parser@@YAPEBDPEBDAEAH@Z@4HA 0000000140047a24     config.obj
 0003:00009a34       $unwind$?dtor$1@?0??Read@Config_Parser@@YAPEBDPEBDAEAH@Z@4HA 0000000140047a34     config.obj
 0003:00009a44       $unwind$?Read@Config_Parser@@YAPEBDPEBDAEAM@Z 0000000140047a44     config.obj
 0003:00009a64       $stateUnwindMap$?Read@Config_Parser@@YAPEBDPEBDAEAM@Z 0000000140047a64     config.obj
 0003:00009a78       $ip2state$?Read@Config_Parser@@YAPEBDPEBDAEAM@Z 0000000140047a78     config.obj
 0003:00009aa4       $unwind$?dtor$0@?0??Read@Config_Parser@@YAPEBDPEBDAEAM@Z@4HA 0000000140047aa4     config.obj
 0003:00009ab4       $unwind$?dtor$1@?0??Read@Config_Parser@@YAPEBDPEBDAEAM@Z@4HA 0000000140047ab4     config.obj
 0003:00009ac4       $unwind$?Load@ConfigManager@@QEAA_NPEBD@Z 0000000140047ac4     config.obj
 0003:00009ae0       $unwind$?Create_Object@ConfigManager@@QEBAPEAVGameObject@@W4Object_Type@@@Z 0000000140047ae0     config.obj
 0003:00009afc       $stateUnwindMap$?Create_Object@ConfigManager@@QEBAPEAVGameObject@@W4Object_Type@@@Z 0000000140047afc     config.obj
 0003:00009b10       $ip2state$?Create_Object@ConfigManager@@QEBAPEAVGameObject@@W4Object_Type@@@Z 0000000140047b10     config.obj
 0003:00009b50       $unwind$?dtor$0@?0??Create_Object@ConfigManager@@QEBAPEAVGameObject@@W4Object_Type@@@Z@4HA 0000000140047b50     config.obj
 0003:00009b60       $unwind$?dtor$1@?0??Create_Object@ConfigManager@@QEBAPEAVGameObject@@W4Object_Type@@@Z@4HA 0000000140047b60     config.obj
 0003:00009b70       $unwind$?Read_Line@ConfigManager@@AEBA_KPEAU_iobuf@@PEAD_K@Z 0000000140047b70     config.obj
 0003:00009b84       $unwind$?deallocate@?$allocator@U?$_Tree_node@U?$pair@$$CBW4Object_Type@@PEBVGameObject@@@std@@PEAX@std@@@std@@QEAAXQEAU?$_Tree_node@U?$pair@$$CBW4Object_Type@@PEBVGameObject@@@std@@PEAX@2@_K@Z 0000000140047b84     config.obj
 0003:00009b98       $unwind$?allocate@?$allocator@U?$_Tree_node@U?$pair@$$CBW4Object_Type@@PEBVGameObject@@@std@@PEAX@std@@@std@@QEAAPEAU?$_Tree_node@U?$pair@$$CBW4Object_Type@@PEBVGameObject@@@std@@PEAX@2@_K@Z 0000000140047b98     config.obj
 0003:00009bac       $unwind$?deallocate@?$_Default_allocator_traits@V?$allocator@U?$_Tree_node@U?$pair@$$CBW4Object_Type@@PEBVGameObject@@@std@@PEAX@std@@@std@@@std@@SAXAEAV?$allocator@U?$_Tree_node@U?$pair@$$CBW4Object_Type@@PEBVGameObject@@@std@@PEAX@std@@@2@QEAU?$_Tree_node@U?$pair@$$CBW4Object_Type@@PEBVGameObject@@@std@@PEAX@2@_K@Z 0000000140047bac     config.obj
 0003:00009bc0       $unwind$?max_size@?$_Default_allocator_traits@V?$allocator@U?$_Tree_node@U?$pair@$$CBW4Object_Type@@PEBVGameObject@@@std@@PEAX@std@@@std@@@std@@SA_KAEBV?$allocator@U?$_Tree_node@U?$pair@$$CBW4Object_Type@@PEBVGameObject@@@std@@PEAX@std@@@2@@Z 0000000140047bc0     config.obj
 0003:00009bd4       $unwind$?_Buynode0@?$_Tree_comp_alloc@V?$_Tmap_traits@W4Object_Type@@PEBVGameObject@@U?$less@W4Object_Type@@@std@@V?$allocator@U?$pair@$$CBW4Object_Type@@PEBVGameObject@@@std@@@4@$0A@@std@@@std@@QEAAPEAU?$_Tree_node@U?$pair@$$CBW4Object_Type@@PEBVGameObject@@@std@@PEAX@2@XZ 0000000140047bd4     config.obj
 0003:00009bf0       $stateUnwindMap$?_Buynode0@?$_Tree_comp_alloc@V?$_Tmap_traits@W4Object_Type@@PEBVGameObject@@U?$less@W4Object_Type@@@std@@V?$allocator@U?$pair@$$CBW4Object_Type@@PEBVGameObject@@@std@@@4@$0A@@std@@@std@@QEAAPEAU?$_Tree_node@U?$pair@$$CBW4Object_Type@@PEBVGameObject@@@std@@PEAX@2@XZ 0000000140047bf0     config.obj
 0003:00009c04       $tryMap$?_Buynode0@?$_Tree_comp_alloc@V?$_Tmap_traits@W4Object_Type@@PEBVGameObject@@U?$less@W4Object_Type@@@std@@V?$allocator@U?$pair@$$CBW4Object_Type@@PEBVGameObject@@@std@@@4@$0A@@std@@@std@@QEAAPEAU?$_Tree_node@U?$pair@$$CBW4Object_Type@@PEBVGameObject@@@std@@PEAX@2@XZ 0000000140047c04     config.obj
 0003:00009c1c       $handlerMap$0$?_Buynode0@?$_Tree_comp_alloc@V?$_Tmap_traits@W4Object_Type@@PEBVGameObject@@U?$less@W4Object_Type@@@std@@V?$allocator@U?$pair@$$CBW4Object_Type@@PEBVGameObject@@@std@@@4@$0A@@std@@@std@@QEAAPEAU?$_Tree_node@U?$pair@$$CBW4Object_Type@@PEBVGameObject@@@std@@PEAX@2@XZ 0000000140047c1c     config.obj
 0003:00009c38       $ip2state$?_Buynode0@?$_Tree_comp_alloc@V?$_Tmap_traits@W4Object_Type@@PEBVGameObject@@U?$less@W4Object_Type@@@std@@V?$allocator@U?$pair@$$CBW4Object_Type@@PEBVGameObject@@@std@@@4@$0A@@std@@@std@@QEAAPEAU?$_Tree_node@U?$pair@$$CBW4Object_Type@@PEBVGameObject@@@std@@PEAX@2@XZ 0000000140047c38     config.obj
 0003:00009c6c       $unwind$?catch$0@?0??_Buynode0@?$_Tree_comp_alloc@V?$_Tmap_traits@W4Object_Type@@PEBVGameObject@@U?$less@W4Object_Type@@@std@@V?$allocator@U?$pair@$$CBW4Object_Type@@PEBVGameObject@@@std@@@4@$0A@@std@@@std@@QEAAPEAU?$_Tree_node@U?$pair@$$CBW4Object_Type@@PEBVGameObject@@@std@@PEAX@2@XZ@4HA 0000000140047c6c     config.obj
 0003:00009c84       $unwind$?_Freenode0@?$_Tree_comp_alloc@V?$_Tmap_traits@W4Object_Type@@PEBVGameObject@@U?$less@W4Object_Type@@@std@@V?$allocator@U?$pair@$$CBW4Object_Type@@PEBVGameObject@@@std@@@4@$0A@@std@@@std@@QEAAXPEAU?$_Tree_node@U?$pair@$$CBW4Object_Type@@PEBVGameObject@@@std@@PEAX@2@@Z 0000000140047c84     config.obj
 0003:00009c98       $unwind$?_Getcomp@?$_Tree_comp_alloc@V?$_Tmap_traits@W4Object_Type@@PEBVGameObject@@U?$less@W4Object_Type@@@std@@V?$allocator@U?$pair@$$CBW4Object_Type@@PEBVGameObject@@@std@@@4@$0A@@std@@@std@@QEAAAEAU?$less@W4Object_Type@@@2@XZ 0000000140047c98     config.obj
 0003:00009cac       $unwind$?_Getcomp@?$_Tree_comp_alloc@V?$_Tmap_traits@W4Object_Type@@PEBVGameObject@@U?$less@W4Object_Type@@@std@@V?$allocator@U?$pair@$$CBW4Object_Type@@PEBVGameObject@@@std@@@4@$0A@@std@@@std@@QEBAAEBU?$less@W4Object_Type@@@2@XZ 0000000140047cac     config.obj
 0003:00009cc0       $unwind$?_Getal@?$_Tree_comp_alloc@V?$_Tmap_traits@W4Object_Type@@PEBVGameObject@@U?$less@W4Object_Type@@@std@@V?$allocator@U?$pair@$$CBW4Object_Type@@PEBVGameObject@@@std@@@4@$0A@@std@@@std@@QEAAAEAV?$allocator@U?$_Tree_node@U?$pair@$$CBW4Object_Type@@PEBVGameObject@@@std@@PEAX@std@@@2@XZ 0000000140047cc0     config.obj
 0003:00009cd4       $unwind$?_Getal@?$_Tree_comp_alloc@V?$_Tmap_traits@W4Object_Type@@PEBVGameObject@@U?$less@W4Object_Type@@@std@@V?$allocator@U?$pair@$$CBW4Object_Type@@PEBVGameObject@@@std@@@4@$0A@@std@@@std@@QEBAAEBV?$allocator@U?$_Tree_node@U?$pair@$$CBW4Object_Type@@PEBVGameObject@@@std@@PEAX@std@@@2@XZ 0000000140047cd4     config.obj
 0003:00009ce8       $unwind$?_Get_data@?$_Tree_comp_alloc@V?$_Tmap_traits@W4Object_Type@@PEBVGameObject@@U?$less@W4Object_Type@@@std@@V?$allocator@U?$pair@$$CBW4Object_Type@@PEBVGameObject@@@std@@@4@$0A@@std@@@std@@QEAAAEAV?$_Tree_val@U?$_Tree_simple_types@U?$pair@$$CBW4Object_Type@@PEBVGameObject@@@std@@@std@@@2@XZ 0000000140047ce8     config.obj
 0003:00009cfc       $unwind$?_Get_data@?$_Tree_comp_alloc@V?$_Tmap_traits@W4Object_Type@@PEBVGameObject@@U?$less@W4Object_Type@@@std@@V?$allocator@U?$pair@$$CBW4Object_Type@@PEBVGameObject@@@std@@@4@$0A@@std@@@std@@QEBAAEBV?$_Tree_val@U?$_Tree_simple_types@U?$pair@$$CBW4Object_Type@@PEBVGameObject@@@std@@@std@@@2@XZ 0000000140047cfc     config.obj
 0003:00009d10       $unwind$??R?$less@W4Object_Type@@@std@@QEBA_NAEBW4Object_Type@@0@Z 0000000140047d10     config.obj
 0003:00009d24       $unwind$?_Max@?$_Tree_val@U?$_Tree_simple_types@U?$pair@$$CBW4Object_Type@@PEBVGameObject@@@std@@@std@@@std@@SAPEAU?$_Tree_node@U?$pair@$$CBW4Object_Type@@PEBVGameObject@@@std@@PEAX@2@PEAU32@@Z 0000000140047d24     config.obj
 0003:00009d38       $unwind$?_Min@?$_Tree_val@U?$_Tree_simple_types@U?$pair@$$CBW4Object_Type@@PEBVGameObject@@@std@@@std@@@std@@SAPEAU?$_Tree_node@U?$pair@$$CBW4Object_Type@@PEBVGameObject@@@std@@PEAX@2@PEAU32@@Z 0000000140047d38     config.obj
 0003:00009d4c       $unwind$?_Root@?$_Tree_val@U?$_Tree_simple_types@U?$pair@$$CBW4Object_Type@@PEBVGameObject@@@std@@@std@@@std@@QEBAAEAPEAU?$_Tree_node@U?$pair@$$CBW4Object_Type@@PEBVGameObject@@@std@@PEAX@2@XZ 0000000140047d4c     config.obj
 0003:00009d60       $unwind$?_Lmost@?$_Tree_val@U?$_Tree_simple_types@U?$pair@$$CBW4Object_Type@@PEBVGameObject@@@std@@@std@@@std@@QEBAAEAPEAU?$_Tree_node@U?$pair@$$CBW4Object_Type@@PEBVGameObject@@@std@@PEAX@2@XZ 0000000140047d60     config.obj
 0003:00009d74       $unwind$?_Rmost@?$_Tree_val@U?$_Tree_simple_types@U?$pair@$$CBW4Object_Type@@PEBVGameObject@@@std@@@std@@@std@@QEBAAEAPEAU?$_Tree_node@U?$pair@$$CBW4Object_Type@@PEBVGameObject@@@std@@PEAX@2@XZ 0000000140047d74     config.obj
 0003:00009d88       $unwind$?_Lrotate@?$_Tree_val@U?$_Tree_simple_types@U?$pair@$$CBW4Object_Type@@PEBVGameObject@@@std@@@std@@@std@@QEAAXPEAU?$_Tree_node@U?$pair@$$CBW4Object_Type@@PEBVGameObject@@@std@@PEAX@2@@Z 0000000140047d88     config.obj
 0003:00009d9c       $unwind$?_Rrotate@?$_Tree_val@U?$_Tree_simple_types@U?$pair@$$CBW4Object_Type@@PEBVGameObject@@@std@@@std@@@std@@QEAAXPEAU?$_Tree_node@U?$pair@$$CBW4Object_Type@@PEBVGameObject@@@std@@PEAX@2@@Z 0000000140047d9c     config.obj
 0003:00009db0       $unwind$?_Get_first@?$_Compressed_pair@V?$allocator@U?$_Tree_node@U?$pair@$$CBW4Object_Type@@PEBVGameObject@@@std@@PEAX@std@@@std@@V?$_Tree_val@U?$_Tree_simple_types@U?$pair@$$CBW4Object_Type@@PEBVGameObject@@@std@@@std@@@2@$00@std@@QEAAAEAV?$allocator@U?$_Tree_node@U?$pair@$$CBW4Object_Type@@PEBVGameObject@@@std@@PEAX@std@@@2@XZ 0000000140047db0     config.obj
 0003:00009dc4       $unwind$?_Get_first@?$_Compressed_pair@V?$allocator@U?$_Tree_node@U?$pair@$$CBW4Object_Type@@PEBVGameObject@@@std@@PEAX@std@@@std@@V?$_Tree_val@U?$_Tree_simple_types@U?$pair@$$CBW4Object_Type@@PEBVGameObject@@@std@@@std@@@2@$00@std@@QEBAAEBV?$allocator@U?$_Tree_node@U?$pair@$$CBW4Object_Type@@PEBVGameObject@@@std@@PEAX@std@@@2@XZ 0000000140047dc4     config.obj
 0003:00009dd8       $unwind$?_Get_second@?$_Compressed_pair@V?$allocator@U?$_Tree_node@U?$pair@$$CBW4Object_Type@@PEBVGameObject@@@std@@PEAX@std@@@std@@V?$_Tree_val@U?$_Tree_simple_types@U?$pair@$$CBW4Object_Type@@PEBVGameObject@@@std@@@std@@@2@$00@std@@QEAAAEAV?$_Tree_val@U?$_Tree_simple_types@U?$pair@$$CBW4Object_Type@@PEBVGameObject@@@std@@@std@@@2@XZ 0000000140047dd8     config.obj
 0003:00009dec       $unwind$?_Get_second@?$_Compressed_pair@V?$allocator@U?$_Tree_node@U?$pair@$$CBW4Object_Type@@PEBVGameObject@@@std@@PEAX@std@@@std@@V?$_Tree_val@U?$_Tree_simple_types@U?$pair@$$CBW4Object_Type@@PEBVGameObject@@@std@@@std@@@2@$00@std@@QEBAAEBV?$_Tree_val@U?$_Tree_simple_types@U?$pair@$$CBW4Object_Type@@PEBVGameObject@@@std@@@std@@@2@XZ 0000000140047dec     config.obj
 0003:00009e00       $unwind$?_Get_first@?$_Compressed_pair@U?$less@W4Object_Type@@@std@@V?$_Compressed_pair@V?$allocator@U?$_Tree_node@U?$pair@$$CBW4Object_Type@@PEBVGameObject@@@std@@PEAX@std@@@std@@V?$_Tree_val@U?$_Tree_simple_types@U?$pair@$$CBW4Object_Type@@PEBVGameObject@@@std@@@std@@@2@$00@2@$00@std@@QEAAAEAU?$less@W4Object_Type@@@2@XZ 0000000140047e00     config.obj
 0003:00009e14       $unwind$?_Get_first@?$_Compressed_pair@U?$less@W4Object_Type@@@std@@V?$_Compressed_pair@V?$allocator@U?$_Tree_node@U?$pair@$$CBW4Object_Type@@PEBVGameObject@@@std@@PEAX@std@@@std@@V?$_Tree_val@U?$_Tree_simple_types@U?$pair@$$CBW4Object_Type@@PEBVGameObject@@@std@@@std@@@2@$00@2@$00@std@@QEBAAEBU?$less@W4Object_Type@@@2@XZ 0000000140047e14     config.obj
 0003:00009e28       $unwind$?_Get_second@?$_Compressed_pair@U?$less@W4Object_Type@@@std@@V?$_Compressed_pair@V?$allocator@U?$_Tree_node@U?$pair@$$CBW4Object_Type@@PEBVGameObject@@@std@@PEAX@std@@@std@@V?$_Tree_val@U?$_Tree_simple_types@U?$pair@$$CBW4Object_Type@@PEBVGameObject@@@std@@@std@@@2@$00@2@$00@std@@QEAAAEAV?$_Compressed_pair@V?$allocator@U?$_Tree_node@U?$pair@$$CBW4Object_Type@@PEBVGameObject@@@std@@PEAX@std@@@std@@V?$_Tree_val@U?$_Tree_simple_types@U?$pair@$$CBW4Object_Type@@PEBVGameObject@@@std@@@std@@@2@$00@2@XZ 0000000140047e28     config.obj
 0003:00009e3c       $unwind$?_Get_second@?$_Compressed_pair@U?$less@W4Object_Type@@@std@@V?$_Compressed_pair@V?$allocator@U?$_Tree_node@U?$pair@$$CBW4Object_Type@@PEBVGameObject@@@std@@PEAX@std@@@std@@V?$_Tree_val@U?$_Tree_simple_types@U?$pair@$$CBW4Object_Type@@PEBVGameObject@@@std@@@std@@@2@$00@2@$00@std@@QEBAAEBV?$_Compressed_pair@V?$allocator@U?$_Tree_node@U?$pair@$$CBW4Object_Type@@PEBVGameObject@@@std@@PEAX@std@@@std@@V?$_Tree_val@U?$_Tree_simple_types@U?$pair@$$CBW4Object_Type@@PEBVGameObject@@@std@@@std@@@2@$00@2@XZ 0000000140047e3c     config.obj
 0003:00009e50       $unwind$?begin@?$_Tree@V?$_Tmap_traits@W4Object_Type@@PEBVGameObject@@U?$less@W4Object_Type@@@std@@V?$allocator@U?$pair@$$CBW4Object_Type@@PEBVGameObject@@@std@@@4@$0A@@std@@@std@@QEAA?AV?$_Tree_iterator@V?$_Tree_val@U?$_Tree_simple_types@U?$pair@$$CBW4Object_Type@@PEBVGameObject@@@std@@@std@@@std@@@2@XZ 0000000140047e50     config.obj
 0003:00009e70       $ip2state$?begin@?$_Tree@V?$_Tmap_traits@W4Object_Type@@PEBVGameObject@@U?$less@W4Object_Type@@@std@@V?$allocator@U?$pair@$$CBW4Object_Type@@PEBVGameObject@@@std@@@4@$0A@@std@@@std@@QEAA?AV?$_Tree_iterator@V?$_Tree_val@U?$_Tree_simple_types@U?$pair@$$CBW4Object_Type@@PEBVGameObject@@@std@@@std@@@std@@@2@XZ 0000000140047e70     config.obj
 0003:00009e78       $unwind$?end@?$_Tree@V?$_Tmap_traits@W4Object_Type@@PEBVGameObject@@U?$less@W4Object_Type@@@std@@V?$allocator@U?$pair@$$CBW4Object_Type@@PEBVGameObject@@@std@@@4@$0A@@std@@@std@@QEAA?AV?$_Tree_iterator@V?$_Tree_val@U?$_Tree_simple_types@U?$pair@$$CBW4Object_Type@@PEBVGameObject@@@std@@@std@@@std@@@2@XZ 0000000140047e78     config.obj
 0003:00009e98       $ip2state$?end@?$_Tree@V?$_Tmap_traits@W4Object_Type@@PEBVGameObject@@U?$less@W4Object_Type@@@std@@V?$allocator@U?$pair@$$CBW4Object_Type@@PEBVGameObject@@@std@@@4@$0A@@std@@@std@@QEAA?AV?$_Tree_iterator@V?$_Tree_val@U?$_Tree_simple_types@U?$pair@$$CBW4Object_Type@@PEBVGameObject@@@std@@@std@@@std@@@2@XZ 0000000140047e98     config.obj
 0003:00009ea0       $unwind$?end@?$_Tree@V?$_Tmap_traits@W4Object_Type@@PEBVGameObject@@U?$less@W4Object_Type@@@std@@V?$allocator@U?$pair@$$CBW4Object_Type@@PEBVGameObject@@@std@@@4@$0A@@std@@@std@@QEBA?AV?$_Tree_const_iterator@V?$_Tree_val@U?$_Tree_simple_types@U?$pair@$$CBW4Object_Type@@PEBVGameObject@@@std@@@std@@@std@@@2@XZ 0000000140047ea0     config.obj
 0003:00009ec0       $ip2state$?end@?$_Tree@V?$_Tmap_traits@W4Object_Type@@PEBVGameObject@@U?$less@W4Object_Type@@@std@@V?$allocator@U?$pair@$$CBW4Object_Type@@PEBVGameObject@@@std@@@4@$0A@@std@@@std@@QEBA?AV?$_Tree_const_iterator@V?$_Tree_val@U?$_Tree_simple_types@U?$pair@$$CBW4Object_Type@@PEBVGameObject@@@std@@@std@@@std@@@2@XZ 0000000140047ec0     config.obj
 0003:00009ec8       $unwind$?size@?$_Tree@V?$_Tmap_traits@W4Object_Type@@PEBVGameObject@@U?$less@W4Object_Type@@@std@@V?$allocator@U?$pair@$$CBW4Object_Type@@PEBVGameObject@@@std@@@4@$0A@@std@@@std@@QEBA_KXZ 0000000140047ec8     config.obj
 0003:00009edc       $unwind$?max_size@?$_Tree@V?$_Tmap_traits@W4Object_Type@@PEBVGameObject@@U?$less@W4Object_Type@@@std@@V?$allocator@U?$pair@$$CBW4Object_Type@@PEBVGameObject@@@std@@@4@$0A@@std@@@std@@QEBA_KXZ 0000000140047edc     config.obj
 0003:00009ef0       $unwind$?find@?$_Tree@V?$_Tmap_traits@W4Object_Type@@PEBVGameObject@@U?$less@W4Object_Type@@@std@@V?$allocator@U?$pair@$$CBW4Object_Type@@PEBVGameObject@@@std@@@4@$0A@@std@@@std@@QEBA?AV?$_Tree_const_iterator@V?$_Tree_val@U?$_Tree_simple_types@U?$pair@$$CBW4Object_Type@@PEBVGameObject@@@std@@@std@@@std@@@2@AEBW4Object_Type@@@Z 0000000140047ef0     config.obj
 0003:00009f0c       $stateUnwindMap$?find@?$_Tree@V?$_Tmap_traits@W4Object_Type@@PEBVGameObject@@U?$less@W4Object_Type@@@std@@V?$allocator@U?$pair@$$CBW4Object_Type@@PEBVGameObject@@@std@@@4@$0A@@std@@@std@@QEBA?AV?$_Tree_const_iterator@V?$_Tree_val@U?$_Tree_simple_types@U?$pair@$$CBW4Object_Type@@PEBVGameObject@@@std@@@std@@@std@@@2@AEBW4Object_Type@@@Z 0000000140047f0c     config.obj
 0003:00009f20       $ip2state$?find@?$_Tree@V?$_Tmap_traits@W4Object_Type@@PEBVGameObject@@U?$less@W4Object_Type@@@std@@V?$allocator@U?$pair@$$CBW4Object_Type@@PEBVGameObject@@@std@@@4@$0A@@std@@@std@@QEBA?AV?$_Tree_const_iterator@V?$_Tree_val@U?$_Tree_simple_types@U?$pair@$$CBW4Object_Type@@PEBVGameObject@@@std@@@std@@@std@@@2@AEBW4Object_Type@@@Z 0000000140047f20     config.obj
 0003:00009f4c       $unwind$?dtor$0@?0??find@?$_Tree@V?$_Tmap_traits@W4Object_Type@@PEBVGameObject@@U?$less@W4Object_Type@@@std@@V?$allocator@U?$pair@$$CBW4Object_Type@@PEBVGameObject@@@std@@@4@$0A@@std@@@std@@QEBA?AV?$_Tree_const_iterator@V?$_Tree_val@U?$_Tree_simple_types@U?$pair@$$CBW4Object_Type@@PEBVGameObject@@@std@@@std@@@std@@@2@AEBW4Object_Type@@@Z@4HA 0000000140047f4c     config.obj
 0003:00009f5c       $unwind$?dtor$1@?0??find@?$_Tree@V?$_Tmap_traits@W4Object_Type@@PEBVGameObject@@U?$less@W4Object_Type@@@std@@V?$allocator@U?$pair@$$CBW4Object_Type@@PEBVGameObject@@@std@@@4@$0A@@std@@@std@@QEBA?AV?$_Tree_const_iterator@V?$_Tree_val@U?$_Tree_simple_types@U?$pair@$$CBW4Object_Type@@PEBVGameObject@@@std@@@std@@@std@@@2@AEBW4Object_Type@@@Z@4HA 0000000140047f5c     config.obj
 0003:00009f6c       $unwind$?lower_bound@?$_Tree@V?$_Tmap_traits@W4Object_Type@@PEBVGameObject@@U?$less@W4Object_Type@@@std@@V?$allocator@U?$pair@$$CBW4Object_Type@@PEBVGameObject@@@std@@@4@$0A@@std@@@std@@QEAA?AV?$_Tree_iterator@V?$_Tree_val@U?$_Tree_simple_types@U?$pair@$$CBW4Object_Type@@PEBVGameObject@@@std@@@std@@@std@@@2@AEBW4Object_Type@@@Z 0000000140047f6c     config.obj
 0003:00009f80       $unwind$?lower_bound@?$_Tree@V?$_Tmap_traits@W4Object_Type@@PEBVGameObject@@U?$less@W4Object_Type@@@std@@V?$allocator@U?$pair@$$CBW4Object_Type@@PEBVGameObject@@@std@@@4@$0A@@std@@@std@@QEBA?AV?$_Tree_const_iterator@V?$_Tree_val@U?$_Tree_simple_types@U?$pair@$$CBW4Object_Type@@PEBVGameObject@@@std@@@std@@@std@@@2@AEBW4Object_Type@@@Z 0000000140047f80     config.obj
 0003:00009f94       $unwind$?_Destroy_if_node@?$_Tree@V?$_Tmap_traits@W4Object_Type@@PEBVGameObject@@U?$less@W4Object_Type@@@std@@V?$allocator@U?$pair@$$CBW4Object_Type@@PEBVGameObject@@@std@@@4@$0A@@std@@@std@@IEAAXPEAU?$_Tree_node@U?$pair@$$CBW4Object_Type@@PEBVGameObject@@@std@@PEAX@2@@Z 0000000140047f94     config.obj
 0003:00009fa8       $unwind$?_Compare@?$_Tree@V?$_Tmap_traits@W4Object_Type@@PEBVGameObject@@U?$less@W4Object_Type@@@std@@V?$allocator@U?$pair@$$CBW4Object_Type@@PEBVGameObject@@@std@@@4@$0A@@std@@@std@@IEBA_NAEBW4Object_Type@@0@Z 0000000140047fa8     config.obj
 0003:00009fbc       $unwind$?_Kfn@?$_Tree@V?$_Tmap_traits@W4Object_Type@@PEBVGameObject@@U?$less@W4Object_Type@@@std@@V?$allocator@U?$pair@$$CBW4Object_Type@@PEBVGameObject@@@std@@@4@$0A@@std@@@std@@IEBAAEBW4Object_Type@@AEBU?$pair@$$CBW4Object_Type@@PEBVGameObject@@@2@@Z 0000000140047fbc     config.obj
 0003:00009fd0       $unwind$?_Key@?$_Tree@V?$_Tmap_traits@W4Object_Type@@PEBVGameObject@@U?$less@W4Object_Type@@@std@@V?$allocator@U?$pair@$$CBW4Object_Type@@PEBVGameObject@@@std@@@4@$0A@@std@@@std@@IEBAAEBW4Object_Type@@PEAU?$_Tree_node@U?$pair@$$CBW4Object_Type@@PEBVGameObject@@@std@@PEAX@2@@Z 0000000140047fd0     config.obj
 0003:00009fe4       $unwind$??A?$map@W4Object_Type@@PEBVGameObject@@U?$less@W4Object_Type@@@std@@V?$allocator@U?$pair@$$CBW4Object_Type@@PEBVGameObject@@@std@@@4@@std@@QEAAAEAPEBVGameObject@@$$QEAW4Object_Type@@@Z 0000000140047fe4     config.obj
 0003:0000a000       $stateUnwindMap$??A?$map@W4Object_Type@@PEBVGameObject@@U?$less@W4Object_Type@@@std@@V?$allocator@U?$pair@$$CBW4Object_Type@@PEBVGameObject@@@std@@@4@@std@@QEAAAEAPEBVGameObject@@$$QEAW4Object_Type@@@Z 0000000140048000     config.obj
 0003:0000a008       $ip2state$??A?$map@W4Object_Type@@PEBVGameObject@@U?$less@W4Object_Type@@@std@@V?$allocator@U?$pair@$$CBW4Object_Type@@PEBVGameObject@@@std@@@4@@std@@QEAAAEAPEBVGameObject@@$$QEAW4Object_Type@@@Z 0000000140048008     config.obj
 0003:0000a024       $unwind$?dtor$0@?0???A?$map@W4Object_Type@@PEBVGameObject@@U?$less@W4Object_Type@@@std@@V?$allocator@U?$pair@$$CBW4Object_Type@@PEBVGameObject@@@std@@@4@@std@@QEAAAEAPEBVGameObject@@$$QEAW4Object_Type@@@Z@4HA 0000000140048024     config.obj
 0003:0000a034       $unwind$?Get_Word_Pos_End@Config_Parser@@YAPEBDPEBD@Z 0000000140048034     config.obj
 0003:0000a048       $unwind$??0?$_Tree_unchecked_const_iterator@V?$_Tree_val@U?$_Tree_simple_types@U?$pair@$$CBW4Object_Type@@PEBVGameObject@@@std@@@std@@@std@@U_Iterator_base12@2@@std@@QEAA@XZ 0000000140048048     config.obj
 0003:0000a05c       $unwind$??0?$_Tree_unchecked_const_iterator@V?$_Tree_val@U?$_Tree_simple_types@U?$pair@$$CBW4Object_Type@@PEBVGameObject@@@std@@@std@@@std@@U_Iterator_base12@2@@std@@QEAA@PEAU?$_Tree_node@U?$pair@$$CBW4Object_Type@@PEBVGameObject@@@std@@PEAX@1@PEBV?$_Tree_val@U?$_Tree_simple_types@U?$pair@$$CBW4Object_Type@@PEBVGameObject@@@std@@@std@@@1@@Z 000000014004805c     config.obj
 0003:0000a070       $unwind$??E?$_Tree_unchecked_const_iterator@V?$_Tree_val@U?$_Tree_simple_types@U?$pair@$$CBW4Object_Type@@PEBVGameObject@@@std@@@std@@@std@@U_Iterator_base12@2@@std@@QEAAAEAV01@XZ 0000000140048070     config.obj
 0003:0000a084       $unwind$??F?$_Tree_unchecked_const_iterator@V?$_Tree_val@U?$_Tree_simple_types@U?$pair@$$CBW4Object_Type@@PEBVGameObject@@@std@@@std@@@std@@U_Iterator_base12@2@@std@@QEAAAEAV01@XZ 0000000140048084     config.obj
 0003:0000a098       $unwind$??1?$_Tree_unchecked_const_iterator@V?$_Tree_val@U?$_Tree_simple_types@U?$pair@$$CBW4Object_Type@@PEBVGameObject@@@std@@@std@@@std@@U_Iterator_base12@2@@std@@QEAA@XZ 0000000140048098     config.obj
 0003:0000a0ac       $unwind$??0?$_Tree_unchecked_const_iterator@V?$_Tree_val@U?$_Tree_simple_types@U?$pair@$$CBW4Object_Type@@PEBVGameObject@@@std@@@std@@@std@@U_Iterator_base12@2@@std@@QEAA@AEBV01@@Z 00000001400480ac     config.obj
 0003:0000a0c0       $unwind$??0?$_Tree_unchecked_const_iterator@V?$_Tree_val@U?$_Tree_simple_types@U?$pair@$$CBW4Object_Type@@PEBVGameObject@@@std@@@std@@@std@@U_Iterator_base12@2@@std@@QEAA@$$QEAV01@@Z 00000001400480c0     config.obj
 0003:0000a0d4       $unwind$??4?$_Tree_unchecked_const_iterator@V?$_Tree_val@U?$_Tree_simple_types@U?$pair@$$CBW4Object_Type@@PEBVGameObject@@@std@@@std@@@std@@U_Iterator_base12@2@@std@@QEAAAEAV01@AEBV01@@Z 00000001400480d4     config.obj
 0003:0000a0e8       $unwind$??0?$_Tree_const_iterator@V?$_Tree_val@U?$_Tree_simple_types@U?$pair@$$CBW4Object_Type@@PEBVGameObject@@@std@@@std@@@std@@@std@@QEAA@XZ 00000001400480e8     config.obj
 0003:0000a0fc       $unwind$??0?$_Tree_const_iterator@V?$_Tree_val@U?$_Tree_simple_types@U?$pair@$$CBW4Object_Type@@PEBVGameObject@@@std@@@std@@@std@@@std@@QEAA@PEAU?$_Tree_node@U?$pair@$$CBW4Object_Type@@PEBVGameObject@@@std@@PEAX@1@PEBV?$_Tree_val@U?$_Tree_simple_types@U?$pair@$$CBW4Object_Type@@PEBVGameObject@@@std@@@std@@@1@@Z 00000001400480fc     config.obj
 0003:0000a110       $unwind$??D?$_Tree_const_iterator@V?$_Tree_val@U?$_Tree_simple_types@U?$pair@$$CBW4Object_Type@@PEBVGameObject@@@std@@@std@@@std@@@std@@QEBAAEBU?$pair@$$CBW4Object_Type@@PEBVGameObject@@@1@XZ 0000000140048110     config.obj
 0003:0000a124       $unwind$??C?$_Tree_const_iterator@V?$_Tree_val@U?$_Tree_simple_types@U?$pair@$$CBW4Object_Type@@PEBVGameObject@@@std@@@std@@@std@@@std@@QEBAPEBU?$pair@$$CBW4Object_Type@@PEBVGameObject@@@1@XZ 0000000140048124     config.obj
 0003:0000a138       $unwind$??E?$_Tree_const_iterator@V?$_Tree_val@U?$_Tree_simple_types@U?$pair@$$CBW4Object_Type@@PEBVGameObject@@@std@@@std@@@std@@@std@@QEAAAEAV01@XZ 0000000140048138     config.obj
 0003:0000a14c       $unwind$??F?$_Tree_const_iterator@V?$_Tree_val@U?$_Tree_simple_types@U?$pair@$$CBW4Object_Type@@PEBVGameObject@@@std@@@std@@@std@@@std@@QEAAAEAV01@XZ 000000014004814c     config.obj
 0003:0000a160       $unwind$??8?$_Tree_const_iterator@V?$_Tree_val@U?$_Tree_simple_types@U?$pair@$$CBW4Object_Type@@PEBVGameObject@@@std@@@std@@@std@@@std@@QEBA_NAEBV01@@Z 0000000140048160     config.obj
 0003:0000a174       $unwind$??1?$_Tree_const_iterator@V?$_Tree_val@U?$_Tree_simple_types@U?$pair@$$CBW4Object_Type@@PEBVGameObject@@@std@@@std@@@std@@@std@@QEAA@XZ 0000000140048174     config.obj
 0003:0000a188       $unwind$??0?$_Tree_const_iterator@V?$_Tree_val@U?$_Tree_simple_types@U?$pair@$$CBW4Object_Type@@PEBVGameObject@@@std@@@std@@@std@@@std@@QEAA@AEBV01@@Z 0000000140048188     config.obj
 0003:0000a19c       $unwind$??0?$_Tree_const_iterator@V?$_Tree_val@U?$_Tree_simple_types@U?$pair@$$CBW4Object_Type@@PEBVGameObject@@@std@@@std@@@std@@@std@@QEAA@$$QEAV01@@Z 000000014004819c     config.obj
 0003:0000a1b0       $unwind$??4?$_Tree_const_iterator@V?$_Tree_val@U?$_Tree_simple_types@U?$pair@$$CBW4Object_Type@@PEBVGameObject@@@std@@@std@@@std@@@std@@QEAAAEAV01@AEBV01@@Z 00000001400481b0     config.obj
 0003:0000a1c4       $unwind$?pointer_to@?$pointer_traits@PEBU?$pair@$$CBW4Object_Type@@PEBVGameObject@@@std@@@std@@SAPEBU?$pair@$$CBW4Object_Type@@PEBVGameObject@@@2@AEBU32@@Z 00000001400481c4     config.obj
 0003:0000a1d8       $unwind$??$_Debug_lt_pred@AEBU?$less@W4Object_Type@@@std@@AEBW4Object_Type@@AEBW43@@std@@YA_NAEBU?$less@W4Object_Type@@@0@AEBW4Object_Type@@1PEB_WI@Z 00000001400481d8     config.obj
 0003:0000a1ec       $unwind$??$addressof@$$CBV?$_Tree_val@U?$_Tree_simple_types@U?$pair@$$CBW4Object_Type@@PEBVGameObject@@@std@@@std@@@std@@@std@@YAPEBV?$_Tree_val@U?$_Tree_simple_types@U?$pair@$$CBW4Object_Type@@PEBVGameObject@@@std@@@std@@@0@AEBV10@@Z 00000001400481ec     config.obj
 0003:0000a200       $unwind$??$move@AEAW4Object_Type@@@std@@YA$$QEAW4Object_Type@@AEAW41@@Z 0000000140048200     config.obj
 0003:0000a214       $unwind$??$try_emplace@$$V@?$map@W4Object_Type@@PEBVGameObject@@U?$less@W4Object_Type@@@std@@V?$allocator@U?$pair@$$CBW4Object_Type@@PEBVGameObject@@@std@@@4@@std@@QEAA?AU?$pair@V?$_Tree_iterator@V?$_Tree_val@U?$_Tree_simple_types@U?$pair@$$CBW4Object_Type@@PEBVGameObject@@@std@@@std@@@std@@@std@@_N@1@$$QEAW4Object_Type@@@Z 0000000140048214     config.obj
 0003:0000a228       $unwind$??0?$_Tree_iterator@V?$_Tree_val@U?$_Tree_simple_types@U?$pair@$$CBW4Object_Type@@PEBVGameObject@@@std@@@std@@@std@@@std@@QEAA@PEAU?$_Tree_node@U?$pair@$$CBW4Object_Type@@PEBVGameObject@@@std@@PEAX@1@PEBV?$_Tree_val@U?$_Tree_simple_types@U?$pair@$$CBW4Object_Type@@PEBVGameObject@@@std@@@std@@@1@@Z 0000000140048228     config.obj
 0003:0000a23c       $unwind$??D?$_Tree_iterator@V?$_Tree_val@U?$_Tree_simple_types@U?$pair@$$CBW4Object_Type@@PEBVGameObject@@@std@@@std@@@std@@@std@@QEBAAEAU?$pair@$$CBW4Object_Type@@PEBVGameObject@@@1@XZ 000000014004823c     config.obj
 0003:0000a250       $unwind$??C?$_Tree_iterator@V?$_Tree_val@U?$_Tree_simple_types@U?$pair@$$CBW4Object_Type@@PEBVGameObject@@@std@@@std@@@std@@@std@@QEBAPEAU?$pair@$$CBW4Object_Type@@PEBVGameObject@@@1@XZ 0000000140048250     config.obj
 0003:0000a264       $unwind$??F?$_Tree_iterator@V?$_Tree_val@U?$_Tree_simple_types@U?$pair@$$CBW4Object_Type@@PEBVGameObject@@@std@@@std@@@std@@@std@@QEAAAEAV01@XZ 0000000140048264     config.obj
 0003:0000a278       $unwind$??1?$_Tree_iterator@V?$_Tree_val@U?$_Tree_simple_types@U?$pair@$$CBW4Object_Type@@PEBVGameObject@@@std@@@std@@@std@@@std@@QEAA@XZ 0000000140048278     config.obj
 0003:0000a28c       $unwind$??0?$_Tree_iterator@V?$_Tree_val@U?$_Tree_simple_types@U?$pair@$$CBW4Object_Type@@PEBVGameObject@@@std@@@std@@@std@@@std@@QEAA@AEBV01@@Z 000000014004828c     config.obj
 0003:0000a2a0       $unwind$??0?$_Tree_iterator@V?$_Tree_val@U?$_Tree_simple_types@U?$pair@$$CBW4Object_Type@@PEBVGameObject@@@std@@@std@@@std@@@std@@QEAA@$$QEAV01@@Z 00000001400482a0     config.obj
 0003:0000a2b4       $unwind$??1?$pair@V?$_Tree_iterator@V?$_Tree_val@U?$_Tree_simple_types@U?$pair@$$CBW4Object_Type@@PEBVGameObject@@@std@@@std@@@std@@@std@@_N@std@@QEAA@XZ 00000001400482b4     config.obj
 0003:0000a2c8       $unwind$??$addressof@V?$basic_string@DU?$char_traits@D@std@@V?$allocator@D@2@@std@@@std@@YAPEAV?$basic_string@DU?$char_traits@D@std@@V?$allocator@D@2@@0@AEAV10@@Z 00000001400482c8     config.obj
 0003:0000a2dc       $unwind$??$move@AEAV?$basic_string@DU?$char_traits@D@std@@V?$allocator@D@2@@std@@@std@@YA$$QEAV?$basic_string@DU?$char_traits@D@std@@V?$allocator@D@2@@0@AEAV10@@Z 00000001400482dc     config.obj
 0003:0000a2f0       $unwind$??$move@AEAV?$allocator@D@std@@@std@@YA$$QEAV?$allocator@D@0@AEAV10@@Z 00000001400482f0     config.obj
 0003:0000a304       $unwind$??$?0AEBV?$allocator@D@std@@X@?$_String_alloc@U?$_String_base_types@DV?$allocator@D@std@@@std@@@std@@QEAA@AEBV?$allocator@D@1@@Z 0000000140048304     config.obj
 0003:0000a320       $stateUnwindMap$??$?0AEBV?$allocator@D@std@@X@?$_String_alloc@U?$_String_base_types@DV?$allocator@D@std@@@std@@@std@@QEAA@AEBV?$allocator@D@1@@Z 0000000140048320     config.obj
 0003:0000a328       $ip2state$??$?0AEBV?$allocator@D@std@@X@?$_String_alloc@U?$_String_base_types@DV?$allocator@D@std@@@std@@@std@@QEAA@AEBV?$allocator@D@1@@Z 0000000140048328     config.obj
 0003:0000a344       $unwind$?dtor$0@?0???$?0AEBV?$allocator@D@std@@X@?$_String_alloc@U?$_String_base_types@DV?$allocator@D@std@@@std@@@std@@QEAA@AEBV?$allocator@D@1@@Z@4HA 0000000140048344     config.obj
 0003:0000a354       $unwind$??$addressof@$$CBU?$pair@$$CBW4Object_Type@@PEBVGameObject@@@std@@@std@@YAPEBU?$pair@$$CBW4Object_Type@@PEBVGameObject@@@0@AEBU10@@Z 0000000140048354     config.obj
 0003:0000a368       $unwind$?pointer_to@?$pointer_traits@PEAU?$pair@$$CBW4Object_Type@@PEBVGameObject@@@std@@@std@@SAPEAU?$pair@$$CBW4Object_Type@@PEBVGameObject@@@2@AEAU32@@Z 0000000140048368     config.obj
 0003:0000a37c       $unwind$??$_Lbound@W4Object_Type@@@?$_Tree@V?$_Tmap_traits@W4Object_Type@@PEBVGameObject@@U?$less@W4Object_Type@@@std@@V?$allocator@U?$pair@$$CBW4Object_Type@@PEBVGameObject@@@std@@@4@$0A@@std@@@std@@IEBAPEAU?$_Tree_node@U?$pair@$$CBW4Object_Type@@PEBVGameObject@@@std@@PEAX@1@AEBW4Object_Type@@@Z 000000014004837c     config.obj
 0003:0000a390       $unwind$??$?9DD@std@@YA_NAEBV?$allocator@D@0@0@Z 0000000140048390     config.obj
 0003:0000a3a4       $unwind$??$_Pocma@V?$allocator@D@std@@@std@@YAXAEAV?$allocator@D@0@0@Z 00000001400483a4     config.obj
 0003:0000a3b8       $unwind$??R<lambda_66f57f934f28d61049862f64df852ff0>@@QEBAXQEAD_KQEBD@Z 00000001400483b8     config.obj
 0003:0000a3cc       $unwind$??$_Reallocate_for@V<lambda_66f57f934f28d61049862f64df852ff0>@@PEBD@?$basic_string@DU?$char_traits@D@std@@V?$allocator@D@2@@std@@QEAAAEAV01@_KV<lambda_66f57f934f28d61049862f64df852ff0>@@PEBD@Z 00000001400483cc     config.obj
 0003:0000a3e0       $unwind$??$addressof@U?$pair@$$CBW4Object_Type@@PEBVGameObject@@@std@@@std@@YAPEAU?$pair@$$CBW4Object_Type@@PEBVGameObject@@@0@AEAU10@@Z 00000001400483e0     config.obj
 0003:0000a3f4       $unwind$??$_Kfn@$$CBW4Object_Type@@PEBVGameObject@@@?$_Tmap_traits@W4Object_Type@@PEBVGameObject@@U?$less@W4Object_Type@@@std@@V?$allocator@U?$pair@$$CBW4Object_Type@@PEBVGameObject@@@std@@@4@$0A@@std@@SAAEBW4Object_Type@@AEBU?$pair@$$CBW4Object_Type@@PEBVGameObject@@@1@@Z 00000001400483f4     config.obj
 0003:0000a408       $unwind$??$_Try_emplace@W4Object_Type@@$$V@?$map@W4Object_Type@@PEBVGameObject@@U?$less@W4Object_Type@@@std@@V?$allocator@U?$pair@$$CBW4Object_Type@@PEBVGameObject@@@std@@@4@@std@@QEAA?AU?$pair@V?$_Tree_iterator@V?$_Tree_val@U?$_Tree_simple_types@U?$pair@$$CBW4Object_Type@@PEBVGameObject@@@std@@@std@@@std@@@std@@_N@1@$$QEAW4Object_Type@@@Z 0000000140048408     config.obj
 0003:0000a424       $stateUnwindMap$??$_Try_emplace@W4Object_Type@@$$V@?$map@W4Object_Type@@PEBVGameObject@@U?$less@W4Object_Type@@@std@@V?$allocator@U?$pair@$$CBW4Object_Type@@PEBVGameObject@@@std@@@4@@std@@QEAA?AU?$pair@V?$_Tree_iterator@V?$_Tree_val@U?$_Tree_simple_types@U?$pair@$$CBW4Object_Type@@PEBVGameObject@@@std@@@std@@@std@@@std@@_N@1@$$QEAW4Object_Type@@@Z 0000000140048424     config.obj
 0003:0000a438       $ip2state$??$_Try_emplace@W4Object_Type@@$$V@?$map@W4Object_Type@@PEBVGameObject@@U?$less@W4Object_Type@@@std@@V?$allocator@U?$pair@$$CBW4Object_Type@@PEBVGameObject@@@std@@@4@@std@@QEAA?AU?$pair@V?$_Tree_iterator@V?$_Tree_val@U?$_Tree_simple_types@U?$pair@$$CBW4Object_Type@@PEBVGameObject@@@std@@@std@@@std@@@std@@_N@1@$$QEAW4Object_Type@@@Z 0000000140048438     config.obj
 0003:0000a478       $unwind$?dtor$0@?0???$_Try_emplace@W4Object_Type@@$$V@?$map@W4Object_Type@@PEBVGameObject@@U?$less@W4Object_Type@@@std@@V?$allocator@U?$pair@$$CBW4Object_Type@@PEBVGameObject@@@std@@@4@@std@@QEAA?AU?$pair@V?$_Tree_iterator@V?$_Tree_val@U?$_Tree_simple_types@U?$pair@$$CBW4Object_Type@@PEBVGameObject@@@std@@@std@@@std@@@std@@_N@1@$$QEAW4Object_Type@@@Z@4HA 0000000140048478     config.obj
 0003:0000a488       $unwind$?dtor$1@?0???$_Try_emplace@W4Object_Type@@$$V@?$map@W4Object_Type@@PEBVGameObject@@U?$less@W4Object_Type@@@std@@V?$allocator@U?$pair@$$CBW4Object_Type@@PEBVGameObject@@@std@@@4@@std@@QEAA?AU?$pair@V?$_Tree_iterator@V?$_Tree_val@U?$_Tree_simple_types@U?$pair@$$CBW4Object_Type@@PEBVGameObject@@@std@@@std@@@std@@@std@@_N@1@$$QEAW4Object_Type@@@Z@4HA 0000000140048488     config.obj
 0003:0000a498       $unwind$??$forward@AEBV?$allocator@D@std@@@std@@YAAEBV?$allocator@D@0@AEBV10@@Z 0000000140048498     config.obj
 0003:0000a4ac       $unwind$??$?0AEBV?$allocator@D@std@@$$V@?$_Compressed_pair@V?$allocator@D@std@@V?$_String_val@U?$_Simple_types@D@std@@@2@$00@std@@QEAA@U_One_then_variadic_args_t@1@AEBV?$allocator@D@1@@Z 00000001400484ac     config.obj
 0003:0000a4c0       $unwind$??$_Pocma@V?$allocator@D@std@@@std@@YAXAEAV?$allocator@D@0@0U?$integral_constant@_N$00@0@@Z 00000001400484c0     config.obj
 0003:0000a4d4       $unwind$??$_Debug_lt_pred@AEAU?$less@W4Object_Type@@@std@@AEAW4Object_Type@@AEBW43@@std@@YA_NAEAU?$less@W4Object_Type@@@0@AEAW4Object_Type@@AEBW42@PEB_WI@Z 00000001400484d4     config.obj
 0003:0000a4e8       $unwind$??$forward@W4Object_Type@@@std@@YA$$QEAW4Object_Type@@AEAW41@@Z 00000001400484e8     config.obj
 0003:0000a4fc       $unwind$??$forward_as_tuple@W4Object_Type@@@std@@YA?AV?$tuple@$$QEAW4Object_Type@@@0@$$QEAW4Object_Type@@@Z 00000001400484fc     config.obj
 0003:0000a518       $ip2state$??$forward_as_tuple@W4Object_Type@@@std@@YA?AV?$tuple@$$QEAW4Object_Type@@@0@$$QEAW4Object_Type@@@Z 0000000140048518     config.obj
 0003:0000a520       $unwind$??0?$tuple@$$QEAW4Object_Type@@@std@@QEAA@$$QEAV01@@Z 0000000140048520     config.obj
 0003:0000a534       $unwind$??$forward_as_tuple@$$V@std@@YA?AV?$tuple@$$V@0@XZ 0000000140048534     config.obj
 0003:0000a548       $unwind$??$emplace_hint@AEBUpiecewise_construct_t@std@@V?$tuple@$$QEAW4Object_Type@@@2@V?$tuple@$$V@2@@?$_Tree@V?$_Tmap_traits@W4Object_Type@@PEBVGameObject@@U?$less@W4Object_Type@@@std@@V?$allocator@U?$pair@$$CBW4Object_Type@@PEBVGameObject@@@std@@@4@$0A@@std@@@std@@QEAA?AV?$_Tree_iterator@V?$_Tree_val@U?$_Tree_simple_types@U?$pair@$$CBW4Object_Type@@PEBVGameObject@@@std@@@std@@@std@@@1@V?$_Tree_const_iterator@V?$_Tree_val@U?$_Tree_simple_types@U?$pair@$$CBW4Object_Type@@PEBVGameObject@@@std@@@std@@@std@@@1@AEBUpiecewise_construct_t@1@$$QEAV?$tuple@$$QEAW4Object_Type@@@1@$$QEAV?$tuple@$$V@1@@Z 0000000140048548     config.obj
 0003:0000a564       $stateUnwindMap$??$emplace_hint@AEBUpiecewise_construct_t@std@@V?$tuple@$$QEAW4Object_Type@@@2@V?$tuple@$$V@2@@?$_Tree@V?$_Tmap_traits@W4Object_Type@@PEBVGameObject@@U?$less@W4Object_Type@@@std@@V?$allocator@U?$pair@$$CBW4Object_Type@@PEBVGameObject@@@std@@@4@$0A@@std@@@std@@QEAA?AV?$_Tree_iterator@V?$_Tree_val@U?$_Tree_simple_types@U?$pair@$$CBW4Object_Type@@PEBVGameObject@@@std@@@std@@@std@@@1@V?$_Tree_const_iterator@V?$_Tree_val@U?$_Tree_simple_types@U?$pair@$$CBW4Object_Type@@PEBVGameObject@@@std@@@std@@@std@@@1@AEBUpiecewise_construct_t@1@$$QEAV?$tuple@$$QEAW4Object_Type@@@1@$$QEAV?$tuple@$$V@1@@Z 0000000140048564     config.obj
 0003:0000a570       $ip2state$??$emplace_hint@AEBUpiecewise_construct_t@std@@V?$tuple@$$QEAW4Object_Type@@@2@V?$tuple@$$V@2@@?$_Tree@V?$_Tmap_traits@W4Object_Type@@PEBVGameObject@@U?$less@W4Object_Type@@@std@@V?$allocator@U?$pair@$$CBW4Object_Type@@PEBVGameObject@@@std@@@4@$0A@@std@@@std@@QEAA?AV?$_Tree_iterator@V?$_Tree_val@U?$_Tree_simple_types@U?$pair@$$CBW4Object_Type@@PEBVGameObject@@@std@@@std@@@std@@@1@V?$_Tree_const_iterator@V?$_Tree_val@U?$_Tree_simple_types@U?$pair@$$CBW4Object_Type@@PEBVGameObject@@@std@@@std@@@std@@@1@AEBUpiecewise_construct_t@1@$$QEAV?$tuple@$$QEAW4Object_Type@@@1@$$QEAV?$tuple@$$V@1@@Z 0000000140048570     config.obj
 0003:0000a58c       $unwind$?dtor$0@?0???$emplace_hint@AEBUpiecewise_construct_t@std@@V?$tuple@$$QEAW4Object_Type@@@2@V?$tuple@$$V@2@@?$_Tree@V?$_Tmap_traits@W4Object_Type@@PEBVGameObject@@U?$less@W4Object_Type@@@std@@V?$allocator@U?$pair@$$CBW4Object_Type@@PEBVGameObject@@@std@@@4@$0A@@std@@@std@@QEAA?AV?$_Tree_iterator@V?$_Tree_val@U?$_Tree_simple_types@U?$pair@$$CBW4Object_Type@@PEBVGameObject@@@std@@@std@@@std@@@1@V?$_Tree_const_iterator@V?$_Tree_val@U?$_Tree_simple_types@U?$pair@$$CBW4Object_Type@@PEBVGameObject@@@std@@@std@@@std@@@1@AEBUpiecewise_construct_t@1@$$QEAV?$tuple@$$QEAW4Object_Type@@@1@$$QEAV?$tuple@$$V@1@@Z@4HA 000000014004858c     config.obj
 0003:0000a59c       $unwind$??$?0V?$_Tree_iterator@V?$_Tree_val@U?$_Tree_simple_types@U?$pair@$$CBW4Object_Type@@PEBVGameObject@@@std@@@std@@@std@@@std@@_N$0A@@?$pair@V?$_Tree_iterator@V?$_Tree_val@U?$_Tree_simple_types@U?$pair@$$CBW4Object_Type@@PEBVGameObject@@@std@@@std@@@std@@@std@@_N@std@@QEAA@$$QEAV?$_Tree_iterator@V?$_Tree_val@U?$_Tree_simple_types@U?$pair@$$CBW4Object_Type@@PEBVGameObject@@@std@@@std@@@std@@@1@$$QEA_N@Z 000000014004859c     config.obj
 0003:0000a5b0       $unwind$??$?0AEAV?$_Tree_iterator@V?$_Tree_val@U?$_Tree_simple_types@U?$pair@$$CBW4Object_Type@@PEBVGameObject@@@std@@@std@@@std@@@std@@_N$0A@@?$pair@V?$_Tree_iterator@V?$_Tree_val@U?$_Tree_simple_types@U?$pair@$$CBW4Object_Type@@PEBVGameObject@@@std@@@std@@@std@@@std@@_N@std@@QEAA@AEAV?$_Tree_iterator@V?$_Tree_val@U?$_Tree_simple_types@U?$pair@$$CBW4Object_Type@@PEBVGameObject@@@std@@@std@@@std@@@1@$$QEA_N@Z 00000001400485b0     config.obj
 0003:0000a5c4       $unwind$??$addressof@V?$_Tree_val@U?$_Tree_simple_types@U?$pair@$$CBW4Object_Type@@PEBVGameObject@@@std@@@std@@@std@@@std@@YAPEAV?$_Tree_val@U?$_Tree_simple_types@U?$pair@$$CBW4Object_Type@@PEBVGameObject@@@std@@@std@@@0@AEAV10@@Z 00000001400485c4     config.obj
 0003:0000a5d8       $unwind$??$?0W4Object_Type@@$$V$0A@@?$tuple@$$QEAW4Object_Type@@@std@@QEAA@$$QEAW4Object_Type@@@Z 00000001400485d8     config.obj
 0003:0000a5ec       $unwind$??$forward@AEBUpiecewise_construct_t@std@@@std@@YAAEBUpiecewise_construct_t@0@AEBU10@@Z 00000001400485ec     config.obj
 0003:0000a600       $unwind$??$forward@V?$tuple@$$QEAW4Object_Type@@@std@@@std@@YA$$QEAV?$tuple@$$QEAW4Object_Type@@@0@AEAV10@@Z 0000000140048600     config.obj
 0003:0000a614       $unwind$??$forward@V?$tuple@$$V@std@@@std@@YA$$QEAV?$tuple@$$V@0@AEAV10@@Z 0000000140048614     config.obj
 0003:0000a628       $unwind$??$_Buynode@AEBUpiecewise_construct_t@std@@V?$tuple@$$QEAW4Object_Type@@@2@V?$tuple@$$V@2@@?$_Tree_comp_alloc@V?$_Tmap_traits@W4Object_Type@@PEBVGameObject@@U?$less@W4Object_Type@@@std@@V?$allocator@U?$pair@$$CBW4Object_Type@@PEBVGameObject@@@std@@@4@$0A@@std@@@std@@QEAAPEAU?$_Tree_node@U?$pair@$$CBW4Object_Type@@PEBVGameObject@@@std@@PEAX@1@AEBUpiecewise_construct_t@1@$$QEAV?$tuple@$$QEAW4Object_Type@@@1@$$QEAV?$tuple@$$V@1@@Z 0000000140048628     config.obj
 0003:0000a644       $stateUnwindMap$??$_Buynode@AEBUpiecewise_construct_t@std@@V?$tuple@$$QEAW4Object_Type@@@2@V?$tuple@$$V@2@@?$_Tree_comp_alloc@V?$_Tmap_traits@W4Object_Type@@PEBVGameObject@@U?$less@W4Object_Type@@@std@@V?$allocator@U?$pair@$$CBW4Object_Type@@PEBVGameObject@@@std@@@4@$0A@@std@@@std@@QEAAPEAU?$_Tree_node@U?$pair@$$CBW4Object_Type@@PEBVGameObject@@@std@@PEAX@1@AEBUpiecewise_construct_t@1@$$QEAV?$tuple@$$QEAW4Object_Type@@@1@$$QEAV?$tuple@$$V@1@@Z 0000000140048644     config.obj
 0003:0000a658       $tryMap$??$_Buynode@AEBUpiecewise_construct_t@std@@V?$tuple@$$QEAW4Object_Type@@@2@V?$tuple@$$V@2@@?$_Tree_comp_alloc@V?$_Tmap_traits@W4Object_Type@@PEBVGameObject@@U?$less@W4Object_Type@@@std@@V?$allocator@U?$pair@$$CBW4Object_Type@@PEBVGameObject@@@std@@@4@$0A@@std@@@std@@QEAAPEAU?$_Tree_node@U?$pair@$$CBW4Object_Type@@PEBVGameObject@@@std@@PEAX@1@AEBUpiecewise_construct_t@1@$$QEAV?$tuple@$$QEAW4Object_Type@@@1@$$QEAV?$tuple@$$V@1@@Z 0000000140048658     config.obj
 0003:0000a670       $handlerMap$0$??$_Buynode@AEBUpiecewise_construct_t@std@@V?$tuple@$$QEAW4Object_Type@@@2@V?$tuple@$$V@2@@?$_Tree_comp_alloc@V?$_Tmap_traits@W4Object_Type@@PEBVGameObject@@U?$less@W4Object_Type@@@std@@V?$allocator@U?$pair@$$CBW4Object_Type@@PEBVGameObject@@@std@@@4@$0A@@std@@@std@@QEAAPEAU?$_Tree_node@U?$pair@$$CBW4Object_Type@@PEBVGameObject@@@std@@PEAX@1@AEBUpiecewise_construct_t@1@$$QEAV?$tuple@$$QEAW4Object_Type@@@1@$$QEAV?$tuple@$$V@1@@Z 0000000140048670     config.obj
 0003:0000a688       $ip2state$??$_Buynode@AEBUpiecewise_construct_t@std@@V?$tuple@$$QEAW4Object_Type@@@2@V?$tuple@$$V@2@@?$_Tree_comp_alloc@V?$_Tmap_traits@W4Object_Type@@PEBVGameObject@@U?$less@W4Object_Type@@@std@@V?$allocator@U?$pair@$$CBW4Object_Type@@PEBVGameObject@@@std@@@4@$0A@@std@@@std@@QEAAPEAU?$_Tree_node@U?$pair@$$CBW4Object_Type@@PEBVGameObject@@@std@@PEAX@1@AEBUpiecewise_construct_t@1@$$QEAV?$tuple@$$QEAW4Object_Type@@@1@$$QEAV?$tuple@$$V@1@@Z 0000000140048688     config.obj
 0003:0000a6bc       $unwind$?catch$0@?0???$_Buynode@AEBUpiecewise_construct_t@std@@V?$tuple@$$QEAW4Object_Type@@@2@V?$tuple@$$V@2@@?$_Tree_comp_alloc@V?$_Tmap_traits@W4Object_Type@@PEBVGameObject@@U?$less@W4Object_Type@@@std@@V?$allocator@U?$pair@$$CBW4Object_Type@@PEBVGameObject@@@std@@@4@$0A@@std@@@std@@QEAAPEAU?$_Tree_node@U?$pair@$$CBW4Object_Type@@PEBVGameObject@@@std@@PEAX@1@AEBUpiecewise_construct_t@1@$$QEAV?$tuple@$$QEAW4Object_Type@@@1@$$QEAV?$tuple@$$V@1@@Z@4HA 00000001400486bc     config.obj
 0003:0000a6d4       $unwind$??$_Insert_hint@AEAU?$pair@$$CBW4Object_Type@@PEBVGameObject@@@std@@PEAU?$_Tree_node@U?$pair@$$CBW4Object_Type@@PEBVGameObject@@@std@@PEAX@2@@?$_Tree@V?$_Tmap_traits@W4Object_Type@@PEBVGameObject@@U?$less@W4Object_Type@@@std@@V?$allocator@U?$pair@$$CBW4Object_Type@@PEBVGameObject@@@std@@@4@$0A@@std@@@std@@IEAA?AV?$_Tree_iterator@V?$_Tree_val@U?$_Tree_simple_types@U?$pair@$$CBW4Object_Type@@PEBVGameObject@@@std@@@std@@@std@@@1@V?$_Tree_const_iterator@V?$_Tree_val@U?$_Tree_simple_types@U?$pair@$$CBW4Object_Type@@PEBVGameObject@@@std@@@std@@@std@@@1@AEAU?$pair@$$CBW4Object_Type@@PEBVGameObject@@@1@PEAU?$_Tree_node@U?$pair@$$CBW4Object_Type@@PEBVGameObject@@@std@@PEAX@1@@Z 00000001400486d4     config.obj
 0003:0000a6f0       $stateUnwindMap$??$_Insert_hint@AEAU?$pair@$$CBW4Object_Type@@PEBVGameObject@@@std@@PEAU?$_Tree_node@U?$pair@$$CBW4Object_Type@@PEBVGameObject@@@std@@PEAX@2@@?$_Tree@V?$_Tmap_traits@W4Object_Type@@PEBVGameObject@@U?$less@W4Object_Type@@@std@@V?$allocator@U?$pair@$$CBW4Object_Type@@PEBVGameObject@@@std@@@4@$0A@@std@@@std@@IEAA?AV?$_Tree_iterator@V?$_Tree_val@U?$_Tree_simple_types@U?$pair@$$CBW4Object_Type@@PEBVGameObject@@@std@@@std@@@std@@@1@V?$_Tree_const_iterator@V?$_Tree_val@U?$_Tree_simple_types@U?$pair@$$CBW4Object_Type@@PEBVGameObject@@@std@@@std@@@std@@@1@AEAU?$pair@$$CBW4Object_Type@@PEBVGameObject@@@1@PEAU?$_Tree_node@U?$pair@$$CBW4Object_Type@@PEBVGameObject@@@std@@PEAX@1@@Z 00000001400486f0     config.obj
 0003:0000a748       $tryMap$??$_Insert_hint@AEAU?$pair@$$CBW4Object_Type@@PEBVGameObject@@@std@@PEAU?$_Tree_node@U?$pair@$$CBW4Object_Type@@PEBVGameObject@@@std@@PEAX@2@@?$_Tree@V?$_Tmap_traits@W4Object_Type@@PEBVGameObject@@U?$less@W4Object_Type@@@std@@V?$allocator@U?$pair@$$CBW4Object_Type@@PEBVGameObject@@@std@@@4@$0A@@std@@@std@@IEAA?AV?$_Tree_iterator@V?$_Tree_val@U?$_Tree_simple_types@U?$pair@$$CBW4Object_Type@@PEBVGameObject@@@std@@@std@@@std@@@1@V?$_Tree_const_iterator@V?$_Tree_val@U?$_Tree_simple_types@U?$pair@$$CBW4Object_Type@@PEBVGameObject@@@std@@@std@@@std@@@1@AEAU?$pair@$$CBW4Object_Type@@PEBVGameObject@@@1@PEAU?$_Tree_node@U?$pair@$$CBW4Object_Type@@PEBVGameObject@@@std@@PEAX@1@@Z 0000000140048748     config.obj
 0003:0000a760       $handlerMap$0$??$_Insert_hint@AEAU?$pair@$$CBW4Object_Type@@PEBVGameObject@@@std@@PEAU?$_Tree_node@U?$pair@$$CBW4Object_Type@@PEBVGameObject@@@std@@PEAX@2@@?$_Tree@V?$_Tmap_traits@W4Object_Type@@PEBVGameObject@@U?$less@W4Object_Type@@@std@@V?$allocator@U?$pair@$$CBW4Object_Type@@PEBVGameObject@@@std@@@4@$0A@@std@@@std@@IEAA?AV?$_Tree_iterator@V?$_Tree_val@U?$_Tree_simple_types@U?$pair@$$CBW4Object_Type@@PEBVGameObject@@@std@@@std@@@std@@@1@V?$_Tree_const_iterator@V?$_Tree_val@U?$_Tree_simple_types@U?$pair@$$CBW4Object_Type@@PEBVGameObject@@@std@@@std@@@std@@@1@AEAU?$pair@$$CBW4Object_Type@@PEBVGameObject@@@1@PEAU?$_Tree_node@U?$pair@$$CBW4Object_Type@@PEBVGameObject@@@std@@PEAX@1@@Z 0000000140048760     config.obj
 0003:0000a780       $ip2state$??$_Insert_hint@AEAU?$pair@$$CBW4Object_Type@@PEBVGameObject@@@std@@PEAU?$_Tree_node@U?$pair@$$CBW4Object_Type@@PEBVGameObject@@@std@@PEAX@2@@?$_Tree@V?$_Tmap_traits@W4Object_Type@@PEBVGameObject@@U?$less@W4Object_Type@@@std@@V?$allocator@U?$pair@$$CBW4Object_Type@@PEBVGameObject@@@std@@@4@$0A@@std@@@std@@IEAA?AV?$_Tree_iterator@V?$_Tree_val@U?$_Tree_simple_types@U?$pair@$$CBW4Object_Type@@PEBVGameObject@@@std@@@std@@@std@@@1@V?$_Tree_const_iterator@V?$_Tree_val@U?$_Tree_simple_types@U?$pair@$$CBW4Object_Type@@PEBVGameObject@@@std@@@std@@@std@@@1@AEAU?$pair@$$CBW4Object_Type@@PEBVGameObject@@@1@PEAU?$_Tree_node@U?$pair@$$CBW4Object_Type@@PEBVGameObject@@@std@@PEAX@1@@Z 0000000140048780     config.obj
 0003:0000a990       $unwind$?dtor$0@?0???$_Insert_hint@AEAU?$pair@$$CBW4Object_Type@@PEBVGameObject@@@std@@PEAU?$_Tree_node@U?$pair@$$CBW4Object_Type@@PEBVGameObject@@@std@@PEAX@2@@?$_Tree@V?$_Tmap_traits@W4Object_Type@@PEBVGameObject@@U?$less@W4Object_Type@@@std@@V?$allocator@U?$pair@$$CBW4Object_Type@@PEBVGameObject@@@std@@@4@$0A@@std@@@std@@IEAA?AV?$_Tree_iterator@V?$_Tree_val@U?$_Tree_simple_types@U?$pair@$$CBW4Object_Type@@PEBVGameObject@@@std@@@std@@@std@@@1@V?$_Tree_const_iterator@V?$_Tree_val@U?$_Tree_simple_types@U?$pair@$$CBW4Object_Type@@PEBVGameObject@@@std@@@std@@@std@@@1@AEAU?$pair@$$CBW4Object_Type@@PEBVGameObject@@@1@PEAU?$_Tree_node@U?$pair@$$CBW4Object_Type@@PEBVGameObject@@@std@@PEAX@1@@Z@4HA 0000000140048990     config.obj
 0003:0000a9a0       $unwind$?dtor$1@?0???$_Insert_hint@AEAU?$pair@$$CBW4Object_Type@@PEBVGameObject@@@std@@PEAU?$_Tree_node@U?$pair@$$CBW4Object_Type@@PEBVGameObject@@@std@@PEAX@2@@?$_Tree@V?$_Tmap_traits@W4Object_Type@@PEBVGameObject@@U?$less@W4Object_Type@@@std@@V?$allocator@U?$pair@$$CBW4Object_Type@@PEBVGameObject@@@std@@@4@$0A@@std@@@std@@IEAA?AV?$_Tree_iterator@V?$_Tree_val@U?$_Tree_simple_types@U?$pair@$$CBW4Object_Type@@PEBVGameObject@@@std@@@std@@@std@@@1@V?$_Tree_const_iterator@V?$_Tree_val@U?$_Tree_simple_types@U?$pair@$$CBW4Object_Type@@PEBVGameObject@@@std@@@std@@@std@@@1@AEAU?$pair@$$CBW4Object_Type@@PEBVGameObject@@@1@PEAU?$_Tree_node@U?$pair@$$CBW4Object_Type@@PEBVGameObject@@@std@@PEAX@1@@Z@4HA 00000001400489a0     config.obj
 0003:0000a9b0       $unwind$?dtor$3@?0???$_Insert_hint@AEAU?$pair@$$CBW4Object_Type@@PEBVGameObject@@@std@@PEAU?$_Tree_node@U?$pair@$$CBW4Object_Type@@PEBVGameObject@@@std@@PEAX@2@@?$_Tree@V?$_Tmap_traits@W4Object_Type@@PEBVGameObject@@U?$less@W4Object_Type@@@std@@V?$allocator@U?$pair@$$CBW4Object_Type@@PEBVGameObject@@@std@@@4@$0A@@std@@@std@@IEAA?AV?$_Tree_iterator@V?$_Tree_val@U?$_Tree_simple_types@U?$pair@$$CBW4Object_Type@@PEBVGameObject@@@std@@@std@@@std@@@1@V?$_Tree_const_iterator@V?$_Tree_val@U?$_Tree_simple_types@U?$pair@$$CBW4Object_Type@@PEBVGameObject@@@std@@@std@@@std@@@1@AEAU?$pair@$$CBW4Object_Type@@PEBVGameObject@@@1@PEAU?$_Tree_node@U?$pair@$$CBW4Object_Type@@PEBVGameObject@@@std@@PEAX@1@@Z@4HA 00000001400489b0     config.obj
 0003:0000a9c0       $unwind$?dtor$4@?0???$_Insert_hint@AEAU?$pair@$$CBW4Object_Type@@PEBVGameObject@@@std@@PEAU?$_Tree_node@U?$pair@$$CBW4Object_Type@@PEBVGameObject@@@std@@PEAX@2@@?$_Tree@V?$_Tmap_traits@W4Object_Type@@PEBVGameObject@@U?$less@W4Object_Type@@@std@@V?$allocator@U?$pair@$$CBW4Object_Type@@PEBVGameObject@@@std@@@4@$0A@@std@@@std@@IEAA?AV?$_Tree_iterator@V?$_Tree_val@U?$_Tree_simple_types@U?$pair@$$CBW4Object_Type@@PEBVGameObject@@@std@@@std@@@std@@@1@V?$_Tree_const_iterator@V?$_Tree_val@U?$_Tree_simple_types@U?$pair@$$CBW4Object_Type@@PEBVGameObject@@@std@@@std@@@std@@@1@AEAU?$pair@$$CBW4Object_Type@@PEBVGameObject@@@1@PEAU?$_Tree_node@U?$pair@$$CBW4Object_Type@@PEBVGameObject@@@std@@PEAX@1@@Z@4HA 00000001400489c0     config.obj
 0003:0000a9d0       $unwind$?dtor$5@?0???$_Insert_hint@AEAU?$pair@$$CBW4Object_Type@@PEBVGameObject@@@std@@PEAU?$_Tree_node@U?$pair@$$CBW4Object_Type@@PEBVGameObject@@@std@@PEAX@2@@?$_Tree@V?$_Tmap_traits@W4Object_Type@@PEBVGameObject@@U?$less@W4Object_Type@@@std@@V?$allocator@U?$pair@$$CBW4Object_Type@@PEBVGameObject@@@std@@@4@$0A@@std@@@std@@IEAA?AV?$_Tree_iterator@V?$_Tree_val@U?$_Tree_simple_types@U?$pair@$$CBW4Object_Type@@PEBVGameObject@@@std@@@std@@@std@@@1@V?$_Tree_const_iterator@V?$_Tree_val@U?$_Tree_simple_types@U?$pair@$$CBW4Object_Type@@PEBVGameObject@@@std@@@std@@@std@@@1@AEAU?$pair@$$CBW4Object_Type@@PEBVGameObject@@@1@PEAU?$_Tree_node@U?$pair@$$CBW4Object_Type@@PEBVGameObject@@@std@@PEAX@1@@Z@4HA 00000001400489d0     config.obj
 0003:0000a9e0       $unwind$?dtor$6@?0???$_Insert_hint@AEAU?$pair@$$CBW4Object_Type@@PEBVGameObject@@@std@@PEAU?$_Tree_node@U?$pair@$$CBW4Object_Type@@PEBVGameObject@@@std@@PEAX@2@@?$_Tree@V?$_Tmap_traits@W4Object_Type@@PEBVGameObject@@U?$less@W4Object_Type@@@std@@V?$allocator@U?$pair@$$CBW4Object_Type@@PEBVGameObject@@@std@@@4@$0A@@std@@@std@@IEAA?AV?$_Tree_iterator@V?$_Tree_val@U?$_Tree_simple_types@U?$pair@$$CBW4Object_Type@@PEBVGameObject@@@std@@@std@@@std@@@1@V?$_Tree_const_iterator@V?$_Tree_val@U?$_Tree_simple_types@U?$pair@$$CBW4Object_Type@@PEBVGameObject@@@std@@@std@@@std@@@1@AEAU?$pair@$$CBW4Object_Type@@PEBVGameObject@@@1@PEAU?$_Tree_node@U?$pair@$$CBW4Object_Type@@PEBVGameObject@@@std@@PEAX@1@@Z@4HA 00000001400489e0     config.obj
 0003:0000a9f0       $unwind$?dtor$7@?0???$_Insert_hint@AEAU?$pair@$$CBW4Object_Type@@PEBVGameObject@@@std@@PEAU?$_Tree_node@U?$pair@$$CBW4Object_Type@@PEBVGameObject@@@std@@PEAX@2@@?$_Tree@V?$_Tmap_traits@W4Object_Type@@PEBVGameObject@@U?$less@W4Object_Type@@@std@@V?$allocator@U?$pair@$$CBW4Object_Type@@PEBVGameObject@@@std@@@4@$0A@@std@@@std@@IEAA?AV?$_Tree_iterator@V?$_Tree_val@U?$_Tree_simple_types@U?$pair@$$CBW4Object_Type@@PEBVGameObject@@@std@@@std@@@std@@@1@V?$_Tree_const_iterator@V?$_Tree_val@U?$_Tree_simple_types@U?$pair@$$CBW4Object_Type@@PEBVGameObject@@@std@@@std@@@std@@@1@AEAU?$pair@$$CBW4Object_Type@@PEBVGameObject@@@1@PEAU?$_Tree_node@U?$pair@$$CBW4Object_Type@@PEBVGameObject@@@std@@PEAX@1@@Z@4HA 00000001400489f0     config.obj
 0003:0000aa00       $unwind$?dtor$8@?0???$_Insert_hint@AEAU?$pair@$$CBW4Object_Type@@PEBVGameObject@@@std@@PEAU?$_Tree_node@U?$pair@$$CBW4Object_Type@@PEBVGameObject@@@std@@PEAX@2@@?$_Tree@V?$_Tmap_traits@W4Object_Type@@PEBVGameObject@@U?$less@W4Object_Type@@@std@@V?$allocator@U?$pair@$$CBW4Object_Type@@PEBVGameObject@@@std@@@4@$0A@@std@@@std@@IEAA?AV?$_Tree_iterator@V?$_Tree_val@U?$_Tree_simple_types@U?$pair@$$CBW4Object_Type@@PEBVGameObject@@@std@@@std@@@std@@@1@V?$_Tree_const_iterator@V?$_Tree_val@U?$_Tree_simple_types@U?$pair@$$CBW4Object_Type@@PEBVGameObject@@@std@@@std@@@std@@@1@AEAU?$pair@$$CBW4Object_Type@@PEBVGameObject@@@1@PEAU?$_Tree_node@U?$pair@$$CBW4Object_Type@@PEBVGameObject@@@std@@PEAX@1@@Z@4HA 0000000140048a00     config.obj
 0003:0000aa10       $unwind$?catch$10@?0???$_Insert_hint@AEAU?$pair@$$CBW4Object_Type@@PEBVGameObject@@@std@@PEAU?$_Tree_node@U?$pair@$$CBW4Object_Type@@PEBVGameObject@@@std@@PEAX@2@@?$_Tree@V?$_Tmap_traits@W4Object_Type@@PEBVGameObject@@U?$less@W4Object_Type@@@std@@V?$allocator@U?$pair@$$CBW4Object_Type@@PEBVGameObject@@@std@@@4@$0A@@std@@@std@@IEAA?AV?$_Tree_iterator@V?$_Tree_val@U?$_Tree_simple_types@U?$pair@$$CBW4Object_Type@@PEBVGameObject@@@std@@@std@@@std@@@1@V?$_Tree_const_iterator@V?$_Tree_val@U?$_Tree_simple_types@U?$pair@$$CBW4Object_Type@@PEBVGameObject@@@std@@@std@@@std@@@1@AEAU?$pair@$$CBW4Object_Type@@PEBVGameObject@@@1@PEAU?$_Tree_node@U?$pair@$$CBW4Object_Type@@PEBVGameObject@@@std@@PEAX@1@@Z@4HA 0000000140048a10     config.obj
 0003:0000aa28       $unwind$??$forward@V?$_Tree_iterator@V?$_Tree_val@U?$_Tree_simple_types@U?$pair@$$CBW4Object_Type@@PEBVGameObject@@@std@@@std@@@std@@@std@@@std@@YA$$QEAV?$_Tree_iterator@V?$_Tree_val@U?$_Tree_simple_types@U?$pair@$$CBW4Object_Type@@PEBVGameObject@@@std@@@std@@@std@@@0@AEAV10@@Z 0000000140048a28     config.obj
 0003:0000aa3c       $unwind$??$forward@_N@std@@YA$$QEA_NAEA_N@Z 0000000140048a3c     config.obj
 0003:0000aa50       $unwind$??$forward@AEAV?$_Tree_iterator@V?$_Tree_val@U?$_Tree_simple_types@U?$pair@$$CBW4Object_Type@@PEBVGameObject@@@std@@@std@@@std@@@std@@@std@@YAAEAV?$_Tree_iterator@V?$_Tree_val@U?$_Tree_simple_types@U?$pair@$$CBW4Object_Type@@PEBVGameObject@@@std@@@std@@@std@@@0@AEAV10@@Z 0000000140048a50     config.obj
 0003:0000aa64       $unwind$??$?0U_Exact_args_t@std@@W4Object_Type@@$$V$0A@@?$tuple@$$QEAW4Object_Type@@@std@@QEAA@U_Exact_args_t@1@$$QEAW4Object_Type@@@Z 0000000140048a64     config.obj
 0003:0000aa78       $unwind$??$construct@U?$pair@$$CBW4Object_Type@@PEBVGameObject@@@std@@AEBUpiecewise_construct_t@2@V?$tuple@$$QEAW4Object_Type@@@2@V?$tuple@$$V@2@@?$_Default_allocator_traits@V?$allocator@U?$_Tree_node@U?$pair@$$CBW4Object_Type@@PEBVGameObject@@@std@@PEAX@std@@@std@@@std@@SAXAEAV?$allocator@U?$_Tree_node@U?$pair@$$CBW4Object_Type@@PEBVGameObject@@@std@@PEAX@std@@@1@QEAU?$pair@$$CBW4Object_Type@@PEBVGameObject@@@1@AEBUpiecewise_construct_t@1@$$QEAV?$tuple@$$QEAW4Object_Type@@@1@$$QEAV?$tuple@$$V@1@@Z 0000000140048a78     config.obj
 0003:0000aa8c       $unwind$??$forward@AEAU?$pair@$$CBW4Object_Type@@PEBVGameObject@@@std@@@std@@YAAEAU?$pair@$$CBW4Object_Type@@PEBVGameObject@@@0@AEAU10@@Z 0000000140048a8c     config.obj
 0003:0000aaa0       $unwind$??$_Insert_at@AEAU?$pair@$$CBW4Object_Type@@PEBVGameObject@@@std@@PEAU?$_Tree_node@U?$pair@$$CBW4Object_Type@@PEBVGameObject@@@std@@PEAX@2@@?$_Tree@V?$_Tmap_traits@W4Object_Type@@PEBVGameObject@@U?$less@W4Object_Type@@@std@@V?$allocator@U?$pair@$$CBW4Object_Type@@PEBVGameObject@@@std@@@4@$0A@@std@@@std@@IEAA?AV?$_Tree_iterator@V?$_Tree_val@U?$_Tree_simple_types@U?$pair@$$CBW4Object_Type@@PEBVGameObject@@@std@@@std@@@std@@@1@_NPEAU?$_Tree_node@U?$pair@$$CBW4Object_Type@@PEBVGameObject@@@std@@PEAX@1@AEAU?$pair@$$CBW4Object_Type@@PEBVGameObject@@@1@1@Z 0000000140048aa0     config.obj
 0003:0000aab4       $unwind$??$_Debug_lt_pred@AEAU?$less@W4Object_Type@@@std@@AEBW4Object_Type@@AEBW43@@std@@YA_NAEAU?$less@W4Object_Type@@@0@AEBW4Object_Type@@1PEB_WI@Z 0000000140048ab4     config.obj
 0003:0000aac8       $unwind$??$_Insert_nohint@AEAU?$pair@$$CBW4Object_Type@@PEBVGameObject@@@std@@PEAU?$_Tree_node@U?$pair@$$CBW4Object_Type@@PEBVGameObject@@@std@@PEAX@2@@?$_Tree@V?$_Tmap_traits@W4Object_Type@@PEBVGameObject@@U?$less@W4Object_Type@@@std@@V?$allocator@U?$pair@$$CBW4Object_Type@@PEBVGameObject@@@std@@@4@$0A@@std@@@std@@IEAA?AU?$pair@V?$_Tree_iterator@V?$_Tree_val@U?$_Tree_simple_types@U?$pair@$$CBW4Object_Type@@PEBVGameObject@@@std@@@std@@@std@@@std@@_N@1@_NAEAU?$pair@$$CBW4Object_Type@@PEBVGameObject@@@1@PEAU?$_Tree_node@U?$pair@$$CBW4Object_Type@@PEBVGameObject@@@std@@PEAX@1@@Z 0000000140048ac8     config.obj
 0003:0000aae4       $stateUnwindMap$??$_Insert_nohint@AEAU?$pair@$$CBW4Object_Type@@PEBVGameObject@@@std@@PEAU?$_Tree_node@U?$pair@$$CBW4Object_Type@@PEBVGameObject@@@std@@PEAX@2@@?$_Tree@V?$_Tmap_traits@W4Object_Type@@PEBVGameObject@@U?$less@W4Object_Type@@@std@@V?$allocator@U?$pair@$$CBW4Object_Type@@PEBVGameObject@@@std@@@4@$0A@@std@@@std@@IEAA?AU?$pair@V?$_Tree_iterator@V?$_Tree_val@U?$_Tree_simple_types@U?$pair@$$CBW4Object_Type@@PEBVGameObject@@@std@@@std@@@std@@@std@@_N@1@_NAEAU?$pair@$$CBW4Object_Type@@PEBVGameObject@@@1@PEAU?$_Tree_node@U?$pair@$$CBW4Object_Type@@PEBVGameObject@@@std@@PEAX@1@@Z 0000000140048ae4     config.obj
 0003:0000ab08       $tryMap$??$_Insert_nohint@AEAU?$pair@$$CBW4Object_Type@@PEBVGameObject@@@std@@PEAU?$_Tree_node@U?$pair@$$CBW4Object_Type@@PEBVGameObject@@@std@@PEAX@2@@?$_Tree@V?$_Tmap_traits@W4Object_Type@@PEBVGameObject@@U?$less@W4Object_Type@@@std@@V?$allocator@U?$pair@$$CBW4Object_Type@@PEBVGameObject@@@std@@@4@$0A@@std@@@std@@IEAA?AU?$pair@V?$_Tree_iterator@V?$_Tree_val@U?$_Tree_simple_types@U?$pair@$$CBW4Object_Type@@PEBVGameObject@@@std@@@std@@@std@@@std@@_N@1@_NAEAU?$pair@$$CBW4Object_Type@@PEBVGameObject@@@1@PEAU?$_Tree_node@U?$pair@$$CBW4Object_Type@@PEBVGameObject@@@std@@PEAX@1@@Z 0000000140048b08     config.obj
 0003:0000ab20       $handlerMap$0$??$_Insert_nohint@AEAU?$pair@$$CBW4Object_Type@@PEBVGameObject@@@std@@PEAU?$_Tree_node@U?$pair@$$CBW4Object_Type@@PEBVGameObject@@@std@@PEAX@2@@?$_Tree@V?$_Tmap_traits@W4Object_Type@@PEBVGameObject@@U?$less@W4Object_Type@@@std@@V?$allocator@U?$pair@$$CBW4Object_Type@@PEBVGameObject@@@std@@@4@$0A@@std@@@std@@IEAA?AU?$pair@V?$_Tree_iterator@V?$_Tree_val@U?$_Tree_simple_types@U?$pair@$$CBW4Object_Type@@PEBVGameObject@@@std@@@std@@@std@@@std@@_N@1@_NAEAU?$pair@$$CBW4Object_Type@@PEBVGameObject@@@1@PEAU?$_Tree_node@U?$pair@$$CBW4Object_Type@@PEBVGameObject@@@std@@PEAX@1@@Z 0000000140048b20     config.obj
 0003:0000ab40       $ip2state$??$_Insert_nohint@AEAU?$pair@$$CBW4Object_Type@@PEBVGameObject@@@std@@PEAU?$_Tree_node@U?$pair@$$CBW4Object_Type@@PEBVGameObject@@@std@@PEAX@2@@?$_Tree@V?$_Tmap_traits@W4Object_Type@@PEBVGameObject@@U?$less@W4Object_Type@@@std@@V?$allocator@U?$pair@$$CBW4Object_Type@@PEBVGameObject@@@std@@@4@$0A@@std@@@std@@IEAA?AU?$pair@V?$_Tree_iterator@V?$_Tree_val@U?$_Tree_simple_types@U?$pair@$$CBW4Object_Type@@PEBVGameObject@@@std@@@std@@@std@@@std@@_N@1@_NAEAU?$pair@$$CBW4Object_Type@@PEBVGameObject@@@1@PEAU?$_Tree_node@U?$pair@$$CBW4Object_Type@@PEBVGameObject@@@std@@PEAX@1@@Z 0000000140048b40     config.obj
 0003:0000abac       $unwind$?dtor$2@?0???$_Insert_nohint@AEAU?$pair@$$CBW4Object_Type@@PEBVGameObject@@@std@@PEAU?$_Tree_node@U?$pair@$$CBW4Object_Type@@PEBVGameObject@@@std@@PEAX@2@@?$_Tree@V?$_Tmap_traits@W4Object_Type@@PEBVGameObject@@U?$less@W4Object_Type@@@std@@V?$allocator@U?$pair@$$CBW4Object_Type@@PEBVGameObject@@@std@@@4@$0A@@std@@@std@@IEAA?AU?$pair@V?$_Tree_iterator@V?$_Tree_val@U?$_Tree_simple_types@U?$pair@$$CBW4Object_Type@@PEBVGameObject@@@std@@@std@@@std@@@std@@_N@1@_NAEAU?$pair@$$CBW4Object_Type@@PEBVGameObject@@@1@PEAU?$_Tree_node@U?$pair@$$CBW4Object_Type@@PEBVGameObject@@@std@@PEAX@1@@Z@4HA 0000000140048bac     config.obj
 0003:0000abbc       $unwind$?dtor$3@?0???$_Insert_nohint@AEAU?$pair@$$CBW4Object_Type@@PEBVGameObject@@@std@@PEAU?$_Tree_node@U?$pair@$$CBW4Object_Type@@PEBVGameObject@@@std@@PEAX@2@@?$_Tree@V?$_Tmap_traits@W4Object_Type@@PEBVGameObject@@U?$less@W4Object_Type@@@std@@V?$allocator@U?$pair@$$CBW4Object_Type@@PEBVGameObject@@@std@@@4@$0A@@std@@@std@@IEAA?AU?$pair@V?$_Tree_iterator@V?$_Tree_val@U?$_Tree_simple_types@U?$pair@$$CBW4Object_Type@@PEBVGameObject@@@std@@@std@@@std@@@std@@_N@1@_NAEAU?$pair@$$CBW4Object_Type@@PEBVGameObject@@@1@PEAU?$_Tree_node@U?$pair@$$CBW4Object_Type@@PEBVGameObject@@@std@@PEAX@1@@Z@4HA 0000000140048bbc     config.obj
 0003:0000abcc       $unwind$?catch$6@?0???$_Insert_nohint@AEAU?$pair@$$CBW4Object_Type@@PEBVGameObject@@@std@@PEAU?$_Tree_node@U?$pair@$$CBW4Object_Type@@PEBVGameObject@@@std@@PEAX@2@@?$_Tree@V?$_Tmap_traits@W4Object_Type@@PEBVGameObject@@U?$less@W4Object_Type@@@std@@V?$allocator@U?$pair@$$CBW4Object_Type@@PEBVGameObject@@@std@@@4@$0A@@std@@@std@@IEAA?AU?$pair@V?$_Tree_iterator@V?$_Tree_val@U?$_Tree_simple_types@U?$pair@$$CBW4Object_Type@@PEBVGameObject@@@std@@@std@@@std@@@std@@_N@1@_NAEAU?$pair@$$CBW4Object_Type@@PEBVGameObject@@@1@PEAU?$_Tree_node@U?$pair@$$CBW4Object_Type@@PEBVGameObject@@@std@@PEAX@1@@Z@4HA 0000000140048bcc     config.obj
 0003:0000abe4       $unwind$??$_Freenode0@V?$allocator@U?$_Tree_node@U?$pair@$$CBW4Object_Type@@PEBVGameObject@@@std@@PEAX@std@@@std@@@?$_Tree_node@U?$pair@$$CBW4Object_Type@@PEBVGameObject@@@std@@PEAX@std@@SAXAEAV?$allocator@U?$_Tree_node@U?$pair@$$CBW4Object_Type@@PEBVGameObject@@@std@@PEAX@std@@@1@PEAU01@@Z 0000000140048be4     config.obj
 0003:0000ac00       $ip2state$??$_Freenode0@V?$allocator@U?$_Tree_node@U?$pair@$$CBW4Object_Type@@PEBVGameObject@@@std@@PEAX@std@@@std@@@?$_Tree_node@U?$pair@$$CBW4Object_Type@@PEBVGameObject@@@std@@PEAX@std@@SAXAEAV?$allocator@U?$_Tree_node@U?$pair@$$CBW4Object_Type@@PEBVGameObject@@@std@@PEAX@std@@@1@PEAU01@@Z 0000000140048c00     config.obj
 0003:0000ac08       $unwind$??$addressof@PEAU?$_Tree_node@U?$pair@$$CBW4Object_Type@@PEBVGameObject@@@std@@PEAX@std@@@std@@YAPEAPEAU?$_Tree_node@U?$pair@$$CBW4Object_Type@@PEBVGameObject@@@std@@PEAX@0@AEAPEAU10@@Z 0000000140048c08     config.obj
 0003:0000ac1c       $unwind$??$construct@PEAU?$_Tree_node@U?$pair@$$CBW4Object_Type@@PEBVGameObject@@@std@@PEAX@std@@AEAPEAU12@@?$_Default_allocator_traits@V?$allocator@U?$_Tree_node@U?$pair@$$CBW4Object_Type@@PEBVGameObject@@@std@@PEAX@std@@@std@@@std@@SAXAEAV?$allocator@U?$_Tree_node@U?$pair@$$CBW4Object_Type@@PEBVGameObject@@@std@@PEAX@std@@@1@QEAPEAU?$_Tree_node@U?$pair@$$CBW4Object_Type@@PEBVGameObject@@@std@@PEAX@1@AEAPEAU31@@Z 0000000140048c1c     config.obj
 0003:0000ac30       $unwind$??$destroy@U?$pair@$$CBW4Object_Type@@PEBVGameObject@@@std@@@?$_Default_allocator_traits@V?$allocator@U?$_Tree_node@U?$pair@$$CBW4Object_Type@@PEBVGameObject@@@std@@PEAX@std@@@std@@@std@@SAXAEAV?$allocator@U?$_Tree_node@U?$pair@$$CBW4Object_Type@@PEBVGameObject@@@std@@PEAX@std@@@1@QEAU?$pair@$$CBW4Object_Type@@PEBVGameObject@@@1@@Z 0000000140048c30     config.obj
 0003:0000ac44       $unwind$??$_Get_size_of_n@$0DA@@std@@YA_K_K@Z 0000000140048c44     config.obj
 0003:0000ac58       $unwind$??$?0U_Exact_args_t@std@@$0A@@?$tuple@$$V@std@@QEAA@U_Exact_args_t@1@@Z 0000000140048c58     config.obj
 0003:0000ac6c       $unwind$??$?0W4Object_Type@@@?$_Tuple_val@$$QEAW4Object_Type@@@std@@QEAA@$$QEAW4Object_Type@@@Z 0000000140048c6c     config.obj
 0003:0000ac80       $unwind$??$?0$$QEAW4Object_Type@@$$Z$$V@?$pair@$$CBW4Object_Type@@PEBVGameObject@@@std@@QEAA@Upiecewise_construct_t@1@V?$tuple@$$QEAW4Object_Type@@@1@V?$tuple@$$V@1@@Z 0000000140048c80     config.obj
 0003:0000ac94       $unwind$??$_Buy_if_not_node@AEAU?$pair@$$CBW4Object_Type@@PEBVGameObject@@@std@@@?$_Tree@V?$_Tmap_traits@W4Object_Type@@PEBVGameObject@@U?$less@W4Object_Type@@@std@@V?$allocator@U?$pair@$$CBW4Object_Type@@PEBVGameObject@@@std@@@4@$0A@@std@@@std@@IEAAPEAU?$_Tree_node@U?$pair@$$CBW4Object_Type@@PEBVGameObject@@@std@@PEAX@1@PEAU21@AEAU?$pair@$$CBW4Object_Type@@PEBVGameObject@@@1@@Z 0000000140048c94     config.obj
 0003:0000aca8       $unwind$??$destroy@PEAU?$_Tree_node@U?$pair@$$CBW4Object_Type@@PEBVGameObject@@@std@@PEAX@std@@@?$_Default_allocator_traits@V?$allocator@U?$_Tree_node@U?$pair@$$CBW4Object_Type@@PEBVGameObject@@@std@@PEAX@std@@@std@@@std@@SAXAEAV?$allocator@U?$_Tree_node@U?$pair@$$CBW4Object_Type@@PEBVGameObject@@@std@@PEAX@std@@@1@QEAPEAU?$_Tree_node@U?$pair@$$CBW4Object_Type@@PEBVGameObject@@@std@@PEAX@1@@Z 0000000140048ca8     config.obj
 0003:0000acbc       $unwind$??$forward@AEAPEAU?$_Tree_node@U?$pair@$$CBW4Object_Type@@PEBVGameObject@@@std@@PEAX@std@@@std@@YAAEAPEAU?$_Tree_node@U?$pair@$$CBW4Object_Type@@PEBVGameObject@@@std@@PEAX@0@AEAPEAU10@@Z 0000000140048cbc     config.obj
 0003:0000acd0       $unwind$??$?0V?$tuple@$$QEAW4Object_Type@@@std@@V?$tuple@$$V@1@$0A@$$Z$S@?$pair@$$CBW4Object_Type@@PEBVGameObject@@@std@@QEAA@AEAV?$tuple@$$QEAW4Object_Type@@@1@AEAV?$tuple@$$V@1@U?$integer_sequence@_K$0A@@1@U?$integer_sequence@_K$S@1@@Z 0000000140048cd0     config.obj
 0003:0000ace4       $unwind$??$move@AEAV?$tuple@$$QEAW4Object_Type@@@std@@@std@@YA$$QEAV?$tuple@$$QEAW4Object_Type@@@0@AEAV10@@Z 0000000140048ce4     config.obj
 0003:0000acf8       $unwind$??$get@$0A@$$QEAW4Object_Type@@@std@@YA$$QEAW4Object_Type@@$$QEAV?$tuple@$$QEAW4Object_Type@@@0@@Z 0000000140048cf8     config.obj
 0003:0000ad0c       $unwind$??$forward@$$QEAW4Object_Type@@@std@@YA$$QEAW4Object_Type@@AEAW41@@Z 0000000140048d0c     config.obj
 0003:0000ad20       $unwind$??0?$Container@VWidget@@@@QEAA@AEBV?$Vector2@M@sf@@0@Z 0000000140048d20     container.obj
 0003:0000ad34       $unwind$??1?$Container@VWidget@@@@UEAA@XZ 0000000140048d34     container.obj
 0003:0000ad48       $unwind$?SetPos@?$Container@VWidget@@@@UEAAXAEBV?$Vector2@M@sf@@@Z 0000000140048d48     container.obj
 0003:0000ad5c       $unwind$?AddWidget@?$Container@VWidget@@@@QEAAXPEAVWidget@@@Z 0000000140048d5c     container.obj
 0003:0000ad70       $unwind$?RemoveWidget@?$Container@VWidget@@@@QEAA_NPEAVWidget@@@Z 0000000140048d70     container.obj
 0003:0000ad84       $unwind$?GetWidget@?$Container@VWidget@@@@QEBAPEAVWidget@@_K@Z 0000000140048d84     container.obj
 0003:0000ad98       $unwind$?GetWidgetsCount@?$Container@VWidget@@@@QEBA_KXZ 0000000140048d98     container.obj
 0003:0000adac       $unwind$?Draw@?$Container@VWidget@@@@UEAAXPEAVRenderWindow@sf@@@Z 0000000140048dac     container.obj
 0003:0000adc0       $unwind$?Update@?$Container@VWidget@@@@UEAAXAEBVTime@sf@@@Z 0000000140048dc0     container.obj
 0003:0000add4       $unwind$?HandleEvent@?$Container@VWidget@@@@UEAAXAEBVEvent@sf@@@Z 0000000140048dd4     container.obj
 0003:0000ade8       $unwind$??_G?$Container@VWidget@@@@UEAAPEAXI@Z 0000000140048de8     container.obj
 0003:0000adfc       $unwind$??0?$Container@VGameObject@@@@QEAA@AEBV?$Vector2@M@sf@@0@Z 0000000140048dfc     container.obj
 0003:0000ae10       $unwind$??1?$Container@VGameObject@@@@UEAA@XZ 0000000140048e10     container.obj
 0003:0000ae24       $unwind$?SetPos@?$Container@VGameObject@@@@UEAAXAEBV?$Vector2@M@sf@@@Z 0000000140048e24     container.obj
 0003:0000ae38       $unwind$?AddWidget@?$Container@VGameObject@@@@QEAAXPEAVGameObject@@@Z 0000000140048e38     container.obj
 0003:0000ae4c       $unwind$?RemoveWidget@?$Container@VGameObject@@@@QEAA_NPEAVGameObject@@@Z 0000000140048e4c     container.obj
 0003:0000ae60       $unwind$?GetWidget@?$Container@VGameObject@@@@QEBAPEAVGameObject@@_K@Z 0000000140048e60     container.obj
 0003:0000ae74       $unwind$?GetWidgetsCount@?$Container@VGameObject@@@@QEBA_KXZ 0000000140048e74     container.obj
 0003:0000ae88       $unwind$?Draw@?$Container@VGameObject@@@@UEAAXPEAVRenderWindow@sf@@@Z 0000000140048e88     container.obj
 0003:0000ae9c       $unwind$?Update@?$Container@VGameObject@@@@UEAAXAEBVTime@sf@@@Z 0000000140048e9c     container.obj
 0003:0000aeb0       $unwind$?HandleEvent@?$Container@VGameObject@@@@UEAAXAEBVEvent@sf@@@Z 0000000140048eb0     container.obj
 0003:0000aec4       $unwind$??_G?$Container@VGameObject@@@@UEAAPEAXI@Z 0000000140048ec4     container.obj
 0003:0000aed8       $unwind$?_Getpfirst@_Container_base12@std@@QEBAPEAPEAU_Iterator_base12@2@XZ 0000000140048ed8     engine.obj
 0003:0000aeec       $unwind$?_Clrcont@_Iterator_base12@std@@QEAAXXZ 0000000140048eec     engine.obj
 0003:0000af00       $unwind$?_Getpnext@_Iterator_base12@std@@QEAAPEAPEAU12@XZ 0000000140048f00     engine.obj
 0003:0000af14       $unwind$??0locale@std@@QEAA@XZ 0000000140048f14     engine.obj
 0003:0000af30       $ip2state$??0locale@std@@QEAA@XZ 0000000140048f30     engine.obj
 0003:0000af38       $unwind$??1locale@std@@QEAA@XZ 0000000140048f38     engine.obj
 0003:0000af58       $ip2state$??1locale@std@@QEAA@XZ 0000000140048f58     engine.obj
 0003:0000af60       $unwind$??0ContextSettings@sf@@QEAA@IIIIII_N@Z 0000000140048f60     engine.obj
 0003:0000af74       $unwind$??_GRenderWindow@sf@@UEAAPEAXI@Z 0000000140048f74     engine.obj
 0003:0000af88       $unwind$??0?$allocator@U?$_Tree_node@U?$pair@$$CBW4Object_Type@@PEBVGameObject@@@std@@PEAX@std@@@std@@QEAA@XZ 0000000140048f88     engine.obj
 0003:0000af9c       $unwind$??0?$_Tree_comp_alloc@V?$_Tmap_traits@W4Object_Type@@PEBVGameObject@@U?$less@W4Object_Type@@@std@@V?$allocator@U?$pair@$$CBW4Object_Type@@PEBVGameObject@@@std@@@4@$0A@@std@@@std@@QEAA@AEBU?$less@W4Object_Type@@@1@@Z 0000000140048f9c     engine.obj
 0003:0000afb0       $unwind$?_Construct@?$_Tree_comp_alloc@V?$_Tmap_traits@W4Object_Type@@PEBVGameObject@@U?$less@W4Object_Type@@@std@@V?$allocator@U?$pair@$$CBW4Object_Type@@PEBVGameObject@@@std@@@4@$0A@@std@@@std@@QEAAXXZ 0000000140048fb0     engine.obj
 0003:0000afcc       $stateUnwindMap$?_Construct@?$_Tree_comp_alloc@V?$_Tmap_traits@W4Object_Type@@PEBVGameObject@@U?$less@W4Object_Type@@@std@@V?$allocator@U?$pair@$$CBW4Object_Type@@PEBVGameObject@@@std@@@4@$0A@@std@@@std@@QEAAXXZ 0000000140048fcc     engine.obj
 0003:0000afe0       $tryMap$?_Construct@?$_Tree_comp_alloc@V?$_Tmap_traits@W4Object_Type@@PEBVGameObject@@U?$less@W4Object_Type@@@std@@V?$allocator@U?$pair@$$CBW4Object_Type@@PEBVGameObject@@@std@@@4@$0A@@std@@@std@@QEAAXXZ 0000000140048fe0     engine.obj
 0003:0000aff8       $handlerMap$0$?_Construct@?$_Tree_comp_alloc@V?$_Tmap_traits@W4Object_Type@@PEBVGameObject@@U?$less@W4Object_Type@@@std@@V?$allocator@U?$pair@$$CBW4Object_Type@@PEBVGameObject@@@std@@@4@$0A@@std@@@std@@QEAAXXZ 0000000140048ff8     engine.obj
 0003:0000b010       $ip2state$?_Construct@?$_Tree_comp_alloc@V?$_Tmap_traits@W4Object_Type@@PEBVGameObject@@U?$less@W4Object_Type@@@std@@V?$allocator@U?$pair@$$CBW4Object_Type@@PEBVGameObject@@@std@@@4@$0A@@std@@@std@@QEAAXXZ 0000000140049010     engine.obj
 0003:0000b044       $unwind$?catch$0@?0??_Construct@?$_Tree_comp_alloc@V?$_Tmap_traits@W4Object_Type@@PEBVGameObject@@U?$less@W4Object_Type@@@std@@V?$allocator@U?$pair@$$CBW4Object_Type@@PEBVGameObject@@@std@@@4@$0A@@std@@@std@@QEAAXXZ@4HA 0000000140049044     engine.obj
 0003:0000b05c       $unwind$??1?$_Tree_comp_alloc@V?$_Tmap_traits@W4Object_Type@@PEBVGameObject@@U?$less@W4Object_Type@@@std@@V?$allocator@U?$pair@$$CBW4Object_Type@@PEBVGameObject@@@std@@@4@$0A@@std@@@std@@QEAA@XZ 000000014004905c     engine.obj
 0003:0000b078       $ip2state$??1?$_Tree_comp_alloc@V?$_Tmap_traits@W4Object_Type@@PEBVGameObject@@U?$less@W4Object_Type@@@std@@V?$allocator@U?$pair@$$CBW4Object_Type@@PEBVGameObject@@@std@@@4@$0A@@std@@@std@@QEAA@XZ 0000000140049078     engine.obj
 0003:0000b080       $unwind$?_Alloc_proxy@?$_Tree_comp_alloc@V?$_Tmap_traits@W4Object_Type@@PEBVGameObject@@U?$less@W4Object_Type@@@std@@V?$allocator@U?$pair@$$CBW4Object_Type@@PEBVGameObject@@@std@@@4@$0A@@std@@@std@@QEAAXXZ 0000000140049080     engine.obj
 0003:0000b094       $unwind$?_Free_proxy@?$_Tree_comp_alloc@V?$_Tmap_traits@W4Object_Type@@PEBVGameObject@@U?$less@W4Object_Type@@@std@@V?$allocator@U?$pair@$$CBW4Object_Type@@PEBVGameObject@@@std@@@4@$0A@@std@@@std@@QEAAXXZ 0000000140049094     engine.obj
 0003:0000b0a8       $unwind$?_Getpfirst@?$_Tree_comp_alloc@V?$_Tmap_traits@W4Object_Type@@PEBVGameObject@@U?$less@W4Object_Type@@@std@@V?$allocator@U?$pair@$$CBW4Object_Type@@PEBVGameObject@@@std@@@4@$0A@@std@@@std@@QEBAPEAPEAU_Iterator_base12@2@XZ 00000001400490a8     engine.obj
 0003:0000b0bc       $unwind$?_Myproxy@?$_Tree_comp_alloc@V?$_Tmap_traits@W4Object_Type@@PEBVGameObject@@U?$less@W4Object_Type@@@std@@V?$allocator@U?$pair@$$CBW4Object_Type@@PEBVGameObject@@@std@@@4@$0A@@std@@@std@@QEAAAEAPEAU_Container_proxy@2@XZ 00000001400490bc     engine.obj
 0003:0000b0d0       $unwind$?_Orphan_all@?$_Tree_comp_alloc@V?$_Tmap_traits@W4Object_Type@@PEBVGameObject@@U?$less@W4Object_Type@@@std@@V?$allocator@U?$pair@$$CBW4Object_Type@@PEBVGameObject@@@std@@@4@$0A@@std@@@std@@QEAAXXZ 00000001400490d0     engine.obj
 0003:0000b0e4       $unwind$?_Buyheadnode@?$_Tree_comp_alloc@V?$_Tmap_traits@W4Object_Type@@PEBVGameObject@@U?$less@W4Object_Type@@@std@@V?$allocator@U?$pair@$$CBW4Object_Type@@PEBVGameObject@@@std@@@4@$0A@@std@@@std@@QEAAPEAU?$_Tree_node@U?$pair@$$CBW4Object_Type@@PEBVGameObject@@@std@@PEAX@2@XZ 00000001400490e4     engine.obj
 0003:0000b100       $stateUnwindMap$?_Buyheadnode@?$_Tree_comp_alloc@V?$_Tmap_traits@W4Object_Type@@PEBVGameObject@@U?$less@W4Object_Type@@@std@@V?$allocator@U?$pair@$$CBW4Object_Type@@PEBVGameObject@@@std@@@4@$0A@@std@@@std@@QEAAPEAU?$_Tree_node@U?$pair@$$CBW4Object_Type@@PEBVGameObject@@@std@@PEAX@2@XZ 0000000140049100     engine.obj
 0003:0000b114       $tryMap$?_Buyheadnode@?$_Tree_comp_alloc@V?$_Tmap_traits@W4Object_Type@@PEBVGameObject@@U?$less@W4Object_Type@@@std@@V?$allocator@U?$pair@$$CBW4Object_Type@@PEBVGameObject@@@std@@@4@$0A@@std@@@std@@QEAAPEAU?$_Tree_node@U?$pair@$$CBW4Object_Type@@PEBVGameObject@@@std@@PEAX@2@XZ 0000000140049114     engine.obj
 0003:0000b12c       $handlerMap$0$?_Buyheadnode@?$_Tree_comp_alloc@V?$_Tmap_traits@W4Object_Type@@PEBVGameObject@@U?$less@W4Object_Type@@@std@@V?$allocator@U?$pair@$$CBW4Object_Type@@PEBVGameObject@@@std@@@4@$0A@@std@@@std@@QEAAPEAU?$_Tree_node@U?$pair@$$CBW4Object_Type@@PEBVGameObject@@@std@@PEAX@2@XZ 000000014004912c     engine.obj
 0003:0000b148       $ip2state$?_Buyheadnode@?$_Tree_comp_alloc@V?$_Tmap_traits@W4Object_Type@@PEBVGameObject@@U?$less@W4Object_Type@@@std@@V?$allocator@U?$pair@$$CBW4Object_Type@@PEBVGameObject@@@std@@@4@$0A@@std@@@std@@QEAAPEAU?$_Tree_node@U?$pair@$$CBW4Object_Type@@PEBVGameObject@@@std@@PEAX@2@XZ 0000000140049148     engine.obj
 0003:0000b17c       $unwind$?catch$0@?0??_Buyheadnode@?$_Tree_comp_alloc@V?$_Tmap_traits@W4Object_Type@@PEBVGameObject@@U?$less@W4Object_Type@@@std@@V?$allocator@U?$pair@$$CBW4Object_Type@@PEBVGameObject@@@std@@@4@$0A@@std@@@std@@QEAAPEAU?$_Tree_node@U?$pair@$$CBW4Object_Type@@PEBVGameObject@@@std@@PEAX@2@XZ@4HA 000000014004917c     engine.obj
 0003:0000b194       $unwind$?_Freeheadnode@?$_Tree_comp_alloc@V?$_Tmap_traits@W4Object_Type@@PEBVGameObject@@U?$less@W4Object_Type@@@std@@V?$allocator@U?$pair@$$CBW4Object_Type@@PEBVGameObject@@@std@@@4@$0A@@std@@@std@@QEAAXPEAU?$_Tree_node@U?$pair@$$CBW4Object_Type@@PEBVGameObject@@@std@@PEAX@2@@Z 0000000140049194     engine.obj
 0003:0000b1a8       $unwind$??0?$_Tree_val@U?$_Tree_simple_types@U?$pair@$$CBW4Object_Type@@PEBVGameObject@@@std@@@std@@@std@@QEAA@XZ 00000001400491a8     engine.obj
 0003:0000b1bc       $unwind$?_Extract@?$_Tree_val@U?$_Tree_simple_types@U?$pair@$$CBW4Object_Type@@PEBVGameObject@@@std@@@std@@@std@@QEAAPEAU?$_Tree_node@U?$pair@$$CBW4Object_Type@@PEBVGameObject@@@std@@PEAX@2@V?$_Tree_const_iterator@V?$_Tree_val@U?$_Tree_simple_types@U?$pair@$$CBW4Object_Type@@PEBVGameObject@@@std@@@std@@@std@@@2@@Z 00000001400491bc     engine.obj
 0003:0000b1d8       $stateUnwindMap$?_Extract@?$_Tree_val@U?$_Tree_simple_types@U?$pair@$$CBW4Object_Type@@PEBVGameObject@@@std@@@std@@@std@@QEAAPEAU?$_Tree_node@U?$pair@$$CBW4Object_Type@@PEBVGameObject@@@std@@PEAX@2@V?$_Tree_const_iterator@V?$_Tree_val@U?$_Tree_simple_types@U?$pair@$$CBW4Object_Type@@PEBVGameObject@@@std@@@std@@@std@@@2@@Z 00000001400491d8     engine.obj
 0003:0000b1e0       $ip2state$?_Extract@?$_Tree_val@U?$_Tree_simple_types@U?$pair@$$CBW4Object_Type@@PEBVGameObject@@@std@@@std@@@std@@QEAAPEAU?$_Tree_node@U?$pair@$$CBW4Object_Type@@PEBVGameObject@@@std@@PEAX@2@V?$_Tree_const_iterator@V?$_Tree_val@U?$_Tree_simple_types@U?$pair@$$CBW4Object_Type@@PEBVGameObject@@@std@@@std@@@std@@@2@@Z 00000001400491e0     engine.obj
 0003:0000b1fc       $unwind$?dtor$0@?0??_Extract@?$_Tree_val@U?$_Tree_simple_types@U?$pair@$$CBW4Object_Type@@PEBVGameObject@@@std@@@std@@@std@@QEAAPEAU?$_Tree_node@U?$pair@$$CBW4Object_Type@@PEBVGameObject@@@std@@PEAX@2@V?$_Tree_const_iterator@V?$_Tree_val@U?$_Tree_simple_types@U?$pair@$$CBW4Object_Type@@PEBVGameObject@@@std@@@std@@@std@@@2@@Z@4HA 00000001400491fc     engine.obj
 0003:0000b20c       $unwind$??0?$_Tree@V?$_Tmap_traits@W4Object_Type@@PEBVGameObject@@U?$less@W4Object_Type@@@std@@V?$allocator@U?$pair@$$CBW4Object_Type@@PEBVGameObject@@@std@@@4@$0A@@std@@@std@@QEAA@AEBU?$less@W4Object_Type@@@1@@Z 000000014004920c     engine.obj
 0003:0000b220       $unwind$??1?$_Tree@V?$_Tmap_traits@W4Object_Type@@PEBVGameObject@@U?$less@W4Object_Type@@@std@@V?$allocator@U?$pair@$$CBW4Object_Type@@PEBVGameObject@@@std@@@4@$0A@@std@@@std@@QEAA@XZ 0000000140049220     engine.obj
 0003:0000b240       $ip2state$??1?$_Tree@V?$_Tmap_traits@W4Object_Type@@PEBVGameObject@@U?$less@W4Object_Type@@@std@@V?$allocator@U?$pair@$$CBW4Object_Type@@PEBVGameObject@@@std@@@4@$0A@@std@@@std@@QEAA@XZ 0000000140049240     engine.obj
 0003:0000b248       $unwind$?erase@?$_Tree@V?$_Tmap_traits@W4Object_Type@@PEBVGameObject@@U?$less@W4Object_Type@@@std@@V?$allocator@U?$pair@$$CBW4Object_Type@@PEBVGameObject@@@std@@@4@$0A@@std@@@std@@QEAA?AV?$_Tree_iterator@V?$_Tree_val@U?$_Tree_simple_types@U?$pair@$$CBW4Object_Type@@PEBVGameObject@@@std@@@std@@@std@@@2@V?$_Tree_const_iterator@V?$_Tree_val@U?$_Tree_simple_types@U?$pair@$$CBW4Object_Type@@PEBVGameObject@@@std@@@std@@@std@@@2@@Z 0000000140049248     engine.obj
 0003:0000b264       $stateUnwindMap$?erase@?$_Tree@V?$_Tmap_traits@W4Object_Type@@PEBVGameObject@@U?$less@W4Object_Type@@@std@@V?$allocator@U?$pair@$$CBW4Object_Type@@PEBVGameObject@@@std@@@4@$0A@@std@@@std@@QEAA?AV?$_Tree_iterator@V?$_Tree_val@U?$_Tree_simple_types@U?$pair@$$CBW4Object_Type@@PEBVGameObject@@@std@@@std@@@std@@@2@V?$_Tree_const_iterator@V?$_Tree_val@U?$_Tree_simple_types@U?$pair@$$CBW4Object_Type@@PEBVGameObject@@@std@@@std@@@std@@@2@@Z 0000000140049264     engine.obj
 0003:0000b278       $ip2state$?erase@?$_Tree@V?$_Tmap_traits@W4Object_Type@@PEBVGameObject@@U?$less@W4Object_Type@@@std@@V?$allocator@U?$pair@$$CBW4Object_Type@@PEBVGameObject@@@std@@@4@$0A@@std@@@std@@QEAA?AV?$_Tree_iterator@V?$_Tree_val@U?$_Tree_simple_types@U?$pair@$$CBW4Object_Type@@PEBVGameObject@@@std@@@std@@@std@@@2@V?$_Tree_const_iterator@V?$_Tree_val@U?$_Tree_simple_types@U?$pair@$$CBW4Object_Type@@PEBVGameObject@@@std@@@std@@@std@@@2@@Z 0000000140049278     engine.obj
 0003:0000b2a4       $unwind$?dtor$0@?0??erase@?$_Tree@V?$_Tmap_traits@W4Object_Type@@PEBVGameObject@@U?$less@W4Object_Type@@@std@@V?$allocator@U?$pair@$$CBW4Object_Type@@PEBVGameObject@@@std@@@4@$0A@@std@@@std@@QEAA?AV?$_Tree_iterator@V?$_Tree_val@U?$_Tree_simple_types@U?$pair@$$CBW4Object_Type@@PEBVGameObject@@@std@@@std@@@std@@@2@V?$_Tree_const_iterator@V?$_Tree_val@U?$_Tree_simple_types@U?$pair@$$CBW4Object_Type@@PEBVGameObject@@@std@@@std@@@std@@@2@@Z@4HA 00000001400492a4     engine.obj
 0003:0000b2b4       $unwind$?dtor$1@?0??erase@?$_Tree@V?$_Tmap_traits@W4Object_Type@@PEBVGameObject@@U?$less@W4Object_Type@@@std@@V?$allocator@U?$pair@$$CBW4Object_Type@@PEBVGameObject@@@std@@@4@$0A@@std@@@std@@QEAA?AV?$_Tree_iterator@V?$_Tree_val@U?$_Tree_simple_types@U?$pair@$$CBW4Object_Type@@PEBVGameObject@@@std@@@std@@@std@@@2@V?$_Tree_const_iterator@V?$_Tree_val@U?$_Tree_simple_types@U?$pair@$$CBW4Object_Type@@PEBVGameObject@@@std@@@std@@@std@@@2@@Z@4HA 00000001400492b4     engine.obj
 0003:0000b2c4       $unwind$?erase@?$_Tree@V?$_Tmap_traits@W4Object_Type@@PEBVGameObject@@U?$less@W4Object_Type@@@std@@V?$allocator@U?$pair@$$CBW4Object_Type@@PEBVGameObject@@@std@@@4@$0A@@std@@@std@@QEAA?AV?$_Tree_iterator@V?$_Tree_val@U?$_Tree_simple_types@U?$pair@$$CBW4Object_Type@@PEBVGameObject@@@std@@@std@@@std@@@2@V?$_Tree_const_iterator@V?$_Tree_val@U?$_Tree_simple_types@U?$pair@$$CBW4Object_Type@@PEBVGameObject@@@std@@@std@@@std@@@2@0@Z 00000001400492c4     engine.obj
 0003:0000b2e0       $stateUnwindMap$?erase@?$_Tree@V?$_Tmap_traits@W4Object_Type@@PEBVGameObject@@U?$less@W4Object_Type@@@std@@V?$allocator@U?$pair@$$CBW4Object_Type@@PEBVGameObject@@@std@@@4@$0A@@std@@@std@@QEAA?AV?$_Tree_iterator@V?$_Tree_val@U?$_Tree_simple_types@U?$pair@$$CBW4Object_Type@@PEBVGameObject@@@std@@@std@@@std@@@2@V?$_Tree_const_iterator@V?$_Tree_val@U?$_Tree_simple_types@U?$pair@$$CBW4Object_Type@@PEBVGameObject@@@std@@@std@@@std@@@2@0@Z 00000001400492e0     engine.obj
 0003:0000b310       $ip2state$?erase@?$_Tree@V?$_Tmap_traits@W4Object_Type@@PEBVGameObject@@U?$less@W4Object_Type@@@std@@V?$allocator@U?$pair@$$CBW4Object_Type@@PEBVGameObject@@@std@@@4@$0A@@std@@@std@@QEAA?AV?$_Tree_iterator@V?$_Tree_val@U?$_Tree_simple_types@U?$pair@$$CBW4Object_Type@@PEBVGameObject@@@std@@@std@@@std@@@2@V?$_Tree_const_iterator@V?$_Tree_val@U?$_Tree_simple_types@U?$pair@$$CBW4Object_Type@@PEBVGameObject@@@std@@@std@@@std@@@2@0@Z 0000000140049310     engine.obj
 0003:0000b370       $unwind$?dtor$0@?0??erase@?$_Tree@V?$_Tmap_traits@W4Object_Type@@PEBVGameObject@@U?$less@W4Object_Type@@@std@@V?$allocator@U?$pair@$$CBW4Object_Type@@PEBVGameObject@@@std@@@4@$0A@@std@@@std@@QEAA?AV?$_Tree_iterator@V?$_Tree_val@U?$_Tree_simple_types@U?$pair@$$CBW4Object_Type@@PEBVGameObject@@@std@@@std@@@std@@@2@V?$_Tree_const_iterator@V?$_Tree_val@U?$_Tree_simple_types@U?$pair@$$CBW4Object_Type@@PEBVGameObject@@@std@@@std@@@std@@@2@0@Z@4HA 0000000140049370     engine.obj
 0003:0000b380       $unwind$?dtor$1@?0??erase@?$_Tree@V?$_Tmap_traits@W4Object_Type@@PEBVGameObject@@U?$less@W4Object_Type@@@std@@V?$allocator@U?$pair@$$CBW4Object_Type@@PEBVGameObject@@@std@@@4@$0A@@std@@@std@@QEAA?AV?$_Tree_iterator@V?$_Tree_val@U?$_Tree_simple_types@U?$pair@$$CBW4Object_Type@@PEBVGameObject@@@std@@@std@@@std@@@2@V?$_Tree_const_iterator@V?$_Tree_val@U?$_Tree_simple_types@U?$pair@$$CBW4Object_Type@@PEBVGameObject@@@std@@@std@@@std@@@2@0@Z@4HA 0000000140049380     engine.obj
 0003:0000b390       $unwind$?dtor$2@?0??erase@?$_Tree@V?$_Tmap_traits@W4Object_Type@@PEBVGameObject@@U?$less@W4Object_Type@@@std@@V?$allocator@U?$pair@$$CBW4Object_Type@@PEBVGameObject@@@std@@@4@$0A@@std@@@std@@QEAA?AV?$_Tree_iterator@V?$_Tree_val@U?$_Tree_simple_types@U?$pair@$$CBW4Object_Type@@PEBVGameObject@@@std@@@std@@@std@@@2@V?$_Tree_const_iterator@V?$_Tree_val@U?$_Tree_simple_types@U?$pair@$$CBW4Object_Type@@PEBVGameObject@@@std@@@std@@@std@@@2@0@Z@4HA 0000000140049390     engine.obj
 0003:0000b3a0       $unwind$?dtor$3@?0??erase@?$_Tree@V?$_Tmap_traits@W4Object_Type@@PEBVGameObject@@U?$less@W4Object_Type@@@std@@V?$allocator@U?$pair@$$CBW4Object_Type@@PEBVGameObject@@@std@@@4@$0A@@std@@@std@@QEAA?AV?$_Tree_iterator@V?$_Tree_val@U?$_Tree_simple_types@U?$pair@$$CBW4Object_Type@@PEBVGameObject@@@std@@@std@@@std@@@2@V?$_Tree_const_iterator@V?$_Tree_val@U?$_Tree_simple_types@U?$pair@$$CBW4Object_Type@@PEBVGameObject@@@std@@@std@@@std@@@2@0@Z@4HA 00000001400493a0     engine.obj
 0003:0000b3b0       $unwind$?clear@?$_Tree@V?$_Tmap_traits@W4Object_Type@@PEBVGameObject@@U?$less@W4Object_Type@@@std@@V?$allocator@U?$pair@$$CBW4Object_Type@@PEBVGameObject@@@std@@@4@$0A@@std@@@std@@QEAAXXZ 00000001400493b0     engine.obj
 0003:0000b3d0       $ip2state$?clear@?$_Tree@V?$_Tmap_traits@W4Object_Type@@PEBVGameObject@@U?$less@W4Object_Type@@@std@@V?$allocator@U?$pair@$$CBW4Object_Type@@PEBVGameObject@@@std@@@4@$0A@@std@@@std@@QEAAXXZ 00000001400493d0     engine.obj
 0003:0000b3d8       $unwind$?_Erase@?$_Tree@V?$_Tmap_traits@W4Object_Type@@PEBVGameObject@@U?$less@W4Object_Type@@@std@@V?$allocator@U?$pair@$$CBW4Object_Type@@PEBVGameObject@@@std@@@4@$0A@@std@@@std@@IEAAXPEAU?$_Tree_node@U?$pair@$$CBW4Object_Type@@PEBVGameObject@@@std@@PEAX@2@@Z 00000001400493d8     engine.obj
 0003:0000b3ec       $unwind$?_Orphan_ptr@?$_Tree@V?$_Tmap_traits@W4Object_Type@@PEBVGameObject@@U?$less@W4Object_Type@@@std@@V?$allocator@U?$pair@$$CBW4Object_Type@@PEBVGameObject@@@std@@@4@$0A@@std@@@std@@IEAAXPEAU?$_Tree_node@U?$pair@$$CBW4Object_Type@@PEBVGameObject@@@std@@PEAX@2@@Z 00000001400493ec     engine.obj
 0003:0000b408       $stateUnwindMap$?_Orphan_ptr@?$_Tree@V?$_Tmap_traits@W4Object_Type@@PEBVGameObject@@U?$less@W4Object_Type@@@std@@V?$allocator@U?$pair@$$CBW4Object_Type@@PEBVGameObject@@@std@@@4@$0A@@std@@@std@@IEAAXPEAU?$_Tree_node@U?$pair@$$CBW4Object_Type@@PEBVGameObject@@@std@@PEAX@2@@Z 0000000140049408     engine.obj
 0003:0000b410       $ip2state$?_Orphan_ptr@?$_Tree@V?$_Tmap_traits@W4Object_Type@@PEBVGameObject@@U?$less@W4Object_Type@@@std@@V?$allocator@U?$pair@$$CBW4Object_Type@@PEBVGameObject@@@std@@@4@$0A@@std@@@std@@IEAAXPEAU?$_Tree_node@U?$pair@$$CBW4Object_Type@@PEBVGameObject@@@std@@PEAX@2@@Z 0000000140049410     engine.obj
 0003:0000b42c       $unwind$?dtor$0@?0??_Orphan_ptr@?$_Tree@V?$_Tmap_traits@W4Object_Type@@PEBVGameObject@@U?$less@W4Object_Type@@@std@@V?$allocator@U?$pair@$$CBW4Object_Type@@PEBVGameObject@@@std@@@4@$0A@@std@@@std@@IEAAXPEAU?$_Tree_node@U?$pair@$$CBW4Object_Type@@PEBVGameObject@@@std@@PEAX@2@@Z@4HA 000000014004942c     engine.obj
 0003:0000b43c       $unwind$?_Tidy@?$_Tree@V?$_Tmap_traits@W4Object_Type@@PEBVGameObject@@U?$less@W4Object_Type@@@std@@V?$allocator@U?$pair@$$CBW4Object_Type@@PEBVGameObject@@@std@@@4@$0A@@std@@@std@@IEAAXXZ 000000014004943c     engine.obj
 0003:0000b458       $stateUnwindMap$?_Tidy@?$_Tree@V?$_Tmap_traits@W4Object_Type@@PEBVGameObject@@U?$less@W4Object_Type@@@std@@V?$allocator@U?$pair@$$CBW4Object_Type@@PEBVGameObject@@@std@@@4@$0A@@std@@@std@@IEAAXXZ 0000000140049458     engine.obj
 0003:0000b470       $ip2state$?_Tidy@?$_Tree@V?$_Tmap_traits@W4Object_Type@@PEBVGameObject@@U?$less@W4Object_Type@@@std@@V?$allocator@U?$pair@$$CBW4Object_Type@@PEBVGameObject@@@std@@@4@$0A@@std@@@std@@IEAAXXZ 0000000140049470     engine.obj
 0003:0000b49c       $unwind$?dtor$0@?0??_Tidy@?$_Tree@V?$_Tmap_traits@W4Object_Type@@PEBVGameObject@@U?$less@W4Object_Type@@@std@@V?$allocator@U?$pair@$$CBW4Object_Type@@PEBVGameObject@@@std@@@4@$0A@@std@@@std@@IEAAXXZ@4HA 000000014004949c     engine.obj
 0003:0000b4ac       $unwind$?dtor$2@?0??_Tidy@?$_Tree@V?$_Tmap_traits@W4Object_Type@@PEBVGameObject@@U?$less@W4Object_Type@@@std@@V?$allocator@U?$pair@$$CBW4Object_Type@@PEBVGameObject@@@std@@@4@$0A@@std@@@std@@IEAAXXZ@4HA 00000001400494ac     engine.obj
 0003:0000b4bc       $unwind$??0?$map@W4Object_Type@@PEBVGameObject@@U?$less@W4Object_Type@@@std@@V?$allocator@U?$pair@$$CBW4Object_Type@@PEBVGameObject@@@std@@@4@@std@@QEAA@XZ 00000001400494bc     engine.obj
 0003:0000b4d0       $unwind$??1?$map@W4Object_Type@@PEBVGameObject@@U?$less@W4Object_Type@@@std@@V?$allocator@U?$pair@$$CBW4Object_Type@@PEBVGameObject@@@std@@@4@@std@@QEAA@XZ 00000001400494d0     engine.obj
 0003:0000b4e4       $unwind$??0ConfigManager@@QEAA@XZ 00000001400494e4     engine.obj
 0003:0000b4f8       $unwind$??1ConfigManager@@QEAA@XZ 00000001400494f8     engine.obj
 0003:0000b50c       $unwind$??0Engine@@QEAA@XZ 000000014004950c     engine.obj
 0003:0000b52c       $stateUnwindMap$??0Engine@@QEAA@XZ 000000014004952c     engine.obj
 0003:0000b570       $ip2state$??0Engine@@QEAA@XZ 0000000140049570     engine.obj
 0003:0000b5dc       $unwind$?dtor$0@?0???0Engine@@QEAA@XZ@4HA 00000001400495dc     engine.obj
 0003:0000b5ec       $unwind$?dtor$1@?0???0Engine@@QEAA@XZ@4HA 00000001400495ec     engine.obj
 0003:0000b5fc       $unwind$?dtor$2@?0???0Engine@@QEAA@XZ@4HA 00000001400495fc     engine.obj
 0003:0000b60c       $unwind$?dtor$3@?0???0Engine@@QEAA@XZ@4HA 000000014004960c     engine.obj
 0003:0000b61c       $unwind$?dtor$4@?0???0Engine@@QEAA@XZ@4HA 000000014004961c     engine.obj
 0003:0000b62c       $unwind$??1Engine@@QEAA@XZ 000000014004962c     engine.obj
 0003:0000b640       $unwind$?Execute@Engine@@QEAAXXZ 0000000140049640     engine.obj
 0003:0000b65c       $stateUnwindMap$?Execute@Engine@@QEAAXXZ 000000014004965c     engine.obj
 0003:0000b668       $ip2state$?Execute@Engine@@QEAAXXZ 0000000140049668     engine.obj
 0003:0000b684       $unwind$?dtor$0@?0??Execute@Engine@@QEAAXXZ@4HA 0000000140049684     engine.obj
 0003:0000b694       $unwind$?Update@Engine@@QEAAXAEBVTime@sf@@@Z 0000000140049694     engine.obj
 0003:0000b6a8       $unwind$?HandleEvents@Engine@@QEAAXXZ 00000001400496a8     engine.obj
 0003:0000b6bc       $unwind$?Draw@Engine@@QEAAXXZ 00000001400496bc     engine.obj
 0003:0000b6d0       $unwind$?GetSize@Engine@@QEBA?AV?$Vector2@M@sf@@XZ 00000001400496d0     engine.obj
 0003:0000b6e4       $unwind$?SetSize@Engine@@QEAAXAEBV?$Vector2@M@sf@@@Z 00000001400496e4     engine.obj
 0003:0000b6f8       $unwind$?GetConfigManager@Engine@@QEAAPEAVConfigManager@@XZ 00000001400496f8     engine.obj
 0003:0000b70c       $unwind$??0?$allocator@PEAV?$Container@VWidget@@@@@std@@QEAA@XZ 000000014004970c     engine.obj
 0003:0000b720       $unwind$?deallocate@?$allocator@PEAV?$Container@VWidget@@@@@std@@QEAAXQEAPEAV?$Container@VWidget@@@@_K@Z 0000000140049720     engine.obj
 0003:0000b734       $unwind$?allocate@?$allocator@PEAV?$Container@VWidget@@@@@std@@QEAAPEAPEAV?$Container@VWidget@@@@_K@Z 0000000140049734     engine.obj
 0003:0000b748       $unwind$?max_size@?$_Default_allocator_traits@V?$allocator@PEAV?$Container@VWidget@@@@@std@@@std@@SA_KAEBV?$allocator@PEAV?$Container@VWidget@@@@@2@@Z 0000000140049748     engine.obj
 0003:0000b75c       $unwind$??0?$_Vector_alloc@U?$_Vec_base_types@PEAV?$Container@VWidget@@@@V?$allocator@PEAV?$Container@VWidget@@@@@std@@@std@@@std@@QEAA@XZ 000000014004975c     engine.obj
 0003:0000b770       $unwind$??1?$_Vector_alloc@U?$_Vec_base_types@PEAV?$Container@VWidget@@@@V?$allocator@PEAV?$Container@VWidget@@@@@std@@@std@@@std@@QEAA@XZ 0000000140049770     engine.obj
 0003:0000b790       $ip2state$??1?$_Vector_alloc@U?$_Vec_base_types@PEAV?$Container@VWidget@@@@V?$allocator@PEAV?$Container@VWidget@@@@@std@@@std@@@std@@QEAA@XZ 0000000140049790     engine.obj
 0003:0000b798       $unwind$?_Alloc_proxy@?$_Vector_alloc@U?$_Vec_base_types@PEAV?$Container@VWidget@@@@V?$allocator@PEAV?$Container@VWidget@@@@@std@@@std@@@std@@QEAAXXZ 0000000140049798     engine.obj
 0003:0000b7ac       $unwind$?_Free_proxy@?$_Vector_alloc@U?$_Vec_base_types@PEAV?$Container@VWidget@@@@V?$allocator@PEAV?$Container@VWidget@@@@@std@@@std@@@std@@QEAAXXZ 00000001400497ac     engine.obj
 0003:0000b7c0       $unwind$?_Getpfirst@?$_Vector_alloc@U?$_Vec_base_types@PEAV?$Container@VWidget@@@@V?$allocator@PEAV?$Container@VWidget@@@@@std@@@std@@@std@@QEBAPEAPEAU_Iterator_base12@2@XZ 00000001400497c0     engine.obj
 0003:0000b7d4       $unwind$?_Myproxy@?$_Vector_alloc@U?$_Vec_base_types@PEAV?$Container@VWidget@@@@V?$allocator@PEAV?$Container@VWidget@@@@@std@@@std@@@std@@QEAAAEAPEAU_Container_proxy@2@XZ 00000001400497d4     engine.obj
 0003:0000b7e8       $unwind$?_Orphan_all@?$_Vector_alloc@U?$_Vec_base_types@PEAV?$Container@VWidget@@@@V?$allocator@PEAV?$Container@VWidget@@@@@std@@@std@@@std@@QEAAXXZ 00000001400497e8     engine.obj
 0003:0000b7fc       $unwind$?_Getal@?$_Vector_alloc@U?$_Vec_base_types@PEAV?$Container@VWidget@@@@V?$allocator@PEAV?$Container@VWidget@@@@@std@@@std@@@std@@QEAAAEAV?$allocator@PEAV?$Container@VWidget@@@@@2@XZ 00000001400497fc     engine.obj
 0003:0000b810       $unwind$?_Getal@?$_Vector_alloc@U?$_Vec_base_types@PEAV?$Container@VWidget@@@@V?$allocator@PEAV?$Container@VWidget@@@@@std@@@std@@@std@@QEBAAEBV?$allocator@PEAV?$Container@VWidget@@@@@2@XZ 0000000140049810     engine.obj
 0003:0000b824       $unwind$?_Get_data@?$_Vector_alloc@U?$_Vec_base_types@PEAV?$Container@VWidget@@@@V?$allocator@PEAV?$Container@VWidget@@@@@std@@@std@@@std@@QEAAAEAV?$_Vector_val@U?$_Simple_types@PEAV?$Container@VWidget@@@@@std@@@2@XZ 0000000140049824     engine.obj
 0003:0000b838       $unwind$?_Get_data@?$_Vector_alloc@U?$_Vec_base_types@PEAV?$Container@VWidget@@@@V?$allocator@PEAV?$Container@VWidget@@@@@std@@@std@@@std@@QEBAAEBV?$_Vector_val@U?$_Simple_types@PEAV?$Container@VWidget@@@@@std@@@2@XZ 0000000140049838     engine.obj
 0003:0000b84c       $unwind$?_Myfirst@?$_Vector_alloc@U?$_Vec_base_types@PEAV?$Container@VWidget@@@@V?$allocator@PEAV?$Container@VWidget@@@@@std@@@std@@@std@@QEAAAEAPEAPEAV?$Container@VWidget@@@@XZ 000000014004984c     engine.obj
 0003:0000b860       $unwind$?_Myfirst@?$_Vector_alloc@U?$_Vec_base_types@PEAV?$Container@VWidget@@@@V?$allocator@PEAV?$Container@VWidget@@@@@std@@@std@@@std@@QEBAAEBQEAPEAV?$Container@VWidget@@@@XZ 0000000140049860     engine.obj
 0003:0000b874       $unwind$?_Mylast@?$_Vector_alloc@U?$_Vec_base_types@PEAV?$Container@VWidget@@@@V?$allocator@PEAV?$Container@VWidget@@@@@std@@@std@@@std@@QEAAAEAPEAPEAV?$Container@VWidget@@@@XZ 0000000140049874     engine.obj
 0003:0000b888       $unwind$?_Mylast@?$_Vector_alloc@U?$_Vec_base_types@PEAV?$Container@VWidget@@@@V?$allocator@PEAV?$Container@VWidget@@@@@std@@@std@@@std@@QEBAAEBQEAPEAV?$Container@VWidget@@@@XZ 0000000140049888     engine.obj
 0003:0000b89c       $unwind$?_Myend@?$_Vector_alloc@U?$_Vec_base_types@PEAV?$Container@VWidget@@@@V?$allocator@PEAV?$Container@VWidget@@@@@std@@@std@@@std@@QEAAAEAPEAPEAV?$Container@VWidget@@@@XZ 000000014004989c     engine.obj
 0003:0000b8b0       $unwind$?_Myend@?$_Vector_alloc@U?$_Vec_base_types@PEAV?$Container@VWidget@@@@V?$allocator@PEAV?$Container@VWidget@@@@@std@@@std@@@std@@QEBAAEBQEAPEAV?$Container@VWidget@@@@XZ 00000001400498b0     engine.obj
 0003:0000b8c4       $unwind$??0?$_Vector_val@U?$_Simple_types@PEAV?$Container@VWidget@@@@@std@@@std@@QEAA@XZ 00000001400498c4     engine.obj
 0003:0000b8d8       $unwind$?_Get_first@?$_Compressed_pair@V?$allocator@PEAV?$Container@VWidget@@@@@std@@V?$_Vector_val@U?$_Simple_types@PEAV?$Container@VWidget@@@@@std@@@2@$00@std@@QEAAAEAV?$allocator@PEAV?$Container@VWidget@@@@@2@XZ 00000001400498d8     engine.obj
 0003:0000b8ec       $unwind$?_Get_first@?$_Compressed_pair@V?$allocator@PEAV?$Container@VWidget@@@@@std@@V?$_Vector_val@U?$_Simple_types@PEAV?$Container@VWidget@@@@@std@@@2@$00@std@@QEBAAEBV?$allocator@PEAV?$Container@VWidget@@@@@2@XZ 00000001400498ec     engine.obj
 0003:0000b900       $unwind$?_Get_second@?$_Compressed_pair@V?$allocator@PEAV?$Container@VWidget@@@@@std@@V?$_Vector_val@U?$_Simple_types@PEAV?$Container@VWidget@@@@@std@@@2@$00@std@@QEAAAEAV?$_Vector_val@U?$_Simple_types@PEAV?$Container@VWidget@@@@@std@@@2@XZ 0000000140049900     engine.obj
 0003:0000b914       $unwind$?_Get_second@?$_Compressed_pair@V?$allocator@PEAV?$Container@VWidget@@@@@std@@V?$_Vector_val@U?$_Simple_types@PEAV?$Container@VWidget@@@@@std@@@2@$00@std@@QEBAAEBV?$_Vector_val@U?$_Simple_types@PEAV?$Container@VWidget@@@@@std@@@2@XZ 0000000140049914     engine.obj
 0003:0000b928       $unwind$??0?$vector@PEAV?$Container@VWidget@@@@V?$allocator@PEAV?$Container@VWidget@@@@@std@@@std@@QEAA@XZ 0000000140049928     engine.obj
 0003:0000b948       $ip2state$??0?$vector@PEAV?$Container@VWidget@@@@V?$allocator@PEAV?$Container@VWidget@@@@@std@@@std@@QEAA@XZ 0000000140049948     engine.obj
 0003:0000b950       $unwind$??1?$vector@PEAV?$Container@VWidget@@@@V?$allocator@PEAV?$Container@VWidget@@@@@std@@@std@@QEAA@XZ 0000000140049950     engine.obj
 0003:0000b970       $ip2state$??1?$vector@PEAV?$Container@VWidget@@@@V?$allocator@PEAV?$Container@VWidget@@@@@std@@@std@@QEAA@XZ 0000000140049970     engine.obj
 0003:0000b978       $unwind$?push_back@?$vector@PEAV?$Container@VWidget@@@@V?$allocator@PEAV?$Container@VWidget@@@@@std@@@std@@QEAAXAEBQEAV?$Container@VWidget@@@@@Z 0000000140049978     engine.obj
 0003:0000b98c       $unwind$?size@?$vector@PEAV?$Container@VWidget@@@@V?$allocator@PEAV?$Container@VWidget@@@@@std@@@std@@QEBA_KXZ 000000014004998c     engine.obj
 0003:0000b9a0       $unwind$?max_size@?$vector@PEAV?$Container@VWidget@@@@V?$allocator@PEAV?$Container@VWidget@@@@@std@@@std@@QEBA_KXZ 00000001400499a0     engine.obj
 0003:0000b9b4       $unwind$?capacity@?$vector@PEAV?$Container@VWidget@@@@V?$allocator@PEAV?$Container@VWidget@@@@@std@@@std@@QEBA_KXZ 00000001400499b4     engine.obj
 0003:0000b9c8       $unwind$?_Has_unused_capacity@?$vector@PEAV?$Container@VWidget@@@@V?$allocator@PEAV?$Container@VWidget@@@@@std@@@std@@AEBA_NXZ 00000001400499c8     engine.obj
 0003:0000b9dc       $unwind$??A?$vector@PEAV?$Container@VWidget@@@@V?$allocator@PEAV?$Container@VWidget@@@@@std@@@std@@QEAAAEAPEAV?$Container@VWidget@@@@_K@Z 00000001400499dc     engine.obj
 0003:0000b9f0       $unwind$?_Umove@?$vector@PEAV?$Container@VWidget@@@@V?$allocator@PEAV?$Container@VWidget@@@@@std@@@std@@AEAAPEAPEAV?$Container@VWidget@@@@PEAPEAV3@00@Z 00000001400499f0     engine.obj
 0003:0000ba04       $unwind$?_Umove_if_noexcept1@?$vector@PEAV?$Container@VWidget@@@@V?$allocator@PEAV?$Container@VWidget@@@@@std@@@std@@AEAAXPEAPEAV?$Container@VWidget@@@@00U?$integral_constant@_N$00@2@@Z 0000000140049a04     engine.obj
 0003:0000ba18       $unwind$?_Umove_if_noexcept@?$vector@PEAV?$Container@VWidget@@@@V?$allocator@PEAV?$Container@VWidget@@@@@std@@@std@@AEAAXPEAPEAV?$Container@VWidget@@@@00@Z 0000000140049a18     engine.obj
 0003:0000ba2c       $unwind$?_Destroy@?$vector@PEAV?$Container@VWidget@@@@V?$allocator@PEAV?$Container@VWidget@@@@@std@@@std@@AEAAXPEAPEAV?$Container@VWidget@@@@0@Z 0000000140049a2c     engine.obj
 0003:0000ba40       $unwind$?_Calculate_growth@?$vector@PEAV?$Container@VWidget@@@@V?$allocator@PEAV?$Container@VWidget@@@@@std@@@std@@AEBA_K_K@Z 0000000140049a40     engine.obj
 0003:0000ba54       $unwind$?_Change_array@?$vector@PEAV?$Container@VWidget@@@@V?$allocator@PEAV?$Container@VWidget@@@@@std@@@std@@AEAAXQEAPEAV?$Container@VWidget@@@@_K1@Z 0000000140049a54     engine.obj
 0003:0000ba68       $unwind$?_Tidy@?$vector@PEAV?$Container@VWidget@@@@V?$allocator@PEAV?$Container@VWidget@@@@@std@@@std@@AEAAXXZ 0000000140049a68     engine.obj
 0003:0000ba7c       $unwind$?_Xlength@?$vector@PEAV?$Container@VWidget@@@@V?$allocator@PEAV?$Container@VWidget@@@@@std@@@std@@CAXXZ 0000000140049a7c     engine.obj
 0003:0000ba90       $unwind$?_Orphan_range@?$vector@PEAV?$Container@VWidget@@@@V?$allocator@PEAV?$Container@VWidget@@@@@std@@@std@@AEBAXPEAPEAV?$Container@VWidget@@@@0@Z 0000000140049a90     engine.obj
 0003:0000baac       $stateUnwindMap$?_Orphan_range@?$vector@PEAV?$Container@VWidget@@@@V?$allocator@PEAV?$Container@VWidget@@@@@std@@@std@@AEBAXPEAPEAV?$Container@VWidget@@@@0@Z 0000000140049aac     engine.obj
 0003:0000bab8       $ip2state$?_Orphan_range@?$vector@PEAV?$Container@VWidget@@@@V?$allocator@PEAV?$Container@VWidget@@@@@std@@@std@@AEBAXPEAPEAV?$Container@VWidget@@@@0@Z 0000000140049ab8     engine.obj
 0003:0000bad4       $unwind$?dtor$0@?0??_Orphan_range@?$vector@PEAV?$Container@VWidget@@@@V?$allocator@PEAV?$Container@VWidget@@@@@std@@@std@@AEBAXPEAPEAV?$Container@VWidget@@@@0@Z@4HA 0000000140049ad4     engine.obj
 0003:0000bae4       $unwind$??$emplace_back@AEBQEAV?$Container@VWidget@@@@@?$vector@PEAV?$Container@VWidget@@@@V?$allocator@PEAV?$Container@VWidget@@@@@std@@@std@@QEAA@AEBQEAV?$Container@VWidget@@@@@Z 0000000140049ae4     engine.obj
 0003:0000baf8       $unwind$??$forward@AEBQEAV?$Container@VWidget@@@@@std@@YAAEBQEAV?$Container@VWidget@@@@AEBQEAV1@@Z 0000000140049af8     engine.obj
 0003:0000bb0c       $unwind$??$_Emplace_back_with_unused_capacity@AEBQEAV?$Container@VWidget@@@@@?$vector@PEAV?$Container@VWidget@@@@V?$allocator@PEAV?$Container@VWidget@@@@@std@@@std@@AEAA@AEBQEAV?$Container@VWidget@@@@@Z 0000000140049b0c     engine.obj
 0003:0000bb20       $unwind$??$_Unfancy@PEAV?$Container@VWidget@@@@@std@@YAPEAPEAV?$Container@VWidget@@@@PEAPEAV1@@Z 0000000140049b20     engine.obj
 0003:0000bb34       $unwind$??$construct@PEAV?$Container@VWidget@@@@AEBQEAV1@@?$_Default_allocator_traits@V?$allocator@PEAV?$Container@VWidget@@@@@std@@@std@@SAXAEAV?$allocator@PEAV?$Container@VWidget@@@@@1@QEAPEAV?$Container@VWidget@@@@AEBQEAV3@@Z 0000000140049b34     engine.obj
 0003:0000bb48       $unwind$??$_Emplace_reallocate@AEBQEAV?$Container@VWidget@@@@@?$vector@PEAV?$Container@VWidget@@@@V?$allocator@PEAV?$Container@VWidget@@@@@std@@@std@@QEAAPEAPEAV?$Container@VWidget@@@@QEAPEAV2@AEBQEAV2@@Z 0000000140049b48     engine.obj
 0003:0000bb64       $stateUnwindMap$??$_Emplace_reallocate@AEBQEAV?$Container@VWidget@@@@@?$vector@PEAV?$Container@VWidget@@@@V?$allocator@PEAV?$Container@VWidget@@@@@std@@@std@@QEAAPEAPEAV?$Container@VWidget@@@@QEAPEAV2@AEBQEAV2@@Z 0000000140049b64     engine.obj
 0003:0000bb78       $tryMap$??$_Emplace_reallocate@AEBQEAV?$Container@VWidget@@@@@?$vector@PEAV?$Container@VWidget@@@@V?$allocator@PEAV?$Container@VWidget@@@@@std@@@std@@QEAAPEAPEAV?$Container@VWidget@@@@QEAPEAV2@AEBQEAV2@@Z 0000000140049b78     engine.obj
 0003:0000bb90       $handlerMap$0$??$_Emplace_reallocate@AEBQEAV?$Container@VWidget@@@@@?$vector@PEAV?$Container@VWidget@@@@V?$allocator@PEAV?$Container@VWidget@@@@@std@@@std@@QEAAPEAPEAV?$Container@VWidget@@@@QEAPEAV2@AEBQEAV2@@Z 0000000140049b90     engine.obj
 0003:0000bba8       $ip2state$??$_Emplace_reallocate@AEBQEAV?$Container@VWidget@@@@@?$vector@PEAV?$Container@VWidget@@@@V?$allocator@PEAV?$Container@VWidget@@@@@std@@@std@@QEAAPEAPEAV?$Container@VWidget@@@@QEAPEAV2@AEBQEAV2@@Z 0000000140049ba8     engine.obj
 0003:0000bbdc       $unwind$?catch$0@?0???$_Emplace_reallocate@AEBQEAV?$Container@VWidget@@@@@?$vector@PEAV?$Container@VWidget@@@@V?$allocator@PEAV?$Container@VWidget@@@@@std@@@std@@QEAAPEAPEAV?$Container@VWidget@@@@QEAPEAV2@AEBQEAV2@@Z@4HA 0000000140049bdc     engine.obj
 0003:0000bbf4       $unwind$??$?0$$V@?$_Compressed_pair@V?$allocator@PEAV?$Container@VWidget@@@@@std@@V?$_Vector_val@U?$_Simple_types@PEAV?$Container@VWidget@@@@@std@@@2@$00@std@@QEAA@U_Zero_then_variadic_args_t@1@@Z 0000000140049bf4     engine.obj
 0003:0000bc08       $unwind$??E?$_Tree_const_iterator@V?$_Tree_val@U?$_Tree_simple_types@U?$pair@$$CBW4Object_Type@@PEBVGameObject@@@std@@@std@@@std@@@std@@QEAA?AV01@H@Z 0000000140049c08     engine.obj
 0003:0000bc24       $stateUnwindMap$??E?$_Tree_const_iterator@V?$_Tree_val@U?$_Tree_simple_types@U?$pair@$$CBW4Object_Type@@PEBVGameObject@@@std@@@std@@@std@@@std@@QEAA?AV01@H@Z 0000000140049c24     engine.obj
 0003:0000bc30       $ip2state$??E?$_Tree_const_iterator@V?$_Tree_val@U?$_Tree_simple_types@U?$pair@$$CBW4Object_Type@@PEBVGameObject@@@std@@@std@@@std@@@std@@QEAA?AV01@H@Z 0000000140049c30     engine.obj
 0003:0000bc4c       $unwind$?dtor$0@?0???E?$_Tree_const_iterator@V?$_Tree_val@U?$_Tree_simple_types@U?$pair@$$CBW4Object_Type@@PEBVGameObject@@@std@@@std@@@std@@@std@@QEAA?AV01@H@Z@4HA 0000000140049c4c     engine.obj
 0003:0000bc5c       $unwind$??9?$_Tree_const_iterator@V?$_Tree_val@U?$_Tree_simple_types@U?$pair@$$CBW4Object_Type@@PEBVGameObject@@@std@@@std@@@std@@@std@@QEBA_NAEBV01@@Z 0000000140049c5c     engine.obj
 0003:0000bc70       $unwind$??$?0PEAV?$Container@VWidget@@@@@?$allocator@U_Container_proxy@std@@@std@@QEAA@AEBV?$allocator@PEAV?$Container@VWidget@@@@@1@@Z 0000000140049c70     engine.obj
 0003:0000bc84       $unwind$??$addressof@V?$_Vector_val@U?$_Simple_types@PEAV?$Container@VWidget@@@@@std@@@std@@@std@@YAPEAV?$_Vector_val@U?$_Simple_types@PEAV?$Container@VWidget@@@@@std@@@0@AEAV10@@Z 0000000140049c84     engine.obj
 0003:0000bc98       $unwind$??$_Destroy_range@V?$allocator@PEAV?$Container@VWidget@@@@@std@@@std@@YAXPEAPEAV?$Container@VWidget@@@@0AEAV?$allocator@PEAV?$Container@VWidget@@@@@0@@Z 0000000140049c98     engine.obj
 0003:0000bcac       $unwind$??$?0U?$_Tree_node@U?$pair@$$CBW4Object_Type@@PEBVGameObject@@@std@@PEAX@std@@@?$allocator@U_Container_proxy@std@@@std@@QEAA@AEBV?$allocator@U?$_Tree_node@U?$pair@$$CBW4Object_Type@@PEBVGameObject@@@std@@PEAX@std@@@1@@Z 0000000140049cac     engine.obj
 0003:0000bcc0       $unwind$??$?0AEBU?$less@W4Object_Type@@@std@@U_Zero_then_variadic_args_t@1@@?$_Compressed_pair@U?$less@W4Object_Type@@@std@@V?$_Compressed_pair@V?$allocator@U?$_Tree_node@U?$pair@$$CBW4Object_Type@@PEBVGameObject@@@std@@PEAX@std@@@std@@V?$_Tree_val@U?$_Tree_simple_types@U?$pair@$$CBW4Object_Type@@PEBVGameObject@@@std@@@std@@@2@$00@2@$00@std@@QEAA@U_One_then_variadic_args_t@1@AEBU?$less@W4Object_Type@@@1@$$QEAU_Zero_then_variadic_args_t@1@@Z 0000000140049cc0     engine.obj
 0003:0000bcd4       $unwind$??$swap@DX@std@@YAXAEAD0@Z 0000000140049cd4     engine.obj
 0003:0000bce8       $unwind$??$_Destroy_range1@V?$allocator@PEAV?$Container@VWidget@@@@@std@@@std@@YAXPEAPEAV?$Container@VWidget@@@@0AEAV?$allocator@PEAV?$Container@VWidget@@@@@0@U?$integral_constant@_N$00@0@@Z 0000000140049ce8     engine.obj
 0003:0000bcfc       $unwind$??$forward@AEBU?$less@W4Object_Type@@@std@@@std@@YAAEBU?$less@W4Object_Type@@@0@AEBU10@@Z 0000000140049cfc     engine.obj
 0003:0000bd10       $unwind$??$forward@U_Zero_then_variadic_args_t@std@@@std@@YA$$QEAU_Zero_then_variadic_args_t@0@AEAU10@@Z 0000000140049d10     engine.obj
 0003:0000bd24       $unwind$??$?0$$V@?$_Compressed_pair@V?$allocator@U?$_Tree_node@U?$pair@$$CBW4Object_Type@@PEBVGameObject@@@std@@PEAX@std@@@std@@V?$_Tree_val@U?$_Tree_simple_types@U?$pair@$$CBW4Object_Type@@PEBVGameObject@@@std@@@std@@@2@$00@std@@QEAA@U_Zero_then_variadic_args_t@1@@Z 0000000140049d24     engine.obj
 0003:0000bd38       $unwind$??$move@AEAD@std@@YA$$QEADAEAD@Z 0000000140049d38     engine.obj
 0003:0000bd4c       $unwind$??$_Uninitialized_move@PEAPEAV?$Container@VWidget@@@@PEAPEAV1@V?$allocator@PEAV?$Container@VWidget@@@@@std@@@std@@YAPEAPEAV?$Container@VWidget@@@@QEAPEAV1@0PEAPEAV1@AEAV?$allocator@PEAV?$Container@VWidget@@@@@0@@Z 0000000140049d4c     engine.obj
 0003:0000bd60       $unwind$??$_Get_size_of_n@$07@std@@YA_K_K@Z 0000000140049d60     engine.obj
 0003:0000bd74       $unwind$??$_Unchecked@PEAPEAV?$Container@VWidget@@@@@std@@YAPEAPEAV?$Container@VWidget@@@@PEAPEAV1@@Z 0000000140049d74     engine.obj
 0003:0000bd88       $unwind$??$_Ptr_move_cat@PEAV?$Container@VWidget@@@@PEAV1@@std@@YA?AU_Really_trivial_ptr_iterator_tag@0@AEBQEAPEAV?$Container@VWidget@@@@0@Z 0000000140049d88     engine.obj
 0003:0000bd9c       $unwind$??$_Uninitialized_move_al_unchecked@PEAV?$Container@VWidget@@@@PEAV1@V?$allocator@PEAV?$Container@VWidget@@@@@std@@@std@@YAPEAPEAV?$Container@VWidget@@@@QEAPEAV1@00AEAV?$allocator@PEAV?$Container@VWidget@@@@@0@U_Really_trivial_ptr_iterator_tag@0@U?$integral_constant@_N$00@0@@Z 0000000140049d9c     engine.obj
 0003:0000bdb0       $unwind$??$_Rechecked@PEAPEAV?$Container@VWidget@@@@PEAPEAV1@@std@@YAAEAPEAPEAV?$Container@VWidget@@@@AEAPEAPEAV1@QEAPEAV1@@Z 0000000140049db0     engine.obj
 0003:0000bdc4       $unwind$??$_Copy_memmove@PEAPEAV?$Container@VWidget@@@@PEAPEAV1@@std@@YAPEAPEAV?$Container@VWidget@@@@PEAPEAV1@00@Z 0000000140049dc4     engine.obj
 0003:0000bdd8       $unwind$WinMain            0000000140049dd8     main.obj
 0003:0000bdf4       $stateUnwindMap$WinMain    0000000140049df4     main.obj
 0003:0000be00       $ip2state$WinMain          0000000140049e00     main.obj
 0003:0000be1c       $unwind$WinMain$dtor$0     0000000140049e1c     main.obj
 0003:0000be2c       $unwind$??0?$Vector2@M@sf@@QEAA@XZ 0000000140049e2c     container-moving.obj
 0003:0000be40       $unwind$??0?$ContainerMoving@VWidget@@@@QEAA@AEBV?$Vector2@M@sf@@0@Z 0000000140049e40     container-moving.obj
 0003:0000be5c       $stateUnwindMap$??0?$ContainerMoving@VWidget@@@@QEAA@AEBV?$Vector2@M@sf@@0@Z 0000000140049e5c     container-moving.obj
 0003:0000be68       $ip2state$??0?$ContainerMoving@VWidget@@@@QEAA@AEBV?$Vector2@M@sf@@0@Z 0000000140049e68     container-moving.obj
 0003:0000be84       $unwind$?dtor$0@?0???0?$ContainerMoving@VWidget@@@@QEAA@AEBV?$Vector2@M@sf@@0@Z@4HA 0000000140049e84     container-moving.obj
 0003:0000be94       $unwind$??1?$ContainerMoving@VWidget@@@@UEAA@XZ 0000000140049e94     container-moving.obj
 0003:0000bea8       $unwind$?SetMoveBeginListener@?$ContainerMoving@VWidget@@@@QEAAXP6APEAVWidget@@PEAV2@@Z@Z 0000000140049ea8     container-moving.obj
 0003:0000bebc       $unwind$?SetMovingListener@?$ContainerMoving@VWidget@@@@QEAAXP6AXPEAVWidget@@@Z@Z 0000000140049ebc     container-moving.obj
 0003:0000bed0       $unwind$?SetMoveEndListener@?$ContainerMoving@VWidget@@@@QEAAXP6AXPEAVWidget@@@Z@Z 0000000140049ed0     container-moving.obj
 0003:0000bee4       $unwind$?HandleEvent@?$ContainerMoving@VWidget@@@@UEAAXAEBVEvent@sf@@@Z 0000000140049ee4     container-moving.obj
 0003:0000bef8       $unwind$??_G?$ContainerMoving@VWidget@@@@UEAAPEAXI@Z 0000000140049ef8     container-moving.obj
 0003:0000bf0c       $unwind$fabsf              0000000140049f0c     game-object.obj
 0003:0000bf20       $unwind$?fabs@@YAMM@Z      0000000140049f20     game-object.obj
 0003:0000bf34       $unwind$??0?$basic_string@DU?$char_traits@D@std@@V?$allocator@D@2@@std@@QEAA@XZ 0000000140049f34     game-object.obj
 0003:0000bf50       $ip2state$??0?$basic_string@DU?$char_traits@D@std@@V?$allocator@D@2@@std@@QEAA@XZ 0000000140049f50     game-object.obj
 0003:0000bf58       $unwind$??0ID@@QEAA@XZ     0000000140049f58     game-object.obj
 0003:0000bf6c       $unwind$??1ID@@QEAA@XZ     0000000140049f6c     game-object.obj
 0003:0000bf80       $unwind$?Generate@ID@@QEAAXXZ 0000000140049f80     game-object.obj
 0003:0000bf94       $unwind$??0GameObject@@QEAA@PEBD@Z 0000000140049f94     game-object.obj
 0003:0000bfb4       $stateUnwindMap$??0GameObject@@QEAA@PEBD@Z 0000000140049fb4     game-object.obj
 0003:0000bfd0       $ip2state$??0GameObject@@QEAA@PEBD@Z 0000000140049fd0     game-object.obj
 0003:0000c004       $unwind$?dtor$0@?0???0GameObject@@QEAA@PEBD@Z@4HA 000000014004a004     game-object.obj
 0003:0000c014       $unwind$?dtor$1@?0???0GameObject@@QEAA@PEBD@Z@4HA 000000014004a014     game-object.obj
 0003:0000c024       $unwind$?dtor$2@?0???0GameObject@@QEAA@PEBD@Z@4HA 000000014004a024     game-object.obj
 0003:0000c034       $unwind$??0GameObject@@QEAA@PEBV0@@Z 000000014004a034     game-object.obj
 0003:0000c050       $stateUnwindMap$??0GameObject@@QEAA@PEBV0@@Z 000000014004a050     game-object.obj
 0003:0000c068       $ip2state$??0GameObject@@QEAA@PEBV0@@Z 000000014004a068     game-object.obj
 0003:0000c08c       $unwind$?dtor$0@?0???0GameObject@@QEAA@PEBV0@@Z@4HA 000000014004a08c     game-object.obj
 0003:0000c09c       $unwind$?dtor$1@?0???0GameObject@@QEAA@PEBV0@@Z@4HA 000000014004a09c     game-object.obj
 0003:0000c0ac       $unwind$??1GameObject@@UEAA@XZ 000000014004a0ac     game-object.obj
 0003:0000c0c0       $unwind$?Create@GameObject@@SAPEBV1@PEBD@Z 000000014004a0c0     game-object.obj
 0003:0000c0e0       $stateUnwindMap$?Create@GameObject@@SAPEBV1@PEBD@Z 000000014004a0e0     game-object.obj
 0003:0000c0f0       $ip2state$?Create@GameObject@@SAPEBV1@PEBD@Z 000000014004a0f0     game-object.obj
 0003:0000c140       $unwind$?dtor$0@?0??Create@GameObject@@SAPEBV1@PEBD@Z@4HA 000000014004a140     game-object.obj
 0003:0000c150       $unwind$?GetVelocity@GameObject@@QEBA?AV?$Vector2@M@sf@@XZ 000000014004a150     game-object.obj
 0003:0000c164       $unwind$?SetVelocity@GameObject@@QEAAXAEBV?$Vector2@M@sf@@@Z 000000014004a164     game-object.obj
 0003:0000c178       $unwind$?GetDirection@GameObject@@QEBA?AV?$Vector2@M@sf@@XZ 000000014004a178     game-object.obj
 0003:0000c18c       $unwind$?GetGroup@GameObject@@QEBA_KXZ 000000014004a18c     game-object.obj
 0003:0000c1a0       $unwind$?SetGroup@GameObject@@QEAAX_K@Z 000000014004a1a0     game-object.obj
 0003:0000c1b4       $unwind$?SetType@GameObject@@QEAAX_K@Z 000000014004a1b4     game-object.obj
 0003:0000c1c8       $unwind$?GetType@GameObject@@QEBA?AW4Object_Type@@XZ 000000014004a1c8     game-object.obj
 0003:0000c1dc       $unwind$?GetHealth@GameObject@@QEBAHXZ 000000014004a1dc     game-object.obj
 0003:0000c1f0       $unwind$?CheckIntersect@GameObject@@QEBA_NPEBV1@VTime@sf@@@Z 000000014004a1f0     game-object.obj
 0003:0000c204       $unwind$?CheckIntersectX@GameObject@@QEBA_NPEBV1@VTime@sf@@@Z 000000014004a204     game-object.obj
 0003:0000c218       $unwind$?CheckIntersectY@GameObject@@QEBA_NPEBV1@VTime@sf@@@Z 000000014004a218     game-object.obj
 0003:0000c22c       $unwind$?Update@GameObject@@UEAAXAEBVTime@sf@@@Z 000000014004a22c     game-object.obj
 0003:0000c240       $unwind$?calculateDirection@GameObject@@AEAAXXZ 000000014004a240     game-object.obj
 0003:0000c254       $unwind$?CreateImpl@GameObject@@CAPEAV1@W4Object_Type@@PEBD@Z 000000014004a254     game-object.obj
 0003:0000c270       $stateUnwindMap$?CreateImpl@GameObject@@CAPEAV1@W4Object_Type@@PEBD@Z 000000014004a270     game-object.obj
 0003:0000c294       $tryMap$?CreateImpl@GameObject@@CAPEAV1@W4Object_Type@@PEBD@Z 000000014004a294     game-object.obj
 0003:0000c2ac       $handlerMap$0$?CreateImpl@GameObject@@CAPEAV1@W4Object_Type@@PEBD@Z 000000014004a2ac     game-object.obj
 0003:0000c2d0       $ip2state$?CreateImpl@GameObject@@CAPEAV1@W4Object_Type@@PEBD@Z 000000014004a2d0     game-object.obj
 0003:0000c328       $unwind$?dtor$0@?0??CreateImpl@GameObject@@CAPEAV1@W4Object_Type@@PEBD@Z@4HA 000000014004a328     game-object.obj
 0003:0000c338       $unwind$?dtor$1@?0??CreateImpl@GameObject@@CAPEAV1@W4Object_Type@@PEBD@Z@4HA 000000014004a338     game-object.obj
 0003:0000c348       $unwind$?catch$2@?0??CreateImpl@GameObject@@CAPEAV1@W4Object_Type@@PEBD@Z@4HA 000000014004a348     game-object.obj
 0003:0000c360       $unwind$??_GGameObject@@UEAAPEAXI@Z 000000014004a360     game-object.obj
 0003:0000c374       $unwind$??0MenuWindow@@QEAA@PEAVEngine@@AEBV?$Vector2@M@sf@@1@Z 000000014004a374     menu-window.obj
 0003:0000c390       $stateUnwindMap$??0MenuWindow@@QEAA@PEAVEngine@@AEBV?$Vector2@M@sf@@1@Z 000000014004a390     menu-window.obj
 0003:0000c3c0       $ip2state$??0MenuWindow@@QEAA@PEAVEngine@@AEBV?$Vector2@M@sf@@1@Z 000000014004a3c0     menu-window.obj
 0003:0000c410       $unwind$?dtor$0@?0???0MenuWindow@@QEAA@PEAVEngine@@AEBV?$Vector2@M@sf@@1@Z@4HA 000000014004a410     menu-window.obj
 0003:0000c420       $unwind$?dtor$1@?0???0MenuWindow@@QEAA@PEAVEngine@@AEBV?$Vector2@M@sf@@1@Z@4HA 000000014004a420     menu-window.obj
 0003:0000c430       $unwind$?dtor$3@?0???0MenuWindow@@QEAA@PEAVEngine@@AEBV?$Vector2@M@sf@@1@Z@4HA 000000014004a430     menu-window.obj
 0003:0000c440       $unwind$?dtor$5@?0???0MenuWindow@@QEAA@PEAVEngine@@AEBV?$Vector2@M@sf@@1@Z@4HA 000000014004a440     menu-window.obj
 0003:0000c450       $unwind$??1MenuWindow@@UEAA@XZ 000000014004a450     menu-window.obj
 0003:0000c464       $unwind$?onStartClicked@MenuWindow@@AEAAXPEAVButton@@@Z 000000014004a464     menu-window.obj
 0003:0000c478       $unwind$?onEditorClicked@MenuWindow@@AEAAXPEAVButton@@@Z 000000014004a478     menu-window.obj
 0003:0000c48c       $unwind$?onExitClicked@MenuWindow@@AEAAXPEAVButton@@@Z 000000014004a48c     menu-window.obj
 0003:0000c4a0       $unwind$??_GMenuWindow@@UEAAPEAXI@Z 000000014004a4a0     menu-window.obj
 0003:0000c4b4       $unwind$??R<lambda_668a1179af56ef880bbabaf92a5d9839>@@QEBAXPEAVButton@@@Z 000000014004a4b4     menu-window.obj
 0003:0000c4c8       $unwind$??0<lambda_668a1179af56ef880bbabaf92a5d9839>@@QEAA@QEAVMenuWindow@@@Z 000000014004a4c8     menu-window.obj
 0003:0000c4dc       $unwind$??$forward@AEAV<lambda_668a1179af56ef880bbabaf92a5d9839>@@@std@@YAAEAV<lambda_668a1179af56ef880bbabaf92a5d9839>@@AEAV1@@Z 000000014004a4dc     menu-window.obj
 0003:0000c4f0       $unwind$??$_Call@AEAV<lambda_668a1179af56ef880bbabaf92a5d9839>@@PEAVButton@@@_Invoker_functor@std@@SAXAEAV<lambda_668a1179af56ef880bbabaf92a5d9839>@@$$QEAPEAVButton@@@Z 000000014004a4f0     menu-window.obj
 0003:0000c504       $unwind$??$invoke@AEAV<lambda_668a1179af56ef880bbabaf92a5d9839>@@PEAVButton@@@std@@YAXAEAV<lambda_668a1179af56ef880bbabaf92a5d9839>@@$$QEAPEAVButton@@@Z 000000014004a504     menu-window.obj
 0003:0000c518       $unwind$??$?0V<lambda_668a1179af56ef880bbabaf92a5d9839>@@X@?$function@$$A6AXPEAVButton@@@Z@std@@QEAA@V<lambda_668a1179af56ef880bbabaf92a5d9839>@@@Z 000000014004a518     menu-window.obj
 0003:0000c534       $stateUnwindMap$??$?0V<lambda_668a1179af56ef880bbabaf92a5d9839>@@X@?$function@$$A6AXPEAVButton@@@Z@std@@QEAA@V<lambda_668a1179af56ef880bbabaf92a5d9839>@@@Z 000000014004a534     menu-window.obj
 0003:0000c540       $ip2state$??$?0V<lambda_668a1179af56ef880bbabaf92a5d9839>@@X@?$function@$$A6AXPEAVButton@@@Z@std@@QEAA@V<lambda_668a1179af56ef880bbabaf92a5d9839>@@@Z 000000014004a540     menu-window.obj
 0003:0000c55c       $unwind$?dtor$0@?0???$?0V<lambda_668a1179af56ef880bbabaf92a5d9839>@@X@?$function@$$A6AXPEAVButton@@@Z@std@@QEAA@V<lambda_668a1179af56ef880bbabaf92a5d9839>@@@Z@4HA 000000014004a55c     menu-window.obj
 0003:0000c56c       $unwind$??R<lambda_312b3f49165ee8dbe2e5837b3ce31c90>@@QEBAXPEAVButton@@@Z 000000014004a56c     menu-window.obj
 0003:0000c580       $unwind$??0<lambda_312b3f49165ee8dbe2e5837b3ce31c90>@@QEAA@QEAVMenuWindow@@@Z 000000014004a580     menu-window.obj
 0003:0000c594       $unwind$??$forward@AEAV<lambda_312b3f49165ee8dbe2e5837b3ce31c90>@@@std@@YAAEAV<lambda_312b3f49165ee8dbe2e5837b3ce31c90>@@AEAV1@@Z 000000014004a594     menu-window.obj
 0003:0000c5a8       $unwind$??$_Call@AEAV<lambda_312b3f49165ee8dbe2e5837b3ce31c90>@@PEAVButton@@@_Invoker_functor@std@@SAXAEAV<lambda_312b3f49165ee8dbe2e5837b3ce31c90>@@$$QEAPEAVButton@@@Z 000000014004a5a8     menu-window.obj
 0003:0000c5bc       $unwind$??$invoke@AEAV<lambda_312b3f49165ee8dbe2e5837b3ce31c90>@@PEAVButton@@@std@@YAXAEAV<lambda_312b3f49165ee8dbe2e5837b3ce31c90>@@$$QEAPEAVButton@@@Z 000000014004a5bc     menu-window.obj
 0003:0000c5d0       $unwind$??$?0V<lambda_312b3f49165ee8dbe2e5837b3ce31c90>@@X@?$function@$$A6AXPEAVButton@@@Z@std@@QEAA@V<lambda_312b3f49165ee8dbe2e5837b3ce31c90>@@@Z 000000014004a5d0     menu-window.obj
 0003:0000c5ec       $stateUnwindMap$??$?0V<lambda_312b3f49165ee8dbe2e5837b3ce31c90>@@X@?$function@$$A6AXPEAVButton@@@Z@std@@QEAA@V<lambda_312b3f49165ee8dbe2e5837b3ce31c90>@@@Z 000000014004a5ec     menu-window.obj
 0003:0000c5f8       $ip2state$??$?0V<lambda_312b3f49165ee8dbe2e5837b3ce31c90>@@X@?$function@$$A6AXPEAVButton@@@Z@std@@QEAA@V<lambda_312b3f49165ee8dbe2e5837b3ce31c90>@@@Z 000000014004a5f8     menu-window.obj
 0003:0000c614       $unwind$?dtor$0@?0???$?0V<lambda_312b3f49165ee8dbe2e5837b3ce31c90>@@X@?$function@$$A6AXPEAVButton@@@Z@std@@QEAA@V<lambda_312b3f49165ee8dbe2e5837b3ce31c90>@@@Z@4HA 000000014004a614     menu-window.obj
 0003:0000c624       $unwind$??R<lambda_5f2a59844b8069354d5a17d44e450129>@@QEBAXPEAVButton@@@Z 000000014004a624     menu-window.obj
 0003:0000c638       $unwind$??0<lambda_5f2a59844b8069354d5a17d44e450129>@@QEAA@QEAVMenuWindow@@@Z 000000014004a638     menu-window.obj
 0003:0000c64c       $unwind$??$forward@AEAV<lambda_5f2a59844b8069354d5a17d44e450129>@@@std@@YAAEAV<lambda_5f2a59844b8069354d5a17d44e450129>@@AEAV1@@Z 000000014004a64c     menu-window.obj
 0003:0000c660       $unwind$??$_Call@AEAV<lambda_5f2a59844b8069354d5a17d44e450129>@@PEAVButton@@@_Invoker_functor@std@@SAXAEAV<lambda_5f2a59844b8069354d5a17d44e450129>@@$$QEAPEAVButton@@@Z 000000014004a660     menu-window.obj
 0003:0000c674       $unwind$??$invoke@AEAV<lambda_5f2a59844b8069354d5a17d44e450129>@@PEAVButton@@@std@@YAXAEAV<lambda_5f2a59844b8069354d5a17d44e450129>@@$$QEAPEAVButton@@@Z 000000014004a674     menu-window.obj
 0003:0000c688       $unwind$??$?0V<lambda_5f2a59844b8069354d5a17d44e450129>@@X@?$function@$$A6AXPEAVButton@@@Z@std@@QEAA@V<lambda_5f2a59844b8069354d5a17d44e450129>@@@Z 000000014004a688     menu-window.obj
 0003:0000c6a4       $stateUnwindMap$??$?0V<lambda_5f2a59844b8069354d5a17d44e450129>@@X@?$function@$$A6AXPEAVButton@@@Z@std@@QEAA@V<lambda_5f2a59844b8069354d5a17d44e450129>@@@Z 000000014004a6a4     menu-window.obj
 0003:0000c6b0       $ip2state$??$?0V<lambda_5f2a59844b8069354d5a17d44e450129>@@X@?$function@$$A6AXPEAVButton@@@Z@std@@QEAA@V<lambda_5f2a59844b8069354d5a17d44e450129>@@@Z 000000014004a6b0     menu-window.obj
 0003:0000c6cc       $unwind$?dtor$0@?0???$?0V<lambda_5f2a59844b8069354d5a17d44e450129>@@X@?$function@$$A6AXPEAVButton@@@Z@std@@QEAA@V<lambda_5f2a59844b8069354d5a17d44e450129>@@@Z@4HA 000000014004a6cc     menu-window.obj
 0003:0000c6dc       $unwind$??0?$_Func_base@XPEAVButton@@@std@@QEAA@XZ 000000014004a6dc     menu-window.obj
 0003:0000c6f0       $unwind$??$move@AEAV<lambda_668a1179af56ef880bbabaf92a5d9839>@@@std@@YA$$QEAV<lambda_668a1179af56ef880bbabaf92a5d9839>@@AEAV1@@Z 000000014004a6f0     menu-window.obj
 0003:0000c704       $unwind$??$_Reset@V<lambda_668a1179af56ef880bbabaf92a5d9839>@@@?$_Func_class@XPEAVButton@@@std@@IEAAX$$QEAV<lambda_668a1179af56ef880bbabaf92a5d9839>@@@Z 000000014004a704     menu-window.obj
 0003:0000c718       $unwind$??$move@AEAV<lambda_312b3f49165ee8dbe2e5837b3ce31c90>@@@std@@YA$$QEAV<lambda_312b3f49165ee8dbe2e5837b3ce31c90>@@AEAV1@@Z 000000014004a718     menu-window.obj
 0003:0000c72c       $unwind$??$_Reset@V<lambda_312b3f49165ee8dbe2e5837b3ce31c90>@@@?$_Func_class@XPEAVButton@@@std@@IEAAX$$QEAV<lambda_312b3f49165ee8dbe2e5837b3ce31c90>@@@Z 000000014004a72c     menu-window.obj
 0003:0000c740       $unwind$??$move@AEAV<lambda_5f2a59844b8069354d5a17d44e450129>@@@std@@YA$$QEAV<lambda_5f2a59844b8069354d5a17d44e450129>@@AEAV1@@Z 000000014004a740     menu-window.obj
 0003:0000c754       $unwind$??$_Reset@V<lambda_5f2a59844b8069354d5a17d44e450129>@@@?$_Func_class@XPEAVButton@@@std@@IEAAX$$QEAV<lambda_5f2a59844b8069354d5a17d44e450129>@@@Z 000000014004a754     menu-window.obj
 0003:0000c768       $unwind$??$_Test_callable@V<lambda_668a1179af56ef880bbabaf92a5d9839>@@@std@@YA_NAEBV<lambda_668a1179af56ef880bbabaf92a5d9839>@@@Z 000000014004a768     menu-window.obj
 0003:0000c77c       $unwind$??$forward@V<lambda_668a1179af56ef880bbabaf92a5d9839>@@@std@@YA$$QEAV<lambda_668a1179af56ef880bbabaf92a5d9839>@@AEAV1@@Z 000000014004a77c     menu-window.obj
 0003:0000c790       $unwind$?_Copy@?$_Func_impl_no_alloc@V<lambda_668a1179af56ef880bbabaf92a5d9839>@@XPEAVButton@@@std@@EEBAPEAV?$_Func_base@XPEAVButton@@@2@PEAX@Z 000000014004a790     menu-window.obj
 0003:0000c7a4       $unwind$?_Clone@?$_Func_impl_no_alloc@V<lambda_668a1179af56ef880bbabaf92a5d9839>@@XPEAVButton@@@std@@AEBAPEAV?$_Func_base@XPEAVButton@@@2@PEAXU?$integral_constant@_N$0A@@2@@Z 000000014004a7a4     menu-window.obj
 0003:0000c7b8       $unwind$?_Move@?$_Func_impl_no_alloc@V<lambda_668a1179af56ef880bbabaf92a5d9839>@@XPEAVButton@@@std@@EEAAPEAV?$_Func_base@XPEAVButton@@@2@PEAX@Z 000000014004a7b8     menu-window.obj
 0003:0000c7cc       $unwind$?_Do_call@?$_Func_impl_no_alloc@V<lambda_668a1179af56ef880bbabaf92a5d9839>@@XPEAVButton@@@std@@EEAAX$$QEAPEAVButton@@@Z 000000014004a7cc     menu-window.obj
 0003:0000c7e0       $unwind$?_Target_type@?$_Func_impl_no_alloc@V<lambda_668a1179af56ef880bbabaf92a5d9839>@@XPEAVButton@@@std@@EEBAAEBVtype_info@@XZ 000000014004a7e0     menu-window.obj
 0003:0000c7f4       $unwind$?_Get@?$_Func_impl_no_alloc@V<lambda_668a1179af56ef880bbabaf92a5d9839>@@XPEAVButton@@@std@@EEBAPEBXXZ 000000014004a7f4     menu-window.obj
 0003:0000c808       $unwind$?_Delete_this@?$_Func_impl_no_alloc@V<lambda_668a1179af56ef880bbabaf92a5d9839>@@XPEAVButton@@@std@@EEAAX_N@Z 000000014004a808     menu-window.obj
 0003:0000c828       $ip2state$?_Delete_this@?$_Func_impl_no_alloc@V<lambda_668a1179af56ef880bbabaf92a5d9839>@@XPEAVButton@@@std@@EEAAX_N@Z 000000014004a828     menu-window.obj
 0003:0000c830       $unwind$??$_Reset_impl@V?$_Func_impl_no_alloc@V<lambda_668a1179af56ef880bbabaf92a5d9839>@@XPEAVButton@@@std@@V<lambda_668a1179af56ef880bbabaf92a5d9839>@@@?$_Func_class@XPEAVButton@@@std@@IEAAX$$QEAV<lambda_668a1179af56ef880bbabaf92a5d9839>@@U?$integral_constant@_N$0A@@1@@Z 000000014004a830     menu-window.obj
 0003:0000c844       $unwind$??$_Test_callable@V<lambda_312b3f49165ee8dbe2e5837b3ce31c90>@@@std@@YA_NAEBV<lambda_312b3f49165ee8dbe2e5837b3ce31c90>@@@Z 000000014004a844     menu-window.obj
 0003:0000c858       $unwind$??$forward@V<lambda_312b3f49165ee8dbe2e5837b3ce31c90>@@@std@@YA$$QEAV<lambda_312b3f49165ee8dbe2e5837b3ce31c90>@@AEAV1@@Z 000000014004a858     menu-window.obj
 0003:0000c86c       $unwind$?_Copy@?$_Func_impl_no_alloc@V<lambda_312b3f49165ee8dbe2e5837b3ce31c90>@@XPEAVButton@@@std@@EEBAPEAV?$_Func_base@XPEAVButton@@@2@PEAX@Z 000000014004a86c     menu-window.obj
 0003:0000c880       $unwind$?_Clone@?$_Func_impl_no_alloc@V<lambda_312b3f49165ee8dbe2e5837b3ce31c90>@@XPEAVButton@@@std@@AEBAPEAV?$_Func_base@XPEAVButton@@@2@PEAXU?$integral_constant@_N$0A@@2@@Z 000000014004a880     menu-window.obj
 0003:0000c894       $unwind$?_Move@?$_Func_impl_no_alloc@V<lambda_312b3f49165ee8dbe2e5837b3ce31c90>@@XPEAVButton@@@std@@EEAAPEAV?$_Func_base@XPEAVButton@@@2@PEAX@Z 000000014004a894     menu-window.obj
 0003:0000c8a8       $unwind$?_Do_call@?$_Func_impl_no_alloc@V<lambda_312b3f49165ee8dbe2e5837b3ce31c90>@@XPEAVButton@@@std@@EEAAX$$QEAPEAVButton@@@Z 000000014004a8a8     menu-window.obj
 0003:0000c8bc       $unwind$?_Target_type@?$_Func_impl_no_alloc@V<lambda_312b3f49165ee8dbe2e5837b3ce31c90>@@XPEAVButton@@@std@@EEBAAEBVtype_info@@XZ 000000014004a8bc     menu-window.obj
 0003:0000c8d0       $unwind$?_Get@?$_Func_impl_no_alloc@V<lambda_312b3f49165ee8dbe2e5837b3ce31c90>@@XPEAVButton@@@std@@EEBAPEBXXZ 000000014004a8d0     menu-window.obj
 0003:0000c8e4       $unwind$?_Delete_this@?$_Func_impl_no_alloc@V<lambda_312b3f49165ee8dbe2e5837b3ce31c90>@@XPEAVButton@@@std@@EEAAX_N@Z 000000014004a8e4     menu-window.obj
 0003:0000c900       $ip2state$?_Delete_this@?$_Func_impl_no_alloc@V<lambda_312b3f49165ee8dbe2e5837b3ce31c90>@@XPEAVButton@@@std@@EEAAX_N@Z 000000014004a900     menu-window.obj
 0003:0000c908       $unwind$??$_Reset_impl@V?$_Func_impl_no_alloc@V<lambda_312b3f49165ee8dbe2e5837b3ce31c90>@@XPEAVButton@@@std@@V<lambda_312b3f49165ee8dbe2e5837b3ce31c90>@@@?$_Func_class@XPEAVButton@@@std@@IEAAX$$QEAV<lambda_312b3f49165ee8dbe2e5837b3ce31c90>@@U?$integral_constant@_N$0A@@1@@Z 000000014004a908     menu-window.obj
 0003:0000c91c       $unwind$??$_Test_callable@V<lambda_5f2a59844b8069354d5a17d44e450129>@@@std@@YA_NAEBV<lambda_5f2a59844b8069354d5a17d44e450129>@@@Z 000000014004a91c     menu-window.obj
 0003:0000c930       $unwind$??$forward@V<lambda_5f2a59844b8069354d5a17d44e450129>@@@std@@YA$$QEAV<lambda_5f2a59844b8069354d5a17d44e450129>@@AEAV1@@Z 000000014004a930     menu-window.obj
 0003:0000c944       $unwind$?_Copy@?$_Func_impl_no_alloc@V<lambda_5f2a59844b8069354d5a17d44e450129>@@XPEAVButton@@@std@@EEBAPEAV?$_Func_base@XPEAVButton@@@2@PEAX@Z 000000014004a944     menu-window.obj
 0003:0000c958       $unwind$?_Clone@?$_Func_impl_no_alloc@V<lambda_5f2a59844b8069354d5a17d44e450129>@@XPEAVButton@@@std@@AEBAPEAV?$_Func_base@XPEAVButton@@@2@PEAXU?$integral_constant@_N$0A@@2@@Z 000000014004a958     menu-window.obj
 0003:0000c96c       $unwind$?_Move@?$_Func_impl_no_alloc@V<lambda_5f2a59844b8069354d5a17d44e450129>@@XPEAVButton@@@std@@EEAAPEAV?$_Func_base@XPEAVButton@@@2@PEAX@Z 000000014004a96c     menu-window.obj
 0003:0000c980       $unwind$?_Do_call@?$_Func_impl_no_alloc@V<lambda_5f2a59844b8069354d5a17d44e450129>@@XPEAVButton@@@std@@EEAAX$$QEAPEAVButton@@@Z 000000014004a980     menu-window.obj
 0003:0000c994       $unwind$?_Target_type@?$_Func_impl_no_alloc@V<lambda_5f2a59844b8069354d5a17d44e450129>@@XPEAVButton@@@std@@EEBAAEBVtype_info@@XZ 000000014004a994     menu-window.obj
 0003:0000c9a8       $unwind$?_Get@?$_Func_impl_no_alloc@V<lambda_5f2a59844b8069354d5a17d44e450129>@@XPEAVButton@@@std@@EEBAPEBXXZ 000000014004a9a8     menu-window.obj
 0003:0000c9bc       $unwind$?_Delete_this@?$_Func_impl_no_alloc@V<lambda_5f2a59844b8069354d5a17d44e450129>@@XPEAVButton@@@std@@EEAAX_N@Z 000000014004a9bc     menu-window.obj
 0003:0000c9d8       $ip2state$?_Delete_this@?$_Func_impl_no_alloc@V<lambda_5f2a59844b8069354d5a17d44e450129>@@XPEAVButton@@@std@@EEAAX_N@Z 000000014004a9d8     menu-window.obj
 0003:0000c9e0       $unwind$??$_Reset_impl@V?$_Func_impl_no_alloc@V<lambda_5f2a59844b8069354d5a17d44e450129>@@XPEAVButton@@@std@@V<lambda_5f2a59844b8069354d5a17d44e450129>@@@?$_Func_class@XPEAVButton@@@std@@IEAAX$$QEAV<lambda_5f2a59844b8069354d5a17d44e450129>@@U?$integral_constant@_N$0A@@1@@Z 000000014004a9e0     menu-window.obj
 0003:0000c9f4       $unwind$??$_Deallocate@$07$0A@@std@@YAXPEAX_K@Z 000000014004a9f4     menu-window.obj
 0003:0000ca08       $unwind$??$addressof@$$CBV<lambda_5f2a59844b8069354d5a17d44e450129>@@@std@@YAPEBV<lambda_5f2a59844b8069354d5a17d44e450129>@@AEBV1@@Z 000000014004aa08     menu-window.obj
 0003:0000ca1c       $unwind$??$?0V<lambda_5f2a59844b8069354d5a17d44e450129>@@X@?$_Func_impl_no_alloc@V<lambda_5f2a59844b8069354d5a17d44e450129>@@XPEAVButton@@@std@@QEAA@$$QEAV<lambda_5f2a59844b8069354d5a17d44e450129>@@@Z 000000014004aa1c     menu-window.obj
 0003:0000ca30       $unwind$??$addressof@$$CBV<lambda_312b3f49165ee8dbe2e5837b3ce31c90>@@@std@@YAPEBV<lambda_312b3f49165ee8dbe2e5837b3ce31c90>@@AEBV1@@Z 000000014004aa30     menu-window.obj
 0003:0000ca44       $unwind$??$?0V<lambda_312b3f49165ee8dbe2e5837b3ce31c90>@@X@?$_Func_impl_no_alloc@V<lambda_312b3f49165ee8dbe2e5837b3ce31c90>@@XPEAVButton@@@std@@QEAA@$$QEAV<lambda_312b3f49165ee8dbe2e5837b3ce31c90>@@@Z 000000014004aa44     menu-window.obj
 0003:0000ca58       $unwind$??$addressof@$$CBV<lambda_668a1179af56ef880bbabaf92a5d9839>@@@std@@YAPEBV<lambda_668a1179af56ef880bbabaf92a5d9839>@@AEBV1@@Z 000000014004aa58     menu-window.obj
 0003:0000ca6c       $unwind$??$?0V<lambda_668a1179af56ef880bbabaf92a5d9839>@@X@?$_Func_impl_no_alloc@V<lambda_668a1179af56ef880bbabaf92a5d9839>@@XPEAVButton@@@std@@QEAA@$$QEAV<lambda_668a1179af56ef880bbabaf92a5d9839>@@@Z 000000014004aa6c     menu-window.obj
 0003:0000ca80       $unwind$??$?0AEBV<lambda_5f2a59844b8069354d5a17d44e450129>@@X@?$_Func_impl_no_alloc@V<lambda_5f2a59844b8069354d5a17d44e450129>@@XPEAVButton@@@std@@QEAA@AEBV<lambda_5f2a59844b8069354d5a17d44e450129>@@@Z 000000014004aa80     menu-window.obj
 0003:0000ca94       $unwind$??$?0AEBV<lambda_312b3f49165ee8dbe2e5837b3ce31c90>@@X@?$_Func_impl_no_alloc@V<lambda_312b3f49165ee8dbe2e5837b3ce31c90>@@XPEAVButton@@@std@@QEAA@AEBV<lambda_312b3f49165ee8dbe2e5837b3ce31c90>@@@Z 000000014004aa94     menu-window.obj
 0003:0000caa8       $unwind$??$?0AEBV<lambda_668a1179af56ef880bbabaf92a5d9839>@@X@?$_Func_impl_no_alloc@V<lambda_668a1179af56ef880bbabaf92a5d9839>@@XPEAVButton@@@std@@QEAA@AEBV<lambda_668a1179af56ef880bbabaf92a5d9839>@@@Z 000000014004aaa8     menu-window.obj
 0003:0000cabc       $unwind$??$_Test_callable@V<lambda_668a1179af56ef880bbabaf92a5d9839>@@@std@@YA_NAEBV<lambda_668a1179af56ef880bbabaf92a5d9839>@@U?$integral_constant@_N$0A@@0@@Z 000000014004aabc     menu-window.obj
 0003:0000cad0       $unwind$??$_Call@AEAV<lambda_668a1179af56ef880bbabaf92a5d9839>@@PEAVButton@@@?$_Invoker_ret@X$00@std@@SAXAEAV<lambda_668a1179af56ef880bbabaf92a5d9839>@@$$QEAPEAVButton@@@Z 000000014004aad0     menu-window.obj
 0003:0000cae4       $unwind$??$_Test_callable@V<lambda_312b3f49165ee8dbe2e5837b3ce31c90>@@@std@@YA_NAEBV<lambda_312b3f49165ee8dbe2e5837b3ce31c90>@@U?$integral_constant@_N$0A@@0@@Z 000000014004aae4     menu-window.obj
 0003:0000caf8       $unwind$??$_Call@AEAV<lambda_312b3f49165ee8dbe2e5837b3ce31c90>@@PEAVButton@@@?$_Invoker_ret@X$00@std@@SAXAEAV<lambda_312b3f49165ee8dbe2e5837b3ce31c90>@@$$QEAPEAVButton@@@Z 000000014004aaf8     menu-window.obj
 0003:0000cb0c       $unwind$??$_Test_callable@V<lambda_5f2a59844b8069354d5a17d44e450129>@@@std@@YA_NAEBV<lambda_5f2a59844b8069354d5a17d44e450129>@@U?$integral_constant@_N$0A@@0@@Z 000000014004ab0c     menu-window.obj
 0003:0000cb20       $unwind$??$_Call@AEAV<lambda_5f2a59844b8069354d5a17d44e450129>@@PEAVButton@@@?$_Invoker_ret@X$00@std@@SAXAEAV<lambda_5f2a59844b8069354d5a17d44e450129>@@$$QEAPEAVButton@@@Z 000000014004ab20     menu-window.obj
 0003:0000cb34       $unwind$??$forward@AEBV<lambda_5f2a59844b8069354d5a17d44e450129>@@@std@@YAAEBV<lambda_5f2a59844b8069354d5a17d44e450129>@@AEBV1@@Z 000000014004ab34     menu-window.obj
 0003:0000cb48       $unwind$??$forward@AEBV<lambda_312b3f49165ee8dbe2e5837b3ce31c90>@@@std@@YAAEBV<lambda_312b3f49165ee8dbe2e5837b3ce31c90>@@AEBV1@@Z 000000014004ab48     menu-window.obj
 0003:0000cb5c       $unwind$??$forward@AEBV<lambda_668a1179af56ef880bbabaf92a5d9839>@@@std@@YAAEBV<lambda_668a1179af56ef880bbabaf92a5d9839>@@AEBV1@@Z 000000014004ab5c     menu-window.obj
 0003:0000cb70       $unwind$??0Missile@@QEAA@XZ 000000014004ab70     missile.obj
 0003:0000cb84       $unwind$??1Missile@@QEAA@XZ 000000014004ab84     missile.obj
 0003:0000cb98       $unwind$??0?$Rect@H@sf@@QEAA@XZ 000000014004ab98     object.obj
 0003:0000cbac       $unwind$??0?$Rect@H@sf@@QEAA@AEBV?$Vector2@H@1@0@Z 000000014004abac     object.obj
 0003:0000cbc0       $unwind$??0Object@@QEAA@PEBD@Z 000000014004abc0     object.obj
 0003:0000cbdc       $stateUnwindMap$??0Object@@QEAA@PEBD@Z 000000014004abdc     object.obj
 0003:0000cbf0       $ip2state$??0Object@@QEAA@PEBD@Z 000000014004abf0     object.obj
 0003:0000cc14       $unwind$?dtor$0@?0???0Object@@QEAA@PEBD@Z@4HA 000000014004ac14     object.obj
 0003:0000cc24       $unwind$?dtor$1@?0???0Object@@QEAA@PEBD@Z@4HA 000000014004ac24     object.obj
 0003:0000cc34       $unwind$??0Object@@QEAA@AEBV?$Vector2@M@sf@@0@Z 000000014004ac34     object.obj
 0003:0000cc50       $stateUnwindMap$??0Object@@QEAA@AEBV?$Vector2@M@sf@@0@Z 000000014004ac50     object.obj
 0003:0000cc68       $ip2state$??0Object@@QEAA@AEBV?$Vector2@M@sf@@0@Z 000000014004ac68     object.obj
 0003:0000cc8c       $unwind$?dtor$0@?0???0Object@@QEAA@AEBV?$Vector2@M@sf@@0@Z@4HA 000000014004ac8c     object.obj
 0003:0000cc9c       $unwind$?dtor$1@?0???0Object@@QEAA@AEBV?$Vector2@M@sf@@0@Z@4HA 000000014004ac9c     object.obj
 0003:0000ccac       $unwind$??0Object@@QEAA@PEBV0@@Z 000000014004acac     object.obj
 0003:0000ccc8       $stateUnwindMap$??0Object@@QEAA@PEBV0@@Z 000000014004acc8     object.obj
 0003:0000cce0       $ip2state$??0Object@@QEAA@PEBV0@@Z 000000014004ace0     object.obj
 0003:0000cd04       $unwind$?dtor$0@?0???0Object@@QEAA@PEBV0@@Z@4HA 000000014004ad04     object.obj
 0003:0000cd14       $unwind$?dtor$1@?0???0Object@@QEAA@PEBV0@@Z@4HA 000000014004ad14     object.obj
 0003:0000cd24       $unwind$??1Object@@UEAA@XZ 000000014004ad24     object.obj
 0003:0000cd38       $unwind$?GetParent@Object@@QEBAPEAV1@XZ 000000014004ad38     object.obj
 0003:0000cd4c       $unwind$?SetParent@Object@@QEAAXPEAV1@@Z 000000014004ad4c     object.obj
 0003:0000cd60       $unwind$?GetPos@Object@@QEBA?AV?$Vector2@M@sf@@XZ 000000014004ad60     object.obj
 0003:0000cd74       $unwind$?SetPos@Object@@UEAAXAEBV?$Vector2@M@sf@@@Z 000000014004ad74     object.obj
 0003:0000cd88       $unwind$?GetSize@Object@@QEBA?AV?$Vector2@M@sf@@XZ 000000014004ad88     object.obj
 0003:0000cd9c       $unwind$?SetSize@Object@@QEAAXAEBV?$Vector2@M@sf@@@Z 000000014004ad9c     object.obj
 0003:0000cdb0       $unwind$?SetTexture@Object@@QEAA_NPEBD@Z 000000014004adb0     object.obj
 0003:0000cdd0       $stateUnwindMap$?SetTexture@Object@@QEAA_NPEBD@Z 000000014004add0     object.obj
 0003:0000cdd8       $ip2state$?SetTexture@Object@@QEAA_NPEBD@Z 000000014004add8     object.obj
 0003:0000cdf4       $unwind$?dtor$0@?0??SetTexture@Object@@QEAA_NPEBD@Z@4HA 000000014004adf4     object.obj
 0003:0000ce04       $unwind$?GetAbsolutePos@Object@@QEBA?AV?$Vector2@M@sf@@XZ 000000014004ae04     object.obj
 0003:0000ce18       $unwind$?CheckIntersect@Object@@QEBA_NAEBV?$Vector2@M@sf@@@Z 000000014004ae18     object.obj
 0003:0000ce2c       $unwind$?Draw@Object@@UEAAXPEAVRenderWindow@sf@@@Z 000000014004ae2c     object.obj
 0003:0000ce40       $unwind$?CalculateSpritePos@Object@@QEAAXXZ 000000014004ae40     object.obj
 0003:0000ce54       $unwind$?calculateSpriteSize@Object@@AEAAXXZ 000000014004ae54     object.obj
 0003:0000ce68       $unwind$??_GObject@@UEAAPEAXI@Z 000000014004ae68     object.obj
 0003:0000ce7c       $unwind$??0?$Vector2@H@sf@@QEAA@HH@Z 000000014004ae7c     object.obj
 0003:0000ce90       $unwind$??R<lambda_66f57f934f28d61049862f64df852ff0>@@QEBAXQEAD_KQEBD@Z 000000014004ae90     object.obj
 0003:0000cea4       $unwind$??$_Reallocate_for@V<lambda_66f57f934f28d61049862f64df852ff0>@@PEBD@?$basic_string@DU?$char_traits@D@std@@V?$allocator@D@2@@std@@QEAAAEAV01@_KV<lambda_66f57f934f28d61049862f64df852ff0>@@PEBD@Z 000000014004aea4     object.obj
 0003:0000ceb8       $unwind$??0Player@@QEAA@PEAVGameObject@@@Z 000000014004aeb8     player.obj
 0003:0000cecc       $unwind$??1Player@@QEAA@XZ 000000014004aecc     player.obj
 0003:0000cee0       $unwind$?HandleEvent@Player@@QEAA_NAEBVEvent@sf@@@Z 000000014004aee0     player.obj
 0003:0000cef4       $unwind$??0Tank@@QEAA@PEBD@Z 000000014004aef4     tank.obj
 0003:0000cf08       $unwind$??0Tank@@QEAA@PEBV0@@Z 000000014004af08     tank.obj
 0003:0000cf1c       $unwind$??1Tank@@UEAA@XZ   000000014004af1c     tank.obj
 0003:0000cf30       $unwind$?Clone@Tank@@UEBAPEAVGameObject@@XZ 000000014004af30     tank.obj
 0003:0000cf4c       $stateUnwindMap$?Clone@Tank@@UEBAPEAVGameObject@@XZ 000000014004af4c     tank.obj
 0003:0000cf58       $ip2state$?Clone@Tank@@UEBAPEAVGameObject@@XZ 000000014004af58     tank.obj
 0003:0000cf74       $unwind$?dtor$0@?0??Clone@Tank@@UEBAPEAVGameObject@@XZ@4HA 000000014004af74     tank.obj
 0003:0000cf84       $unwind$?OnIntersect@Tank@@UEAAXPEAVGameObject@@@Z 000000014004af84     tank.obj
 0003:0000cf98       $unwind$??_GTank@@UEAAPEAXI@Z 000000014004af98     tank.obj
 0003:0000cfac       $unwind$??0Wall@@QEAA@PEBD@Z 000000014004afac     wall.obj
 0003:0000cfc0       $unwind$??0Wall@@QEAA@PEBV0@@Z 000000014004afc0     wall.obj
 0003:0000cfd4       $unwind$??1Wall@@UEAA@XZ   000000014004afd4     wall.obj
 0003:0000cfe8       $unwind$?Clone@Wall@@UEBAPEAVGameObject@@XZ 000000014004afe8     wall.obj
 0003:0000d004       $stateUnwindMap$?Clone@Wall@@UEBAPEAVGameObject@@XZ 000000014004b004     wall.obj
 0003:0000d010       $ip2state$?Clone@Wall@@UEBAPEAVGameObject@@XZ 000000014004b010     wall.obj
 0003:0000d02c       $unwind$?dtor$0@?0??Clone@Wall@@UEBAPEAVGameObject@@XZ@4HA 000000014004b02c     wall.obj
 0003:0000d03c       $unwind$?OnIntersect@Wall@@UEAAXPEAVGameObject@@@Z 000000014004b03c     wall.obj
 0003:0000d050       $unwind$??_GWall@@UEAAPEAXI@Z 000000014004b050     wall.obj
 0003:0000d064       $unwind$??0WidgetGame@@QEAA@PEAVEngine@@AEBV?$Vector2@M@sf@@1@Z 000000014004b064     widget-game.obj
 0003:0000d080       $stateUnwindMap$??0WidgetGame@@QEAA@PEAVEngine@@AEBV?$Vector2@M@sf@@1@Z 000000014004b080     widget-game.obj
 0003:0000d098       $ip2state$??0WidgetGame@@QEAA@PEAVEngine@@AEBV?$Vector2@M@sf@@1@Z 000000014004b098     widget-game.obj
 0003:0000d0c4       $unwind$?dtor$0@?0???0WidgetGame@@QEAA@PEAVEngine@@AEBV?$Vector2@M@sf@@1@Z@4HA 000000014004b0c4     widget-game.obj
 0003:0000d0d4       $unwind$?dtor$1@?0???0WidgetGame@@QEAA@PEAVEngine@@AEBV?$Vector2@M@sf@@1@Z@4HA 000000014004b0d4     widget-game.obj
 0003:0000d0e4       $unwind$??1WidgetGame@@UEAA@XZ 000000014004b0e4     widget-game.obj
 0003:0000d0f8       $unwind$?Draw@WidgetGame@@UEAAXPEAVRenderWindow@sf@@@Z 000000014004b0f8     widget-game.obj
 0003:0000d10c       $unwind$?Update@WidgetGame@@UEAAXAEBVTime@sf@@@Z 000000014004b10c     widget-game.obj
 0003:0000d120       $unwind$?HandleEvent@WidgetGame@@UEAAXAEBVEvent@sf@@@Z 000000014004b120     widget-game.obj
 0003:0000d134       $unwind$?createWorldWalls@WidgetGame@@QEAAXPEBVConfigManager@@@Z 000000014004b134     widget-game.obj
 0003:0000d148       $unwind$?GetNearestIntersectX@WidgetGame@@AEBAPEAVGameObject@@PEBV2@VTime@sf@@@Z 000000014004b148     widget-game.obj
 0003:0000d15c       $unwind$?GetNearestIntersectY@WidgetGame@@AEBAPEAVGameObject@@PEBV2@VTime@sf@@@Z 000000014004b15c     widget-game.obj
 0003:0000d170       $unwind$??_GWidgetGame@@UEAAPEAXI@Z 000000014004b170     widget-game.obj
 0003:0000d184       $unwind$??0?$Rect@M@sf@@QEAA@MMMM@Z 000000014004b184     widget.obj
 0003:0000d198       $unwind$??0Widget@@QEAA@AEBV?$Vector2@M@sf@@0@Z 000000014004b198     widget.obj
 0003:0000d1ac       $unwind$??1Widget@@UEAA@XZ 000000014004b1ac     widget.obj
 0003:0000d1c0       $unwind$?Draw@Widget@@UEAAXPEAVRenderWindow@sf@@@Z 000000014004b1c0     widget.obj
 0003:0000d1dc       $unwind$??_GWidget@@UEAAPEAXI@Z 000000014004b1dc     widget.obj
 0003:0000d1f0       $unwind$??0WidgetTemplates@@QEAA@AEBV?$Vector2@M@sf@@0@Z 000000014004b1f0     widget-templates.obj
 0003:0000d204       $unwind$??1WidgetTemplates@@UEAA@XZ 000000014004b204     widget-templates.obj
 0003:0000d218       $unwind$??_GWidgetTemplates@@UEAAPEAXI@Z 000000014004b218     widget-templates.obj
 0003:0000d22c       $unwind$??0?$Window@VWidget@@@@QEAA@AEBV?$Vector2@M@sf@@0@Z 000000014004b22c     window.obj
 0003:0000d240       $unwind$??1?$Window@VWidget@@@@UEAA@XZ 000000014004b240     window.obj
 0003:0000d254       $unwind$??_G?$Window@VWidget@@@@UEAAPEAXI@Z 000000014004b254     window.obj
 0003:0000d268       $unwind$??0WindowGame@@QEAA@PEAVEngine@@AEBV?$Vector2@M@sf@@1@Z 000000014004b268     window-game.obj
 0003:0000d284       $stateUnwindMap$??0WindowGame@@QEAA@PEAVEngine@@AEBV?$Vector2@M@sf@@1@Z 000000014004b284     window-game.obj
 0003:0000d298       $ip2state$??0WindowGame@@QEAA@PEAVEngine@@AEBV?$Vector2@M@sf@@1@Z 000000014004b298     window-game.obj
 0003:0000d2c4       $unwind$?dtor$0@?0???0WindowGame@@QEAA@PEAVEngine@@AEBV?$Vector2@M@sf@@1@Z@4HA 000000014004b2c4     window-game.obj
 0003:0000d2d4       $unwind$?dtor$1@?0???0WindowGame@@QEAA@PEAVEngine@@AEBV?$Vector2@M@sf@@1@Z@4HA 000000014004b2d4     window-game.obj
 0003:0000d2e4       $unwind$??1WindowGame@@UEAA@XZ 000000014004b2e4     window-game.obj
 0003:0000d2f8       $unwind$??_GWindowGame@@UEAAPEAXI@Z 000000014004b2f8     window-game.obj
 0003:0000d30c       $unwind$??0WindowEditor@@QEAA@PEAVEngine@@AEBV?$Vector2@M@sf@@1@Z 000000014004b30c     window-editor.obj
 0003:0000d328       $stateUnwindMap$??0WindowEditor@@QEAA@PEAVEngine@@AEBV?$Vector2@M@sf@@1@Z 000000014004b328     window-editor.obj
 0003:0000d340       $ip2state$??0WindowEditor@@QEAA@PEAVEngine@@AEBV?$Vector2@M@sf@@1@Z 000000014004b340     window-editor.obj
 0003:0000d36c       $unwind$?dtor$0@?0???0WindowEditor@@QEAA@PEAVEngine@@AEBV?$Vector2@M@sf@@1@Z@4HA 000000014004b36c     window-editor.obj
 0003:0000d37c       $unwind$?dtor$1@?0???0WindowEditor@@QEAA@PEAVEngine@@AEBV?$Vector2@M@sf@@1@Z@4HA 000000014004b37c     window-editor.obj
 0003:0000d38c       $unwind$??1WindowEditor@@UEAA@XZ 000000014004b38c     window-editor.obj
 0003:0000d3a0       $unwind$??_GWindowEditor@@UEAAPEAXI@Z 000000014004b3a0     window-editor.obj
 0003:0000d3b4       $unwind$??R<lambda_d959d1f5d5308bc9905e6be0a7d8cebe>@@QEBAPEAVWidget@@PEAV1@@Z 000000014004b3b4     window-editor.obj
 0003:0000d3c8       $unwind$?<lambda_invoker_cdecl>@<lambda_d959d1f5d5308bc9905e6be0a7d8cebe>@@CAPEAVWidget@@PEAV2@@Z 000000014004b3c8     window-editor.obj
 0003:0000d3dc       $unwind$??B<lambda_d959d1f5d5308bc9905e6be0a7d8cebe>@@QEBAP6APEAVWidget@@PEAV1@@ZXZ 000000014004b3dc     window-editor.obj
 0003:0000d3f0       $unwind$??2@YAPEAX_K@Z     000000014004b3f0     MSVCRTD:new_scalar.obj
 0003:0000d3f8       $unwind$??3@YAXPEAX_K@Z    000000014004b3f8     MSVCRTD:delete_scalar_size.obj
 0003:0000d400       $unwind$atexit             000000014004b400     MSVCRTD:utility.obj
 0003:0000d408       $unwind$_onexit            000000014004b408     MSVCRTD:utility.obj
 0003:0000d410       $unwind$at_quick_exit      000000014004b410     MSVCRTD:utility.obj
 0003:0000d418       $unwind$__scrt_is_nonwritable_in_current_image 000000014004b418     MSVCRTD:utility.obj
 0003:0000d43c       $unwind$__scrt_is_nonwritable_in_current_image$filt$0 000000014004b43c     MSVCRTD:utility.obj
 0003:0000d444       $unwind$__scrt_acquire_startup_lock 000000014004b444     MSVCRTD:utility.obj
 0003:0000d44c       $unwind$__scrt_release_startup_lock 000000014004b44c     MSVCRTD:utility.obj
 0003:0000d454       $unwind$__scrt_initialize_crt 000000014004b454     MSVCRTD:utility.obj
 0003:0000d45c       $unwind$__scrt_uninitialize_crt 000000014004b45c     MSVCRTD:utility.obj
 0003:0000d464       $unwind$__scrt_initialize_onexit_tables 000000014004b464     MSVCRTD:utility.obj
 0003:0000d474       $unwind$__scrt_dllmain_exception_filter 000000014004b474     MSVCRTD:utility.obj
 0003:0000d47c       $unwind$__scrt_dllmain_before_initialize_c 000000014004b47c     MSVCRTD:utility.obj
 0003:0000d484       $unwind$__scrt_dllmain_after_initialize_c 000000014004b484     MSVCRTD:utility.obj
 0003:0000d48c       $unwind$__scrt_dllmain_uninitialize_c 000000014004b48c     MSVCRTD:utility.obj
 0003:0000d494       $unwind$__scrt_dllmain_uninitialize_critical 000000014004b494     MSVCRTD:utility.obj
 0003:0000d49c       $unwind$__scrt_dllmain_crt_thread_attach 000000014004b49c     MSVCRTD:utility.obj
 0003:0000d4a4       $unwind$__scrt_dllmain_crt_thread_detach 000000014004b4a4     MSVCRTD:utility.obj
 0003:0000d4ac       $unwind$?configure_argv@__scrt_narrow_argv_policy@@SAHXZ 000000014004b4ac     MSVCRTD:utility.obj
 0003:0000d4b4       $unwind$?initialize_environment@__scrt_narrow_environment_policy@@SAHXZ 000000014004b4b4     MSVCRTD:utility.obj
 0003:0000d4bc       $unwind$?is_potentially_valid_image_base@@YA_NQEAX@Z 000000014004b4bc     MSVCRTD:utility.obj
 0003:0000d4c4       $unwind$?find_pe_section@@YAPEAU_IMAGE_SECTION_HEADER@@QEAE_K@Z 000000014004b4c4     MSVCRTD:utility.obj
 0003:0000d4cc       $unwind$??$__crt_fast_decode_pointer@PEAP6AXXZ@@YAPEAP6AXXZQEAP6AXXZ@Z 000000014004b4cc     MSVCRTD:utility.obj
 0003:0000d4d4       $unwind$??$__crt_fast_encode_pointer@PEAP6AXXZ@@YAPEAP6AXXZQEAP6AXXZ@Z 000000014004b4d4     MSVCRTD:utility.obj
 0003:0000d4dc       $unwind$_RTC_CheckStackVars 000000014004b4dc     MSVCRTD:_stack_.obj
 0003:0000d4f0       $chain$0$_RTC_CheckStackVars 000000014004b4f0     MSVCRTD:_stack_.obj
 0003:0000d508       $chain$1$_RTC_CheckStackVars 000000014004b508     MSVCRTD:_stack_.obj
 0003:0000d51c       $unwind$_RTC_CheckStackVars2 000000014004b51c     MSVCRTD:_stack_.obj
 0003:0000d52c       $chain$1$_RTC_CheckStackVars2 000000014004b52c     MSVCRTD:_stack_.obj
 0003:0000d548       $chain$2$_RTC_CheckStackVars2 000000014004b548     MSVCRTD:_stack_.obj
 0003:0000d560       $chain$3$_RTC_CheckStackVars2 000000014004b560     MSVCRTD:_stack_.obj
 0003:0000d578       $chain$4$_RTC_CheckStackVars2 000000014004b578     MSVCRTD:_stack_.obj
 0003:0000d58c       $chain$5$_RTC_CheckStackVars2 000000014004b58c     MSVCRTD:_stack_.obj
 0003:0000d5a0       $chain$6$_RTC_CheckStackVars2 000000014004b5a0     MSVCRTD:_stack_.obj
 0003:0000d5b4       $unwind$_RTC_AllocaHelper  000000014004b5b4     MSVCRTD:_stack_.obj
 0003:0000d5bc       $chain$0$_RTC_AllocaHelper 000000014004b5bc     MSVCRTD:_stack_.obj
 0003:0000d5d4       $chain$1$_RTC_AllocaHelper 000000014004b5d4     MSVCRTD:_stack_.obj
 0003:0000d5e8       $unwind$_RTC_Shutdown      000000014004b5e8     MSVCRTD:_init_.obj
 0003:0000d5f0       $unwind$_RTC_InitBase      000000014004b5f0     MSVCRTD:_init_.obj
 0003:0000d5f8       $unwind$__GSHandlerCheckCommon 000000014004b5f8     MSVCRTD:_gshandler_.obj
 0003:0000d600       $unwind$__GSHandlerCheck   000000014004b600     MSVCRTD:_gshandler_.obj
 0003:0000d608       $unwind$__GSHandlerCheck_EH 000000014004b608     MSVCRTD:gshandlereh.obj
 0003:0000d610       $xdatasym                  000000014004b610     MSVCRTD:_amdsecgs_.obj
 0003:0000d614       $unwind$??_Gtype_info@@UEAAPEAXI@Z 000000014004b614     MSVCRTD:std_type_info_static.obj
 0003:0000d61c       $unwind$??_U@YAPEAX_K@Z    000000014004b61c     MSVCRTD:new_array.obj
 0003:0000d624       $unwind$_RTC_UninitUse     000000014004b624     MSVCRTD:_error_.obj
 0003:0000d640       $unwind$?_RTC_StackFailure@@YAXPEAXPEBD@Z 000000014004b640     MSVCRTD:_error_.obj
 0003:0000d660       $unwind$?_RTC_AllocaFailure@@YAXPEAXPEAU_RTC_ALLOCA_NODE@@H@Z 000000014004b660     MSVCRTD:_error_.obj
 0003:0000d67c       $chain$0$?_RTC_AllocaFailure@@YAXPEAXPEAU_RTC_ALLOCA_NODE@@H@Z 000000014004b67c     MSVCRTD:_error_.obj
 0003:0000d694       $chain$1$?_RTC_AllocaFailure@@YAXPEAXPEAU_RTC_ALLOCA_NODE@@H@Z 000000014004b694     MSVCRTD:_error_.obj
 0003:0000d6a8       $unwind$_vsprintf_s_l      000000014004b6a8     MSVCRTD:_error_.obj
 0003:0000d6c0       $unwind$sprintf_s          000000014004b6c0     MSVCRTD:_error_.obj
 0003:0000d6c8       $unwind$?notify_debugger@@YAXAEBUtagEXCEPTION_VISUALCPP_DEBUG_INFO@@@Z 000000014004b6c8     MSVCRTD:_error_.obj
 0003:0000d6ec       $unwind$?filt$0@?0??notify_debugger@@YAXAEBUtagEXCEPTION_VISUALCPP_DEBUG_INFO@@@Z@4HA 000000014004b6ec     MSVCRTD:_error_.obj
 0003:0000d6f4       $unwind$?DebuggerProbe@@YA_NK@Z 000000014004b6f4     MSVCRTD:_error_.obj
 0003:0000d6fc       $unwind$?DebuggerRuntime@@YA_NKHPEAXPEB_W@Z 000000014004b6fc     MSVCRTD:_error_.obj
 0003:0000d704       $unwind$?failwithmessage@@YAXPEAXHHPEBD@Z 000000014004b704     MSVCRTD:_error_.obj
 0003:0000d72c       $unwind$?_getMemBlockDataString@@YAXPEAD0PEBD_K@Z 000000014004b72c     MSVCRTD:_error_.obj
 0003:0000d740       $chain$3$?_getMemBlockDataString@@YAXPEAD0PEBD_K@Z 000000014004b740     MSVCRTD:_error_.obj
 0003:0000d764       $chain$4$?_getMemBlockDataString@@YAXPEAD0PEBD_K@Z 000000014004b764     MSVCRTD:_error_.obj
 0003:0000d778       $unwind$?set_app_type@__scrt_winmain_policy@@SAXXZ 000000014004b778     MSVCRTD:exe_winmain.obj
 0003:0000d780       $unwind$?set_fmode@__scrt_file_policy@@SAXXZ 000000014004b780     MSVCRTD:exe_winmain.obj
 0003:0000d788       $unwind$?set_commode@__scrt_file_policy@@SAXXZ 000000014004b788     MSVCRTD:exe_winmain.obj
 0003:0000d790       $unwind$?invoke_main@@YAHXZ 000000014004b790     MSVCRTD:exe_winmain.obj
 0003:0000d798       $unwind$?pre_c_initialization@@YAHXZ 000000014004b798     MSVCRTD:exe_winmain.obj
 0003:0000d7a0       $unwind$?post_pgo_initialization@@YAHXZ 000000014004b7a0     MSVCRTD:exe_winmain.obj
 0003:0000d7a8       $unwind$?pre_cpp_initialization@@YAXXZ 000000014004b7a8     MSVCRTD:exe_winmain.obj
 0003:0000d7b0       $unwind$?__scrt_common_main_seh@@YAHXZ 000000014004b7b0     MSVCRTD:exe_winmain.obj
 0003:0000d7d4       $unwind$?filt$0@?0??__scrt_common_main_seh@@YAHXZ@4HA 000000014004b7d4     MSVCRTD:exe_winmain.obj
 0003:0000d7dc       $unwind$?__scrt_common_main@@YAHXZ 000000014004b7dc     MSVCRTD:exe_winmain.obj
 0003:0000d7e4       $unwind$WinMainCRTStartup  000000014004b7e4     MSVCRTD:exe_winmain.obj
 0003:0000d7ec       $unwind$??0exception@std@@QEAA@QEBDH@Z 000000014004b7ec     MSVCRTD:throw_bad_alloc.obj
 0003:0000d7f4       $unwind$??0exception@std@@QEAA@AEBV01@@Z 000000014004b7f4     MSVCRTD:throw_bad_alloc.obj
 0003:0000d7fc       $unwind$??1exception@std@@UEAA@XZ 000000014004b7fc     MSVCRTD:throw_bad_alloc.obj
 0003:0000d804       $unwind$?what@exception@std@@UEBAPEBDXZ 000000014004b804     MSVCRTD:throw_bad_alloc.obj
 0003:0000d80c       $unwind$??_Gexception@std@@UEAAPEAXI@Z 000000014004b80c     MSVCRTD:throw_bad_alloc.obj
 0003:0000d814       $unwind$??0bad_alloc@std@@QEAA@XZ 000000014004b814     MSVCRTD:throw_bad_alloc.obj
 0003:0000d81c       $unwind$??0bad_alloc@std@@AEAA@QEBD@Z 000000014004b81c     MSVCRTD:throw_bad_alloc.obj
 0003:0000d824       $unwind$??1bad_alloc@std@@UEAA@XZ 000000014004b824     MSVCRTD:throw_bad_alloc.obj
 0003:0000d82c       $unwind$??0bad_alloc@std@@QEAA@AEBV01@@Z 000000014004b82c     MSVCRTD:throw_bad_alloc.obj
 0003:0000d834       $unwind$??_Gbad_alloc@std@@UEAAPEAXI@Z 000000014004b834     MSVCRTD:throw_bad_alloc.obj
 0003:0000d83c       $unwind$??0bad_array_new_length@std@@QEAA@XZ 000000014004b83c     MSVCRTD:throw_bad_alloc.obj
 0003:0000d844       $unwind$??1bad_array_new_length@std@@UEAA@XZ 000000014004b844     MSVCRTD:throw_bad_alloc.obj
 0003:0000d84c       $unwind$??0bad_array_new_length@std@@QEAA@AEBV01@@Z 000000014004b84c     MSVCRTD:throw_bad_alloc.obj
 0003:0000d854       $unwind$??_Gbad_array_new_length@std@@UEAAPEAXI@Z 000000014004b854     MSVCRTD:throw_bad_alloc.obj
 0003:0000d85c       $unwind$?__scrt_throw_std_bad_alloc@@YAXXZ 000000014004b85c     MSVCRTD:throw_bad_alloc.obj
 0003:0000d864       $unwind$?__scrt_throw_std_bad_array_new_length@@YAXXZ 000000014004b864     MSVCRTD:throw_bad_alloc.obj
 0003:0000d86c       $unwind$??3@YAXPEAX@Z      000000014004b86c     MSVCRTD:delete_scalar.obj
 0003:0000d874       $unwind$__isa_available_init 000000014004b874     MSVCRTD:_cpu_disp_.obj
 0003:0000d888       $unwind$__scrt_is_ucrt_dll_in_use 000000014004b888     MSVCRTD:ucrt_detection.obj
 0003:0000d890       $unwind$__scrt_get_show_window_mode 000000014004b890     MSVCRTD:utility_desktop.obj
 0003:0000d8a0       $unwind$__scrt_is_managed_app 000000014004b8a0     MSVCRTD:utility_desktop.obj
 0003:0000d8a8       $unwind$__scrt_set_unhandled_exception_filter 000000014004b8a8     MSVCRTD:utility_desktop.obj
 0003:0000d8b0       $unwind$__scrt_fastfail    000000014004b8b0     MSVCRTD:utility_desktop.obj
 0003:0000d8c0       $unwind$__scrt_unhandled_exception_filter 000000014004b8c0     MSVCRTD:utility_desktop.obj
 0003:0000d8c8       $unwind$ReadNoFence64      000000014004b8c8     MSVCRTD:guard_support.obj
 0003:0000d8d0       $unwind$ReadPointerNoFence 000000014004b8d0     MSVCRTD:guard_support.obj
 0003:0000d8d8       $unwind$_guard_icall_checks_enforced 000000014004b8d8     MSVCRTD:guard_support.obj
 0003:0000d8e0       $unwind$__report_securityfailure 000000014004b8e0     MSVCRTD:gs_report.obj
 0003:0000d8e8       $unwind$__report_securityfailureEx 000000014004b8e8     MSVCRTD:gs_report.obj
 0003:0000d8f0       $unwind$__report_rangecheckfailure 000000014004b8f0     MSVCRTD:gs_report.obj
 0003:0000d8f8       $unwind$__report_gsfailure 000000014004b8f8     MSVCRTD:gs_report.obj
 0003:0000d900       $unwind$capture_current_context 000000014004b900     MSVCRTD:gs_report.obj
 0003:0000d908       $unwind$capture_previous_context 000000014004b908     MSVCRTD:gs_report.obj
 0003:0000d910       $unwind$__raise_securityfailure 000000014004b910     MSVCRTD:gs_report.obj
 0003:0000d918       $unwind$?_RTC_GetSrcLine@@YAHPEAEPEA_WKPEAH1K@Z 000000014004b918     MSVCRTD:_pdblkup_.obj
 0003:0000d934       $unwind$?GetPdbDllFromInstallPath@@YAPEAUHINSTANCE__@@XZ 000000014004b934     MSVCRTD:_pdblkup_.obj
 0003:0000d95c       $unwind$?GetPdbDllPathFromFilePath@@YAHPEB_WPEA_W_K@Z 000000014004b95c     MSVCRTD:_pdblkup_.obj
 0003:0000d978       $unwind$?GetPdbDll@@YAPEAUHINSTANCE__@@XZ 000000014004b978     MSVCRTD:_pdblkup_.obj
 0003:0000d98c       $unwind$__security_init_cookie 000000014004b98c     MSVCRTD:gs_support.obj
 0003:0000d994       $unwind$__get_entropy      000000014004b994     MSVCRTD:gs_support.obj
 0003:0000d99c       $unwind$?__scrt_initialize_type_info@@YAXXZ 000000014004b99c     MSVCRTD:tncleanup.obj
 0003:0000d9a4       $unwind$?__scrt_uninitialize_type_info@@YAXXZ 000000014004b9a4     MSVCRTD:tncleanup.obj
 0003:0000d9ac       $unwind$__scrt_initialize_default_local_stdio_options 000000014004b9ac     MSVCRTD:default_local_stdio_options.obj
 0003:0000d9b4       $unwind$__scrt_is_user_matherr_present 000000014004b9b4     MSVCRTD:matherr_detection.obj
 0003:0000d9bc       $unwind$_RTC_Initialize    000000014004b9bc     MSVCRTD:_initsect_.obj
 0003:0000d9cc       $unwind$_RTC_Terminate     000000014004b9cc     MSVCRTD:_initsect_.obj
 0003:0000d9e0       $xdatasym                  000000014004b9e0     MSVCRTD:_guard_dispatch_.obj
 0004:000003f0       ??_R0?AV<lambda_5f2a59844b8069354d5a17d44e450129>@@@8 000000014004d3f0     menu-window.obj
 0004:00000440       ??_R0?AV<lambda_312b3f49165ee8dbe2e5837b3ce31c90>@@@8 000000014004d440     menu-window.obj
 0004:00000490       ??_R0?AV<lambda_668a1179af56ef880bbabaf92a5d9839>@@@8 000000014004d490     menu-window.obj
 0004:00000580       ??_R0?AV?$_Func_impl_no_alloc@V<lambda_668a1179af56ef880bbabaf92a5d9839>@@XPEAVButton@@@std@@@8 000000014004d580     menu-window.obj
 0004:00000600       ??_R0?AV?$_Func_impl_no_alloc@V<lambda_312b3f49165ee8dbe2e5837b3ce31c90>@@XPEAVButton@@@std@@@8 000000014004d600     menu-window.obj
 0004:00000680       ??_R0?AV?$_Func_impl_no_alloc@V<lambda_5f2a59844b8069354d5a17d44e450129>@@XPEAVButton@@@std@@@8 000000014004d680     menu-window.obj
 0004:00000a9c       ?module_local_atexit_table_initialized@@3_NA 000000014004da9c     MSVCRTD:utility.obj
 0004:00000aa8       ?module_local_atexit_table@@3U_onexit_table_t@@A 000000014004daa8     MSVCRTD:utility.obj
 0004:00000ac0       ?module_local_at_quick_exit_table@@3U_onexit_table_t@@A 000000014004dac0     MSVCRTD:utility.obj
 0004:00000ad8       ?is_initialized_as_dll@@3_NA 000000014004dad8     MSVCRTD:utility.obj
 0004:00000ae6       ?init@?1??_RTC_InitBase@@9@4_NA 000000014004dae6     MSVCRTD:_init_.obj
 0004:00000af0       ?_RTC_ErrorReportFunc@@3P6AHHPEBDH00ZZEA 000000014004daf0     MSVCRTD:_userapi_.obj
 0004:00000af8       ?_RTC_ErrorReportFuncW@@3P6AHHPEB_WH00ZZEA 000000014004daf8     MSVCRTD:_userapi_.obj
 0004:00000b10       GS_ExceptionRecord         000000014004db10     MSVCRTD:gs_report.obj
 0004:00000bb0       GS_ContextRecord           000000014004dbb0     MSVCRTD:gs_report.obj
 0004:00001198       ?mspdb@@3PEAUHINSTANCE__@@EA 000000014004e198     MSVCRTD:_pdblkup_.obj
 0004:000011a1       ?alreadyTried@?1??GetPdbDll@@YAPEAUHINSTANCE__@@XZ@4_NA 000000014004e1a1     MSVCRTD:_pdblkup_.obj
 0004:000011a2       ?PDBOK@?1??_RTC_GetSrcLine@@YAHPEAEPEA_WKPEAH1K@Z@4_NA 000000014004e1a2     MSVCRTD:_pdblkup_.obj
 0005:00001800       $pdata$??__Efont@@YAXXZ    0000000140050800     button.obj
 0005:0000180c       $pdata$??$?0$$V@?$_Compressed_pair@V?$allocator@D@std@@V?$_String_val@U?$_Simple_types@D@std@@@2@$00@std@@QEAA@U_Zero_then_variadic_args_t@1@@Z 000000014005080c     button.obj
 0005:00001818       $pdata$??$?0D@?$allocator@U_Container_proxy@std@@@std@@QEAA@AEBV?$allocator@D@1@@Z 0000000140050818     button.obj
 0005:00001824       $pdata$??$?0_W@?$allocator@U_Container_proxy@std@@@std@@QEAA@AEBV?$allocator@_W@1@@Z 0000000140050824     button.obj
 0005:00001830       $pdata$??$_Allocate@$0BA@U_Default_allocate_traits@std@@$0A@@std@@YAPEAX_K@Z 0000000140050830     button.obj
 0005:0000183c       $pdata$??$_Allocate_manually_vector_aligned@U_Default_allocate_traits@std@@@std@@YAPEAX_K@Z 000000014005083c     button.obj
 0005:00001848       $pdata$??$_Convert_size@_K@std@@YA_K_K@Z 0000000140050848     button.obj
 0005:00001854       $pdata$??$_Deallocate@$0BA@$0A@@std@@YAXPEAX_K@Z 0000000140050854     button.obj
 0005:00001860       $pdata$??$_Deallocate_plain@V?$allocator@U_Container_proxy@std@@@std@@$0A@@std@@YAXAEAV?$allocator@U_Container_proxy@std@@@0@QEAU_Container_proxy@0@@Z 0000000140050860     button.obj
 0005:0000186c       $pdata$??$_Get_size_of_n@$00@std@@YA_K_K@Z 000000014005086c     button.obj
 0005:00001878       $pdata$??$_Get_size_of_n@$0BA@@std@@YA_K_K@Z 0000000140050878     button.obj
 0005:00001884       $pdata$??$_Getvals@_W@?$time_get@DV?$istreambuf_iterator@DU?$char_traits@D@std@@@std@@@std@@IEAAX_WAEBV_Locinfo@1@@Z 0000000140050884     button.obj
 0005:00001890       $pdata$??$_Getvals@_W@?$time_get@_WV?$istreambuf_iterator@_WU?$char_traits@_W@std@@@std@@@std@@IEAAX_WAEBV_Locinfo@1@@Z 0000000140050890     button.obj
 0005:0000189c       $pdata$??$_Maklocstr@D@std@@YAPEADPEBDPEADAEBU_Cvtvec@@@Z 000000014005089c     button.obj
 0005:000018a8       $pdata$??$_Maklocstr@_W@std@@YAPEA_WPEBDPEA_WAEBU_Cvtvec@@@Z 00000001400508a8     button.obj
 0005:000018b4       $pdata$??$_Max_value@_K@std@@YAAEB_KAEB_K0@Z 00000001400508b4     button.obj
 0005:000018c0       $pdata$??$_Min_value@_K@std@@YAAEB_KAEB_K0@Z 00000001400508c0     button.obj
 0005:000018cc       $pdata$??$_Reallocate_for@V<lambda_66f57f934f28d61049862f64df852ff0>@@PEBD@?$basic_string@DU?$char_traits@D@std@@V?$allocator@D@2@@std@@QEAAAEAV01@_KV<lambda_66f57f934f28d61049862f64df852ff0>@@PEBD@Z 00000001400508cc     button.obj
 0005:000018d8       $pdata$??$_Unfancy@D@std@@YAPEADPEAD@Z 00000001400508d8     button.obj
 0005:000018e4       $pdata$??$_Unfancy@U_Container_proxy@std@@@std@@YAPEAU_Container_proxy@0@PEAU10@@Z 00000001400508e4     button.obj
 0005:000018f0       $pdata$??$_Unfancy@_W@std@@YAPEA_WPEA_W@Z 00000001400508f0     button.obj
 0005:000018fc       $pdata$??$addressof@PEAD@std@@YAPEAPEADAEAPEAD@Z 00000001400508fc     button.obj
 0005:00001908       $pdata$??$addressof@PEA_W@std@@YAPEAPEA_WAEAPEA_W@Z 0000000140050908     button.obj
 0005:00001914       $pdata$??$addressof@V?$_String_val@U?$_Simple_types@D@std@@@std@@@std@@YAPEAV?$_String_val@U?$_Simple_types@D@std@@@0@AEAV10@@Z 0000000140050914     button.obj
 0005:00001920       $pdata$??$construct@PEADAEBQEAD@?$_Default_allocator_traits@V?$allocator@D@std@@@std@@SAXAEAV?$allocator@D@1@QEAPEADAEBQEAD@Z 0000000140050920     button.obj
 0005:0000192c       $pdata$??$construct@U_Container_proxy@std@@U12@@?$_Default_allocator_traits@V?$allocator@U_Container_proxy@std@@@std@@@std@@SAXAEAV?$allocator@U_Container_proxy@std@@@1@QEAU_Container_proxy@1@$$QEAU31@@Z 000000014005092c     button.obj
 0005:00001938       $pdata$??$destroy@PEAD@?$_Default_allocator_traits@V?$allocator@D@std@@@std@@SAXAEAV?$allocator@D@1@QEAPEAD@Z 0000000140050938     button.obj
 0005:00001944       $pdata$??$destroy@PEA_W@?$_Default_allocator_traits@V?$allocator@_W@std@@@std@@SAXAEAV?$allocator@_W@1@QEAPEA_W@Z 0000000140050944     button.obj
 0005:00001950       $pdata$??$destroy@U_Container_proxy@std@@@?$_Default_allocator_traits@V?$allocator@U_Container_proxy@std@@@std@@@std@@SAXAEAV?$allocator@U_Container_proxy@std@@@1@QEAU_Container_proxy@1@@Z 0000000140050950     button.obj
 0005:0000195c       $pdata$??$forward@AEBQEAD@std@@YAAEBQEADAEBQEAD@Z 000000014005095c     button.obj
 0005:00001968       $pdata$??$forward@PEAVButton@@@std@@YA$$QEAPEAVButton@@AEAPEAV1@@Z 0000000140050968     button.obj
 0005:00001974       $pdata$??$forward@U_Container_proxy@std@@@std@@YA$$QEAU_Container_proxy@0@AEAU10@@Z 0000000140050974     button.obj
 0005:00001980       $pdata$??$move@AEAV?$_Func_class@XPEAVButton@@@std@@@std@@YA$$QEAV?$_Func_class@XPEAVButton@@@0@AEAV10@@Z 0000000140050980     button.obj
 0005:0000198c       $pdata$??0?$Vector2@M@sf@@QEAA@MM@Z 000000014005098c     button.obj
 0005:00001998       $pdata$??0?$_Func_class@XPEAVButton@@@std@@QEAA@XZ 0000000140050998     button.obj
 0005:000019a4       $pdata$??0?$_String_alloc@U?$_String_base_types@DV?$allocator@D@std@@@std@@@std@@QEAA@XZ 00000001400509a4     button.obj
 0005:000019b0       $pdata$??0?$_String_val@U?$_Simple_types@D@std@@@std@@QEAA@XZ 00000001400509b0     button.obj
 0005:000019bc       $pdata$??0?$allocator@D@std@@QEAA@XZ 00000001400509bc     button.obj
 0005:000019c8       $pdata$??0?$basic_string@DU?$char_traits@D@std@@V?$allocator@D@2@@std@@QEAA@QEBD@Z 00000001400509c8     button.obj
 0005:000019d4       $pdata$??0?$function@$$A6AXPEAVButton@@@Z@std@@QEAA@$$T@Z 00000001400509d4     button.obj
 0005:000019e0       $pdata$??0?$function@$$A6AXPEAVButton@@@Z@std@@QEAA@AEBV01@@Z 00000001400509e0     button.obj
 0005:000019ec       $pdata$??0Button@@QEAA@AEBV?$Vector2@M@sf@@0@Z 00000001400509ec     button.obj
 0005:000019f8       $pdata$??0_Bxty@?$_String_val@U?$_Simple_types@D@std@@@std@@QEAA@XZ 00000001400509f8     button.obj
 0005:00001a04       $pdata$??0_Container_base12@std@@QEAA@XZ 0000000140050a04     button.obj
 0005:00001a10       $pdata$??0_Container_proxy@std@@QEAA@XZ 0000000140050a10     button.obj
 0005:00001a1c       $pdata$??1?$_Compressed_pair@V?$allocator@D@std@@V?$_String_val@U?$_Simple_types@D@std@@@2@$00@std@@QEAA@XZ 0000000140050a1c     button.obj
 0005:00001a28       $pdata$??1?$_Compressed_pair@V?$allocator@_W@std@@V?$_String_val@U?$_Simple_types@_W@std@@@2@$00@std@@QEAA@XZ 0000000140050a28     button.obj
 0005:00001a34       $pdata$??1?$_Func_class@XPEAVButton@@@std@@QEAA@XZ 0000000140050a34     button.obj
 0005:00001a40       $pdata$??1?$_String_alloc@U?$_String_base_types@DV?$allocator@D@std@@@std@@@std@@QEAA@XZ 0000000140050a40     button.obj
 0005:00001a4c       $pdata$??1?$_String_alloc@U?$_String_base_types@_WV?$allocator@_W@std@@@std@@@std@@QEAA@XZ 0000000140050a4c     button.obj
 0005:00001a58       $pdata$??1?$_String_val@U?$_Simple_types@D@std@@@std@@QEAA@XZ 0000000140050a58     button.obj
 0005:00001a64       $pdata$??1?$_String_val@U?$_Simple_types@_W@std@@@std@@QEAA@XZ 0000000140050a64     button.obj
 0005:00001a70       $pdata$??1?$basic_string@DU?$char_traits@D@std@@V?$allocator@D@2@@std@@QEAA@XZ 0000000140050a70     button.obj
 0005:00001a7c       $pdata$??1?$basic_string@_WU?$char_traits@_W@std@@V?$allocator@_W@2@@std@@QEAA@XZ 0000000140050a7c     button.obj
 0005:00001a88       $pdata$??1?$function@$$A6AXPEAVButton@@@Z@std@@QEAA@XZ 0000000140050a88     button.obj
 0005:00001a94       $pdata$??1Button@@UEAA@XZ  0000000140050a94     button.obj
 0005:00001aa0       $pdata$??1_Bxty@?$_String_val@U?$_Simple_types@D@std@@@std@@QEAA@XZ 0000000140050aa0     button.obj
 0005:00001aac       $pdata$??1_Bxty@?$_String_val@U?$_Simple_types@_W@std@@@std@@QEAA@XZ 0000000140050aac     button.obj
 0005:00001ab8       $pdata$??2@YAPEAX_KPEAX@Z  0000000140050ab8     button.obj
 0005:00001ac4       $pdata$??4?$function@$$A6AXPEAVButton@@@Z@std@@QEAAAEAV01@AEBV01@@Z 0000000140050ac4     button.obj
 0005:00001ad0       $pdata$??B?$function@$$A6AXPEAVButton@@@Z@std@@QEBA_NXZ 0000000140050ad0     button.obj
 0005:00001adc       $pdata$??R<lambda_66f57f934f28d61049862f64df852ff0>@@QEBAXQEAD_KQEBD@Z 0000000140050adc     button.obj
 0005:00001ae8       $pdata$??R?$_Func_class@XPEAVButton@@@std@@QEBAXPEAVButton@@@Z 0000000140050ae8     button.obj
 0005:00001af4       $pdata$??_GButton@@UEAAPEAXI@Z 0000000140050af4     button.obj
 0005:00001b00       $pdata$?Draw@Button@@UEAAXPEAVRenderWindow@sf@@@Z 0000000140050b00     button.obj
 0005:00001b0c       $pdata$?GetText@Button@@QEBAPEB_WXZ 0000000140050b0c     button.obj
 0005:00001b18       $pdata$?HandleEvent@Button@@UEAAXAEBVEvent@sf@@@Z 0000000140050b18     button.obj
 0005:00001b24       $pdata$?SetOnClickedListener@Button@@QEAAXV?$function@$$A6AXPEAVButton@@@Z@std@@@Z 0000000140050b24     button.obj
 0005:00001b30       $pdata$?SetPos@Button@@UEAAXAEBV?$Vector2@M@sf@@@Z 0000000140050b30     button.obj
 0005:00001b3c       $pdata$?SetText@Button@@QEAAXPEB_W@Z 0000000140050b3c     button.obj
 0005:00001b48       $pdata$?Update@Button@@UEAAXAEBVTime@sf@@@Z 0000000140050b48     button.obj
 0005:00001b54       $pdata$?_Adjust_manually_vector_aligned@std@@YAXAEAPEAXAEA_K@Z 0000000140050b54     button.obj
 0005:00001b60       $pdata$?_Alloc_proxy@?$_String_alloc@U?$_String_base_types@DV?$allocator@D@std@@@std@@@std@@QEAAXXZ 0000000140050b60     button.obj
 0005:00001b6c       $pdata$?_Allocate@_Default_allocate_traits@std@@SAPEAX_K@Z 0000000140050b6c     button.obj
 0005:00001b78       $pdata$?_Calculate_growth@?$basic_string@DU?$char_traits@D@std@@V?$allocator@D@2@@std@@QEBA_K_K@Z 0000000140050b78     button.obj
 0005:00001b84       $pdata$?_Empty@?$_Func_class@XPEAVButton@@@std@@IEBA_NXZ 0000000140050b84     button.obj
 0005:00001b90       $pdata$?_Free_proxy@?$_String_alloc@U?$_String_base_types@DV?$allocator@D@std@@@std@@@std@@QEAAXXZ 0000000140050b90     button.obj
 0005:00001b9c       $pdata$?_Free_proxy@?$_String_alloc@U?$_String_base_types@_WV?$allocator@_W@std@@@std@@@std@@QEAAXXZ 0000000140050b9c     button.obj
 0005:00001ba8       $pdata$?_Get_data@?$_String_alloc@U?$_String_base_types@DV?$allocator@D@std@@@std@@@std@@QEAAAEAV?$_String_val@U?$_Simple_types@D@std@@@2@XZ 0000000140050ba8     button.obj
 0005:00001bb4       $pdata$?_Get_data@?$_String_alloc@U?$_String_base_types@DV?$allocator@D@std@@@std@@@std@@QEBAAEBV?$_String_val@U?$_Simple_types@D@std@@@2@XZ 0000000140050bb4     button.obj
 0005:00001bc0       $pdata$?_Get_data@?$_String_alloc@U?$_String_base_types@_WV?$allocator@_W@std@@@std@@@std@@QEAAAEAV?$_String_val@U?$_Simple_types@_W@std@@@2@XZ 0000000140050bc0     button.obj
 0005:00001bcc       $pdata$?_Get_data@?$_String_alloc@U?$_String_base_types@_WV?$allocator@_W@std@@@std@@@std@@QEBAAEBV?$_String_val@U?$_Simple_types@_W@std@@@2@XZ 0000000140050bcc     button.obj
 0005:00001bd8       $pdata$?_Get_first@?$_Compressed_pair@V?$allocator@D@std@@V?$_String_val@U?$_Simple_types@D@std@@@2@$00@std@@QEAAAEAV?$allocator@D@2@XZ 0000000140050bd8     button.obj
 0005:00001be4       $pdata$?_Get_first@?$_Compressed_pair@V?$allocator@D@std@@V?$_String_val@U?$_Simple_types@D@std@@@2@$00@std@@QEBAAEBV?$allocator@D@2@XZ 0000000140050be4     button.obj
 0005:00001bf0       $pdata$?_Get_first@?$_Compressed_pair@V?$allocator@_W@std@@V?$_String_val@U?$_Simple_types@_W@std@@@2@$00@std@@QEAAAEAV?$allocator@_W@2@XZ 0000000140050bf0     button.obj
 0005:00001bfc       $pdata$?_Get_second@?$_Compressed_pair@V?$allocator@D@std@@V?$_String_val@U?$_Simple_types@D@std@@@2@$00@std@@QEAAAEAV?$_String_val@U?$_Simple_types@D@std@@@2@XZ 0000000140050bfc     button.obj
 0005:00001c08       $pdata$?_Get_second@?$_Compressed_pair@V?$allocator@D@std@@V?$_String_val@U?$_Simple_types@D@std@@@2@$00@std@@QEBAAEBV?$_String_val@U?$_Simple_types@D@std@@@2@XZ 0000000140050c08     button.obj
 0005:00001c14       $pdata$?_Get_second@?$_Compressed_pair@V?$allocator@_W@std@@V?$_String_val@U?$_Simple_types@_W@std@@@2@$00@std@@QEAAAEAV?$_String_val@U?$_Simple_types@_W@std@@@2@XZ 0000000140050c14     button.obj
 0005:00001c20       $pdata$?_Get_second@?$_Compressed_pair@V?$allocator@_W@std@@V?$_String_val@U?$_Simple_types@_W@std@@@2@$00@std@@QEBAAEBV?$_String_val@U?$_Simple_types@_W@std@@@2@XZ 0000000140050c20     button.obj
 0005:00001c2c       $pdata$?_Getal@?$_String_alloc@U?$_String_base_types@DV?$allocator@D@std@@@std@@@std@@QEAAAEAV?$allocator@D@2@XZ 0000000140050c2c     button.obj
 0005:00001c38       $pdata$?_Getal@?$_String_alloc@U?$_String_base_types@DV?$allocator@D@std@@@std@@@std@@QEBAAEBV?$allocator@D@2@XZ 0000000140050c38     button.obj
 0005:00001c44       $pdata$?_Getal@?$_String_alloc@U?$_String_base_types@_WV?$allocator@_W@std@@@std@@@std@@QEAAAEAV?$allocator@_W@2@XZ 0000000140050c44     button.obj
 0005:00001c50       $pdata$?_Getimpl@?$_Func_class@XPEAVButton@@@std@@AEBAPEAV?$_Func_base@XPEAVButton@@@2@XZ 0000000140050c50     button.obj
 0005:00001c5c       $pdata$?_Getspace@?$_Func_class@XPEAVButton@@@std@@AEAAPEAXXZ 0000000140050c5c     button.obj
 0005:00001c68       $pdata$?_Getspace@?$_Func_class@XPEAVButton@@@std@@AEBAPEBXXZ 0000000140050c68     button.obj
 0005:00001c74       $pdata$?_Large_string_engaged@?$_String_val@U?$_Simple_types@D@std@@@std@@QEBA_NXZ 0000000140050c74     button.obj
 0005:00001c80       $pdata$?_Large_string_engaged@?$_String_val@U?$_Simple_types@_W@std@@@std@@QEBA_NXZ 0000000140050c80     button.obj
 0005:00001c8c       $pdata$?_Local@?$_Func_class@XPEAVButton@@@std@@AEBA_NXZ 0000000140050c8c     button.obj
 0005:00001c98       $pdata$?_Maklocwcs@std@@YAPEA_WPEB_W@Z 0000000140050c98     button.obj
 0005:00001ca4       $pdata$?_Myproxy@?$_String_alloc@U?$_String_base_types@DV?$allocator@D@std@@@std@@@std@@QEAAAEAPEAU_Container_proxy@2@XZ 0000000140050ca4     button.obj
 0005:00001cb0       $pdata$?_Myproxy@?$_String_alloc@U?$_String_base_types@_WV?$allocator@_W@std@@@std@@@std@@QEAAAEAPEAU_Container_proxy@2@XZ 0000000140050cb0     button.obj
 0005:00001cbc       $pdata$?_Myptr@?$_String_val@U?$_Simple_types@D@std@@@std@@QEAAPEADXZ 0000000140050cbc     button.obj
 0005:00001cc8       $pdata$?_Myptr@?$_String_val@U?$_Simple_types@_W@std@@@std@@QEBAPEB_WXZ 0000000140050cc8     button.obj
 0005:00001cd4       $pdata$?_Orphan_all@?$_String_alloc@U?$_String_base_types@DV?$allocator@D@std@@@std@@@std@@QEAAXXZ 0000000140050cd4     button.obj
 0005:00001ce0       $pdata$?_Orphan_all@?$_String_alloc@U?$_String_base_types@_WV?$allocator@_W@std@@@std@@@std@@QEAAXXZ 0000000140050ce0     button.obj
 0005:00001cec       $pdata$?_Orphan_all@_Container_base12@std@@QEAAXXZ 0000000140050cec     button.obj
 0005:00001cf8       $pdata$?_Reset_copy@?$_Func_class@XPEAVButton@@@std@@IEAAXAEBV12@@Z 0000000140050cf8     button.obj
 0005:00001d04       $pdata$?_Reset_move@?$_Func_class@XPEAVButton@@@std@@IEAAX$$QEAV12@@Z 0000000140050d04     button.obj
 0005:00001d10       $pdata$?_Set@?$_Func_class@XPEAVButton@@@std@@AEAAXPEAV?$_Func_base@XPEAVButton@@@2@@Z 0000000140050d10     button.obj
 0005:00001d1c       $pdata$?_Swap@?$_Func_class@XPEAVButton@@@std@@IEAAXAEAV12@@Z 0000000140050d1c     button.obj
 0005:00001d28       $pdata$?_Tidy@?$_Func_class@XPEAVButton@@@std@@IEAAXXZ 0000000140050d28     button.obj
 0005:00001d34       $pdata$?_Tidy_deallocate@?$basic_string@DU?$char_traits@D@std@@V?$allocator@D@2@@std@@QEAAXXZ 0000000140050d34     button.obj
 0005:00001d40       $pdata$?_Tidy_deallocate@?$basic_string@_WU?$char_traits@_W@std@@V?$allocator@_W@2@@std@@QEAAXXZ 0000000140050d40     button.obj
 0005:00001d4c       $pdata$?_Tidy_init@?$basic_string@DU?$char_traits@D@std@@V?$allocator@D@2@@std@@QEAAXXZ 0000000140050d4c     button.obj
 0005:00001d58       $pdata$?_Xlen@?$basic_string@DU?$char_traits@D@std@@V?$allocator@D@2@@std@@SAXXZ 0000000140050d58     button.obj
 0005:00001d64       $pdata$?__empty_global_delete@@YAXPEAX@Z 0000000140050d64     button.obj
 0005:00001d70       $pdata$?__empty_global_delete@@YAXPEAX_K@Z 0000000140050d70     button.obj
 0005:00001d7c       $pdata$?allocate@?$allocator@D@std@@QEAAPEAD_K@Z 0000000140050d7c     button.obj
 0005:00001d88       $pdata$?allocate@?$allocator@U_Container_proxy@std@@@std@@QEAAPEAU_Container_proxy@2@_K@Z 0000000140050d88     button.obj
 0005:00001d94       $pdata$?assign@?$_WChar_traits@_W@std@@SAXAEA_WAEB_W@Z 0000000140050d94     button.obj
 0005:00001da0       $pdata$?assign@?$basic_string@DU?$char_traits@D@std@@V?$allocator@D@2@@std@@QEAAAEAV12@QEBD@Z 0000000140050da0     button.obj
 0005:00001dac       $pdata$?assign@?$basic_string@DU?$char_traits@D@std@@V?$allocator@D@2@@std@@QEAAAEAV12@QEBD_K@Z 0000000140050dac     button.obj
 0005:00001db8       $pdata$?assign@?$char_traits@D@std@@SAXAEADAEBD@Z 0000000140050db8     button.obj
 0005:00001dc4       $pdata$?c_str@?$basic_string@_WU?$char_traits@_W@std@@V?$allocator@_W@2@@std@@QEBAPEB_WXZ 0000000140050dc4     button.obj
 0005:00001dd0       $pdata$?calculatePosText@Button@@AEAAXXZ 0000000140050dd0     button.obj
 0005:00001ddc       $pdata$?copy@?$char_traits@D@std@@SAPEADQEADQEBD_K@Z 0000000140050ddc     button.obj
 0005:00001de8       $pdata$?deallocate@?$_Default_allocator_traits@V?$allocator@U_Container_proxy@std@@@std@@@std@@SAXAEAV?$allocator@U_Container_proxy@std@@@2@QEAU_Container_proxy@2@_K@Z 0000000140050de8     button.obj
 0005:00001df4       $pdata$?deallocate@?$allocator@D@std@@QEAAXQEAD_K@Z 0000000140050df4     button.obj
 0005:00001e00       $pdata$?deallocate@?$allocator@_W@std@@QEAAXQEA_W_K@Z 0000000140050e00     button.obj
 0005:00001e0c       $pdata$?length@?$char_traits@D@std@@SA_KQEBD@Z 0000000140050e0c     button.obj
 0005:00001e18       $pdata$?max@?$numeric_limits@_J@std@@SA_JXZ 0000000140050e18     button.obj
 0005:00001e24       $pdata$?max_size@?$_Default_allocator_traits@V?$allocator@D@std@@@std@@SA_KAEBV?$allocator@D@2@@Z 0000000140050e24     button.obj
 0005:00001e30       $pdata$?max_size@?$basic_string@DU?$char_traits@D@std@@V?$allocator@D@2@@std@@QEBA_KXZ 0000000140050e30     button.obj
 0005:00001e3c       $pdata$?move@?$char_traits@D@std@@SAPEADQEADQEBD_K@Z 0000000140050e3c     button.obj
 0005:00001e48       $pdata$?swap@?$function@$$A6AXPEAVButton@@@Z@std@@QEAAXAEAV12@@Z 0000000140050e48     button.obj
 0005:00001e54       $pdata$wmemcpy             0000000140050e54     button.obj
 0005:00001e60       $pdata$??$?0$$QEAW4Object_Type@@$$Z$$V@?$pair@$$CBW4Object_Type@@PEBVGameObject@@@std@@QEAA@Upiecewise_construct_t@1@V?$tuple@$$QEAW4Object_Type@@@1@V?$tuple@$$V@1@@Z 0000000140050e60     config.obj
 0005:00001e6c       $pdata$??$?0AEAV?$_Tree_iterator@V?$_Tree_val@U?$_Tree_simple_types@U?$pair@$$CBW4Object_Type@@PEBVGameObject@@@std@@@std@@@std@@@std@@_N$0A@@?$pair@V?$_Tree_iterator@V?$_Tree_val@U?$_Tree_simple_types@U?$pair@$$CBW4Object_Type@@PEBVGameObject@@@std@@@std@@@std@@@std@@_N@std@@QEAA@AEAV?$_Tree_iterator@V?$_Tree_val@U?$_Tree_simple_types@U?$pair@$$CBW4Object_Type@@PEBVGameObject@@@std@@@std@@@std@@@1@$$QEA_N@Z 0000000140050e6c     config.obj
 0005:00001e78       $pdata$??$?0AEBV?$allocator@D@std@@$$V@?$_Compressed_pair@V?$allocator@D@std@@V?$_String_val@U?$_Simple_types@D@std@@@2@$00@std@@QEAA@U_One_then_variadic_args_t@1@AEBV?$allocator@D@1@@Z 0000000140050e78     config.obj
 0005:00001e84       $pdata$??$?0AEBV?$allocator@D@std@@X@?$_String_alloc@U?$_String_base_types@DV?$allocator@D@std@@@std@@@std@@QEAA@AEBV?$allocator@D@1@@Z 0000000140050e84     config.obj
 0005:00001e90       $pdata$??$?0U_Exact_args_t@std@@$0A@@?$tuple@$$V@std@@QEAA@U_Exact_args_t@1@@Z 0000000140050e90     config.obj
 0005:00001e9c       $pdata$??$?0U_Exact_args_t@std@@W4Object_Type@@$$V$0A@@?$tuple@$$QEAW4Object_Type@@@std@@QEAA@U_Exact_args_t@1@$$QEAW4Object_Type@@@Z 0000000140050e9c     config.obj
 0005:00001ea8       $pdata$??$?0V?$_Tree_iterator@V?$_Tree_val@U?$_Tree_simple_types@U?$pair@$$CBW4Object_Type@@PEBVGameObject@@@std@@@std@@@std@@@std@@_N$0A@@?$pair@V?$_Tree_iterator@V?$_Tree_val@U?$_Tree_simple_types@U?$pair@$$CBW4Object_Type@@PEBVGameObject@@@std@@@std@@@std@@@std@@_N@std@@QEAA@$$QEAV?$_Tree_iterator@V?$_Tree_val@U?$_Tree_simple_types@U?$pair@$$CBW4Object_Type@@PEBVGameObject@@@std@@@std@@@std@@@1@$$QEA_N@Z 0000000140050ea8     config.obj
 0005:00001eb4       $pdata$??$?0V?$tuple@$$QEAW4Object_Type@@@std@@V?$tuple@$$V@1@$0A@$$Z$S@?$pair@$$CBW4Object_Type@@PEBVGameObject@@@std@@QEAA@AEAV?$tuple@$$QEAW4Object_Type@@@1@AEAV?$tuple@$$V@1@U?$integer_sequence@_K$0A@@1@U?$integer_sequence@_K$S@1@@Z 0000000140050eb4     config.obj
 0005:00001ec0       $pdata$??$?0W4Object_Type@@$$V$0A@@?$tuple@$$QEAW4Object_Type@@@std@@QEAA@$$QEAW4Object_Type@@@Z 0000000140050ec0     config.obj
 0005:00001ecc       $pdata$??$?0W4Object_Type@@@?$_Tuple_val@$$QEAW4Object_Type@@@std@@QEAA@$$QEAW4Object_Type@@@Z 0000000140050ecc     config.obj
 0005:00001ed8       $pdata$??$?9DD@std@@YA_NAEBV?$allocator@D@0@0@Z 0000000140050ed8     config.obj
 0005:00001ee4       $pdata$??$_Buy_if_not_node@AEAU?$pair@$$CBW4Object_Type@@PEBVGameObject@@@std@@@?$_Tree@V?$_Tmap_traits@W4Object_Type@@PEBVGameObject@@U?$less@W4Object_Type@@@std@@V?$allocator@U?$pair@$$CBW4Object_Type@@PEBVGameObject@@@std@@@4@$0A@@std@@@std@@IEAAPEAU?$_Tree_node@U?$pair@$$CBW4Object_Type@@PEBVGameObject@@@std@@PEAX@1@PEAU21@AEAU?$pair@$$CBW4Object_Type@@PEBVGameObject@@@1@@Z 0000000140050ee4     config.obj
 0005:00001ef0       $pdata$??$_Buynode@AEBUpiecewise_construct_t@std@@V?$tuple@$$QEAW4Object_Type@@@2@V?$tuple@$$V@2@@?$_Tree_comp_alloc@V?$_Tmap_traits@W4Object_Type@@PEBVGameObject@@U?$less@W4Object_Type@@@std@@V?$allocator@U?$pair@$$CBW4Object_Type@@PEBVGameObject@@@std@@@4@$0A@@std@@@std@@QEAAPEAU?$_Tree_node@U?$pair@$$CBW4Object_Type@@PEBVGameObject@@@std@@PEAX@1@AEBUpiecewise_construct_t@1@$$QEAV?$tuple@$$QEAW4Object_Type@@@1@$$QEAV?$tuple@$$V@1@@Z 0000000140050ef0     config.obj
 0005:00001efc       $pdata$??$_Debug_lt_pred@AEAU?$less@W4Object_Type@@@std@@AEAW4Object_Type@@AEBW43@@std@@YA_NAEAU?$less@W4Object_Type@@@0@AEAW4Object_Type@@AEBW42@PEB_WI@Z 0000000140050efc     config.obj
 0005:00001f08       $pdata$??$_Debug_lt_pred@AEAU?$less@W4Object_Type@@@std@@AEBW4Object_Type@@AEBW43@@std@@YA_NAEAU?$less@W4Object_Type@@@0@AEBW4Object_Type@@1PEB_WI@Z 0000000140050f08     config.obj
 0005:00001f14       $pdata$??$_Debug_lt_pred@AEBU?$less@W4Object_Type@@@std@@AEBW4Object_Type@@AEBW43@@std@@YA_NAEBU?$less@W4Object_Type@@@0@AEBW4Object_Type@@1PEB_WI@Z 0000000140050f14     config.obj
 0005:00001f20       $pdata$??$_Freenode0@V?$allocator@U?$_Tree_node@U?$pair@$$CBW4Object_Type@@PEBVGameObject@@@std@@PEAX@std@@@std@@@?$_Tree_node@U?$pair@$$CBW4Object_Type@@PEBVGameObject@@@std@@PEAX@std@@SAXAEAV?$allocator@U?$_Tree_node@U?$pair@$$CBW4Object_Type@@PEBVGameObject@@@std@@PEAX@std@@@1@PEAU01@@Z 0000000140050f20     config.obj
 0005:00001f2c       $pdata$??$_Get_size_of_n@$0DA@@std@@YA_K_K@Z 0000000140050f2c     config.obj
 0005:00001f38       $pdata$??$_Insert_at@AEAU?$pair@$$CBW4Object_Type@@PEBVGameObject@@@std@@PEAU?$_Tree_node@U?$pair@$$CBW4Object_Type@@PEBVGameObject@@@std@@PEAX@2@@?$_Tree@V?$_Tmap_traits@W4Object_Type@@PEBVGameObject@@U?$less@W4Object_Type@@@std@@V?$allocator@U?$pair@$$CBW4Object_Type@@PEBVGameObject@@@std@@@4@$0A@@std@@@std@@IEAA?AV?$_Tree_iterator@V?$_Tree_val@U?$_Tree_simple_types@U?$pair@$$CBW4Object_Type@@PEBVGameObject@@@std@@@std@@@std@@@1@_NPEAU?$_Tree_node@U?$pair@$$CBW4Object_Type@@PEBVGameObject@@@std@@PEAX@1@AEAU?$pair@$$CBW4Object_Type@@PEBVGameObject@@@1@1@Z 0000000140050f38     config.obj
 0005:00001f44       $pdata$??$_Insert_hint@AEAU?$pair@$$CBW4Object_Type@@PEBVGameObject@@@std@@PEAU?$_Tree_node@U?$pair@$$CBW4Object_Type@@PEBVGameObject@@@std@@PEAX@2@@?$_Tree@V?$_Tmap_traits@W4Object_Type@@PEBVGameObject@@U?$less@W4Object_Type@@@std@@V?$allocator@U?$pair@$$CBW4Object_Type@@PEBVGameObject@@@std@@@4@$0A@@std@@@std@@IEAA?AV?$_Tree_iterator@V?$_Tree_val@U?$_Tree_simple_types@U?$pair@$$CBW4Object_Type@@PEBVGameObject@@@std@@@std@@@std@@@1@V?$_Tree_const_iterator@V?$_Tree_val@U?$_Tree_simple_types@U?$pair@$$CBW4Object_Type@@PEBVGameObject@@@std@@@std@@@std@@@1@AEAU?$pair@$$CBW4Object_Type@@PEBVGameObject@@@1@PEAU?$_Tree_node@U?$pair@$$CBW4Object_Type@@PEBVGameObject@@@std@@PEAX@1@@Z 0000000140050f44     config.obj
 0005:00001f50       $pdata$??$_Insert_nohint@AEAU?$pair@$$CBW4Object_Type@@PEBVGameObject@@@std@@PEAU?$_Tree_node@U?$pair@$$CBW4Object_Type@@PEBVGameObject@@@std@@PEAX@2@@?$_Tree@V?$_Tmap_traits@W4Object_Type@@PEBVGameObject@@U?$less@W4Object_Type@@@std@@V?$allocator@U?$pair@$$CBW4Object_Type@@PEBVGameObject@@@std@@@4@$0A@@std@@@std@@IEAA?AU?$pair@V?$_Tree_iterator@V?$_Tree_val@U?$_Tree_simple_types@U?$pair@$$CBW4Object_Type@@PEBVGameObject@@@std@@@std@@@std@@@std@@_N@1@_NAEAU?$pair@$$CBW4Object_Type@@PEBVGameObject@@@1@PEAU?$_Tree_node@U?$pair@$$CBW4Object_Type@@PEBVGameObject@@@std@@PEAX@1@@Z 0000000140050f50     config.obj
 0005:00001f5c       $pdata$??$_Kfn@$$CBW4Object_Type@@PEBVGameObject@@@?$_Tmap_traits@W4Object_Type@@PEBVGameObject@@U?$less@W4Object_Type@@@std@@V?$allocator@U?$pair@$$CBW4Object_Type@@PEBVGameObject@@@std@@@4@$0A@@std@@SAAEBW4Object_Type@@AEBU?$pair@$$CBW4Object_Type@@PEBVGameObject@@@1@@Z 0000000140050f5c     config.obj
 0005:00001f68       $pdata$??$_Lbound@W4Object_Type@@@?$_Tree@V?$_Tmap_traits@W4Object_Type@@PEBVGameObject@@U?$less@W4Object_Type@@@std@@V?$allocator@U?$pair@$$CBW4Object_Type@@PEBVGameObject@@@std@@@4@$0A@@std@@@std@@IEBAPEAU?$_Tree_node@U?$pair@$$CBW4Object_Type@@PEBVGameObject@@@std@@PEAX@1@AEBW4Object_Type@@@Z 0000000140050f68     config.obj
 0005:00001f74       $pdata$??$_Pocma@V?$allocator@D@std@@@std@@YAXAEAV?$allocator@D@0@0@Z 0000000140050f74     config.obj
 0005:00001f80       $pdata$??$_Pocma@V?$allocator@D@std@@@std@@YAXAEAV?$allocator@D@0@0U?$integral_constant@_N$00@0@@Z 0000000140050f80     config.obj
 0005:00001f8c       $pdata$??$_Reallocate_for@V<lambda_66f57f934f28d61049862f64df852ff0>@@PEBD@?$basic_string@DU?$char_traits@D@std@@V?$allocator@D@2@@std@@QEAAAEAV01@_KV<lambda_66f57f934f28d61049862f64df852ff0>@@PEBD@Z 0000000140050f8c     config.obj
 0005:00001f98       $pdata$??$_Try_emplace@W4Object_Type@@$$V@?$map@W4Object_Type@@PEBVGameObject@@U?$less@W4Object_Type@@@std@@V?$allocator@U?$pair@$$CBW4Object_Type@@PEBVGameObject@@@std@@@4@@std@@QEAA?AU?$pair@V?$_Tree_iterator@V?$_Tree_val@U?$_Tree_simple_types@U?$pair@$$CBW4Object_Type@@PEBVGameObject@@@std@@@std@@@std@@@std@@_N@1@$$QEAW4Object_Type@@@Z 0000000140050f98     config.obj
 0005:00001fa4       $pdata$??$addressof@$$CBU?$pair@$$CBW4Object_Type@@PEBVGameObject@@@std@@@std@@YAPEBU?$pair@$$CBW4Object_Type@@PEBVGameObject@@@0@AEBU10@@Z 0000000140050fa4     config.obj
 0005:00001fb0       $pdata$??$addressof@$$CBV?$_Tree_val@U?$_Tree_simple_types@U?$pair@$$CBW4Object_Type@@PEBVGameObject@@@std@@@std@@@std@@@std@@YAPEBV?$_Tree_val@U?$_Tree_simple_types@U?$pair@$$CBW4Object_Type@@PEBVGameObject@@@std@@@std@@@0@AEBV10@@Z 0000000140050fb0     config.obj
 0005:00001fbc       $pdata$??$addressof@PEAU?$_Tree_node@U?$pair@$$CBW4Object_Type@@PEBVGameObject@@@std@@PEAX@std@@@std@@YAPEAPEAU?$_Tree_node@U?$pair@$$CBW4Object_Type@@PEBVGameObject@@@std@@PEAX@0@AEAPEAU10@@Z 0000000140050fbc     config.obj
 0005:00001fc8       $pdata$??$addressof@U?$pair@$$CBW4Object_Type@@PEBVGameObject@@@std@@@std@@YAPEAU?$pair@$$CBW4Object_Type@@PEBVGameObject@@@0@AEAU10@@Z 0000000140050fc8     config.obj
 0005:00001fd4       $pdata$??$addressof@V?$_Tree_val@U?$_Tree_simple_types@U?$pair@$$CBW4Object_Type@@PEBVGameObject@@@std@@@std@@@std@@@std@@YAPEAV?$_Tree_val@U?$_Tree_simple_types@U?$pair@$$CBW4Object_Type@@PEBVGameObject@@@std@@@std@@@0@AEAV10@@Z 0000000140050fd4     config.obj
 0005:00001fe0       $pdata$??$addressof@V?$basic_string@DU?$char_traits@D@std@@V?$allocator@D@2@@std@@@std@@YAPEAV?$basic_string@DU?$char_traits@D@std@@V?$allocator@D@2@@0@AEAV10@@Z 0000000140050fe0     config.obj
 0005:00001fec       $pdata$??$construct@PEAU?$_Tree_node@U?$pair@$$CBW4Object_Type@@PEBVGameObject@@@std@@PEAX@std@@AEAPEAU12@@?$_Default_allocator_traits@V?$allocator@U?$_Tree_node@U?$pair@$$CBW4Object_Type@@PEBVGameObject@@@std@@PEAX@std@@@std@@@std@@SAXAEAV?$allocator@U?$_Tree_node@U?$pair@$$CBW4Object_Type@@PEBVGameObject@@@std@@PEAX@std@@@1@QEAPEAU?$_Tree_node@U?$pair@$$CBW4Object_Type@@PEBVGameObject@@@std@@PEAX@1@AEAPEAU31@@Z 0000000140050fec     config.obj
 0005:00001ff8       $pdata$??$construct@U?$pair@$$CBW4Object_Type@@PEBVGameObject@@@std@@AEBUpiecewise_construct_t@2@V?$tuple@$$QEAW4Object_Type@@@2@V?$tuple@$$V@2@@?$_Default_allocator_traits@V?$allocator@U?$_Tree_node@U?$pair@$$CBW4Object_Type@@PEBVGameObject@@@std@@PEAX@std@@@std@@@std@@SAXAEAV?$allocator@U?$_Tree_node@U?$pair@$$CBW4Object_Type@@PEBVGameObject@@@std@@PEAX@std@@@1@QEAU?$pair@$$CBW4Object_Type@@PEBVGameObject@@@1@AEBUpiecewise_construct_t@1@$$QEAV?$tuple@$$QEAW4Object_Type@@@1@$$QEAV?$tuple@$$V@1@@Z 0000000140050ff8     config.obj
 0005:00002004       $pdata$??$destroy@PEAU?$_Tree_node@U?$pair@$$CBW4Object_Type@@PEBVGameObject@@@std@@PEAX@std@@@?$_Default_allocator_traits@V?$allocator@U?$_Tree_node@U?$pair@$$CBW4Object_Type@@PEBVGameObject@@@std@@PEAX@std@@@std@@@std@@SAXAEAV?$allocator@U?$_Tree_node@U?$pair@$$CBW4Object_Type@@PEBVGameObject@@@std@@PEAX@std@@@1@QEAPEAU?$_Tree_node@U?$pair@$$CBW4Object_Type@@PEBVGameObject@@@std@@PEAX@1@@Z 0000000140051004     config.obj
 0005:00002010       $pdata$??$destroy@U?$pair@$$CBW4Object_Type@@PEBVGameObject@@@std@@@?$_Default_allocator_traits@V?$allocator@U?$_Tree_node@U?$pair@$$CBW4Object_Type@@PEBVGameObject@@@std@@PEAX@std@@@std@@@std@@SAXAEAV?$allocator@U?$_Tree_node@U?$pair@$$CBW4Object_Type@@PEBVGameObject@@@std@@PEAX@std@@@1@QEAU?$pair@$$CBW4Object_Type@@PEBVGameObject@@@1@@Z 0000000140051010     config.obj
 0005:0000201c       $pdata$??$emplace_hint@AEBUpiecewise_construct_t@std@@V?$tuple@$$QEAW4Object_Type@@@2@V?$tuple@$$V@2@@?$_Tree@V?$_Tmap_traits@W4Object_Type@@PEBVGameObject@@U?$less@W4Object_Type@@@std@@V?$allocator@U?$pair@$$CBW4Object_Type@@PEBVGameObject@@@std@@@4@$0A@@std@@@std@@QEAA?AV?$_Tree_iterator@V?$_Tree_val@U?$_Tree_simple_types@U?$pair@$$CBW4Object_Type@@PEBVGameObject@@@std@@@std@@@std@@@1@V?$_Tree_const_iterator@V?$_Tree_val@U?$_Tree_simple_types@U?$pair@$$CBW4Object_Type@@PEBVGameObject@@@std@@@std@@@std@@@1@AEBUpiecewise_construct_t@1@$$QEAV?$tuple@$$QEAW4Object_Type@@@1@$$QEAV?$tuple@$$V@1@@Z 000000014005101c     config.obj
 0005:00002028       $pdata$??$forward@$$QEAW4Object_Type@@@std@@YA$$QEAW4Object_Type@@AEAW41@@Z 0000000140051028     config.obj
 0005:00002034       $pdata$??$forward@AEAPEAU?$_Tree_node@U?$pair@$$CBW4Object_Type@@PEBVGameObject@@@std@@PEAX@std@@@std@@YAAEAPEAU?$_Tree_node@U?$pair@$$CBW4Object_Type@@PEBVGameObject@@@std@@PEAX@0@AEAPEAU10@@Z 0000000140051034     config.obj
 0005:00002040       $pdata$??$forward@AEAU?$pair@$$CBW4Object_Type@@PEBVGameObject@@@std@@@std@@YAAEAU?$pair@$$CBW4Object_Type@@PEBVGameObject@@@0@AEAU10@@Z 0000000140051040     config.obj
 0005:0000204c       $pdata$??$forward@AEAV?$_Tree_iterator@V?$_Tree_val@U?$_Tree_simple_types@U?$pair@$$CBW4Object_Type@@PEBVGameObject@@@std@@@std@@@std@@@std@@@std@@YAAEAV?$_Tree_iterator@V?$_Tree_val@U?$_Tree_simple_types@U?$pair@$$CBW4Object_Type@@PEBVGameObject@@@std@@@std@@@std@@@0@AEAV10@@Z 000000014005104c     config.obj
 0005:00002058       $pdata$??$forward@AEBUpiecewise_construct_t@std@@@std@@YAAEBUpiecewise_construct_t@0@AEBU10@@Z 0000000140051058     config.obj
 0005:00002064       $pdata$??$forward@AEBV?$allocator@D@std@@@std@@YAAEBV?$allocator@D@0@AEBV10@@Z 0000000140051064     config.obj
 0005:00002070       $pdata$??$forward@V?$_Tree_iterator@V?$_Tree_val@U?$_Tree_simple_types@U?$pair@$$CBW4Object_Type@@PEBVGameObject@@@std@@@std@@@std@@@std@@@std@@YA$$QEAV?$_Tree_iterator@V?$_Tree_val@U?$_Tree_simple_types@U?$pair@$$CBW4Object_Type@@PEBVGameObject@@@std@@@std@@@std@@@0@AEAV10@@Z 0000000140051070     config.obj
 0005:0000207c       $pdata$??$forward@V?$tuple@$$QEAW4Object_Type@@@std@@@std@@YA$$QEAV?$tuple@$$QEAW4Object_Type@@@0@AEAV10@@Z 000000014005107c     config.obj
 0005:00002088       $pdata$??$forward@V?$tuple@$$V@std@@@std@@YA$$QEAV?$tuple@$$V@0@AEAV10@@Z 0000000140051088     config.obj
 0005:00002094       $pdata$??$forward@W4Object_Type@@@std@@YA$$QEAW4Object_Type@@AEAW41@@Z 0000000140051094     config.obj
 0005:000020a0       $pdata$??$forward@_N@std@@YA$$QEA_NAEA_N@Z 00000001400510a0     config.obj
 0005:000020ac       $pdata$??$forward_as_tuple@$$V@std@@YA?AV?$tuple@$$V@0@XZ 00000001400510ac     config.obj
 0005:000020b8       $pdata$??$forward_as_tuple@W4Object_Type@@@std@@YA?AV?$tuple@$$QEAW4Object_Type@@@0@$$QEAW4Object_Type@@@Z 00000001400510b8     config.obj
 0005:000020c4       $pdata$??$get@$0A@$$QEAW4Object_Type@@@std@@YA$$QEAW4Object_Type@@$$QEAV?$tuple@$$QEAW4Object_Type@@@0@@Z 00000001400510c4     config.obj
 0005:000020d0       $pdata$??$move@AEAV?$allocator@D@std@@@std@@YA$$QEAV?$allocator@D@0@AEAV10@@Z 00000001400510d0     config.obj
 0005:000020dc       $pdata$??$move@AEAV?$basic_string@DU?$char_traits@D@std@@V?$allocator@D@2@@std@@@std@@YA$$QEAV?$basic_string@DU?$char_traits@D@std@@V?$allocator@D@2@@0@AEAV10@@Z 00000001400510dc     config.obj
 0005:000020e8       $pdata$??$move@AEAV?$tuple@$$QEAW4Object_Type@@@std@@@std@@YA$$QEAV?$tuple@$$QEAW4Object_Type@@@0@AEAV10@@Z 00000001400510e8     config.obj
 0005:000020f4       $pdata$??$move@AEAW4Object_Type@@@std@@YA$$QEAW4Object_Type@@AEAW41@@Z 00000001400510f4     config.obj
 0005:00002100       $pdata$??$try_emplace@$$V@?$map@W4Object_Type@@PEBVGameObject@@U?$less@W4Object_Type@@@std@@V?$allocator@U?$pair@$$CBW4Object_Type@@PEBVGameObject@@@std@@@4@@std@@QEAA?AU?$pair@V?$_Tree_iterator@V?$_Tree_val@U?$_Tree_simple_types@U?$pair@$$CBW4Object_Type@@PEBVGameObject@@@std@@@std@@@std@@@std@@_N@1@$$QEAW4Object_Type@@@Z 0000000140051100     config.obj
 0005:0000210c       $pdata$??0?$_Tree_const_iterator@V?$_Tree_val@U?$_Tree_simple_types@U?$pair@$$CBW4Object_Type@@PEBVGameObject@@@std@@@std@@@std@@@std@@QEAA@$$QEAV01@@Z 000000014005110c     config.obj
 0005:00002118       $pdata$??0?$_Tree_const_iterator@V?$_Tree_val@U?$_Tree_simple_types@U?$pair@$$CBW4Object_Type@@PEBVGameObject@@@std@@@std@@@std@@@std@@QEAA@AEBV01@@Z 0000000140051118     config.obj
 0005:00002124       $pdata$??0?$_Tree_const_iterator@V?$_Tree_val@U?$_Tree_simple_types@U?$pair@$$CBW4Object_Type@@PEBVGameObject@@@std@@@std@@@std@@@std@@QEAA@PEAU?$_Tree_node@U?$pair@$$CBW4Object_Type@@PEBVGameObject@@@std@@PEAX@1@PEBV?$_Tree_val@U?$_Tree_simple_types@U?$pair@$$CBW4Object_Type@@PEBVGameObject@@@std@@@std@@@1@@Z 0000000140051124     config.obj
 0005:00002130       $pdata$??0?$_Tree_const_iterator@V?$_Tree_val@U?$_Tree_simple_types@U?$pair@$$CBW4Object_Type@@PEBVGameObject@@@std@@@std@@@std@@@std@@QEAA@XZ 0000000140051130     config.obj
 0005:0000213c       $pdata$??0?$_Tree_iterator@V?$_Tree_val@U?$_Tree_simple_types@U?$pair@$$CBW4Object_Type@@PEBVGameObject@@@std@@@std@@@std@@@std@@QEAA@$$QEAV01@@Z 000000014005113c     config.obj
 0005:00002148       $pdata$??0?$_Tree_iterator@V?$_Tree_val@U?$_Tree_simple_types@U?$pair@$$CBW4Object_Type@@PEBVGameObject@@@std@@@std@@@std@@@std@@QEAA@AEBV01@@Z 0000000140051148     config.obj
 0005:00002154       $pdata$??0?$_Tree_iterator@V?$_Tree_val@U?$_Tree_simple_types@U?$pair@$$CBW4Object_Type@@PEBVGameObject@@@std@@@std@@@std@@@std@@QEAA@PEAU?$_Tree_node@U?$pair@$$CBW4Object_Type@@PEBVGameObject@@@std@@PEAX@1@PEBV?$_Tree_val@U?$_Tree_simple_types@U?$pair@$$CBW4Object_Type@@PEBVGameObject@@@std@@@std@@@1@@Z 0000000140051154     config.obj
 0005:00002160       $pdata$??0?$_Tree_unchecked_const_iterator@V?$_Tree_val@U?$_Tree_simple_types@U?$pair@$$CBW4Object_Type@@PEBVGameObject@@@std@@@std@@@std@@U_Iterator_base12@2@@std@@QEAA@$$QEAV01@@Z 0000000140051160     config.obj
 0005:0000216c       $pdata$??0?$_Tree_unchecked_const_iterator@V?$_Tree_val@U?$_Tree_simple_types@U?$pair@$$CBW4Object_Type@@PEBVGameObject@@@std@@@std@@@std@@U_Iterator_base12@2@@std@@QEAA@AEBV01@@Z 000000014005116c     config.obj
 0005:00002178       $pdata$??0?$_Tree_unchecked_const_iterator@V?$_Tree_val@U?$_Tree_simple_types@U?$pair@$$CBW4Object_Type@@PEBVGameObject@@@std@@@std@@@std@@U_Iterator_base12@2@@std@@QEAA@PEAU?$_Tree_node@U?$pair@$$CBW4Object_Type@@PEBVGameObject@@@std@@PEAX@1@PEBV?$_Tree_val@U?$_Tree_simple_types@U?$pair@$$CBW4Object_Type@@PEBVGameObject@@@std@@@std@@@1@@Z 0000000140051178     config.obj
 0005:00002184       $pdata$??0?$_Tree_unchecked_const_iterator@V?$_Tree_val@U?$_Tree_simple_types@U?$pair@$$CBW4Object_Type@@PEBVGameObject@@@std@@@std@@@std@@U_Iterator_base12@2@@std@@QEAA@XZ 0000000140051184     config.obj
 0005:00002190       $pdata$??0?$basic_string@DU?$char_traits@D@std@@V?$allocator@D@2@@std@@QEAA@AEBV01@_K1AEBV?$allocator@D@1@@Z 0000000140051190     config.obj
 0005:0000219c       $pdata$??0?$tuple@$$QEAW4Object_Type@@@std@@QEAA@$$QEAV01@@Z 000000014005119c     config.obj
 0005:000021a8       $pdata$??0?$tuple@$$V@std@@QEAA@AEBV01@@Z 00000001400511a8     config.obj
 0005:000021b4       $pdata$??0?$tuple@$$V@std@@QEAA@XZ 00000001400511b4     config.obj
 0005:000021c0       $pdata$??0_Iterator_base12@std@@QEAA@AEBU01@@Z 00000001400511c0     config.obj
 0005:000021cc       $pdata$??0_Iterator_base12@std@@QEAA@XZ 00000001400511cc     config.obj
 0005:000021d8       $pdata$??1?$_Tree_const_iterator@V?$_Tree_val@U?$_Tree_simple_types@U?$pair@$$CBW4Object_Type@@PEBVGameObject@@@std@@@std@@@std@@@std@@QEAA@XZ 00000001400511d8     config.obj
 0005:000021e4       $pdata$??1?$_Tree_iterator@V?$_Tree_val@U?$_Tree_simple_types@U?$pair@$$CBW4Object_Type@@PEBVGameObject@@@std@@@std@@@std@@@std@@QEAA@XZ 00000001400511e4     config.obj
 0005:000021f0       $pdata$??1?$_Tree_unchecked_const_iterator@V?$_Tree_val@U?$_Tree_simple_types@U?$pair@$$CBW4Object_Type@@PEBVGameObject@@@std@@@std@@@std@@U_Iterator_base12@2@@std@@QEAA@XZ 00000001400511f0     config.obj
 0005:000021fc       $pdata$??1?$pair@V?$_Tree_iterator@V?$_Tree_val@U?$_Tree_simple_types@U?$pair@$$CBW4Object_Type@@PEBVGameObject@@@std@@@std@@@std@@@std@@_N@std@@QEAA@XZ 00000001400511fc     config.obj
 0005:00002208       $pdata$??1_Iterator_base12@std@@QEAA@XZ 0000000140051208     config.obj
 0005:00002214       $pdata$??4?$_Tree_const_iterator@V?$_Tree_val@U?$_Tree_simple_types@U?$pair@$$CBW4Object_Type@@PEBVGameObject@@@std@@@std@@@std@@@std@@QEAAAEAV01@AEBV01@@Z 0000000140051214     config.obj
 0005:00002220       $pdata$??4?$_Tree_unchecked_const_iterator@V?$_Tree_val@U?$_Tree_simple_types@U?$pair@$$CBW4Object_Type@@PEBVGameObject@@@std@@@std@@@std@@U_Iterator_base12@2@@std@@QEAAAEAV01@AEBV01@@Z 0000000140051220     config.obj
 0005:0000222c       $pdata$??4?$basic_string@DU?$char_traits@D@std@@V?$allocator@D@2@@std@@QEAAAEAV01@$$QEAV01@@Z 000000014005122c     config.obj
 0005:00002238       $pdata$??4_Iterator_base12@std@@QEAAAEAU01@AEBU01@@Z 0000000140051238     config.obj
 0005:00002244       $pdata$??8?$_Tree_const_iterator@V?$_Tree_val@U?$_Tree_simple_types@U?$pair@$$CBW4Object_Type@@PEBVGameObject@@@std@@@std@@@std@@@std@@QEBA_NAEBV01@@Z 0000000140051244     config.obj
 0005:00002250       $pdata$??A?$map@W4Object_Type@@PEBVGameObject@@U?$less@W4Object_Type@@@std@@V?$allocator@U?$pair@$$CBW4Object_Type@@PEBVGameObject@@@std@@@4@@std@@QEAAAEAPEBVGameObject@@$$QEAW4Object_Type@@@Z 0000000140051250     config.obj
 0005:0000225c       $pdata$??C?$_Tree_const_iterator@V?$_Tree_val@U?$_Tree_simple_types@U?$pair@$$CBW4Object_Type@@PEBVGameObject@@@std@@@std@@@std@@@std@@QEBAPEBU?$pair@$$CBW4Object_Type@@PEBVGameObject@@@1@XZ 000000014005125c     config.obj
 0005:00002268       $pdata$??C?$_Tree_iterator@V?$_Tree_val@U?$_Tree_simple_types@U?$pair@$$CBW4Object_Type@@PEBVGameObject@@@std@@@std@@@std@@@std@@QEBAPEAU?$pair@$$CBW4Object_Type@@PEBVGameObject@@@1@XZ 0000000140051268     config.obj
 0005:00002274       $pdata$??D?$_Tree_const_iterator@V?$_Tree_val@U?$_Tree_simple_types@U?$pair@$$CBW4Object_Type@@PEBVGameObject@@@std@@@std@@@std@@@std@@QEBAAEBU?$pair@$$CBW4Object_Type@@PEBVGameObject@@@1@XZ 0000000140051274     config.obj
 0005:00002280       $pdata$??D?$_Tree_iterator@V?$_Tree_val@U?$_Tree_simple_types@U?$pair@$$CBW4Object_Type@@PEBVGameObject@@@std@@@std@@@std@@@std@@QEBAAEAU?$pair@$$CBW4Object_Type@@PEBVGameObject@@@1@XZ 0000000140051280     config.obj
 0005:0000228c       $pdata$??E?$_Tree_const_iterator@V?$_Tree_val@U?$_Tree_simple_types@U?$pair@$$CBW4Object_Type@@PEBVGameObject@@@std@@@std@@@std@@@std@@QEAAAEAV01@XZ 000000014005128c     config.obj
 0005:00002298       $pdata$??E?$_Tree_unchecked_const_iterator@V?$_Tree_val@U?$_Tree_simple_types@U?$pair@$$CBW4Object_Type@@PEBVGameObject@@@std@@@std@@@std@@U_Iterator_base12@2@@std@@QEAAAEAV01@XZ 0000000140051298     config.obj
 0005:000022a4       $pdata$??F?$_Tree_const_iterator@V?$_Tree_val@U?$_Tree_simple_types@U?$pair@$$CBW4Object_Type@@PEBVGameObject@@@std@@@std@@@std@@@std@@QEAAAEAV01@XZ 00000001400512a4     config.obj
 0005:000022b0       $pdata$??F?$_Tree_iterator@V?$_Tree_val@U?$_Tree_simple_types@U?$pair@$$CBW4Object_Type@@PEBVGameObject@@@std@@@std@@@std@@@std@@QEAAAEAV01@XZ 00000001400512b0     config.obj
 0005:000022bc       $pdata$??F?$_Tree_unchecked_const_iterator@V?$_Tree_val@U?$_Tree_simple_types@U?$pair@$$CBW4Object_Type@@PEBVGameObject@@@std@@@std@@@std@@U_Iterator_base12@2@@std@@QEAAAEAV01@XZ 00000001400512bc     config.obj
 0005:000022c8       $pdata$??R<lambda_66f57f934f28d61049862f64df852ff0>@@QEBAXQEAD_KQEBD@Z 00000001400512c8     config.obj
 0005:000022d4       $pdata$??R?$less@W4Object_Type@@@std@@QEBA_NAEBW4Object_Type@@0@Z 00000001400512d4     config.obj
 0005:000022e0       $pdata$?Create_Object@ConfigManager@@QEBAPEAVGameObject@@W4Object_Type@@@Z 00000001400512e0     config.obj
 0005:000022ec       $pdata$?Get_Word_Pos_End@Config_Parser@@YAPEBDPEBD@Z 00000001400512ec     config.obj
 0005:000022f8       $pdata$?Is_Comment_Line@Config_Parser@@YA_NPEBD@Z 00000001400512f8     config.obj
 0005:00002304       $pdata$?Load@ConfigManager@@QEAA_NPEBD@Z 0000000140051304     config.obj
 0005:00002310       $pdata$?Read@Config_Parser@@YAPEBDPEBDAEAH@Z 0000000140051310     config.obj
 0005:0000231c       $pdata$?Read@Config_Parser@@YAPEBDPEBDAEAM@Z 000000014005131c     config.obj
 0005:00002328       $pdata$?Read@Config_Parser@@YAPEBDPEBDAEAV?$basic_string@DU?$char_traits@D@std@@V?$allocator@D@2@@std@@@Z 0000000140051328     config.obj
 0005:00002334       $pdata$?Read_Line@ConfigManager@@AEBA_KPEAU_iobuf@@PEAD_K@Z 0000000140051334     config.obj
 0005:00002340       $pdata$?_Adopt@_Iterator_base12@std@@QEAAXPEBU_Container_base12@2@@Z 0000000140051340     config.obj
 0005:0000234c       $pdata$?_Assign_rv_contents@?$basic_string@DU?$char_traits@D@std@@V?$allocator@D@2@@std@@QEAAX$$QEAV12@U?$integral_constant@_N$00@2@@Z 000000014005134c     config.obj
 0005:00002358       $pdata$?_Assign_rv_contents_with_alloc_always_equal@?$basic_string@DU?$char_traits@D@std@@V?$allocator@D@2@@std@@QEAAX$$QEAV12@U?$integral_constant@_N$00@2@@Z 0000000140051358     config.obj
 0005:00002364       $pdata$?_Buynode0@?$_Tree_comp_alloc@V?$_Tmap_traits@W4Object_Type@@PEBVGameObject@@U?$less@W4Object_Type@@@std@@V?$allocator@U?$pair@$$CBW4Object_Type@@PEBVGameObject@@@std@@@4@$0A@@std@@@std@@QEAAPEAU?$_Tree_node@U?$pair@$$CBW4Object_Type@@PEBVGameObject@@@std@@PEAX@2@XZ 0000000140051364     config.obj
 0005:00002370       $pdata$?_Check_offset@?$_String_val@U?$_Simple_types@D@std@@@std@@QEBAX_K@Z 0000000140051370     config.obj
 0005:0000237c       $pdata$?_Clamp_suffix_size@?$_String_val@U?$_Simple_types@D@std@@@std@@QEBA_K_K0@Z 000000014005137c     config.obj
 0005:00002388       $pdata$?_Compare@?$_Tree@V?$_Tmap_traits@W4Object_Type@@PEBVGameObject@@U?$less@W4Object_Type@@@std@@V?$allocator@U?$pair@$$CBW4Object_Type@@PEBVGameObject@@@std@@@4@$0A@@std@@@std@@IEBA_NAEBW4Object_Type@@0@Z 0000000140051388     config.obj
 0005:00002394       $pdata$?_Destroy_if_node@?$_Tree@V?$_Tmap_traits@W4Object_Type@@PEBVGameObject@@U?$less@W4Object_Type@@@std@@V?$allocator@U?$pair@$$CBW4Object_Type@@PEBVGameObject@@@std@@@4@$0A@@std@@@std@@IEAAXPEAU?$_Tree_node@U?$pair@$$CBW4Object_Type@@PEBVGameObject@@@std@@PEAX@2@@Z 0000000140051394     config.obj
 0005:000023a0       $pdata$?_Freenode0@?$_Tree_comp_alloc@V?$_Tmap_traits@W4Object_Type@@PEBVGameObject@@U?$less@W4Object_Type@@@std@@V?$allocator@U?$pair@$$CBW4Object_Type@@PEBVGameObject@@@std@@@4@$0A@@std@@@std@@QEAAXPEAU?$_Tree_node@U?$pair@$$CBW4Object_Type@@PEBVGameObject@@@std@@PEAX@2@@Z 00000001400513a0     config.obj
 0005:000023ac       $pdata$?_Get_data@?$_Tree_comp_alloc@V?$_Tmap_traits@W4Object_Type@@PEBVGameObject@@U?$less@W4Object_Type@@@std@@V?$allocator@U?$pair@$$CBW4Object_Type@@PEBVGameObject@@@std@@@4@$0A@@std@@@std@@QEAAAEAV?$_Tree_val@U?$_Tree_simple_types@U?$pair@$$CBW4Object_Type@@PEBVGameObject@@@std@@@std@@@2@XZ 00000001400513ac     config.obj
 0005:000023b8       $pdata$?_Get_data@?$_Tree_comp_alloc@V?$_Tmap_traits@W4Object_Type@@PEBVGameObject@@U?$less@W4Object_Type@@@std@@V?$allocator@U?$pair@$$CBW4Object_Type@@PEBVGameObject@@@std@@@4@$0A@@std@@@std@@QEBAAEBV?$_Tree_val@U?$_Tree_simple_types@U?$pair@$$CBW4Object_Type@@PEBVGameObject@@@std@@@std@@@2@XZ 00000001400513b8     config.obj
 0005:000023c4       $pdata$?_Get_first@?$_Compressed_pair@U?$less@W4Object_Type@@@std@@V?$_Compressed_pair@V?$allocator@U?$_Tree_node@U?$pair@$$CBW4Object_Type@@PEBVGameObject@@@std@@PEAX@std@@@std@@V?$_Tree_val@U?$_Tree_simple_types@U?$pair@$$CBW4Object_Type@@PEBVGameObject@@@std@@@std@@@2@$00@2@$00@std@@QEAAAEAU?$less@W4Object_Type@@@2@XZ 00000001400513c4     config.obj
 0005:000023d0       $pdata$?_Get_first@?$_Compressed_pair@U?$less@W4Object_Type@@@std@@V?$_Compressed_pair@V?$allocator@U?$_Tree_node@U?$pair@$$CBW4Object_Type@@PEBVGameObject@@@std@@PEAX@std@@@std@@V?$_Tree_val@U?$_Tree_simple_types@U?$pair@$$CBW4Object_Type@@PEBVGameObject@@@std@@@std@@@2@$00@2@$00@std@@QEBAAEBU?$less@W4Object_Type@@@2@XZ 00000001400513d0     config.obj
 0005:000023dc       $pdata$?_Get_first@?$_Compressed_pair@V?$allocator@U?$_Tree_node@U?$pair@$$CBW4Object_Type@@PEBVGameObject@@@std@@PEAX@std@@@std@@V?$_Tree_val@U?$_Tree_simple_types@U?$pair@$$CBW4Object_Type@@PEBVGameObject@@@std@@@std@@@2@$00@std@@QEAAAEAV?$allocator@U?$_Tree_node@U?$pair@$$CBW4Object_Type@@PEBVGameObject@@@std@@PEAX@std@@@2@XZ 00000001400513dc     config.obj
 0005:000023e8       $pdata$?_Get_first@?$_Compressed_pair@V?$allocator@U?$_Tree_node@U?$pair@$$CBW4Object_Type@@PEBVGameObject@@@std@@PEAX@std@@@std@@V?$_Tree_val@U?$_Tree_simple_types@U?$pair@$$CBW4Object_Type@@PEBVGameObject@@@std@@@std@@@2@$00@std@@QEBAAEBV?$allocator@U?$_Tree_node@U?$pair@$$CBW4Object_Type@@PEBVGameObject@@@std@@PEAX@std@@@2@XZ 00000001400513e8     config.obj
 0005:000023f4       $pdata$?_Get_second@?$_Compressed_pair@U?$less@W4Object_Type@@@std@@V?$_Compressed_pair@V?$allocator@U?$_Tree_node@U?$pair@$$CBW4Object_Type@@PEBVGameObject@@@std@@PEAX@std@@@std@@V?$_Tree_val@U?$_Tree_simple_types@U?$pair@$$CBW4Object_Type@@PEBVGameObject@@@std@@@std@@@2@$00@2@$00@std@@QEAAAEAV?$_Compressed_pair@V?$allocator@U?$_Tree_node@U?$pair@$$CBW4Object_Type@@PEBVGameObject@@@std@@PEAX@std@@@std@@V?$_Tree_val@U?$_Tree_simple_types@U?$pair@$$CBW4Object_Type@@PEBVGameObject@@@std@@@std@@@2@$00@2@XZ 00000001400513f4     config.obj
 0005:00002400       $pdata$?_Get_second@?$_Compressed_pair@U?$less@W4Object_Type@@@std@@V?$_Compressed_pair@V?$allocator@U?$_Tree_node@U?$pair@$$CBW4Object_Type@@PEBVGameObject@@@std@@PEAX@std@@@std@@V?$_Tree_val@U?$_Tree_simple_types@U?$pair@$$CBW4Object_Type@@PEBVGameObject@@@std@@@std@@@2@$00@2@$00@std@@QEBAAEBV?$_Compressed_pair@V?$allocator@U?$_Tree_node@U?$pair@$$CBW4Object_Type@@PEBVGameObject@@@std@@PEAX@std@@@std@@V?$_Tree_val@U?$_Tree_simple_types@U?$pair@$$CBW4Object_Type@@PEBVGameObject@@@std@@@std@@@2@$00@2@XZ 0000000140051400     config.obj
 0005:0000240c       $pdata$?_Get_second@?$_Compressed_pair@V?$allocator@U?$_Tree_node@U?$pair@$$CBW4Object_Type@@PEBVGameObject@@@std@@PEAX@std@@@std@@V?$_Tree_val@U?$_Tree_simple_types@U?$pair@$$CBW4Object_Type@@PEBVGameObject@@@std@@@std@@@2@$00@std@@QEAAAEAV?$_Tree_val@U?$_Tree_simple_types@U?$pair@$$CBW4Object_Type@@PEBVGameObject@@@std@@@std@@@2@XZ 000000014005140c     config.obj
 0005:00002418       $pdata$?_Get_second@?$_Compressed_pair@V?$allocator@U?$_Tree_node@U?$pair@$$CBW4Object_Type@@PEBVGameObject@@@std@@PEAX@std@@@std@@V?$_Tree_val@U?$_Tree_simple_types@U?$pair@$$CBW4Object_Type@@PEBVGameObject@@@std@@@std@@@2@$00@std@@QEBAAEBV?$_Tree_val@U?$_Tree_simple_types@U?$pair@$$CBW4Object_Type@@PEBVGameObject@@@std@@@std@@@2@XZ 0000000140051418     config.obj
 0005:00002424       $pdata$?_Getal@?$_Tree_comp_alloc@V?$_Tmap_traits@W4Object_Type@@PEBVGameObject@@U?$less@W4Object_Type@@@std@@V?$allocator@U?$pair@$$CBW4Object_Type@@PEBVGameObject@@@std@@@4@$0A@@std@@@std@@QEAAAEAV?$allocator@U?$_Tree_node@U?$pair@$$CBW4Object_Type@@PEBVGameObject@@@std@@PEAX@std@@@2@XZ 0000000140051424     config.obj
 0005:00002430       $pdata$?_Getal@?$_Tree_comp_alloc@V?$_Tmap_traits@W4Object_Type@@PEBVGameObject@@U?$less@W4Object_Type@@@std@@V?$allocator@U?$pair@$$CBW4Object_Type@@PEBVGameObject@@@std@@@4@$0A@@std@@@std@@QEBAAEBV?$allocator@U?$_Tree_node@U?$pair@$$CBW4Object_Type@@PEBVGameObject@@@std@@PEAX@std@@@2@XZ 0000000140051430     config.obj
 0005:0000243c       $pdata$?_Getcomp@?$_Tree_comp_alloc@V?$_Tmap_traits@W4Object_Type@@PEBVGameObject@@U?$less@W4Object_Type@@@std@@V?$allocator@U?$pair@$$CBW4Object_Type@@PEBVGameObject@@@std@@@4@$0A@@std@@@std@@QEAAAEAU?$less@W4Object_Type@@@2@XZ 000000014005143c     config.obj
 0005:00002448       $pdata$?_Getcomp@?$_Tree_comp_alloc@V?$_Tmap_traits@W4Object_Type@@PEBVGameObject@@U?$less@W4Object_Type@@@std@@V?$allocator@U?$pair@$$CBW4Object_Type@@PEBVGameObject@@@std@@@4@$0A@@std@@@std@@QEBAAEBU?$less@W4Object_Type@@@2@XZ 0000000140051448     config.obj
 0005:00002454       $pdata$?_Getcont@_Iterator_base12@std@@QEBAPEBU_Container_base12@2@XZ 0000000140051454     config.obj
 0005:00002460       $pdata$?_Key@?$_Tree@V?$_Tmap_traits@W4Object_Type@@PEBVGameObject@@U?$less@W4Object_Type@@@std@@V?$allocator@U?$pair@$$CBW4Object_Type@@PEBVGameObject@@@std@@@4@$0A@@std@@@std@@IEBAAEBW4Object_Type@@PEAU?$_Tree_node@U?$pair@$$CBW4Object_Type@@PEBVGameObject@@@std@@PEAX@2@@Z 0000000140051460     config.obj
 0005:0000246c       $pdata$?_Kfn@?$_Tree@V?$_Tmap_traits@W4Object_Type@@PEBVGameObject@@U?$less@W4Object_Type@@@std@@V?$allocator@U?$pair@$$CBW4Object_Type@@PEBVGameObject@@@std@@@4@$0A@@std@@@std@@IEBAAEBW4Object_Type@@AEBU?$pair@$$CBW4Object_Type@@PEBVGameObject@@@2@@Z 000000014005146c     config.obj
 0005:00002478       $pdata$?_Lmost@?$_Tree_val@U?$_Tree_simple_types@U?$pair@$$CBW4Object_Type@@PEBVGameObject@@@std@@@std@@@std@@QEBAAEAPEAU?$_Tree_node@U?$pair@$$CBW4Object_Type@@PEBVGameObject@@@std@@PEAX@2@XZ 0000000140051478     config.obj
 0005:00002484       $pdata$?_Lrotate@?$_Tree_val@U?$_Tree_simple_types@U?$pair@$$CBW4Object_Type@@PEBVGameObject@@@std@@@std@@@std@@QEAAXPEAU?$_Tree_node@U?$pair@$$CBW4Object_Type@@PEBVGameObject@@@std@@PEAX@2@@Z 0000000140051484     config.obj
 0005:00002490       $pdata$?_Max@?$_Tree_val@U?$_Tree_simple_types@U?$pair@$$CBW4Object_Type@@PEBVGameObject@@@std@@@std@@@std@@SAPEAU?$_Tree_node@U?$pair@$$CBW4Object_Type@@PEBVGameObject@@@std@@PEAX@2@PEAU32@@Z 0000000140051490     config.obj
 0005:0000249c       $pdata$?_Min@?$_Tree_val@U?$_Tree_simple_types@U?$pair@$$CBW4Object_Type@@PEBVGameObject@@@std@@@std@@@std@@SAPEAU?$_Tree_node@U?$pair@$$CBW4Object_Type@@PEBVGameObject@@@std@@PEAX@2@PEAU32@@Z 000000014005149c     config.obj
 0005:000024a8       $pdata$?_Move_alloc@?$_String_alloc@U?$_String_base_types@DV?$allocator@D@std@@@std@@@std@@QEAAXAEAV?$allocator@D@2@@Z 00000001400514a8     config.obj
 0005:000024b4       $pdata$?_Myptr@?$_String_val@U?$_Simple_types@D@std@@@std@@QEBAPEBDXZ 00000001400514b4     config.obj
 0005:000024c0       $pdata$?_Orphan_me@_Iterator_base12@std@@QEAAXXZ 00000001400514c0     config.obj
 0005:000024cc       $pdata$?_Rmost@?$_Tree_val@U?$_Tree_simple_types@U?$pair@$$CBW4Object_Type@@PEBVGameObject@@@std@@@std@@@std@@QEBAAEAPEAU?$_Tree_node@U?$pair@$$CBW4Object_Type@@PEBVGameObject@@@std@@PEAX@2@XZ 00000001400514cc     config.obj
 0005:000024d8       $pdata$?_Root@?$_Tree_val@U?$_Tree_simple_types@U?$pair@$$CBW4Object_Type@@PEBVGameObject@@@std@@@std@@@std@@QEBAAEAPEAU?$_Tree_node@U?$pair@$$CBW4Object_Type@@PEBVGameObject@@@std@@PEAX@2@XZ 00000001400514d8     config.obj
 0005:000024e4       $pdata$?_Rrotate@?$_Tree_val@U?$_Tree_simple_types@U?$pair@$$CBW4Object_Type@@PEBVGameObject@@@std@@@std@@@std@@QEAAXPEAU?$_Tree_node@U?$pair@$$CBW4Object_Type@@PEBVGameObject@@@std@@PEAX@2@@Z 00000001400514e4     config.obj
 0005:000024f0       $pdata$?_Swap_all@?$_String_alloc@U?$_String_base_types@DV?$allocator@D@std@@@std@@@std@@QEAAXAEAV12@@Z 00000001400514f0     config.obj
 0005:000024fc       $pdata$?_Swap_all@_Container_base12@std@@QEAAXAEAU12@@Z 00000001400514fc     config.obj
 0005:00002508       $pdata$?_Xran@?$_String_val@U?$_Simple_types@D@std@@@std@@SAXXZ 0000000140051508     config.obj
 0005:00002514       $pdata$?allocate@?$allocator@U?$_Tree_node@U?$pair@$$CBW4Object_Type@@PEBVGameObject@@@std@@PEAX@std@@@std@@QEAAPEAU?$_Tree_node@U?$pair@$$CBW4Object_Type@@PEBVGameObject@@@std@@PEAX@2@_K@Z 0000000140051514     config.obj
 0005:00002520       $pdata$?assign@?$basic_string@DU?$char_traits@D@std@@V?$allocator@D@2@@std@@QEAAAEAV12@AEBV12@_K_K@Z 0000000140051520     config.obj
 0005:0000252c       $pdata$?begin@?$_Tree@V?$_Tmap_traits@W4Object_Type@@PEBVGameObject@@U?$less@W4Object_Type@@@std@@V?$allocator@U?$pair@$$CBW4Object_Type@@PEBVGameObject@@@std@@@4@$0A@@std@@@std@@QEAA?AV?$_Tree_iterator@V?$_Tree_val@U?$_Tree_simple_types@U?$pair@$$CBW4Object_Type@@PEBVGameObject@@@std@@@std@@@std@@@2@XZ 000000014005152c     config.obj
 0005:00002538       $pdata$?c_str@?$basic_string@DU?$char_traits@D@std@@V?$allocator@D@2@@std@@QEBAPEBDXZ 0000000140051538     config.obj
 0005:00002544       $pdata$?deallocate@?$_Default_allocator_traits@V?$allocator@U?$_Tree_node@U?$pair@$$CBW4Object_Type@@PEBVGameObject@@@std@@PEAX@std@@@std@@@std@@SAXAEAV?$allocator@U?$_Tree_node@U?$pair@$$CBW4Object_Type@@PEBVGameObject@@@std@@PEAX@std@@@2@QEAU?$_Tree_node@U?$pair@$$CBW4Object_Type@@PEBVGameObject@@@std@@PEAX@2@_K@Z 0000000140051544     config.obj
 0005:00002550       $pdata$?deallocate@?$allocator@U?$_Tree_node@U?$pair@$$CBW4Object_Type@@PEBVGameObject@@@std@@PEAX@std@@@std@@QEAAXQEAU?$_Tree_node@U?$pair@$$CBW4Object_Type@@PEBVGameObject@@@std@@PEAX@2@_K@Z 0000000140051550     config.obj
 0005:0000255c       $pdata$?end@?$_Tree@V?$_Tmap_traits@W4Object_Type@@PEBVGameObject@@U?$less@W4Object_Type@@@std@@V?$allocator@U?$pair@$$CBW4Object_Type@@PEBVGameObject@@@std@@@4@$0A@@std@@@std@@QEAA?AV?$_Tree_iterator@V?$_Tree_val@U?$_Tree_simple_types@U?$pair@$$CBW4Object_Type@@PEBVGameObject@@@std@@@std@@@std@@@2@XZ 000000014005155c     config.obj
 0005:00002568       $pdata$?end@?$_Tree@V?$_Tmap_traits@W4Object_Type@@PEBVGameObject@@U?$less@W4Object_Type@@@std@@V?$allocator@U?$pair@$$CBW4Object_Type@@PEBVGameObject@@@std@@@4@$0A@@std@@@std@@QEBA?AV?$_Tree_const_iterator@V?$_Tree_val@U?$_Tree_simple_types@U?$pair@$$CBW4Object_Type@@PEBVGameObject@@@std@@@std@@@std@@@2@XZ 0000000140051568     config.obj
 0005:00002574       $pdata$?find@?$_Tree@V?$_Tmap_traits@W4Object_Type@@PEBVGameObject@@U?$less@W4Object_Type@@@std@@V?$allocator@U?$pair@$$CBW4Object_Type@@PEBVGameObject@@@std@@@4@$0A@@std@@@std@@QEBA?AV?$_Tree_const_iterator@V?$_Tree_val@U?$_Tree_simple_types@U?$pair@$$CBW4Object_Type@@PEBVGameObject@@@std@@@std@@@std@@@2@AEBW4Object_Type@@@Z 0000000140051574     config.obj
 0005:00002580       $pdata$?lower_bound@?$_Tree@V?$_Tmap_traits@W4Object_Type@@PEBVGameObject@@U?$less@W4Object_Type@@@std@@V?$allocator@U?$pair@$$CBW4Object_Type@@PEBVGameObject@@@std@@@4@$0A@@std@@@std@@QEAA?AV?$_Tree_iterator@V?$_Tree_val@U?$_Tree_simple_types@U?$pair@$$CBW4Object_Type@@PEBVGameObject@@@std@@@std@@@std@@@2@AEBW4Object_Type@@@Z 0000000140051580     config.obj
 0005:0000258c       $pdata$?lower_bound@?$_Tree@V?$_Tmap_traits@W4Object_Type@@PEBVGameObject@@U?$less@W4Object_Type@@@std@@V?$allocator@U?$pair@$$CBW4Object_Type@@PEBVGameObject@@@std@@@4@$0A@@std@@@std@@QEBA?AV?$_Tree_const_iterator@V?$_Tree_val@U?$_Tree_simple_types@U?$pair@$$CBW4Object_Type@@PEBVGameObject@@@std@@@std@@@std@@@2@AEBW4Object_Type@@@Z 000000014005158c     config.obj
 0005:00002598       $pdata$?max_size@?$_Default_allocator_traits@V?$allocator@U?$_Tree_node@U?$pair@$$CBW4Object_Type@@PEBVGameObject@@@std@@PEAX@std@@@std@@@std@@SA_KAEBV?$allocator@U?$_Tree_node@U?$pair@$$CBW4Object_Type@@PEBVGameObject@@@std@@PEAX@std@@@2@@Z 0000000140051598     config.obj
 0005:000025a4       $pdata$?max_size@?$_Tree@V?$_Tmap_traits@W4Object_Type@@PEBVGameObject@@U?$less@W4Object_Type@@@std@@V?$allocator@U?$pair@$$CBW4Object_Type@@PEBVGameObject@@@std@@@4@$0A@@std@@@std@@QEBA_KXZ 00000001400515a4     config.obj
 0005:000025b0       $pdata$?pointer_to@?$pointer_traits@PEAU?$pair@$$CBW4Object_Type@@PEBVGameObject@@@std@@@std@@SAPEAU?$pair@$$CBW4Object_Type@@PEBVGameObject@@@2@AEAU32@@Z 00000001400515b0     config.obj
 0005:000025bc       $pdata$?pointer_to@?$pointer_traits@PEBU?$pair@$$CBW4Object_Type@@PEBVGameObject@@@std@@@std@@SAPEBU?$pair@$$CBW4Object_Type@@PEBVGameObject@@@2@AEBU32@@Z 00000001400515bc     config.obj
 0005:000025c8       $pdata$?size@?$_Tree@V?$_Tmap_traits@W4Object_Type@@PEBVGameObject@@U?$less@W4Object_Type@@@std@@V?$allocator@U?$pair@$$CBW4Object_Type@@PEBVGameObject@@@std@@@4@$0A@@std@@@std@@QEBA_KXZ 00000001400515c8     config.obj
 0005:000025d4       $pdata$?stof@std@@YAMAEBV?$basic_string@DU?$char_traits@D@std@@V?$allocator@D@2@@1@PEA_K@Z 00000001400515d4     config.obj
 0005:000025e0       $pdata$?stoi@std@@YAHAEBV?$basic_string@DU?$char_traits@D@std@@V?$allocator@D@2@@1@PEA_KH@Z 00000001400515e0     config.obj
 0005:000025ec       $pdata$__local_stdio_printf_options 00000001400515ec     config.obj
 0005:000025f8       $pdata$_vfprintf_l         00000001400515f8     config.obj
 0005:00002604       $pdata$printf              0000000140051604     config.obj
 0005:00002610       $pdata$??0?$Container@VGameObject@@@@QEAA@AEBV?$Vector2@M@sf@@0@Z 0000000140051610     container.obj
 0005:0000261c       $pdata$??0?$Container@VWidget@@@@QEAA@AEBV?$Vector2@M@sf@@0@Z 000000014005161c     container.obj
 0005:00002628       $pdata$??1?$Container@VGameObject@@@@UEAA@XZ 0000000140051628     container.obj
 0005:00002634       $pdata$??1?$Container@VWidget@@@@UEAA@XZ 0000000140051634     container.obj
 0005:00002640       $pdata$??_G?$Container@VGameObject@@@@UEAAPEAXI@Z 0000000140051640     container.obj
 0005:0000264c       $pdata$??_G?$Container@VWidget@@@@UEAAPEAXI@Z 000000014005164c     container.obj
 0005:00002658       $pdata$?AddWidget@?$Container@VGameObject@@@@QEAAXPEAVGameObject@@@Z 0000000140051658     container.obj
 0005:00002664       $pdata$?AddWidget@?$Container@VWidget@@@@QEAAXPEAVWidget@@@Z 0000000140051664     container.obj
 0005:00002670       $pdata$?Draw@?$Container@VGameObject@@@@UEAAXPEAVRenderWindow@sf@@@Z 0000000140051670     container.obj
 0005:0000267c       $pdata$?Draw@?$Container@VWidget@@@@UEAAXPEAVRenderWindow@sf@@@Z 000000014005167c     container.obj
 0005:00002688       $pdata$?GetWidget@?$Container@VGameObject@@@@QEBAPEAVGameObject@@_K@Z 0000000140051688     container.obj
 0005:00002694       $pdata$?GetWidget@?$Container@VWidget@@@@QEBAPEAVWidget@@_K@Z 0000000140051694     container.obj
 0005:000026a0       $pdata$?GetWidgetsCount@?$Container@VGameObject@@@@QEBA_KXZ 00000001400516a0     container.obj
 0005:000026ac       $pdata$?GetWidgetsCount@?$Container@VWidget@@@@QEBA_KXZ 00000001400516ac     container.obj
 0005:000026b8       $pdata$?HandleEvent@?$Container@VGameObject@@@@UEAAXAEBVEvent@sf@@@Z 00000001400516b8     container.obj
 0005:000026c4       $pdata$?HandleEvent@?$Container@VWidget@@@@UEAAXAEBVEvent@sf@@@Z 00000001400516c4     container.obj
 0005:000026d0       $pdata$?RemoveWidget@?$Container@VGameObject@@@@QEAA_NPEAVGameObject@@@Z 00000001400516d0     container.obj
 0005:000026dc       $pdata$?RemoveWidget@?$Container@VWidget@@@@QEAA_NPEAVWidget@@@Z 00000001400516dc     container.obj
 0005:000026e8       $pdata$?SetPos@?$Container@VGameObject@@@@UEAAXAEBV?$Vector2@M@sf@@@Z 00000001400516e8     container.obj
 0005:000026f4       $pdata$?SetPos@?$Container@VWidget@@@@UEAAXAEBV?$Vector2@M@sf@@@Z 00000001400516f4     container.obj
 0005:00002700       $pdata$?Update@?$Container@VGameObject@@@@UEAAXAEBVTime@sf@@@Z 0000000140051700     container.obj
 0005:0000270c       $pdata$?Update@?$Container@VWidget@@@@UEAAXAEBVTime@sf@@@Z 000000014005170c     container.obj
 0005:00002718       $pdata$??$?0$$V@?$_Compressed_pair@V?$allocator@PEAV?$Container@VWidget@@@@@std@@V?$_Vector_val@U?$_Simple_types@PEAV?$Container@VWidget@@@@@std@@@2@$00@std@@QEAA@U_Zero_then_variadic_args_t@1@@Z 0000000140051718     engine.obj
 0005:00002724       $pdata$??$?0$$V@?$_Compressed_pair@V?$allocator@U?$_Tree_node@U?$pair@$$CBW4Object_Type@@PEBVGameObject@@@std@@PEAX@std@@@std@@V?$_Tree_val@U?$_Tree_simple_types@U?$pair@$$CBW4Object_Type@@PEBVGameObject@@@std@@@std@@@2@$00@std@@QEAA@U_Zero_then_variadic_args_t@1@@Z 0000000140051724     engine.obj
 0005:00002730       $pdata$??$?0AEBU?$less@W4Object_Type@@@std@@U_Zero_then_variadic_args_t@1@@?$_Compressed_pair@U?$less@W4Object_Type@@@std@@V?$_Compressed_pair@V?$allocator@U?$_Tree_node@U?$pair@$$CBW4Object_Type@@PEBVGameObject@@@std@@PEAX@std@@@std@@V?$_Tree_val@U?$_Tree_simple_types@U?$pair@$$CBW4Object_Type@@PEBVGameObject@@@std@@@std@@@2@$00@2@$00@std@@QEAA@U_One_then_variadic_args_t@1@AEBU?$less@W4Object_Type@@@1@$$QEAU_Zero_then_variadic_args_t@1@@Z 0000000140051730     engine.obj
 0005:0000273c       $pdata$??$?0PEAV?$Container@VWidget@@@@@?$allocator@U_Container_proxy@std@@@std@@QEAA@AEBV?$allocator@PEAV?$Container@VWidget@@@@@1@@Z 000000014005173c     engine.obj
 0005:00002748       $pdata$??$?0U?$_Tree_node@U?$pair@$$CBW4Object_Type@@PEBVGameObject@@@std@@PEAX@std@@@?$allocator@U_Container_proxy@std@@@std@@QEAA@AEBV?$allocator@U?$_Tree_node@U?$pair@$$CBW4Object_Type@@PEBVGameObject@@@std@@PEAX@std@@@1@@Z 0000000140051748     engine.obj
 0005:00002754       $pdata$??$_Copy_memmove@PEAPEAV?$Container@VWidget@@@@PEAPEAV1@@std@@YAPEAPEAV?$Container@VWidget@@@@PEAPEAV1@00@Z 0000000140051754     engine.obj
 0005:00002760       $pdata$??$_Destroy_range1@V?$allocator@PEAV?$Container@VWidget@@@@@std@@@std@@YAXPEAPEAV?$Container@VWidget@@@@0AEAV?$allocator@PEAV?$Container@VWidget@@@@@0@U?$integral_constant@_N$00@0@@Z 0000000140051760     engine.obj
 0005:0000276c       $pdata$??$_Destroy_range@V?$allocator@PEAV?$Container@VWidget@@@@@std@@@std@@YAXPEAPEAV?$Container@VWidget@@@@0AEAV?$allocator@PEAV?$Container@VWidget@@@@@0@@Z 000000014005176c     engine.obj
 0005:00002778       $pdata$??$_Emplace_back_with_unused_capacity@AEBQEAV?$Container@VWidget@@@@@?$vector@PEAV?$Container@VWidget@@@@V?$allocator@PEAV?$Container@VWidget@@@@@std@@@std@@AEAA@AEBQEAV?$Container@VWidget@@@@@Z 0000000140051778     engine.obj
 0005:00002784       $pdata$??$_Emplace_reallocate@AEBQEAV?$Container@VWidget@@@@@?$vector@PEAV?$Container@VWidget@@@@V?$allocator@PEAV?$Container@VWidget@@@@@std@@@std@@QEAAPEAPEAV?$Container@VWidget@@@@QEAPEAV2@AEBQEAV2@@Z 0000000140051784     engine.obj
 0005:00002790       $pdata$??$_Get_size_of_n@$07@std@@YA_K_K@Z 0000000140051790     engine.obj
 0005:0000279c       $pdata$??$_Ptr_move_cat@PEAV?$Container@VWidget@@@@PEAV1@@std@@YA?AU_Really_trivial_ptr_iterator_tag@0@AEBQEAPEAV?$Container@VWidget@@@@0@Z 000000014005179c     engine.obj
 0005:000027a8       $pdata$??$_Rechecked@PEAPEAV?$Container@VWidget@@@@PEAPEAV1@@std@@YAAEAPEAPEAV?$Container@VWidget@@@@AEAPEAPEAV1@QEAPEAV1@@Z 00000001400517a8     engine.obj
 0005:000027b4       $pdata$??$_Unchecked@PEAPEAV?$Container@VWidget@@@@@std@@YAPEAPEAV?$Container@VWidget@@@@PEAPEAV1@@Z 00000001400517b4     engine.obj
 0005:000027c0       $pdata$??$_Unfancy@PEAV?$Container@VWidget@@@@@std@@YAPEAPEAV?$Container@VWidget@@@@PEAPEAV1@@Z 00000001400517c0     engine.obj
 0005:000027cc       $pdata$??$_Uninitialized_move@PEAPEAV?$Container@VWidget@@@@PEAPEAV1@V?$allocator@PEAV?$Container@VWidget@@@@@std@@@std@@YAPEAPEAV?$Container@VWidget@@@@QEAPEAV1@0PEAPEAV1@AEAV?$allocator@PEAV?$Container@VWidget@@@@@0@@Z 00000001400517cc     engine.obj
 0005:000027d8       $pdata$??$_Uninitialized_move_al_unchecked@PEAV?$Container@VWidget@@@@PEAV1@V?$allocator@PEAV?$Container@VWidget@@@@@std@@@std@@YAPEAPEAV?$Container@VWidget@@@@QEAPEAV1@00AEAV?$allocator@PEAV?$Container@VWidget@@@@@0@U_Really_trivial_ptr_iterator_tag@0@U?$integral_constant@_N$00@0@@Z 00000001400517d8     engine.obj
 0005:000027e4       $pdata$??$addressof@V?$_Vector_val@U?$_Simple_types@PEAV?$Container@VWidget@@@@@std@@@std@@@std@@YAPEAV?$_Vector_val@U?$_Simple_types@PEAV?$Container@VWidget@@@@@std@@@0@AEAV10@@Z 00000001400517e4     engine.obj
 0005:000027f0       $pdata$??$construct@PEAV?$Container@VWidget@@@@AEBQEAV1@@?$_Default_allocator_traits@V?$allocator@PEAV?$Container@VWidget@@@@@std@@@std@@SAXAEAV?$allocator@PEAV?$Container@VWidget@@@@@1@QEAPEAV?$Container@VWidget@@@@AEBQEAV3@@Z 00000001400517f0     engine.obj
 0005:000027fc       $pdata$??$emplace_back@AEBQEAV?$Container@VWidget@@@@@?$vector@PEAV?$Container@VWidget@@@@V?$allocator@PEAV?$Container@VWidget@@@@@std@@@std@@QEAA@AEBQEAV?$Container@VWidget@@@@@Z 00000001400517fc     engine.obj
 0005:00002808       $pdata$??$forward@AEBQEAV?$Container@VWidget@@@@@std@@YAAEBQEAV?$Container@VWidget@@@@AEBQEAV1@@Z 0000000140051808     engine.obj
 0005:00002814       $pdata$??$forward@AEBU?$less@W4Object_Type@@@std@@@std@@YAAEBU?$less@W4Object_Type@@@0@AEBU10@@Z 0000000140051814     engine.obj
 0005:00002820       $pdata$??$forward@U_Zero_then_variadic_args_t@std@@@std@@YA$$QEAU_Zero_then_variadic_args_t@0@AEAU10@@Z 0000000140051820     engine.obj
 0005:0000282c       $pdata$??$move@AEAD@std@@YA$$QEADAEAD@Z 000000014005182c     engine.obj
 0005:00002838       $pdata$??$swap@DX@std@@YAXAEAD0@Z 0000000140051838     engine.obj
 0005:00002844       $pdata$??0?$_Tree@V?$_Tmap_traits@W4Object_Type@@PEBVGameObject@@U?$less@W4Object_Type@@@std@@V?$allocator@U?$pair@$$CBW4Object_Type@@PEBVGameObject@@@std@@@4@$0A@@std@@@std@@QEAA@AEBU?$less@W4Object_Type@@@1@@Z 0000000140051844     engine.obj
 0005:00002850       $pdata$??0?$_Tree_comp_alloc@V?$_Tmap_traits@W4Object_Type@@PEBVGameObject@@U?$less@W4Object_Type@@@std@@V?$allocator@U?$pair@$$CBW4Object_Type@@PEBVGameObject@@@std@@@4@$0A@@std@@@std@@QEAA@AEBU?$less@W4Object_Type@@@1@@Z 0000000140051850     engine.obj
 0005:0000285c       $pdata$??0?$_Tree_val@U?$_Tree_simple_types@U?$pair@$$CBW4Object_Type@@PEBVGameObject@@@std@@@std@@@std@@QEAA@XZ 000000014005185c     engine.obj
 0005:00002868       $pdata$??0?$_Vector_alloc@U?$_Vec_base_types@PEAV?$Container@VWidget@@@@V?$allocator@PEAV?$Container@VWidget@@@@@std@@@std@@@std@@QEAA@XZ 0000000140051868     engine.obj
 0005:00002874       $pdata$??0?$_Vector_val@U?$_Simple_types@PEAV?$Container@VWidget@@@@@std@@@std@@QEAA@XZ 0000000140051874     engine.obj
 0005:00002880       $pdata$??0?$allocator@PEAV?$Container@VWidget@@@@@std@@QEAA@XZ 0000000140051880     engine.obj
 0005:0000288c       $pdata$??0?$allocator@U?$_Tree_node@U?$pair@$$CBW4Object_Type@@PEBVGameObject@@@std@@PEAX@std@@@std@@QEAA@XZ 000000014005188c     engine.obj
 0005:00002898       $pdata$??0?$map@W4Object_Type@@PEBVGameObject@@U?$less@W4Object_Type@@@std@@V?$allocator@U?$pair@$$CBW4Object_Type@@PEBVGameObject@@@std@@@4@@std@@QEAA@XZ 0000000140051898     engine.obj
 0005:000028a4       $pdata$??0?$vector@PEAV?$Container@VWidget@@@@V?$allocator@PEAV?$Container@VWidget@@@@@std@@@std@@QEAA@XZ 00000001400518a4     engine.obj
 0005:000028b0       $pdata$??0ConfigManager@@QEAA@XZ 00000001400518b0     engine.obj
 0005:000028bc       $pdata$??0ContextSettings@sf@@QEAA@IIIIII_N@Z 00000001400518bc     engine.obj
 0005:000028c8       $pdata$??0Engine@@QEAA@XZ  00000001400518c8     engine.obj
 0005:000028d4       $pdata$??0locale@std@@QEAA@XZ 00000001400518d4     engine.obj
 0005:000028e0       $pdata$??1?$_Tree@V?$_Tmap_traits@W4Object_Type@@PEBVGameObject@@U?$less@W4Object_Type@@@std@@V?$allocator@U?$pair@$$CBW4Object_Type@@PEBVGameObject@@@std@@@4@$0A@@std@@@std@@QEAA@XZ 00000001400518e0     engine.obj
 0005:000028ec       $pdata$??1?$_Tree_comp_alloc@V?$_Tmap_traits@W4Object_Type@@PEBVGameObject@@U?$less@W4Object_Type@@@std@@V?$allocator@U?$pair@$$CBW4Object_Type@@PEBVGameObject@@@std@@@4@$0A@@std@@@std@@QEAA@XZ 00000001400518ec     engine.obj
 0005:000028f8       $pdata$??1?$_Vector_alloc@U?$_Vec_base_types@PEAV?$Container@VWidget@@@@V?$allocator@PEAV?$Container@VWidget@@@@@std@@@std@@@std@@QEAA@XZ 00000001400518f8     engine.obj
 0005:00002904       $pdata$??1?$map@W4Object_Type@@PEBVGameObject@@U?$less@W4Object_Type@@@std@@V?$allocator@U?$pair@$$CBW4Object_Type@@PEBVGameObject@@@std@@@4@@std@@QEAA@XZ 0000000140051904     engine.obj
 0005:00002910       $pdata$??1?$vector@PEAV?$Container@VWidget@@@@V?$allocator@PEAV?$Container@VWidget@@@@@std@@@std@@QEAA@XZ 0000000140051910     engine.obj
 0005:0000291c       $pdata$??1ConfigManager@@QEAA@XZ 000000014005191c     engine.obj
 0005:00002928       $pdata$??1Engine@@QEAA@XZ  0000000140051928     engine.obj
 0005:00002934       $pdata$??1locale@std@@QEAA@XZ 0000000140051934     engine.obj
 0005:00002940       $pdata$??9?$_Tree_const_iterator@V?$_Tree_val@U?$_Tree_simple_types@U?$pair@$$CBW4Object_Type@@PEBVGameObject@@@std@@@std@@@std@@@std@@QEBA_NAEBV01@@Z 0000000140051940     engine.obj
 0005:0000294c       $pdata$??A?$vector@PEAV?$Container@VWidget@@@@V?$allocator@PEAV?$Container@VWidget@@@@@std@@@std@@QEAAAEAPEAV?$Container@VWidget@@@@_K@Z 000000014005194c     engine.obj
 0005:00002958       $pdata$??E?$_Tree_const_iterator@V?$_Tree_val@U?$_Tree_simple_types@U?$pair@$$CBW4Object_Type@@PEBVGameObject@@@std@@@std@@@std@@@std@@QEAA?AV01@H@Z 0000000140051958     engine.obj
 0005:00002964       $pdata$??_GRenderWindow@sf@@UEAAPEAXI@Z 0000000140051964     engine.obj
 0005:00002970       $pdata$?Draw@Engine@@QEAAXXZ 0000000140051970     engine.obj
 0005:0000297c       $pdata$?Execute@Engine@@QEAAXXZ 000000014005197c     engine.obj
 0005:00002988       $pdata$?GetConfigManager@Engine@@QEAAPEAVConfigManager@@XZ 0000000140051988     engine.obj
 0005:00002994       $pdata$?GetSize@Engine@@QEBA?AV?$Vector2@M@sf@@XZ 0000000140051994     engine.obj
 0005:000029a0       $pdata$?HandleEvents@Engine@@QEAAXXZ 00000001400519a0     engine.obj
 0005:000029ac       $pdata$?SetSize@Engine@@QEAAXAEBV?$Vector2@M@sf@@@Z 00000001400519ac     engine.obj
 0005:000029b8       $pdata$?Update@Engine@@QEAAXAEBVTime@sf@@@Z 00000001400519b8     engine.obj
 0005:000029c4       $pdata$?_Alloc_proxy@?$_Tree_comp_alloc@V?$_Tmap_traits@W4Object_Type@@PEBVGameObject@@U?$less@W4Object_Type@@@std@@V?$allocator@U?$pair@$$CBW4Object_Type@@PEBVGameObject@@@std@@@4@$0A@@std@@@std@@QEAAXXZ 00000001400519c4     engine.obj
 0005:000029d0       $pdata$?_Alloc_proxy@?$_Vector_alloc@U?$_Vec_base_types@PEAV?$Container@VWidget@@@@V?$allocator@PEAV?$Container@VWidget@@@@@std@@@std@@@std@@QEAAXXZ 00000001400519d0     engine.obj
 0005:000029dc       $pdata$?_Buyheadnode@?$_Tree_comp_alloc@V?$_Tmap_traits@W4Object_Type@@PEBVGameObject@@U?$less@W4Object_Type@@@std@@V?$allocator@U?$pair@$$CBW4Object_Type@@PEBVGameObject@@@std@@@4@$0A@@std@@@std@@QEAAPEAU?$_Tree_node@U?$pair@$$CBW4Object_Type@@PEBVGameObject@@@std@@PEAX@2@XZ 00000001400519dc     engine.obj
 0005:000029e8       $pdata$?_Calculate_growth@?$vector@PEAV?$Container@VWidget@@@@V?$allocator@PEAV?$Container@VWidget@@@@@std@@@std@@AEBA_K_K@Z 00000001400519e8     engine.obj
 0005:000029f4       $pdata$?_Change_array@?$vector@PEAV?$Container@VWidget@@@@V?$allocator@PEAV?$Container@VWidget@@@@@std@@@std@@AEAAXQEAPEAV?$Container@VWidget@@@@_K1@Z 00000001400519f4     engine.obj
 0005:00002a00       $pdata$?_Clrcont@_Iterator_base12@std@@QEAAXXZ 0000000140051a00     engine.obj
 0005:00002a0c       $pdata$?_Construct@?$_Tree_comp_alloc@V?$_Tmap_traits@W4Object_Type@@PEBVGameObject@@U?$less@W4Object_Type@@@std@@V?$allocator@U?$pair@$$CBW4Object_Type@@PEBVGameObject@@@std@@@4@$0A@@std@@@std@@QEAAXXZ 0000000140051a0c     engine.obj
 0005:00002a18       $pdata$?_Destroy@?$vector@PEAV?$Container@VWidget@@@@V?$allocator@PEAV?$Container@VWidget@@@@@std@@@std@@AEAAXPEAPEAV?$Container@VWidget@@@@0@Z 0000000140051a18     engine.obj
 0005:00002a24       $pdata$?_Erase@?$_Tree@V?$_Tmap_traits@W4Object_Type@@PEBVGameObject@@U?$less@W4Object_Type@@@std@@V?$allocator@U?$pair@$$CBW4Object_Type@@PEBVGameObject@@@std@@@4@$0A@@std@@@std@@IEAAXPEAU?$_Tree_node@U?$pair@$$CBW4Object_Type@@PEBVGameObject@@@std@@PEAX@2@@Z 0000000140051a24     engine.obj
 0005:00002a30       $pdata$?_Extract@?$_Tree_val@U?$_Tree_simple_types@U?$pair@$$CBW4Object_Type@@PEBVGameObject@@@std@@@std@@@std@@QEAAPEAU?$_Tree_node@U?$pair@$$CBW4Object_Type@@PEBVGameObject@@@std@@PEAX@2@V?$_Tree_const_iterator@V?$_Tree_val@U?$_Tree_simple_types@U?$pair@$$CBW4Object_Type@@PEBVGameObject@@@std@@@std@@@std@@@2@@Z 0000000140051a30     engine.obj
 0005:00002a3c       $pdata$?_Free_proxy@?$_Tree_comp_alloc@V?$_Tmap_traits@W4Object_Type@@PEBVGameObject@@U?$less@W4Object_Type@@@std@@V?$allocator@U?$pair@$$CBW4Object_Type@@PEBVGameObject@@@std@@@4@$0A@@std@@@std@@QEAAXXZ 0000000140051a3c     engine.obj
 0005:00002a48       $pdata$?_Free_proxy@?$_Vector_alloc@U?$_Vec_base_types@PEAV?$Container@VWidget@@@@V?$allocator@PEAV?$Container@VWidget@@@@@std@@@std@@@std@@QEAAXXZ 0000000140051a48     engine.obj
 0005:00002a54       $pdata$?_Freeheadnode@?$_Tree_comp_alloc@V?$_Tmap_traits@W4Object_Type@@PEBVGameObject@@U?$less@W4Object_Type@@@std@@V?$allocator@U?$pair@$$CBW4Object_Type@@PEBVGameObject@@@std@@@4@$0A@@std@@@std@@QEAAXPEAU?$_Tree_node@U?$pair@$$CBW4Object_Type@@PEBVGameObject@@@std@@PEAX@2@@Z 0000000140051a54     engine.obj
 0005:00002a60       $pdata$?_Get_data@?$_Vector_alloc@U?$_Vec_base_types@PEAV?$Container@VWidget@@@@V?$allocator@PEAV?$Container@VWidget@@@@@std@@@std@@@std@@QEAAAEAV?$_Vector_val@U?$_Simple_types@PEAV?$Container@VWidget@@@@@std@@@2@XZ 0000000140051a60     engine.obj
 0005:00002a6c       $pdata$?_Get_data@?$_Vector_alloc@U?$_Vec_base_types@PEAV?$Container@VWidget@@@@V?$allocator@PEAV?$Container@VWidget@@@@@std@@@std@@@std@@QEBAAEBV?$_Vector_val@U?$_Simple_types@PEAV?$Container@VWidget@@@@@std@@@2@XZ 0000000140051a6c     engine.obj
 0005:00002a78       $pdata$?_Get_first@?$_Compressed_pair@V?$allocator@PEAV?$Container@VWidget@@@@@std@@V?$_Vector_val@U?$_Simple_types@PEAV?$Container@VWidget@@@@@std@@@2@$00@std@@QEAAAEAV?$allocator@PEAV?$Container@VWidget@@@@@2@XZ 0000000140051a78     engine.obj
 0005:00002a84       $pdata$?_Get_first@?$_Compressed_pair@V?$allocator@PEAV?$Container@VWidget@@@@@std@@V?$_Vector_val@U?$_Simple_types@PEAV?$Container@VWidget@@@@@std@@@2@$00@std@@QEBAAEBV?$allocator@PEAV?$Container@VWidget@@@@@2@XZ 0000000140051a84     engine.obj
 0005:00002a90       $pdata$?_Get_second@?$_Compressed_pair@V?$allocator@PEAV?$Container@VWidget@@@@@std@@V?$_Vector_val@U?$_Simple_types@PEAV?$Container@VWidget@@@@@std@@@2@$00@std@@QEAAAEAV?$_Vector_val@U?$_Simple_types@PEAV?$Container@VWidget@@@@@std@@@2@XZ 0000000140051a90     engine.obj
 0005:00002a9c       $pdata$?_Get_second@?$_Compressed_pair@V?$allocator@PEAV?$Container@VWidget@@@@@std@@V?$_Vector_val@U?$_Simple_types@PEAV?$Container@VWidget@@@@@std@@@2@$00@std@@QEBAAEBV?$_Vector_val@U?$_Simple_types@PEAV?$Container@VWidget@@@@@std@@@2@XZ 0000000140051a9c     engine.obj
 0005:00002aa8       $pdata$?_Getal@?$_Vector_alloc@U?$_Vec_base_types@PEAV?$Container@VWidget@@@@V?$allocator@PEAV?$Container@VWidget@@@@@std@@@std@@@std@@QEAAAEAV?$allocator@PEAV?$Container@VWidget@@@@@2@XZ 0000000140051aa8     engine.obj
 0005:00002ab4       $pdata$?_Getal@?$_Vector_alloc@U?$_Vec_base_types@PEAV?$Container@VWidget@@@@V?$allocator@PEAV?$Container@VWidget@@@@@std@@@std@@@std@@QEBAAEBV?$allocator@PEAV?$Container@VWidget@@@@@2@XZ 0000000140051ab4     engine.obj
 0005:00002ac0       $pdata$?_Getpfirst@?$_Tree_comp_alloc@V?$_Tmap_traits@W4Object_Type@@PEBVGameObject@@U?$less@W4Object_Type@@@std@@V?$allocator@U?$pair@$$CBW4Object_Type@@PEBVGameObject@@@std@@@4@$0A@@std@@@std@@QEBAPEAPEAU_Iterator_base12@2@XZ 0000000140051ac0     engine.obj
 0005:00002acc       $pdata$?_Getpfirst@?$_Vector_alloc@U?$_Vec_base_types@PEAV?$Container@VWidget@@@@V?$allocator@PEAV?$Container@VWidget@@@@@std@@@std@@@std@@QEBAPEAPEAU_Iterator_base12@2@XZ 0000000140051acc     engine.obj
 0005:00002ad8       $pdata$?_Getpfirst@_Container_base12@std@@QEBAPEAPEAU_Iterator_base12@2@XZ 0000000140051ad8     engine.obj
 0005:00002ae4       $pdata$?_Getpnext@_Iterator_base12@std@@QEAAPEAPEAU12@XZ 0000000140051ae4     engine.obj
 0005:00002af0       $pdata$?_Has_unused_capacity@?$vector@PEAV?$Container@VWidget@@@@V?$allocator@PEAV?$Container@VWidget@@@@@std@@@std@@AEBA_NXZ 0000000140051af0     engine.obj
 0005:00002afc       $pdata$?_Myend@?$_Vector_alloc@U?$_Vec_base_types@PEAV?$Container@VWidget@@@@V?$allocator@PEAV?$Container@VWidget@@@@@std@@@std@@@std@@QEAAAEAPEAPEAV?$Container@VWidget@@@@XZ 0000000140051afc     engine.obj
 0005:00002b08       $pdata$?_Myend@?$_Vector_alloc@U?$_Vec_base_types@PEAV?$Container@VWidget@@@@V?$allocator@PEAV?$Container@VWidget@@@@@std@@@std@@@std@@QEBAAEBQEAPEAV?$Container@VWidget@@@@XZ 0000000140051b08     engine.obj
 0005:00002b14       $pdata$?_Myfirst@?$_Vector_alloc@U?$_Vec_base_types@PEAV?$Container@VWidget@@@@V?$allocator@PEAV?$Container@VWidget@@@@@std@@@std@@@std@@QEAAAEAPEAPEAV?$Container@VWidget@@@@XZ 0000000140051b14     engine.obj
 0005:00002b20       $pdata$?_Myfirst@?$_Vector_alloc@U?$_Vec_base_types@PEAV?$Container@VWidget@@@@V?$allocator@PEAV?$Container@VWidget@@@@@std@@@std@@@std@@QEBAAEBQEAPEAV?$Container@VWidget@@@@XZ 0000000140051b20     engine.obj
 0005:00002b2c       $pdata$?_Mylast@?$_Vector_alloc@U?$_Vec_base_types@PEAV?$Container@VWidget@@@@V?$allocator@PEAV?$Container@VWidget@@@@@std@@@std@@@std@@QEAAAEAPEAPEAV?$Container@VWidget@@@@XZ 0000000140051b2c     engine.obj
 0005:00002b38       $pdata$?_Mylast@?$_Vector_alloc@U?$_Vec_base_types@PEAV?$Container@VWidget@@@@V?$allocator@PEAV?$Container@VWidget@@@@@std@@@std@@@std@@QEBAAEBQEAPEAV?$Container@VWidget@@@@XZ 0000000140051b38     engine.obj
 0005:00002b44       $pdata$?_Myproxy@?$_Tree_comp_alloc@V?$_Tmap_traits@W4Object_Type@@PEBVGameObject@@U?$less@W4Object_Type@@@std@@V?$allocator@U?$pair@$$CBW4Object_Type@@PEBVGameObject@@@std@@@4@$0A@@std@@@std@@QEAAAEAPEAU_Container_proxy@2@XZ 0000000140051b44     engine.obj
 0005:00002b50       $pdata$?_Myproxy@?$_Vector_alloc@U?$_Vec_base_types@PEAV?$Container@VWidget@@@@V?$allocator@PEAV?$Container@VWidget@@@@@std@@@std@@@std@@QEAAAEAPEAU_Container_proxy@2@XZ 0000000140051b50     engine.obj
 0005:00002b5c       $pdata$?_Orphan_all@?$_Tree_comp_alloc@V?$_Tmap_traits@W4Object_Type@@PEBVGameObject@@U?$less@W4Object_Type@@@std@@V?$allocator@U?$pair@$$CBW4Object_Type@@PEBVGameObject@@@std@@@4@$0A@@std@@@std@@QEAAXXZ 0000000140051b5c     engine.obj
 0005:00002b68       $pdata$?_Orphan_all@?$_Vector_alloc@U?$_Vec_base_types@PEAV?$Container@VWidget@@@@V?$allocator@PEAV?$Container@VWidget@@@@@std@@@std@@@std@@QEAAXXZ 0000000140051b68     engine.obj
 0005:00002b74       $pdata$?_Orphan_ptr@?$_Tree@V?$_Tmap_traits@W4Object_Type@@PEBVGameObject@@U?$less@W4Object_Type@@@std@@V?$allocator@U?$pair@$$CBW4Object_Type@@PEBVGameObject@@@std@@@4@$0A@@std@@@std@@IEAAXPEAU?$_Tree_node@U?$pair@$$CBW4Object_Type@@PEBVGameObject@@@std@@PEAX@2@@Z 0000000140051b74     engine.obj
 0005:00002b80       $pdata$?_Orphan_range@?$vector@PEAV?$Container@VWidget@@@@V?$allocator@PEAV?$Container@VWidget@@@@@std@@@std@@AEBAXPEAPEAV?$Container@VWidget@@@@0@Z 0000000140051b80     engine.obj
 0005:00002b8c       $pdata$?_Tidy@?$_Tree@V?$_Tmap_traits@W4Object_Type@@PEBVGameObject@@U?$less@W4Object_Type@@@std@@V?$allocator@U?$pair@$$CBW4Object_Type@@PEBVGameObject@@@std@@@4@$0A@@std@@@std@@IEAAXXZ 0000000140051b8c     engine.obj
 0005:00002b98       $pdata$?_Tidy@?$vector@PEAV?$Container@VWidget@@@@V?$allocator@PEAV?$Container@VWidget@@@@@std@@@std@@AEAAXXZ 0000000140051b98     engine.obj
 0005:00002ba4       $pdata$?_Umove@?$vector@PEAV?$Container@VWidget@@@@V?$allocator@PEAV?$Container@VWidget@@@@@std@@@std@@AEAAPEAPEAV?$Container@VWidget@@@@PEAPEAV3@00@Z 0000000140051ba4     engine.obj
 0005:00002bb0       $pdata$?_Umove_if_noexcept1@?$vector@PEAV?$Container@VWidget@@@@V?$allocator@PEAV?$Container@VWidget@@@@@std@@@std@@AEAAXPEAPEAV?$Container@VWidget@@@@00U?$integral_constant@_N$00@2@@Z 0000000140051bb0     engine.obj
 0005:00002bbc       $pdata$?_Umove_if_noexcept@?$vector@PEAV?$Container@VWidget@@@@V?$allocator@PEAV?$Container@VWidget@@@@@std@@@std@@AEAAXPEAPEAV?$Container@VWidget@@@@00@Z 0000000140051bbc     engine.obj
 0005:00002bc8       $pdata$?_Xlength@?$vector@PEAV?$Container@VWidget@@@@V?$allocator@PEAV?$Container@VWidget@@@@@std@@@std@@CAXXZ 0000000140051bc8     engine.obj
 0005:00002bd4       $pdata$?allocate@?$allocator@PEAV?$Container@VWidget@@@@@std@@QEAAPEAPEAV?$Container@VWidget@@@@_K@Z 0000000140051bd4     engine.obj
 0005:00002be0       $pdata$?capacity@?$vector@PEAV?$Container@VWidget@@@@V?$allocator@PEAV?$Container@VWidget@@@@@std@@@std@@QEBA_KXZ 0000000140051be0     engine.obj
 0005:00002bec       $pdata$?clear@?$_Tree@V?$_Tmap_traits@W4Object_Type@@PEBVGameObject@@U?$less@W4Object_Type@@@std@@V?$allocator@U?$pair@$$CBW4Object_Type@@PEBVGameObject@@@std@@@4@$0A@@std@@@std@@QEAAXXZ 0000000140051bec     engine.obj
 0005:00002bf8       $pdata$?deallocate@?$allocator@PEAV?$Container@VWidget@@@@@std@@QEAAXQEAPEAV?$Container@VWidget@@@@_K@Z 0000000140051bf8     engine.obj
 0005:00002c04       $pdata$?erase@?$_Tree@V?$_Tmap_traits@W4Object_Type@@PEBVGameObject@@U?$less@W4Object_Type@@@std@@V?$allocator@U?$pair@$$CBW4Object_Type@@PEBVGameObject@@@std@@@4@$0A@@std@@@std@@QEAA?AV?$_Tree_iterator@V?$_Tree_val@U?$_Tree_simple_types@U?$pair@$$CBW4Object_Type@@PEBVGameObject@@@std@@@std@@@std@@@2@V?$_Tree_const_iterator@V?$_Tree_val@U?$_Tree_simple_types@U?$pair@$$CBW4Object_Type@@PEBVGameObject@@@std@@@std@@@std@@@2@0@Z 0000000140051c04     engine.obj
 0005:00002c10       $pdata$?erase@?$_Tree@V?$_Tmap_traits@W4Object_Type@@PEBVGameObject@@U?$less@W4Object_Type@@@std@@V?$allocator@U?$pair@$$CBW4Object_Type@@PEBVGameObject@@@std@@@4@$0A@@std@@@std@@QEAA?AV?$_Tree_iterator@V?$_Tree_val@U?$_Tree_simple_types@U?$pair@$$CBW4Object_Type@@PEBVGameObject@@@std@@@std@@@std@@@2@V?$_Tree_const_iterator@V?$_Tree_val@U?$_Tree_simple_types@U?$pair@$$CBW4Object_Type@@PEBVGameObject@@@std@@@std@@@std@@@2@@Z 0000000140051c10     engine.obj
 0005:00002c1c       $pdata$?max_size@?$_Default_allocator_traits@V?$allocator@PEAV?$Container@VWidget@@@@@std@@@std@@SA_KAEBV?$allocator@PEAV?$Container@VWidget@@@@@2@@Z 0000000140051c1c     engine.obj
 0005:00002c28       $pdata$?max_size@?$vector@PEAV?$Container@VWidget@@@@V?$allocator@PEAV?$Container@VWidget@@@@@std@@@std@@QEBA_KXZ 0000000140051c28     engine.obj
 0005:00002c34       $pdata$?push_back@?$vector@PEAV?$Container@VWidget@@@@V?$allocator@PEAV?$Container@VWidget@@@@@std@@@std@@QEAAXAEBQEAV?$Container@VWidget@@@@@Z 0000000140051c34     engine.obj
 0005:00002c40       $pdata$?size@?$vector@PEAV?$Container@VWidget@@@@V?$allocator@PEAV?$Container@VWidget@@@@@std@@@std@@QEBA_KXZ 0000000140051c40     engine.obj
 0005:00002c4c       $pdata$WinMain             0000000140051c4c     main.obj
 0005:00002c58       $pdata$??0?$ContainerMoving@VWidget@@@@QEAA@AEBV?$Vector2@M@sf@@0@Z 0000000140051c58     container-moving.obj
 0005:00002c64       $pdata$??0?$Vector2@M@sf@@QEAA@XZ 0000000140051c64     container-moving.obj
 0005:00002c70       $pdata$??1?$ContainerMoving@VWidget@@@@UEAA@XZ 0000000140051c70     container-moving.obj
 0005:00002c7c       $pdata$??_G?$ContainerMoving@VWidget@@@@UEAAPEAXI@Z 0000000140051c7c     container-moving.obj
 0005:00002c88       $pdata$?HandleEvent@?$ContainerMoving@VWidget@@@@UEAAXAEBVEvent@sf@@@Z 0000000140051c88     container-moving.obj
 0005:00002c94       $pdata$?SetMoveBeginListener@?$ContainerMoving@VWidget@@@@QEAAXP6APEAVWidget@@PEAV2@@Z@Z 0000000140051c94     container-moving.obj
 0005:00002ca0       $pdata$?SetMoveEndListener@?$ContainerMoving@VWidget@@@@QEAAXP6AXPEAVWidget@@@Z@Z 0000000140051ca0     container-moving.obj
 0005:00002cac       $pdata$?SetMovingListener@?$ContainerMoving@VWidget@@@@QEAAXP6AXPEAVWidget@@@Z@Z 0000000140051cac     container-moving.obj
 0005:00002cb8       $pdata$??0?$basic_string@DU?$char_traits@D@std@@V?$allocator@D@2@@std@@QEAA@XZ 0000000140051cb8     game-object.obj
 0005:00002cc4       $pdata$??0GameObject@@QEAA@PEBD@Z 0000000140051cc4     game-object.obj
 0005:00002cd0       $pdata$??0GameObject@@QEAA@PEBV0@@Z 0000000140051cd0     game-object.obj
 0005:00002cdc       $pdata$??0ID@@QEAA@XZ      0000000140051cdc     game-object.obj
 0005:00002ce8       $pdata$??1GameObject@@UEAA@XZ 0000000140051ce8     game-object.obj
 0005:00002cf4       $pdata$??1ID@@QEAA@XZ      0000000140051cf4     game-object.obj
 0005:00002d00       $pdata$??_GGameObject@@UEAAPEAXI@Z 0000000140051d00     game-object.obj
 0005:00002d0c       $pdata$?CheckIntersect@GameObject@@QEBA_NPEBV1@VTime@sf@@@Z 0000000140051d0c     game-object.obj
 0005:00002d18       $pdata$?CheckIntersectX@GameObject@@QEBA_NPEBV1@VTime@sf@@@Z 0000000140051d18     game-object.obj
 0005:00002d24       $pdata$?CheckIntersectY@GameObject@@QEBA_NPEBV1@VTime@sf@@@Z 0000000140051d24     game-object.obj
 0005:00002d30       $pdata$?Create@GameObject@@SAPEBV1@PEBD@Z 0000000140051d30     game-object.obj
 0005:00002d3c       $pdata$?CreateImpl@GameObject@@CAPEAV1@W4Object_Type@@PEBD@Z 0000000140051d3c     game-object.obj
 0005:00002d48       $pdata$?Generate@ID@@QEAAXXZ 0000000140051d48     game-object.obj
 0005:00002d54       $pdata$?GetDirection@GameObject@@QEBA?AV?$Vector2@M@sf@@XZ 0000000140051d54     game-object.obj
 0005:00002d60       $pdata$?GetGroup@GameObject@@QEBA_KXZ 0000000140051d60     game-object.obj
 0005:00002d6c       $pdata$?GetHealth@GameObject@@QEBAHXZ 0000000140051d6c     game-object.obj
 0005:00002d78       $pdata$?GetType@GameObject@@QEBA?AW4Object_Type@@XZ 0000000140051d78     game-object.obj
 0005:00002d84       $pdata$?GetVelocity@GameObject@@QEBA?AV?$Vector2@M@sf@@XZ 0000000140051d84     game-object.obj
 0005:00002d90       $pdata$?SetGroup@GameObject@@QEAAX_K@Z 0000000140051d90     game-object.obj
 0005:00002d9c       $pdata$?SetType@GameObject@@QEAAX_K@Z 0000000140051d9c     game-object.obj
 0005:00002da8       $pdata$?SetVelocity@GameObject@@QEAAXAEBV?$Vector2@M@sf@@@Z 0000000140051da8     game-object.obj
 0005:00002db4       $pdata$?Update@GameObject@@UEAAXAEBVTime@sf@@@Z 0000000140051db4     game-object.obj
 0005:00002dc0       $pdata$?calculateDirection@GameObject@@AEAAXXZ 0000000140051dc0     game-object.obj
 0005:00002dcc       $pdata$?fabs@@YAMM@Z       0000000140051dcc     game-object.obj
 0005:00002dd8       $pdata$fabsf               0000000140051dd8     game-object.obj
 0005:000031a4       $pdata$??0Missile@@QEAA@XZ 00000001400521a4     missile.obj
 0005:000031b0       $pdata$??1Missile@@QEAA@XZ 00000001400521b0     missile.obj
 0005:000031bc       $pdata$??$_Reallocate_for@V<lambda_66f57f934f28d61049862f64df852ff0>@@PEBD@?$basic_string@DU?$char_traits@D@std@@V?$allocator@D@2@@std@@QEAAAEAV01@_KV<lambda_66f57f934f28d61049862f64df852ff0>@@PEBD@Z 00000001400521bc     object.obj
 0005:000031c8       $pdata$??0?$Rect@H@sf@@QEAA@AEBV?$Vector2@H@1@0@Z 00000001400521c8     object.obj
 0005:000031d4       $pdata$??0?$Rect@H@sf@@QEAA@XZ 00000001400521d4     object.obj
 0005:000031e0       $pdata$??0?$Vector2@H@sf@@QEAA@HH@Z 00000001400521e0     object.obj
 0005:000031ec       $pdata$??0Object@@QEAA@AEBV?$Vector2@M@sf@@0@Z 00000001400521ec     object.obj
 0005:000031f8       $pdata$??0Object@@QEAA@PEBD@Z 00000001400521f8     object.obj
 0005:00003204       $pdata$??0Object@@QEAA@PEBV0@@Z 0000000140052204     object.obj
 0005:00003210       $pdata$??1Object@@UEAA@XZ  0000000140052210     object.obj
 0005:0000321c       $pdata$??R<lambda_66f57f934f28d61049862f64df852ff0>@@QEBAXQEAD_KQEBD@Z 000000014005221c     object.obj
 0005:00003228       $pdata$??_GObject@@UEAAPEAXI@Z 0000000140052228     object.obj
 0005:00003234       $pdata$?CalculateSpritePos@Object@@QEAAXXZ 0000000140052234     object.obj
 0005:00003240       $pdata$?CheckIntersect@Object@@QEBA_NAEBV?$Vector2@M@sf@@@Z 0000000140052240     object.obj
 0005:0000324c       $pdata$?Draw@Object@@UEAAXPEAVRenderWindow@sf@@@Z 000000014005224c     object.obj
 0005:00003258       $pdata$?GetAbsolutePos@Object@@QEBA?AV?$Vector2@M@sf@@XZ 0000000140052258     object.obj
 0005:00003264       $pdata$?GetParent@Object@@QEBAPEAV1@XZ 0000000140052264     object.obj
 0005:00003270       $pdata$?GetPos@Object@@QEBA?AV?$Vector2@M@sf@@XZ 0000000140052270     object.obj
 0005:0000327c       $pdata$?GetSize@Object@@QEBA?AV?$Vector2@M@sf@@XZ 000000014005227c     object.obj
 0005:00003288       $pdata$?SetParent@Object@@QEAAXPEAV1@@Z 0000000140052288     object.obj
 0005:00003294       $pdata$?SetPos@Object@@UEAAXAEBV?$Vector2@M@sf@@@Z 0000000140052294     object.obj
 0005:000032a0       $pdata$?SetSize@Object@@QEAAXAEBV?$Vector2@M@sf@@@Z 00000001400522a0     object.obj
 0005:000032ac       $pdata$?SetTexture@Object@@QEAA_NPEBD@Z 00000001400522ac     object.obj
 0005:000032b8       $pdata$?calculateSpriteSize@Object@@AEAAXXZ 00000001400522b8     object.obj
 0005:000032c4       $pdata$??0Player@@QEAA@PEAVGameObject@@@Z 00000001400522c4     player.obj
 0005:000032d0       $pdata$??1Player@@QEAA@XZ  00000001400522d0     player.obj
 0005:000032dc       $pdata$?HandleEvent@Player@@QEAA_NAEBVEvent@sf@@@Z 00000001400522dc     player.obj
 0005:000032e8       $pdata$??0Tank@@QEAA@PEBD@Z 00000001400522e8     tank.obj
 0005:000032f4       $pdata$??0Tank@@QEAA@PEBV0@@Z 00000001400522f4     tank.obj
 0005:00003300       $pdata$??1Tank@@UEAA@XZ    0000000140052300     tank.obj
 0005:0000330c       $pdata$??_GTank@@UEAAPEAXI@Z 000000014005230c     tank.obj
 0005:00003318       $pdata$?Clone@Tank@@UEBAPEAVGameObject@@XZ 0000000140052318     tank.obj
 0005:00003324       $pdata$?OnIntersect@Tank@@UEAAXPEAVGameObject@@@Z 0000000140052324     tank.obj
 0005:00003330       $pdata$??0Wall@@QEAA@PEBD@Z 0000000140052330     wall.obj
 0005:0000333c       $pdata$??0Wall@@QEAA@PEBV0@@Z 000000014005233c     wall.obj
 0005:00003348       $pdata$??1Wall@@UEAA@XZ    0000000140052348     wall.obj
 0005:00003354       $pdata$??_GWall@@UEAAPEAXI@Z 0000000140052354     wall.obj
 0005:00003360       $pdata$?Clone@Wall@@UEBAPEAVGameObject@@XZ 0000000140052360     wall.obj
 0005:0000336c       $pdata$?OnIntersect@Wall@@UEAAXPEAVGameObject@@@Z 000000014005236c     wall.obj
 0005:00003378       $pdata$??0WidgetGame@@QEAA@PEAVEngine@@AEBV?$Vector2@M@sf@@1@Z 0000000140052378     widget-game.obj
 0005:00003384       $pdata$??1WidgetGame@@UEAA@XZ 0000000140052384     widget-game.obj
 0005:00003390       $pdata$??_GWidgetGame@@UEAAPEAXI@Z 0000000140052390     widget-game.obj
 0005:0000339c       $pdata$?Draw@WidgetGame@@UEAAXPEAVRenderWindow@sf@@@Z 000000014005239c     widget-game.obj
 0005:000033a8       $pdata$?GetNearestIntersectX@WidgetGame@@AEBAPEAVGameObject@@PEBV2@VTime@sf@@@Z 00000001400523a8     widget-game.obj
 0005:000033b4       $pdata$?GetNearestIntersectY@WidgetGame@@AEBAPEAVGameObject@@PEBV2@VTime@sf@@@Z 00000001400523b4     widget-game.obj
 0005:000033c0       $pdata$?HandleEvent@WidgetGame@@UEAAXAEBVEvent@sf@@@Z 00000001400523c0     widget-game.obj
 0005:000033cc       $pdata$?Update@WidgetGame@@UEAAXAEBVTime@sf@@@Z 00000001400523cc     widget-game.obj
 0005:000033d8       $pdata$?createWorldWalls@WidgetGame@@QEAAXPEBVConfigManager@@@Z 00000001400523d8     widget-game.obj
 0005:000033e4       $pdata$??0?$Rect@M@sf@@QEAA@MMMM@Z 00000001400523e4     widget.obj
 0005:000033f0       $pdata$??0Widget@@QEAA@AEBV?$Vector2@M@sf@@0@Z 00000001400523f0     widget.obj
 0005:000033fc       $pdata$??1Widget@@UEAA@XZ  00000001400523fc     widget.obj
 0005:00003408       $pdata$??_GWidget@@UEAAPEAXI@Z 0000000140052408     widget.obj
 0005:00003414       $pdata$?Draw@Widget@@UEAAXPEAVRenderWindow@sf@@@Z 0000000140052414     widget.obj
 0005:00003420       $pdata$??0WidgetTemplates@@QEAA@AEBV?$Vector2@M@sf@@0@Z 0000000140052420     widget-templates.obj
 0005:0000342c       $pdata$??1WidgetTemplates@@UEAA@XZ 000000014005242c     widget-templates.obj
 0005:00003438       $pdata$??_GWidgetTemplates@@UEAAPEAXI@Z 0000000140052438     widget-templates.obj
 0005:00003444       $pdata$??0?$Window@VWidget@@@@QEAA@AEBV?$Vector2@M@sf@@0@Z 0000000140052444     window.obj
 0005:00003450       $pdata$??1?$Window@VWidget@@@@UEAA@XZ 0000000140052450     window.obj
 0005:0000345c       $pdata$??_G?$Window@VWidget@@@@UEAAPEAXI@Z 000000014005245c     window.obj
 0005:00003468       $pdata$??0WindowGame@@QEAA@PEAVEngine@@AEBV?$Vector2@M@sf@@1@Z 0000000140052468     window-game.obj
 0005:00003474       $pdata$??1WindowGame@@UEAA@XZ 0000000140052474     window-game.obj
 0005:00003480       $pdata$??_GWindowGame@@UEAAPEAXI@Z 0000000140052480     window-game.obj
 0005:0000348c       $pdata$?<lambda_invoker_cdecl>@<lambda_d959d1f5d5308bc9905e6be0a7d8cebe>@@CAPEAVWidget@@PEAV2@@Z 000000014005248c     window-editor.obj
 0005:00003498       $pdata$??0WindowEditor@@QEAA@PEAVEngine@@AEBV?$Vector2@M@sf@@1@Z 0000000140052498     window-editor.obj
 0005:000034a4       $pdata$??1WindowEditor@@UEAA@XZ 00000001400524a4     window-editor.obj
 0005:000034b0       $pdata$??B<lambda_d959d1f5d5308bc9905e6be0a7d8cebe>@@QEBAP6APEAVWidget@@PEAV1@@ZXZ 00000001400524b0     window-editor.obj
 0005:000034bc       $pdata$??R<lambda_d959d1f5d5308bc9905e6be0a7d8cebe>@@QEBAPEAVWidget@@PEAV1@@Z 00000001400524bc     window-editor.obj
 0005:000034c8       $pdata$??_GWindowEditor@@UEAAPEAXI@Z 00000001400524c8     window-editor.obj
 0005:000034d4       $pdata$??2@YAPEAX_K@Z      00000001400524d4     MSVCRTD:new_scalar.obj
 0005:000034e0       $pdata$??3@YAXPEAX_K@Z     00000001400524e0     MSVCRTD:delete_scalar_size.obj
 0005:000034ec       $pdata$??$__crt_fast_decode_pointer@PEAP6AXXZ@@YAPEAP6AXXZQEAP6AXXZ@Z 00000001400524ec     MSVCRTD:utility.obj
 0005:000034f8       $pdata$??$__crt_fast_encode_pointer@PEAP6AXXZ@@YAPEAP6AXXZQEAP6AXXZ@Z 00000001400524f8     MSVCRTD:utility.obj
 0005:00003504       $pdata$?configure_argv@__scrt_narrow_argv_policy@@SAHXZ 0000000140052504     MSVCRTD:utility.obj
 0005:00003510       $pdata$?find_pe_section@@YAPEAU_IMAGE_SECTION_HEADER@@QEAE_K@Z 0000000140052510     MSVCRTD:utility.obj
 0005:0000351c       $pdata$?initialize_environment@__scrt_narrow_environment_policy@@SAHXZ 000000014005251c     MSVCRTD:utility.obj
 0005:00003528       $pdata$?is_potentially_valid_image_base@@YA_NQEAX@Z 0000000140052528     MSVCRTD:utility.obj
 0005:00003534       $pdata$__scrt_acquire_startup_lock 0000000140052534     MSVCRTD:utility.obj
 0005:00003540       $pdata$__scrt_dllmain_after_initialize_c 0000000140052540     MSVCRTD:utility.obj
 0005:0000354c       $pdata$__scrt_dllmain_before_initialize_c 000000014005254c     MSVCRTD:utility.obj
 0005:00003558       $pdata$__scrt_dllmain_crt_thread_attach 0000000140052558     MSVCRTD:utility.obj
 0005:00003564       $pdata$__scrt_dllmain_crt_thread_detach 0000000140052564     MSVCRTD:utility.obj
 0005:00003570       $pdata$__scrt_dllmain_exception_filter 0000000140052570     MSVCRTD:utility.obj
 0005:0000357c       $pdata$__scrt_dllmain_uninitialize_c 000000014005257c     MSVCRTD:utility.obj
 0005:00003588       $pdata$__scrt_dllmain_uninitialize_critical 0000000140052588     MSVCRTD:utility.obj
 0005:00003594       $pdata$__scrt_initialize_crt 0000000140052594     MSVCRTD:utility.obj
 0005:000035a0       $pdata$__scrt_initialize_onexit_tables 00000001400525a0     MSVCRTD:utility.obj
 0005:000035ac       $pdata$__scrt_is_nonwritable_in_current_image 00000001400525ac     MSVCRTD:utility.obj
 0005:000035b8       $pdata$__scrt_release_startup_lock 00000001400525b8     MSVCRTD:utility.obj
 0005:000035c4       $pdata$__scrt_uninitialize_crt 00000001400525c4     MSVCRTD:utility.obj
 0005:000035d0       $pdata$_onexit             00000001400525d0     MSVCRTD:utility.obj
 0005:000035dc       $pdata$at_quick_exit       00000001400525dc     MSVCRTD:utility.obj
 0005:000035e8       $pdata$atexit              00000001400525e8     MSVCRTD:utility.obj
 0005:000035f4       $pdata$_RTC_AllocaHelper   00000001400525f4     MSVCRTD:_stack_.obj
 0005:00003600       $pdata$0$_RTC_AllocaHelper 0000000140052600     MSVCRTD:_stack_.obj
 0005:0000360c       $pdata$1$_RTC_AllocaHelper 000000014005260c     MSVCRTD:_stack_.obj
 0005:00003618       $pdata$_RTC_CheckStackVars 0000000140052618     MSVCRTD:_stack_.obj
 0005:00003624       $pdata$0$_RTC_CheckStackVars 0000000140052624     MSVCRTD:_stack_.obj
 0005:00003630       $pdata$1$_RTC_CheckStackVars 0000000140052630     MSVCRTD:_stack_.obj
 0005:0000363c       $pdata$_RTC_CheckStackVars2 000000014005263c     MSVCRTD:_stack_.obj
 0005:00003648       $pdata$1$_RTC_CheckStackVars2 0000000140052648     MSVCRTD:_stack_.obj
 0005:00003654       $pdata$2$_RTC_CheckStackVars2 0000000140052654     MSVCRTD:_stack_.obj
 0005:00003660       $pdata$3$_RTC_CheckStackVars2 0000000140052660     MSVCRTD:_stack_.obj
 0005:0000366c       $pdata$4$_RTC_CheckStackVars2 000000014005266c     MSVCRTD:_stack_.obj
 0005:00003678       $pdata$5$_RTC_CheckStackVars2 0000000140052678     MSVCRTD:_stack_.obj
 0005:00003684       $pdata$6$_RTC_CheckStackVars2 0000000140052684     MSVCRTD:_stack_.obj
 0005:00003690       $pdata$_RTC_InitBase       0000000140052690     MSVCRTD:_init_.obj
 0005:0000369c       $pdata$_RTC_Shutdown       000000014005269c     MSVCRTD:_init_.obj
 0005:000036a8       $pdata$__GSHandlerCheck    00000001400526a8     MSVCRTD:_gshandler_.obj
 0005:000036b4       $pdata$__GSHandlerCheckCommon 00000001400526b4     MSVCRTD:_gshandler_.obj
 0005:000036c0       $pdata$__GSHandlerCheck_EH 00000001400526c0     MSVCRTD:gshandlereh.obj
 0005:000036d8       $pdata$??_Gtype_info@@UEAAPEAXI@Z 00000001400526d8     MSVCRTD:std_type_info_static.obj
 0005:000036e4       $pdata$??_U@YAPEAX_K@Z     00000001400526e4     MSVCRTD:new_array.obj
 0005:000036f0       $pdata$?DebuggerProbe@@YA_NK@Z 00000001400526f0     MSVCRTD:_error_.obj
 0005:000036fc       $pdata$?DebuggerRuntime@@YA_NKHPEAXPEB_W@Z 00000001400526fc     MSVCRTD:_error_.obj
 0005:00003708       $pdata$?_RTC_AllocaFailure@@YAXPEAXPEAU_RTC_ALLOCA_NODE@@H@Z 0000000140052708     MSVCRTD:_error_.obj
 0005:00003714       $pdata$0$?_RTC_AllocaFailure@@YAXPEAXPEAU_RTC_ALLOCA_NODE@@H@Z 0000000140052714     MSVCRTD:_error_.obj
 0005:00003720       $pdata$1$?_RTC_AllocaFailure@@YAXPEAXPEAU_RTC_ALLOCA_NODE@@H@Z 0000000140052720     MSVCRTD:_error_.obj
 0005:0000372c       $pdata$?_RTC_StackFailure@@YAXPEAXPEBD@Z 000000014005272c     MSVCRTD:_error_.obj
 0005:00003738       $pdata$?_getMemBlockDataString@@YAXPEAD0PEBD_K@Z 0000000140052738     MSVCRTD:_error_.obj
 0005:00003744       $pdata$3$?_getMemBlockDataString@@YAXPEAD0PEBD_K@Z 0000000140052744     MSVCRTD:_error_.obj
 0005:00003750       $pdata$4$?_getMemBlockDataString@@YAXPEAD0PEBD_K@Z 0000000140052750     MSVCRTD:_error_.obj
 0005:0000375c       $pdata$?failwithmessage@@YAXPEAXHHPEBD@Z 000000014005275c     MSVCRTD:_error_.obj
 0005:00003768       $pdata$?notify_debugger@@YAXAEBUtagEXCEPTION_VISUALCPP_DEBUG_INFO@@@Z 0000000140052768     MSVCRTD:_error_.obj
 0005:00003774       $pdata$_RTC_UninitUse      0000000140052774     MSVCRTD:_error_.obj
 0005:00003780       $pdata$_vsprintf_s_l       0000000140052780     MSVCRTD:_error_.obj
 0005:0000378c       $pdata$sprintf_s           000000014005278c     MSVCRTD:_error_.obj
 0005:00003798       $pdata$?pre_c_initialization@@YAHXZ 0000000140052798     MSVCRTD:exe_winmain.obj
 0005:000037a4       $pdata$?post_pgo_initialization@@YAHXZ 00000001400527a4     MSVCRTD:exe_winmain.obj
 0005:000037b0       $pdata$?pre_cpp_initialization@@YAXXZ 00000001400527b0     MSVCRTD:exe_winmain.obj
 0005:000037bc       $pdata$?__scrt_common_main@@YAHXZ 00000001400527bc     MSVCRTD:exe_winmain.obj
 0005:000037c8       $pdata$?__scrt_common_main_seh@@YAHXZ 00000001400527c8     MSVCRTD:exe_winmain.obj
 0005:000037d4       $pdata$?invoke_main@@YAHXZ 00000001400527d4     MSVCRTD:exe_winmain.obj
 0005:000037e0       $pdata$?set_app_type@__scrt_winmain_policy@@SAXXZ 00000001400527e0     MSVCRTD:exe_winmain.obj
 0005:000037ec       $pdata$?set_commode@__scrt_file_policy@@SAXXZ 00000001400527ec     MSVCRTD:exe_winmain.obj
 0005:000037f8       $pdata$?set_fmode@__scrt_file_policy@@SAXXZ 00000001400527f8     MSVCRTD:exe_winmain.obj
 0005:00003804       $pdata$WinMainCRTStartup   0000000140052804     MSVCRTD:exe_winmain.obj
 0005:00003810       $pdata$??0bad_alloc@std@@AEAA@QEBD@Z 0000000140052810     MSVCRTD:throw_bad_alloc.obj
 0005:0000381c       $pdata$??0bad_alloc@std@@QEAA@AEBV01@@Z 000000014005281c     MSVCRTD:throw_bad_alloc.obj
 0005:00003828       $pdata$??0bad_alloc@std@@QEAA@XZ 0000000140052828     MSVCRTD:throw_bad_alloc.obj
 0005:00003834       $pdata$??0bad_array_new_length@std@@QEAA@AEBV01@@Z 0000000140052834     MSVCRTD:throw_bad_alloc.obj
 0005:00003840       $pdata$??0bad_array_new_length@std@@QEAA@XZ 0000000140052840     MSVCRTD:throw_bad_alloc.obj
 0005:0000384c       $pdata$??0exception@std@@QEAA@AEBV01@@Z 000000014005284c     MSVCRTD:throw_bad_alloc.obj
 0005:00003858       $pdata$??0exception@std@@QEAA@QEBDH@Z 0000000140052858     MSVCRTD:throw_bad_alloc.obj
 0005:00003864       $pdata$??1bad_alloc@std@@UEAA@XZ 0000000140052864     MSVCRTD:throw_bad_alloc.obj
 0005:00003870       $pdata$??1bad_array_new_length@std@@UEAA@XZ 0000000140052870     MSVCRTD:throw_bad_alloc.obj
 0005:0000387c       $pdata$??1exception@std@@UEAA@XZ 000000014005287c     MSVCRTD:throw_bad_alloc.obj
 0005:00003888       $pdata$??_Gbad_alloc@std@@UEAAPEAXI@Z 0000000140052888     MSVCRTD:throw_bad_alloc.obj
 0005:00003894       $pdata$??_Gbad_array_new_length@std@@UEAAPEAXI@Z 0000000140052894     MSVCRTD:throw_bad_alloc.obj
 0005:000038a0       $pdata$??_Gexception@std@@UEAAPEAXI@Z 00000001400528a0     MSVCRTD:throw_bad_alloc.obj
 0005:000038ac       $pdata$?__scrt_throw_std_bad_alloc@@YAXXZ 00000001400528ac     MSVCRTD:throw_bad_alloc.obj
 0005:000038b8       $pdata$?__scrt_throw_std_bad_array_new_length@@YAXXZ 00000001400528b8     MSVCRTD:throw_bad_alloc.obj
 0005:000038c4       $pdata$?what@exception@std@@UEBAPEBDXZ 00000001400528c4     MSVCRTD:throw_bad_alloc.obj
 0005:000038d0       $pdata$??3@YAXPEAX@Z       00000001400528d0     MSVCRTD:delete_scalar.obj
 0005:000038dc       $pdata$__isa_available_init 00000001400528dc     MSVCRTD:_cpu_disp_.obj
 0005:000038e8       $pdata$__scrt_is_ucrt_dll_in_use 00000001400528e8     MSVCRTD:ucrt_detection.obj
 0005:000038f4       $pdata$__scrt_fastfail     00000001400528f4     MSVCRTD:utility_desktop.obj
 0005:00003900       $pdata$__scrt_get_show_window_mode 0000000140052900     MSVCRTD:utility_desktop.obj
 0005:0000390c       $pdata$__scrt_is_managed_app 000000014005290c     MSVCRTD:utility_desktop.obj
 0005:00003918       $pdata$__scrt_set_unhandled_exception_filter 0000000140052918     MSVCRTD:utility_desktop.obj
 0005:00003924       $pdata$__scrt_unhandled_exception_filter 0000000140052924     MSVCRTD:utility_desktop.obj
 0005:00003930       $pdata$ReadNoFence64       0000000140052930     MSVCRTD:guard_support.obj
 0005:0000393c       $pdata$ReadPointerNoFence  000000014005293c     MSVCRTD:guard_support.obj
 0005:00003948       $pdata$_guard_icall_checks_enforced 0000000140052948     MSVCRTD:guard_support.obj
 0005:00003954       $pdata$__raise_securityfailure 0000000140052954     MSVCRTD:gs_report.obj
 0005:00003960       $pdata$__report_gsfailure  0000000140052960     MSVCRTD:gs_report.obj
 0005:0000396c       $pdata$__report_rangecheckfailure 000000014005296c     MSVCRTD:gs_report.obj
 0005:00003978       $pdata$__report_securityfailure 0000000140052978     MSVCRTD:gs_report.obj
 0005:00003984       $pdata$__report_securityfailureEx 0000000140052984     MSVCRTD:gs_report.obj
 0005:00003990       $pdata$capture_current_context 0000000140052990     MSVCRTD:gs_report.obj
 0005:0000399c       $pdata$capture_previous_context 000000014005299c     MSVCRTD:gs_report.obj
 0005:000039a8       $pdata$?GetPdbDll@@YAPEAUHINSTANCE__@@XZ 00000001400529a8     MSVCRTD:_pdblkup_.obj
 0005:000039b4       $pdata$?GetPdbDllFromInstallPath@@YAPEAUHINSTANCE__@@XZ 00000001400529b4     MSVCRTD:_pdblkup_.obj
 0005:000039c0       $pdata$?GetPdbDllPathFromFilePath@@YAHPEB_WPEA_W_K@Z 00000001400529c0     MSVCRTD:_pdblkup_.obj
 0005:000039cc       $pdata$?_RTC_GetSrcLine@@YAHPEAEPEA_WKPEAH1K@Z 00000001400529cc     MSVCRTD:_pdblkup_.obj
 0005:000039d8       $pdata$__get_entropy       00000001400529d8     MSVCRTD:gs_support.obj
 0005:000039e4       $pdata$__security_init_cookie 00000001400529e4     MSVCRTD:gs_support.obj
 0005:000039f0       $pdata$?__scrt_initialize_type_info@@YAXXZ 00000001400529f0     MSVCRTD:tncleanup.obj
 0005:000039fc       $pdata$?__scrt_uninitialize_type_info@@YAXXZ 00000001400529fc     MSVCRTD:tncleanup.obj
 0005:00003a08       $pdata$__scrt_initialize_default_local_stdio_options 0000000140052a08     MSVCRTD:default_local_stdio_options.obj
 0005:00003a14       $pdata$__scrt_is_user_matherr_present 0000000140052a14     MSVCRTD:matherr_detection.obj
 0005:00003a20       $pdata$_RTC_Initialize     0000000140052a20     MSVCRTD:_initsect_.obj
 0005:00003a2c       $pdata$_RTC_Terminate      0000000140052a2c     MSVCRTD:_initsect_.obj
 0005:00003a44       $pdata$?dtor$0@?0???0?$_String_alloc@U?$_String_base_types@DV?$allocator@D@std@@@std@@@std@@QEAA@XZ@4HA 0000000140052a44     button.obj
 0005:00003a50       $pdata$?dtor$0@?0???0?$basic_string@DU?$char_traits@D@std@@V?$allocator@D@2@@std@@QEAA@QEBD@Z@4HA 0000000140052a50     button.obj
 0005:00003a5c       $pdata$?dtor$0@?0???0?$function@$$A6AXPEAVButton@@@Z@std@@QEAA@AEBV01@@Z@4HA 0000000140052a5c     button.obj
 0005:00003a68       $pdata$?dtor$0@?0???0Button@@QEAA@AEBV?$Vector2@M@sf@@0@Z@4HA 0000000140052a68     button.obj
 0005:00003a74       $pdata$?dtor$1@?0???0Button@@QEAA@AEBV?$Vector2@M@sf@@0@Z@4HA 0000000140052a74     button.obj
 0005:00003a80       $pdata$?dtor$2@?0???0Button@@QEAA@AEBV?$Vector2@M@sf@@0@Z@4HA 0000000140052a80     button.obj
 0005:00003a8c       $pdata$?dtor$3@?0???0Button@@QEAA@AEBV?$Vector2@M@sf@@0@Z@4HA 0000000140052a8c     button.obj
 0005:00003a98       $pdata$?dtor$0@?0??SetOnClickedListener@Button@@QEAAXV?$function@$$A6AXPEAVButton@@@Z@std@@@Z@4HA 0000000140052a98     button.obj
 0005:00003aa4       $pdata$?dtor$0@?0??SetText@Button@@QEAAXPEB_W@Z@4HA 0000000140052aa4     button.obj
 0005:00003ab0       $pdata$?dtor$0@?0???$?0AEBV?$allocator@D@std@@X@?$_String_alloc@U?$_String_base_types@DV?$allocator@D@std@@@std@@@std@@QEAA@AEBV?$allocator@D@1@@Z@4HA 0000000140052ab0     config.obj
 0005:00003abc       $pdata$?catch$0@?0???$_Buynode@AEBUpiecewise_construct_t@std@@V?$tuple@$$QEAW4Object_Type@@@2@V?$tuple@$$V@2@@?$_Tree_comp_alloc@V?$_Tmap_traits@W4Object_Type@@PEBVGameObject@@U?$less@W4Object_Type@@@std@@V?$allocator@U?$pair@$$CBW4Object_Type@@PEBVGameObject@@@std@@@4@$0A@@std@@@std@@QEAAPEAU?$_Tree_node@U?$pair@$$CBW4Object_Type@@PEBVGameObject@@@std@@PEAX@1@AEBUpiecewise_construct_t@1@$$QEAV?$tuple@$$QEAW4Object_Type@@@1@$$QEAV?$tuple@$$V@1@@Z@4HA 0000000140052abc     config.obj
 0005:00003ac8       $pdata$?catch$10@?0???$_Insert_hint@AEAU?$pair@$$CBW4Object_Type@@PEBVGameObject@@@std@@PEAU?$_Tree_node@U?$pair@$$CBW4Object_Type@@PEBVGameObject@@@std@@PEAX@2@@?$_Tree@V?$_Tmap_traits@W4Object_Type@@PEBVGameObject@@U?$less@W4Object_Type@@@std@@V?$allocator@U?$pair@$$CBW4Object_Type@@PEBVGameObject@@@std@@@4@$0A@@std@@@std@@IEAA?AV?$_Tree_iterator@V?$_Tree_val@U?$_Tree_simple_types@U?$pair@$$CBW4Object_Type@@PEBVGameObject@@@std@@@std@@@std@@@1@V?$_Tree_const_iterator@V?$_Tree_val@U?$_Tree_simple_types@U?$pair@$$CBW4Object_Type@@PEBVGameObject@@@std@@@std@@@std@@@1@AEAU?$pair@$$CBW4Object_Type@@PEBVGameObject@@@1@PEAU?$_Tree_node@U?$pair@$$CBW4Object_Type@@PEBVGameObject@@@std@@PEAX@1@@Z@4HA 0000000140052ac8     config.obj
 0005:00003ad4       $pdata$?dtor$0@?0???$_Insert_hint@AEAU?$pair@$$CBW4Object_Type@@PEBVGameObject@@@std@@PEAU?$_Tree_node@U?$pair@$$CBW4Object_Type@@PEBVGameObject@@@std@@PEAX@2@@?$_Tree@V?$_Tmap_traits@W4Object_Type@@PEBVGameObject@@U?$less@W4Object_Type@@@std@@V?$allocator@U?$pair@$$CBW4Object_Type@@PEBVGameObject@@@std@@@4@$0A@@std@@@std@@IEAA?AV?$_Tree_iterator@V?$_Tree_val@U?$_Tree_simple_types@U?$pair@$$CBW4Object_Type@@PEBVGameObject@@@std@@@std@@@std@@@1@V?$_Tree_const_iterator@V?$_Tree_val@U?$_Tree_simple_types@U?$pair@$$CBW4Object_Type@@PEBVGameObject@@@std@@@std@@@std@@@1@AEAU?$pair@$$CBW4Object_Type@@PEBVGameObject@@@1@PEAU?$_Tree_node@U?$pair@$$CBW4Object_Type@@PEBVGameObject@@@std@@PEAX@1@@Z@4HA 0000000140052ad4     config.obj
 0005:00003ae0       $pdata$?dtor$1@?0???$_Insert_hint@AEAU?$pair@$$CBW4Object_Type@@PEBVGameObject@@@std@@PEAU?$_Tree_node@U?$pair@$$CBW4Object_Type@@PEBVGameObject@@@std@@PEAX@2@@?$_Tree@V?$_Tmap_traits@W4Object_Type@@PEBVGameObject@@U?$less@W4Object_Type@@@std@@V?$allocator@U?$pair@$$CBW4Object_Type@@PEBVGameObject@@@std@@@4@$0A@@std@@@std@@IEAA?AV?$_Tree_iterator@V?$_Tree_val@U?$_Tree_simple_types@U?$pair@$$CBW4Object_Type@@PEBVGameObject@@@std@@@std@@@std@@@1@V?$_Tree_const_iterator@V?$_Tree_val@U?$_Tree_simple_types@U?$pair@$$CBW4Object_Type@@PEBVGameObject@@@std@@@std@@@std@@@1@AEAU?$pair@$$CBW4Object_Type@@PEBVGameObject@@@1@PEAU?$_Tree_node@U?$pair@$$CBW4Object_Type@@PEBVGameObject@@@std@@PEAX@1@@Z@4HA 0000000140052ae0     config.obj
 0005:00003aec       $pdata$?dtor$3@?0???$_Insert_hint@AEAU?$pair@$$CBW4Object_Type@@PEBVGameObject@@@std@@PEAU?$_Tree_node@U?$pair@$$CBW4Object_Type@@PEBVGameObject@@@std@@PEAX@2@@?$_Tree@V?$_Tmap_traits@W4Object_Type@@PEBVGameObject@@U?$less@W4Object_Type@@@std@@V?$allocator@U?$pair@$$CBW4Object_Type@@PEBVGameObject@@@std@@@4@$0A@@std@@@std@@IEAA?AV?$_Tree_iterator@V?$_Tree_val@U?$_Tree_simple_types@U?$pair@$$CBW4Object_Type@@PEBVGameObject@@@std@@@std@@@std@@@1@V?$_Tree_const_iterator@V?$_Tree_val@U?$_Tree_simple_types@U?$pair@$$CBW4Object_Type@@PEBVGameObject@@@std@@@std@@@std@@@1@AEAU?$pair@$$CBW4Object_Type@@PEBVGameObject@@@1@PEAU?$_Tree_node@U?$pair@$$CBW4Object_Type@@PEBVGameObject@@@std@@PEAX@1@@Z@4HA 0000000140052aec     config.obj
 0005:00003af8       $pdata$?dtor$4@?0???$_Insert_hint@AEAU?$pair@$$CBW4Object_Type@@PEBVGameObject@@@std@@PEAU?$_Tree_node@U?$pair@$$CBW4Object_Type@@PEBVGameObject@@@std@@PEAX@2@@?$_Tree@V?$_Tmap_traits@W4Object_Type@@PEBVGameObject@@U?$less@W4Object_Type@@@std@@V?$allocator@U?$pair@$$CBW4Object_Type@@PEBVGameObject@@@std@@@4@$0A@@std@@@std@@IEAA?AV?$_Tree_iterator@V?$_Tree_val@U?$_Tree_simple_types@U?$pair@$$CBW4Object_Type@@PEBVGameObject@@@std@@@std@@@std@@@1@V?$_Tree_const_iterator@V?$_Tree_val@U?$_Tree_simple_types@U?$pair@$$CBW4Object_Type@@PEBVGameObject@@@std@@@std@@@std@@@1@AEAU?$pair@$$CBW4Object_Type@@PEBVGameObject@@@1@PEAU?$_Tree_node@U?$pair@$$CBW4Object_Type@@PEBVGameObject@@@std@@PEAX@1@@Z@4HA 0000000140052af8     config.obj
 0005:00003b04       $pdata$?dtor$5@?0???$_Insert_hint@AEAU?$pair@$$CBW4Object_Type@@PEBVGameObject@@@std@@PEAU?$_Tree_node@U?$pair@$$CBW4Object_Type@@PEBVGameObject@@@std@@PEAX@2@@?$_Tree@V?$_Tmap_traits@W4Object_Type@@PEBVGameObject@@U?$less@W4Object_Type@@@std@@V?$allocator@U?$pair@$$CBW4Object_Type@@PEBVGameObject@@@std@@@4@$0A@@std@@@std@@IEAA?AV?$_Tree_iterator@V?$_Tree_val@U?$_Tree_simple_types@U?$pair@$$CBW4Object_Type@@PEBVGameObject@@@std@@@std@@@std@@@1@V?$_Tree_const_iterator@V?$_Tree_val@U?$_Tree_simple_types@U?$pair@$$CBW4Object_Type@@PEBVGameObject@@@std@@@std@@@std@@@1@AEAU?$pair@$$CBW4Object_Type@@PEBVGameObject@@@1@PEAU?$_Tree_node@U?$pair@$$CBW4Object_Type@@PEBVGameObject@@@std@@PEAX@1@@Z@4HA 0000000140052b04     config.obj
 0005:00003b10       $pdata$?dtor$6@?0???$_Insert_hint@AEAU?$pair@$$CBW4Object_Type@@PEBVGameObject@@@std@@PEAU?$_Tree_node@U?$pair@$$CBW4Object_Type@@PEBVGameObject@@@std@@PEAX@2@@?$_Tree@V?$_Tmap_traits@W4Object_Type@@PEBVGameObject@@U?$less@W4Object_Type@@@std@@V?$allocator@U?$pair@$$CBW4Object_Type@@PEBVGameObject@@@std@@@4@$0A@@std@@@std@@IEAA?AV?$_Tree_iterator@V?$_Tree_val@U?$_Tree_simple_types@U?$pair@$$CBW4Object_Type@@PEBVGameObject@@@std@@@std@@@std@@@1@V?$_Tree_const_iterator@V?$_Tree_val@U?$_Tree_simple_types@U?$pair@$$CBW4Object_Type@@PEBVGameObject@@@std@@@std@@@std@@@1@AEAU?$pair@$$CBW4Object_Type@@PEBVGameObject@@@1@PEAU?$_Tree_node@U?$pair@$$CBW4Object_Type@@PEBVGameObject@@@std@@PEAX@1@@Z@4HA 0000000140052b10     config.obj
 0005:00003b1c       $pdata$?dtor$7@?0???$_Insert_hint@AEAU?$pair@$$CBW4Object_Type@@PEBVGameObject@@@std@@PEAU?$_Tree_node@U?$pair@$$CBW4Object_Type@@PEBVGameObject@@@std@@PEAX@2@@?$_Tree@V?$_Tmap_traits@W4Object_Type@@PEBVGameObject@@U?$less@W4Object_Type@@@std@@V?$allocator@U?$pair@$$CBW4Object_Type@@PEBVGameObject@@@std@@@4@$0A@@std@@@std@@IEAA?AV?$_Tree_iterator@V?$_Tree_val@U?$_Tree_simple_types@U?$pair@$$CBW4Object_Type@@PEBVGameObject@@@std@@@std@@@std@@@1@V?$_Tree_const_iterator@V?$_Tree_val@U?$_Tree_simple_types@U?$pair@$$CBW4Object_Type@@PEBVGameObject@@@std@@@std@@@std@@@1@AEAU?$pair@$$CBW4Object_Type@@PEBVGameObject@@@1@PEAU?$_Tree_node@U?$pair@$$CBW4Object_Type@@PEBVGameObject@@@std@@PEAX@1@@Z@4HA 0000000140052b1c     config.obj
 0005:00003b28       $pdata$?dtor$8@?0???$_Insert_hint@AEAU?$pair@$$CBW4Object_Type@@PEBVGameObject@@@std@@PEAU?$_Tree_node@U?$pair@$$CBW4Object_Type@@PEBVGameObject@@@std@@PEAX@2@@?$_Tree@V?$_Tmap_traits@W4Object_Type@@PEBVGameObject@@U?$less@W4Object_Type@@@std@@V?$allocator@U?$pair@$$CBW4Object_Type@@PEBVGameObject@@@std@@@4@$0A@@std@@@std@@IEAA?AV?$_Tree_iterator@V?$_Tree_val@U?$_Tree_simple_types@U?$pair@$$CBW4Object_Type@@PEBVGameObject@@@std@@@std@@@std@@@1@V?$_Tree_const_iterator@V?$_Tree_val@U?$_Tree_simple_types@U?$pair@$$CBW4Object_Type@@PEBVGameObject@@@std@@@std@@@std@@@1@AEAU?$pair@$$CBW4Object_Type@@PEBVGameObject@@@1@PEAU?$_Tree_node@U?$pair@$$CBW4Object_Type@@PEBVGameObject@@@std@@PEAX@1@@Z@4HA 0000000140052b28     config.obj
 0005:00003b34       $pdata$?catch$6@?0???$_Insert_nohint@AEAU?$pair@$$CBW4Object_Type@@PEBVGameObject@@@std@@PEAU?$_Tree_node@U?$pair@$$CBW4Object_Type@@PEBVGameObject@@@std@@PEAX@2@@?$_Tree@V?$_Tmap_traits@W4Object_Type@@PEBVGameObject@@U?$less@W4Object_Type@@@std@@V?$allocator@U?$pair@$$CBW4Object_Type@@PEBVGameObject@@@std@@@4@$0A@@std@@@std@@IEAA?AU?$pair@V?$_Tree_iterator@V?$_Tree_val@U?$_Tree_simple_types@U?$pair@$$CBW4Object_Type@@PEBVGameObject@@@std@@@std@@@std@@@std@@_N@1@_NAEAU?$pair@$$CBW4Object_Type@@PEBVGameObject@@@1@PEAU?$_Tree_node@U?$pair@$$CBW4Object_Type@@PEBVGameObject@@@std@@PEAX@1@@Z@4HA 0000000140052b34     config.obj
 0005:00003b40       $pdata$?dtor$2@?0???$_Insert_nohint@AEAU?$pair@$$CBW4Object_Type@@PEBVGameObject@@@std@@PEAU?$_Tree_node@U?$pair@$$CBW4Object_Type@@PEBVGameObject@@@std@@PEAX@2@@?$_Tree@V?$_Tmap_traits@W4Object_Type@@PEBVGameObject@@U?$less@W4Object_Type@@@std@@V?$allocator@U?$pair@$$CBW4Object_Type@@PEBVGameObject@@@std@@@4@$0A@@std@@@std@@IEAA?AU?$pair@V?$_Tree_iterator@V?$_Tree_val@U?$_Tree_simple_types@U?$pair@$$CBW4Object_Type@@PEBVGameObject@@@std@@@std@@@std@@@std@@_N@1@_NAEAU?$pair@$$CBW4Object_Type@@PEBVGameObject@@@1@PEAU?$_Tree_node@U?$pair@$$CBW4Object_Type@@PEBVGameObject@@@std@@PEAX@1@@Z@4HA 0000000140052b40     config.obj
 0005:00003b4c       $pdata$?dtor$3@?0???$_Insert_nohint@AEAU?$pair@$$CBW4Object_Type@@PEBVGameObject@@@std@@PEAU?$_Tree_node@U?$pair@$$CBW4Object_Type@@PEBVGameObject@@@std@@PEAX@2@@?$_Tree@V?$_Tmap_traits@W4Object_Type@@PEBVGameObject@@U?$less@W4Object_Type@@@std@@V?$allocator@U?$pair@$$CBW4Object_Type@@PEBVGameObject@@@std@@@4@$0A@@std@@@std@@IEAA?AU?$pair@V?$_Tree_iterator@V?$_Tree_val@U?$_Tree_simple_types@U?$pair@$$CBW4Object_Type@@PEBVGameObject@@@std@@@std@@@std@@@std@@_N@1@_NAEAU?$pair@$$CBW4Object_Type@@PEBVGameObject@@@1@PEAU?$_Tree_node@U?$pair@$$CBW4Object_Type@@PEBVGameObject@@@std@@PEAX@1@@Z@4HA 0000000140052b4c     config.obj
 0005:00003b58       $pdata$?dtor$0@?0???$_Try_emplace@W4Object_Type@@$$V@?$map@W4Object_Type@@PEBVGameObject@@U?$less@W4Object_Type@@@std@@V?$allocator@U?$pair@$$CBW4Object_Type@@PEBVGameObject@@@std@@@4@@std@@QEAA?AU?$pair@V?$_Tree_iterator@V?$_Tree_val@U?$_Tree_simple_types@U?$pair@$$CBW4Object_Type@@PEBVGameObject@@@std@@@std@@@std@@@std@@_N@1@$$QEAW4Object_Type@@@Z@4HA 0000000140052b58     config.obj
 0005:00003b64       $pdata$?dtor$1@?0???$_Try_emplace@W4Object_Type@@$$V@?$map@W4Object_Type@@PEBVGameObject@@U?$less@W4Object_Type@@@std@@V?$allocator@U?$pair@$$CBW4Object_Type@@PEBVGameObject@@@std@@@4@@std@@QEAA?AU?$pair@V?$_Tree_iterator@V?$_Tree_val@U?$_Tree_simple_types@U?$pair@$$CBW4Object_Type@@PEBVGameObject@@@std@@@std@@@std@@@std@@_N@1@$$QEAW4Object_Type@@@Z@4HA 0000000140052b64     config.obj
 0005:00003b70       $pdata$?dtor$0@?0???$emplace_hint@AEBUpiecewise_construct_t@std@@V?$tuple@$$QEAW4Object_Type@@@2@V?$tuple@$$V@2@@?$_Tree@V?$_Tmap_traits@W4Object_Type@@PEBVGameObject@@U?$less@W4Object_Type@@@std@@V?$allocator@U?$pair@$$CBW4Object_Type@@PEBVGameObject@@@std@@@4@$0A@@std@@@std@@QEAA?AV?$_Tree_iterator@V?$_Tree_val@U?$_Tree_simple_types@U?$pair@$$CBW4Object_Type@@PEBVGameObject@@@std@@@std@@@std@@@1@V?$_Tree_const_iterator@V?$_Tree_val@U?$_Tree_simple_types@U?$pair@$$CBW4Object_Type@@PEBVGameObject@@@std@@@std@@@std@@@1@AEBUpiecewise_construct_t@1@$$QEAV?$tuple@$$QEAW4Object_Type@@@1@$$QEAV?$tuple@$$V@1@@Z@4HA 0000000140052b70     config.obj
 0005:00003b7c       $pdata$?dtor$0@?0???0?$basic_string@DU?$char_traits@D@std@@V?$allocator@D@2@@std@@QEAA@AEBV01@_K1AEBV?$allocator@D@1@@Z@4HA 0000000140052b7c     config.obj
 0005:00003b88       $pdata$?dtor$0@?0???A?$map@W4Object_Type@@PEBVGameObject@@U?$less@W4Object_Type@@@std@@V?$allocator@U?$pair@$$CBW4Object_Type@@PEBVGameObject@@@std@@@4@@std@@QEAAAEAPEBVGameObject@@$$QEAW4Object_Type@@@Z@4HA 0000000140052b88     config.obj
 0005:00003b94       $pdata$?dtor$0@?0??Create_Object@ConfigManager@@QEBAPEAVGameObject@@W4Object_Type@@@Z@4HA 0000000140052b94     config.obj
 0005:00003ba0       $pdata$?dtor$1@?0??Create_Object@ConfigManager@@QEBAPEAVGameObject@@W4Object_Type@@@Z@4HA 0000000140052ba0     config.obj
 0005:00003bac       $pdata$?dtor$0@?0??Read@Config_Parser@@YAPEBDPEBDAEAH@Z@4HA 0000000140052bac     config.obj
 0005:00003bb8       $pdata$?dtor$1@?0??Read@Config_Parser@@YAPEBDPEBDAEAH@Z@4HA 0000000140052bb8     config.obj
 0005:00003bc4       $pdata$?dtor$0@?0??Read@Config_Parser@@YAPEBDPEBDAEAM@Z@4HA 0000000140052bc4     config.obj
 0005:00003bd0       $pdata$?dtor$1@?0??Read@Config_Parser@@YAPEBDPEBDAEAM@Z@4HA 0000000140052bd0     config.obj
 0005:00003bdc       $pdata$?dtor$0@?0??Read@Config_Parser@@YAPEBDPEBDAEAV?$basic_string@DU?$char_traits@D@std@@V?$allocator@D@2@@std@@@Z@4HA 0000000140052bdc     config.obj
 0005:00003be8       $pdata$?catch$0@?0??_Buynode0@?$_Tree_comp_alloc@V?$_Tmap_traits@W4Object_Type@@PEBVGameObject@@U?$less@W4Object_Type@@@std@@V?$allocator@U?$pair@$$CBW4Object_Type@@PEBVGameObject@@@std@@@4@$0A@@std@@@std@@QEAAPEAU?$_Tree_node@U?$pair@$$CBW4Object_Type@@PEBVGameObject@@@std@@PEAX@2@XZ@4HA 0000000140052be8     config.obj
 0005:00003bf4       $pdata$?dtor$0@?0??find@?$_Tree@V?$_Tmap_traits@W4Object_Type@@PEBVGameObject@@U?$less@W4Object_Type@@@std@@V?$allocator@U?$pair@$$CBW4Object_Type@@PEBVGameObject@@@std@@@4@$0A@@std@@@std@@QEBA?AV?$_Tree_const_iterator@V?$_Tree_val@U?$_Tree_simple_types@U?$pair@$$CBW4Object_Type@@PEBVGameObject@@@std@@@std@@@std@@@2@AEBW4Object_Type@@@Z@4HA 0000000140052bf4     config.obj
 0005:00003c00       $pdata$?dtor$1@?0??find@?$_Tree@V?$_Tmap_traits@W4Object_Type@@PEBVGameObject@@U?$less@W4Object_Type@@@std@@V?$allocator@U?$pair@$$CBW4Object_Type@@PEBVGameObject@@@std@@@4@$0A@@std@@@std@@QEBA?AV?$_Tree_const_iterator@V?$_Tree_val@U?$_Tree_simple_types@U?$pair@$$CBW4Object_Type@@PEBVGameObject@@@std@@@std@@@std@@@2@AEBW4Object_Type@@@Z@4HA 0000000140052c00     config.obj
 0005:00003c0c       $pdata$?catch$0@?0???$_Emplace_reallocate@AEBQEAV?$Container@VWidget@@@@@?$vector@PEAV?$Container@VWidget@@@@V?$allocator@PEAV?$Container@VWidget@@@@@std@@@std@@QEAAPEAPEAV?$Container@VWidget@@@@QEAPEAV2@AEBQEAV2@@Z@4HA 0000000140052c0c     engine.obj
 0005:00003c18       $pdata$?dtor$0@?0???0Engine@@QEAA@XZ@4HA 0000000140052c18     engine.obj
 0005:00003c24       $pdata$?dtor$1@?0???0Engine@@QEAA@XZ@4HA 0000000140052c24     engine.obj
 0005:00003c30       $pdata$?dtor$2@?0???0Engine@@QEAA@XZ@4HA 0000000140052c30     engine.obj
 0005:00003c3c       $pdata$?dtor$3@?0???0Engine@@QEAA@XZ@4HA 0000000140052c3c     engine.obj
 0005:00003c48       $pdata$?dtor$4@?0???0Engine@@QEAA@XZ@4HA 0000000140052c48     engine.obj
 0005:00003c54       $pdata$?dtor$0@?0???E?$_Tree_const_iterator@V?$_Tree_val@U?$_Tree_simple_types@U?$pair@$$CBW4Object_Type@@PEBVGameObject@@@std@@@std@@@std@@@std@@QEAA?AV01@H@Z@4HA 0000000140052c54     engine.obj
 0005:00003c60       $pdata$?dtor$0@?0??Execute@Engine@@QEAAXXZ@4HA 0000000140052c60     engine.obj
 0005:00003c6c       $pdata$?catch$0@?0??_Buyheadnode@?$_Tree_comp_alloc@V?$_Tmap_traits@W4Object_Type@@PEBVGameObject@@U?$less@W4Object_Type@@@std@@V?$allocator@U?$pair@$$CBW4Object_Type@@PEBVGameObject@@@std@@@4@$0A@@std@@@std@@QEAAPEAU?$_Tree_node@U?$pair@$$CBW4Object_Type@@PEBVGameObject@@@std@@PEAX@2@XZ@4HA 0000000140052c6c     engine.obj
 0005:00003c78       $pdata$?catch$0@?0??_Construct@?$_Tree_comp_alloc@V?$_Tmap_traits@W4Object_Type@@PEBVGameObject@@U?$less@W4Object_Type@@@std@@V?$allocator@U?$pair@$$CBW4Object_Type@@PEBVGameObject@@@std@@@4@$0A@@std@@@std@@QEAAXXZ@4HA 0000000140052c78     engine.obj
 0005:00003c84       $pdata$?dtor$0@?0??_Extract@?$_Tree_val@U?$_Tree_simple_types@U?$pair@$$CBW4Object_Type@@PEBVGameObject@@@std@@@std@@@std@@QEAAPEAU?$_Tree_node@U?$pair@$$CBW4Object_Type@@PEBVGameObject@@@std@@PEAX@2@V?$_Tree_const_iterator@V?$_Tree_val@U?$_Tree_simple_types@U?$pair@$$CBW4Object_Type@@PEBVGameObject@@@std@@@std@@@std@@@2@@Z@4HA 0000000140052c84     engine.obj
 0005:00003c90       $pdata$?dtor$0@?0??_Orphan_ptr@?$_Tree@V?$_Tmap_traits@W4Object_Type@@PEBVGameObject@@U?$less@W4Object_Type@@@std@@V?$allocator@U?$pair@$$CBW4Object_Type@@PEBVGameObject@@@std@@@4@$0A@@std@@@std@@IEAAXPEAU?$_Tree_node@U?$pair@$$CBW4Object_Type@@PEBVGameObject@@@std@@PEAX@2@@Z@4HA 0000000140052c90     engine.obj
 0005:00003c9c       $pdata$?dtor$0@?0??_Orphan_range@?$vector@PEAV?$Container@VWidget@@@@V?$allocator@PEAV?$Container@VWidget@@@@@std@@@std@@AEBAXPEAPEAV?$Container@VWidget@@@@0@Z@4HA 0000000140052c9c     engine.obj
 0005:00003ca8       $pdata$?dtor$0@?0??_Tidy@?$_Tree@V?$_Tmap_traits@W4Object_Type@@PEBVGameObject@@U?$less@W4Object_Type@@@std@@V?$allocator@U?$pair@$$CBW4Object_Type@@PEBVGameObject@@@std@@@4@$0A@@std@@@std@@IEAAXXZ@4HA 0000000140052ca8     engine.obj
 0005:00003cb4       $pdata$?dtor$2@?0??_Tidy@?$_Tree@V?$_Tmap_traits@W4Object_Type@@PEBVGameObject@@U?$less@W4Object_Type@@@std@@V?$allocator@U?$pair@$$CBW4Object_Type@@PEBVGameObject@@@std@@@4@$0A@@std@@@std@@IEAAXXZ@4HA 0000000140052cb4     engine.obj
 0005:00003cc0       $pdata$?dtor$0@?0??erase@?$_Tree@V?$_Tmap_traits@W4Object_Type@@PEBVGameObject@@U?$less@W4Object_Type@@@std@@V?$allocator@U?$pair@$$CBW4Object_Type@@PEBVGameObject@@@std@@@4@$0A@@std@@@std@@QEAA?AV?$_Tree_iterator@V?$_Tree_val@U?$_Tree_simple_types@U?$pair@$$CBW4Object_Type@@PEBVGameObject@@@std@@@std@@@std@@@2@V?$_Tree_const_iterator@V?$_Tree_val@U?$_Tree_simple_types@U?$pair@$$CBW4Object_Type@@PEBVGameObject@@@std@@@std@@@std@@@2@0@Z@4HA 0000000140052cc0     engine.obj
 0005:00003ccc       $pdata$?dtor$1@?0??erase@?$_Tree@V?$_Tmap_traits@W4Object_Type@@PEBVGameObject@@U?$less@W4Object_Type@@@std@@V?$allocator@U?$pair@$$CBW4Object_Type@@PEBVGameObject@@@std@@@4@$0A@@std@@@std@@QEAA?AV?$_Tree_iterator@V?$_Tree_val@U?$_Tree_simple_types@U?$pair@$$CBW4Object_Type@@PEBVGameObject@@@std@@@std@@@std@@@2@V?$_Tree_const_iterator@V?$_Tree_val@U?$_Tree_simple_types@U?$pair@$$CBW4Object_Type@@PEBVGameObject@@@std@@@std@@@std@@@2@0@Z@4HA 0000000140052ccc     engine.obj
 0005:00003cd8       $pdata$?dtor$2@?0??erase@?$_Tree@V?$_Tmap_traits@W4Object_Type@@PEBVGameObject@@U?$less@W4Object_Type@@@std@@V?$allocator@U?$pair@$$CBW4Object_Type@@PEBVGameObject@@@std@@@4@$0A@@std@@@std@@QEAA?AV?$_Tree_iterator@V?$_Tree_val@U?$_Tree_simple_types@U?$pair@$$CBW4Object_Type@@PEBVGameObject@@@std@@@std@@@std@@@2@V?$_Tree_const_iterator@V?$_Tree_val@U?$_Tree_simple_types@U?$pair@$$CBW4Object_Type@@PEBVGameObject@@@std@@@std@@@std@@@2@0@Z@4HA 0000000140052cd8     engine.obj
 0005:00003ce4       $pdata$?dtor$3@?0??erase@?$_Tree@V?$_Tmap_traits@W4Object_Type@@PEBVGameObject@@U?$less@W4Object_Type@@@std@@V?$allocator@U?$pair@$$CBW4Object_Type@@PEBVGameObject@@@std@@@4@$0A@@std@@@std@@QEAA?AV?$_Tree_iterator@V?$_Tree_val@U?$_Tree_simple_types@U?$pair@$$CBW4Object_Type@@PEBVGameObject@@@std@@@std@@@std@@@2@V?$_Tree_const_iterator@V?$_Tree_val@U?$_Tree_simple_types@U?$pair@$$CBW4Object_Type@@PEBVGameObject@@@std@@@std@@@std@@@2@0@Z@4HA 0000000140052ce4     engine.obj
 0005:00003cf0       $pdata$?dtor$0@?0??erase@?$_Tree@V?$_Tmap_traits@W4Object_Type@@PEBVGameObject@@U?$less@W4Object_Type@@@std@@V?$allocator@U?$pair@$$CBW4Object_Type@@PEBVGameObject@@@std@@@4@$0A@@std@@@std@@QEAA?AV?$_Tree_iterator@V?$_Tree_val@U?$_Tree_simple_types@U?$pair@$$CBW4Object_Type@@PEBVGameObject@@@std@@@std@@@std@@@2@V?$_Tree_const_iterator@V?$_Tree_val@U?$_Tree_simple_types@U?$pair@$$CBW4Object_Type@@PEBVGameObject@@@std@@@std@@@std@@@2@@Z@4HA 0000000140052cf0     engine.obj
 0005:00003cfc       $pdata$?dtor$1@?0??erase@?$_Tree@V?$_Tmap_traits@W4Object_Type@@PEBVGameObject@@U?$less@W4Object_Type@@@std@@V?$allocator@U?$pair@$$CBW4Object_Type@@PEBVGameObject@@@std@@@4@$0A@@std@@@std@@QEAA?AV?$_Tree_iterator@V?$_Tree_val@U?$_Tree_simple_types@U?$pair@$$CBW4Object_Type@@PEBVGameObject@@@std@@@std@@@std@@@2@V?$_Tree_const_iterator@V?$_Tree_val@U?$_Tree_simple_types@U?$pair@$$CBW4Object_Type@@PEBVGameObject@@@std@@@std@@@std@@@2@@Z@4HA 0000000140052cfc     engine.obj
 0005:00003d08       $pdata$WinMain$dtor$0      0000000140052d08     main.obj
 0005:00003d14       $pdata$?dtor$0@?0???0?$ContainerMoving@VWidget@@@@QEAA@AEBV?$Vector2@M@sf@@0@Z@4HA 0000000140052d14     container-moving.obj
 0005:00003d20       $pdata$?dtor$0@?0???0GameObject@@QEAA@PEBD@Z@4HA 0000000140052d20     game-object.obj
 0005:00003d2c       $pdata$?dtor$1@?0???0GameObject@@QEAA@PEBD@Z@4HA 0000000140052d2c     game-object.obj
 0005:00003d38       $pdata$?dtor$2@?0???0GameObject@@QEAA@PEBD@Z@4HA 0000000140052d38     game-object.obj
 0005:00003d44       $pdata$?dtor$0@?0???0GameObject@@QEAA@PEBV0@@Z@4HA 0000000140052d44     game-object.obj
 0005:00003d50       $pdata$?dtor$1@?0???0GameObject@@QEAA@PEBV0@@Z@4HA 0000000140052d50     game-object.obj
 0005:00003d5c       $pdata$?dtor$0@?0??Create@GameObject@@SAPEBV1@PEBD@Z@4HA 0000000140052d5c     game-object.obj
 0005:00003d68       $pdata$?catch$2@?0??CreateImpl@GameObject@@CAPEAV1@W4Object_Type@@PEBD@Z@4HA 0000000140052d68     game-object.obj
 0005:00003d74       $pdata$?dtor$0@?0??CreateImpl@GameObject@@CAPEAV1@W4Object_Type@@PEBD@Z@4HA 0000000140052d74     game-object.obj
 0005:00003d80       $pdata$?dtor$1@?0??CreateImpl@GameObject@@CAPEAV1@W4Object_Type@@PEBD@Z@4HA 0000000140052d80     game-object.obj
 0005:00003de0       $pdata$?dtor$0@?0???0Object@@QEAA@AEBV?$Vector2@M@sf@@0@Z@4HA 0000000140052de0     object.obj
 0005:00003dec       $pdata$?dtor$1@?0???0Object@@QEAA@AEBV?$Vector2@M@sf@@0@Z@4HA 0000000140052dec     object.obj
 0005:00003df8       $pdata$?dtor$0@?0???0Object@@QEAA@PEBD@Z@4HA 0000000140052df8     object.obj
 0005:00003e04       $pdata$?dtor$1@?0???0Object@@QEAA@PEBD@Z@4HA 0000000140052e04     object.obj
 0005:00003e10       $pdata$?dtor$0@?0???0Object@@QEAA@PEBV0@@Z@4HA 0000000140052e10     object.obj
 0005:00003e1c       $pdata$?dtor$1@?0???0Object@@QEAA@PEBV0@@Z@4HA 0000000140052e1c     object.obj
 0005:00003e28       $pdata$?dtor$0@?0??SetTexture@Object@@QEAA_NPEBD@Z@4HA 0000000140052e28     object.obj
 0005:00003e34       $pdata$?dtor$0@?0??Clone@Tank@@UEBAPEAVGameObject@@XZ@4HA 0000000140052e34     tank.obj
 0005:00003e40       $pdata$?dtor$0@?0??Clone@Wall@@UEBAPEAVGameObject@@XZ@4HA 0000000140052e40     wall.obj
 0005:00003e4c       $pdata$?dtor$0@?0???0WidgetGame@@QEAA@PEAVEngine@@AEBV?$Vector2@M@sf@@1@Z@4HA 0000000140052e4c     widget-game.obj
 0005:00003e58       $pdata$?dtor$1@?0???0WidgetGame@@QEAA@PEAVEngine@@AEBV?$Vector2@M@sf@@1@Z@4HA 0000000140052e58     widget-game.obj
 0005:00003e64       $pdata$?dtor$0@?0???0WindowGame@@QEAA@PEAVEngine@@AEBV?$Vector2@M@sf@@1@Z@4HA 0000000140052e64     window-game.obj
 0005:00003e70       $pdata$?dtor$1@?0???0WindowGame@@QEAA@PEAVEngine@@AEBV?$Vector2@M@sf@@1@Z@4HA 0000000140052e70     window-game.obj
 0005:00003e7c       $pdata$?dtor$0@?0???0WindowEditor@@QEAA@PEAVEngine@@AEBV?$Vector2@M@sf@@1@Z@4HA 0000000140052e7c     window-editor.obj
 0005:00003e88       $pdata$?dtor$1@?0???0WindowEditor@@QEAA@PEAVEngine@@AEBV?$Vector2@M@sf@@1@Z@4HA 0000000140052e88     window-editor.obj
 0005:00003e94       $pdata$__scrt_is_nonwritable_in_current_image$filt$0 0000000140052e94     MSVCRTD:utility.obj
 0005:00003ea0       $pdata$?filt$0@?0??notify_debugger@@YAXAEBUtagEXCEPTION_VISUALCPP_DEBUG_INFO@@@Z@4HA 0000000140052ea0     MSVCRTD:_error_.obj
 0005:00003eac       $pdata$?filt$0@?0??__scrt_common_main_seh@@YAHXZ@4HA 0000000140052eac     MSVCRTD:exe_winmain.obj
 0005:00003eb8       $pdata$??__Ffont@@YAXXZ    0000000140052eb8     button.obj
 0006:00001790       .idata$6                   0000000140055790     sfml-graphics-d:sfml-graphics-d-2.dll
 0006:0000184a       .idata$6                   000000014005584a     sfml-window-d:sfml-window-d-2.dll
 0006:000019ae       .idata$6                   00000001400559ae     sfml-system-d:sfml-system-d-2.dll
 0006:00001bc6       .idata$6                   0000000140055bc6     msvcprtd:MSVCP140D.dll
 0006:00001cf8       .idata$6                   0000000140055cf8     vcruntimed:VCRUNTIME140D.dll
 0006:00002032       .idata$6                   0000000140056032     ucrtd:ucrtbased.dll
 0006:00002258       .idata$6                   0000000140056258     kernel32:KERNEL32.dll
 0008:00000170       $R000000                   0000000140058170     * linker generated manifest res *
