 Tanks

 Timestamp is 5b898560 (Fri Aug 31 21:13:52 2018)

 Preferred load address is 0000000140000000

 Start         Length     Name                   Class
 0001:00000000 00012679H .textbss                DATA
 0002:00000000 00003c70H .text$di                CODE
 0002:00003c70 00024d70H .text$mn                CODE
 0002:000289e0 00001020H .text$mn$00             CODE
 0002:00029a00 00002780H .text$x                 CODE
 0002:0002c180 00001042H .text$yd                CODE
 0003:00000000 00000110H .CRT$XCA                DATA
 0003:00000110 00000110H .CRT$XCAA               DATA
 0003:00000220 00000110H .CRT$XCU                DATA
 0003:00000330 00000110H .CRT$XCZ                DATA
 0003:00000440 00000110H .CRT$XIA                DATA
 0003:00000550 00000110H .CRT$XIAA               DATA
 0003:00000660 00000110H .CRT$XIAC               DATA
 0003:00000770 00000110H .CRT$XIZ                DATA
 0003:00000880 00000110H .CRT$XPA                DATA
 0003:00000990 00000110H .CRT$XPZ                DATA
 0003:00000aa0 00000110H .CRT$XTA                DATA
 0003:00000bb0 00000110H .CRT$XTZ                DATA
 0003:00000cc0 00006420H .rdata                  DATA
 0003:000070e0 000012a0H .rdata$r                DATA
 0003:00008380 00000160H .rdata$zzzdbg           DATA
 0003:000084e0 00000110H .rtc$IAA                DATA
 0003:000085f0 00000250H .rtc$IMZ                DATA
 0003:00008840 00000110H .rtc$IZZ                DATA
 0003:00008950 00000110H .rtc$TAA                DATA
 0003:00008a60 00000250H .rtc$TMZ                DATA
 0003:00008cb0 00000110H .rtc$TZZ                DATA
 0003:00008dc0 00005ca0H .xdata                  DATA
 0003:0000ea60 000002a1H .xdata$x                DATA
 0003:0000ed01 00000000H .edata                  DATA
 0004:00000000 00000170H .data                   DATA
 0004:00000170 00000870H .data$r                 DATA
 0004:000009e0 00000821H .bss                    DATA
 0005:00000000 000049b0H .pdata                  DATA
 0006:00000000 00000830H .idata$5                DATA
 0006:00000830 0000008cH .idata$2                DATA
 0006:000008bc 00000014H .idata$3                DATA
 0006:000008d0 00000830H .idata$4                DATA
 0006:00001100 00001470H .idata$6                DATA
 0007:00000000 0000011bH .00cfg                  DATA
 0008:00000000 00000170H .rsrc$01                DATA
 0008:00000170 000002ccH .rsrc$02                DATA

  Address         Publics by Value              Rva+Base               Lib:Object

 0000:00000000       __hybrid_auxiliary_iat     0000000000000000     <absolute>
 0000:00000000       ___safe_se_handler_count   0000000000000000     <absolute>
 0000:00000000       __hybrid_code_map          0000000000000000     <absolute>
 0000:00000000       ___safe_se_handler_table   0000000000000000     <absolute>
 0000:00000000       __guard_longjmp_table      0000000000000000     <absolute>
 0000:00000000       __guard_iat_count          0000000000000000     <absolute>
 0000:00000000       __guard_iat_table          0000000000000000     <absolute>
 0000:00000000       __enclave_config           0000000000000000     <absolute>
 0000:00000000       __guard_fids_count         0000000000000000     <absolute>
 0000:00000000       __dynamic_value_reloc_table 0000000000000000     <absolute>
 0000:00000000       __guard_longjmp_count      0000000000000000     <absolute>
 0000:00000000       __guard_fids_table         0000000000000000     <absolute>
 0000:00000000       __hybrid_code_map_count    0000000000000000     <absolute>
 0000:00000100       __guard_flags              0000000000000100     <absolute>
 0000:00000000       __ImageBase                0000000140000000     <linker-defined>
 0001:00000000       __enc$textbss$begin        0000000140001000     <linker-defined>
 0001:00012679       __enc$textbss$end          0000000140013679     <linker-defined>
 0002:00003c70       ??$?0$$V@?$_Compressed_pair@V?$allocator@D@std@@V?$_String_val@U?$_Simple_types@D@std@@@2@$00@std@@QEAA@U_Zero_then_variadic_args_t@1@@Z 0000000140017c70 f i button.obj
 0002:00003cca       ?setScale@Transformable@sf@@QEAAXAEBV?$Vector2@M@2@@Z 0000000140017cca f   sfml-graphics-d:sfml-graphics-d-2.dll
 0002:00003cd0       ?getTextureRect@Sprite@sf@@QEBAAEBV?$Rect@H@2@XZ 0000000140017cd0 f   sfml-graphics-d:sfml-graphics-d-2.dll
 0002:00003ce0       ??$?0D@?$allocator@U_Container_proxy@std@@@std@@QEAA@AEBV?$allocator@D@1@@Z 0000000140017ce0 f i button.obj
 0002:00003d30       ??$?0_W@?$allocator@U_Container_proxy@std@@@std@@QEAA@AEBV?$allocator@_W@1@@Z 0000000140017d30 f i button.obj
 0002:00003d80       ??$_Allocate@$0BA@U_Default_allocate_traits@std@@$0A@@std@@YAPEAX_K@Z 0000000140017d80 f i button.obj
 0002:00003e10       ??$_Allocate_manually_vector_aligned@U_Default_allocate_traits@std@@@std@@YAPEAX_K@Z 0000000140017e10 f i button.obj
 0002:00003f80       ??$_Convert_size@_K@std@@YA_K_K@Z 0000000140017f80 f i button.obj
 0002:00003fd0       ??$_Deallocate@$0BA@$0A@@std@@YAXPEAX_K@Z 0000000140017fd0 f i button.obj
 0002:00004060       ??$_Deallocate_plain@V?$allocator@U_Container_proxy@std@@@std@@$0A@@std@@YAXAEAV?$allocator@U_Container_proxy@std@@@0@QEAU_Container_proxy@0@@Z 0000000140018060 f i button.obj
 0002:000040d0       ??$_Get_size_of_n@$00@std@@YA_K_K@Z 00000001400180d0 f i button.obj
 0002:00004120       ??$_Get_size_of_n@$0BA@@std@@YA_K_K@Z 0000000140018120 f i button.obj
 0002:000041b0       ??$_Getvals@_W@?$time_get@DV?$istreambuf_iterator@DU?$char_traits@D@std@@@std@@@std@@IEAAX_WAEBV_Locinfo@1@@Z 00000001400181b0 f i button.obj
 0002:00004340       ?_Getpfirst@_Container_base12@std@@QEBAPEAPEAU_Iterator_base12@2@XZ 0000000140018340 f i engine.obj
 0002:000043b0       ??$_Getvals@_W@?$time_get@_WV?$istreambuf_iterator@_WU?$char_traits@_W@std@@@std@@@std@@IEAAX_WAEBV_Locinfo@1@@Z 00000001400183b0 f i button.obj
 0002:00004540       ?size@?$vector@PEAVObject@@V?$allocator@PEAVObject@@@std@@@std@@QEBA_KXZ 0000000140018540 f i engine.obj
 0002:000045b0       ??$_Maklocstr@D@std@@YAPEADPEBDPEADAEBU_Cvtvec@@@Z 00000001400185b0 f i button.obj
 0002:000046c0       ??$_Maklocstr@_W@std@@YAPEA_WPEBDPEA_WAEBU_Cvtvec@@@Z 00000001400186c0 f i button.obj
 0002:000048e0       ?_Has_unused_capacity@?$vector@PEAVObject@@V?$allocator@PEAVObject@@@std@@@std@@AEBA_NXZ 00000001400188e0 f i engine.obj
 0002:00004970       ??$_Max_value@_K@std@@YAAEB_KAEB_K0@Z 0000000140018970 f i button.obj
 0002:00004a10       ??$_Min_value@_K@std@@YAAEB_KAEB_K0@Z 0000000140018a10 f i button.obj
 0002:00004c30       ?GetParent@Object@@QEBAPEAV1@XZ 0000000140018c30 f   object.obj
 0002:00004c90       ??$_Unfancy@D@std@@YAPEADPEAD@Z 0000000140018c90 f i button.obj
 0002:00004ce0       ??$_Unfancy@U_Container_proxy@std@@@std@@YAPEAU_Container_proxy@0@PEAU10@@Z 0000000140018ce0 f i button.obj
 0002:00004d30       ??$_Unfancy@_W@std@@YAPEA_WPEA_W@Z 0000000140018d30 f i button.obj
 0002:00004d80       ??$addressof@PEAD@std@@YAPEAPEADAEAPEAD@Z 0000000140018d80 f i button.obj
 0002:00004dd0       ??$addressof@PEA_W@std@@YAPEAPEA_WAEAPEA_W@Z 0000000140018dd0 f i button.obj
 0002:00004e20       ??$addressof@V?$_String_val@U?$_Simple_types@D@std@@@std@@@std@@YAPEAV?$_String_val@U?$_Simple_types@D@std@@@0@AEAV10@@Z 0000000140018e20 f i button.obj
 0002:00004e70       ??$construct@PEADAEBQEAD@?$_Default_allocator_traits@V?$allocator@D@std@@@std@@SAXAEAV?$allocator@D@1@QEAPEADAEBQEAD@Z 0000000140018e70 f i button.obj
 0002:00004f00       ??$construct@U_Container_proxy@std@@U12@@?$_Default_allocator_traits@V?$allocator@U_Container_proxy@std@@@std@@@std@@SAXAEAV?$allocator@U_Container_proxy@std@@@1@QEAU_Container_proxy@1@$$QEAU31@@Z 0000000140018f00 f i button.obj
 0002:00004fa0       ??$destroy@PEAD@?$_Default_allocator_traits@V?$allocator@D@std@@@std@@SAXAEAV?$allocator@D@1@QEAPEAD@Z 0000000140018fa0 f i button.obj
 0002:00004ff0       ??$destroy@PEA_W@?$_Default_allocator_traits@V?$allocator@_W@std@@@std@@SAXAEAV?$allocator@_W@1@QEAPEA_W@Z 0000000140018ff0 f i button.obj
 0002:00005040       ??$destroy@U_Container_proxy@std@@@?$_Default_allocator_traits@V?$allocator@U_Container_proxy@std@@@std@@@std@@SAXAEAV?$allocator@U_Container_proxy@std@@@1@QEAU_Container_proxy@1@@Z 0000000140019040 f i button.obj
 0002:00005090       ??$forward@AEBQEAD@std@@YAAEBQEADAEBQEAD@Z 0000000140019090 f i button.obj
 0002:000050e0       ??$forward@PEAVButton@@@std@@YA$$QEAPEAVButton@@AEAPEAV1@@Z 00000001400190e0 f i button.obj
 0002:00005130       ??$forward@U_Container_proxy@std@@@std@@YA$$QEAU_Container_proxy@0@AEAU10@@Z 0000000140019130 f i button.obj
 0002:00005180       ??$move@AEAV?$_Func_class@XPEAVButton@@@std@@@std@@YA$$QEAV?$_Func_class@XPEAVButton@@@0@AEAV10@@Z 0000000140019180 f i button.obj
 0002:000051d0       ??0?$Vector2@M@sf@@QEAA@MM@Z 00000001400191d0 f i button.obj
 0002:00005260       ??0?$_Func_class@XPEAVButton@@@std@@QEAA@XZ 0000000140019260 f i button.obj
 0002:000052c0       ??0?$_String_alloc@U?$_String_base_types@DV?$allocator@D@std@@@std@@@std@@QEAA@XZ 00000001400192c0 f i button.obj
 0002:00005350       ??0?$_String_val@U?$_Simple_types@D@std@@@std@@QEAA@XZ 0000000140019350 f i button.obj
 0002:000053f0       ??0?$allocator@D@std@@QEAA@XZ 00000001400193f0 f i button.obj
 0002:00005440       ??0?$basic_string@DU?$char_traits@D@std@@V?$allocator@D@2@@std@@QEAA@QEBD@Z 0000000140019440 f i button.obj
 0002:000054e0       ??0?$function@$$A6AXPEAVButton@@@Z@std@@QEAA@$$T@Z 00000001400194e0 f i button.obj
 0002:00005540       ??0?$function@$$A6AXPEAVButton@@@Z@std@@QEAA@AEBV01@@Z 0000000140019540 f i button.obj
 0002:000055d0       ??0Button@@QEAA@AEBV?$Vector2@M@sf@@0@Z 00000001400195d0 f   button.obj
 0002:000057a0       ??0_Bxty@?$_String_val@U?$_Simple_types@D@std@@@std@@QEAA@XZ 00000001400197a0 f i button.obj
 0002:000057f0       ??0_Container_base12@std@@QEAA@XZ 00000001400197f0 f i button.obj
 0002:00005850       ??0_Container_proxy@std@@QEAA@XZ 0000000140019850 f i button.obj
 0002:000058c0       ??1?$_Compressed_pair@V?$allocator@D@std@@V?$_String_val@U?$_Simple_types@D@std@@@2@$00@std@@QEAA@XZ 00000001400198c0 f i button.obj
 0002:00005920       ??1?$_Compressed_pair@V?$allocator@_W@std@@V?$_String_val@U?$_Simple_types@_W@std@@@2@$00@std@@QEAA@XZ 0000000140019920 f i button.obj
 0002:00005980       ??1?$_Func_class@XPEAVButton@@@std@@QEAA@XZ 0000000140019980 f i button.obj
 0002:000059d0       ??1?$_String_alloc@U?$_String_base_types@DV?$allocator@D@std@@@std@@@std@@QEAA@XZ 00000001400199d0 f i button.obj
 0002:00005a50       ??1?$_String_alloc@U?$_String_base_types@_WV?$allocator@_W@std@@@std@@@std@@QEAA@XZ 0000000140019a50 f i button.obj
 0002:00005ad0       ??1?$_String_val@U?$_Simple_types@D@std@@@std@@QEAA@XZ 0000000140019ad0 f i button.obj
 0002:00005b30       ??1?$_String_val@U?$_Simple_types@_W@std@@@std@@QEAA@XZ 0000000140019b30 f i button.obj
 0002:00005b90       ??1?$basic_string@DU?$char_traits@D@std@@V?$allocator@D@2@@std@@QEAA@XZ 0000000140019b90 f i button.obj
 0002:00005c00       ??1?$basic_string@_WU?$char_traits@_W@std@@V?$allocator@_W@2@@std@@QEAA@XZ 0000000140019c00 f i button.obj
 0002:00005c70       ??1?$function@$$A6AXPEAVButton@@@Z@std@@QEAA@XZ 0000000140019c70 f i button.obj
 0002:00005cc0       ??1Button@@UEAA@XZ         0000000140019cc0 f   button.obj
 0002:00005d60       ??1_Bxty@?$_String_val@U?$_Simple_types@D@std@@@std@@QEAA@XZ 0000000140019d60 f i button.obj
 0002:00005da0       ??1_Bxty@?$_String_val@U?$_Simple_types@_W@std@@@std@@QEAA@XZ 0000000140019da0 f i button.obj
 0002:00005de0       ??2@YAPEAX_KPEAX@Z         0000000140019de0 f i button.obj
 0002:00005e30       ??4?$function@$$A6AXPEAVButton@@@Z@std@@QEAAAEAV01@AEBV01@@Z 0000000140019e30 f i button.obj
 0002:00005ef0       ??B?$function@$$A6AXPEAVButton@@@Z@std@@QEBA_NXZ 0000000140019ef0 f i button.obj
 0002:00006020       ??R?$_Func_class@XPEAVButton@@@std@@QEBAXPEAVButton@@@Z 000000014001a020 f i button.obj
 0002:000060d0       ??_GButton@@UEAAPEAXI@Z    000000014001a0d0 f i button.obj
 0002:000060d0       ??_EButton@@UEAAPEAXI@Z    000000014001a0d0 f i button.obj
 0002:00006160       ?Draw@Button@@UEAAXPEAVRenderWindow@sf@@@Z 000000014001a160 f   button.obj
 0002:00006200       ?GetText@Button@@QEBAPEB_WXZ 000000014001a200 f   button.obj
 0002:000062d0       ?HandleEvent@Button@@UEAAXAEBVEvent@sf@@@Z 000000014001a2d0 f   button.obj
 0002:00006410       ?SetOnClickedListener@Button@@QEAAXV?$function@$$A6AXPEAVButton@@@Z@std@@@Z 000000014001a410 f   button.obj
 0002:000064a0       ?SetPos@Button@@UEAAXAEBV?$Vector2@M@sf@@@Z 000000014001a4a0 f   button.obj
 0002:00006510       ?SetText@Button@@QEAAXPEB_W@Z 000000014001a510 f   button.obj
 0002:00006720       ?Update@Button@@UEAAXAEBVTime@sf@@@Z 000000014001a720 f   button.obj
 0002:00006770       ?_Adjust_manually_vector_aligned@std@@YAXAEAPEAXAEA_K@Z 000000014001a770 f i button.obj
 0002:000068f0       ?_Alloc_proxy@?$_String_alloc@U?$_String_base_types@DV?$allocator@D@std@@@std@@@std@@QEAAXXZ 000000014001a8f0 f i button.obj
 0002:00006a30       ?_Allocate@_Default_allocate_traits@std@@SAPEAX_K@Z 000000014001aa30 f i button.obj
 0002:00006a80       ?_Calculate_growth@?$basic_string@DU?$char_traits@D@std@@V?$allocator@D@2@@std@@QEBA_K_K@Z 000000014001aa80 f i button.obj
 0002:00006bb0       ?_Empty@?$_Func_class@XPEAVButton@@@std@@IEBA_NXZ 000000014001abb0 f i button.obj
 0002:00006c30       ?_Free_proxy@?$_String_alloc@U?$_String_base_types@DV?$allocator@D@std@@@std@@@std@@QEAAXXZ 000000014001ac30 f i button.obj
 0002:00006d10       ?_Free_proxy@?$_String_alloc@U?$_String_base_types@_WV?$allocator@_W@std@@@std@@@std@@QEAAXXZ 000000014001ad10 f i button.obj
 0002:00006df0       ?_Get_data@?$_String_alloc@U?$_String_base_types@DV?$allocator@D@std@@@std@@@std@@QEAAAEAV?$_String_val@U?$_Simple_types@D@std@@@2@XZ 000000014001adf0 f i button.obj
 0002:00006e50       ?_Get_data@?$_String_alloc@U?$_String_base_types@DV?$allocator@D@std@@@std@@@std@@QEBAAEBV?$_String_val@U?$_Simple_types@D@std@@@2@XZ 000000014001ae50 f i button.obj
 0002:00006eb0       ?_Get_data@?$_String_alloc@U?$_String_base_types@_WV?$allocator@_W@std@@@std@@@std@@QEAAAEAV?$_String_val@U?$_Simple_types@_W@std@@@2@XZ 000000014001aeb0 f i button.obj
 0002:00006f10       ?_Get_data@?$_String_alloc@U?$_String_base_types@_WV?$allocator@_W@std@@@std@@@std@@QEBAAEBV?$_String_val@U?$_Simple_types@_W@std@@@2@XZ 000000014001af10 f i button.obj
 0002:00006f70       ?_Get_first@?$_Compressed_pair@V?$allocator@D@std@@V?$_String_val@U?$_Simple_types@D@std@@@2@$00@std@@QEAAAEAV?$allocator@D@2@XZ 000000014001af70 f i button.obj
 0002:00006fc0       ?_Get_first@?$_Compressed_pair@V?$allocator@D@std@@V?$_String_val@U?$_Simple_types@D@std@@@2@$00@std@@QEBAAEBV?$allocator@D@2@XZ 000000014001afc0 f i button.obj
 0002:00007010       ?_Get_first@?$_Compressed_pair@V?$allocator@_W@std@@V?$_String_val@U?$_Simple_types@_W@std@@@2@$00@std@@QEAAAEAV?$allocator@_W@2@XZ 000000014001b010 f i button.obj
 0002:00007060       ?_Get_second@?$_Compressed_pair@V?$allocator@D@std@@V?$_String_val@U?$_Simple_types@D@std@@@2@$00@std@@QEAAAEAV?$_String_val@U?$_Simple_types@D@std@@@2@XZ 000000014001b060 f i button.obj
 0002:000070b0       ?_Get_second@?$_Compressed_pair@V?$allocator@D@std@@V?$_String_val@U?$_Simple_types@D@std@@@2@$00@std@@QEBAAEBV?$_String_val@U?$_Simple_types@D@std@@@2@XZ 000000014001b0b0 f i button.obj
 0002:00007100       ?_Get_second@?$_Compressed_pair@V?$allocator@_W@std@@V?$_String_val@U?$_Simple_types@_W@std@@@2@$00@std@@QEAAAEAV?$_String_val@U?$_Simple_types@_W@std@@@2@XZ 000000014001b100 f i button.obj
 0002:00007150       ?_Get_second@?$_Compressed_pair@V?$allocator@_W@std@@V?$_String_val@U?$_Simple_types@_W@std@@@2@$00@std@@QEBAAEBV?$_String_val@U?$_Simple_types@_W@std@@@2@XZ 000000014001b150 f i button.obj
 0002:000071a0       ?_Getal@?$_String_alloc@U?$_String_base_types@DV?$allocator@D@std@@@std@@@std@@QEAAAEAV?$allocator@D@2@XZ 000000014001b1a0 f i button.obj
 0002:00007200       ?_Getal@?$_String_alloc@U?$_String_base_types@DV?$allocator@D@std@@@std@@@std@@QEBAAEBV?$allocator@D@2@XZ 000000014001b200 f i button.obj
 0002:00007260       ?_Getal@?$_String_alloc@U?$_String_base_types@_WV?$allocator@_W@std@@@std@@@std@@QEAAAEAV?$allocator@_W@2@XZ 000000014001b260 f i button.obj
 0002:000072c0       ?_Getimpl@?$_Func_class@XPEAVButton@@@std@@AEBAPEAV?$_Func_base@XPEAVButton@@@2@XZ 000000014001b2c0 f i button.obj
 0002:00007320       ?_Getspace@?$_Func_class@XPEAVButton@@@std@@AEAAPEAXXZ 000000014001b320 f i button.obj
 0002:00007370       ?_Getspace@?$_Func_class@XPEAVButton@@@std@@AEBAPEBXXZ 000000014001b370 f i button.obj
 0002:000073c0       ?_Large_string_engaged@?$_String_val@U?$_Simple_types@D@std@@@std@@QEBA_NXZ 000000014001b3c0 f i button.obj
 0002:00007440       ?_Large_string_engaged@?$_String_val@U?$_Simple_types@_W@std@@@std@@QEBA_NXZ 000000014001b440 f i button.obj
 0002:000074c0       ?_Local@?$_Func_class@XPEAVButton@@@std@@AEBA_NXZ 000000014001b4c0 f i button.obj
 0002:00007560       ?_Maklocwcs@std@@YAPEA_WPEB_W@Z 000000014001b560 f i button.obj
 0002:00007620       ?_Myproxy@?$_String_alloc@U?$_String_base_types@DV?$allocator@D@std@@@std@@@std@@QEAAAEAPEAU_Container_proxy@2@XZ 000000014001b620 f i button.obj
 0002:00007670       ?_Myproxy@?$_String_alloc@U?$_String_base_types@_WV?$allocator@_W@std@@@std@@@std@@QEAAAEAPEAU_Container_proxy@2@XZ 000000014001b670 f i button.obj
 0002:000076c0       ?_Myptr@?$_String_val@U?$_Simple_types@D@std@@@std@@QEAAPEADXZ 000000014001b6c0 f i button.obj
 0002:00007750       ?_Myptr@?$_String_val@U?$_Simple_types@_W@std@@@std@@QEBAPEB_WXZ 000000014001b750 f i button.obj
 0002:000077e0       ?_Orphan_all@?$_String_alloc@U?$_String_base_types@DV?$allocator@D@std@@@std@@@std@@QEAAXXZ 000000014001b7e0 f i button.obj
 0002:00007840       ?_Orphan_all@?$_String_alloc@U?$_String_base_types@_WV?$allocator@_W@std@@@std@@@std@@QEAAXXZ 000000014001b840 f i button.obj
 0002:000078a0       ?_Orphan_all@_Container_base12@std@@QEAAXXZ 000000014001b8a0 f i button.obj
 0002:000079a0       ?_Reset_copy@?$_Func_class@XPEAVButton@@@std@@IEAAXAEBV12@@Z 000000014001b9a0 f i button.obj
 0002:00007a70       ?_Reset_move@?$_Func_class@XPEAVButton@@@std@@IEAAX$$QEAV12@@Z 000000014001ba70 f i button.obj
 0002:00007ba0       ?_Set@?$_Func_class@XPEAVButton@@@std@@AEAAXPEAV?$_Func_base@XPEAVButton@@@2@@Z 000000014001bba0 f i button.obj
 0002:00007c10       ?_Swap@?$_Func_class@XPEAVButton@@@std@@IEAAXAEAV12@@Z 000000014001bc10 f i button.obj
 0002:00007db0       ?_Tidy@?$_Func_class@XPEAVButton@@@std@@IEAAXXZ 000000014001bdb0 f i button.obj
 0002:00007e80       ?_Tidy_deallocate@?$basic_string@DU?$char_traits@D@std@@V?$allocator@D@2@@std@@QEAAXXZ 000000014001be80 f i button.obj
 0002:00007fb0       ?_Tidy_deallocate@?$basic_string@_WU?$char_traits@_W@std@@V?$allocator@_W@2@@std@@QEAAXXZ 000000014001bfb0 f i button.obj
 0002:000080f0       ?_Tidy_init@?$basic_string@DU?$char_traits@D@std@@V?$allocator@D@2@@std@@QEAAXXZ 000000014001c0f0 f i button.obj
 0002:000081a0       ?_Xlen@?$basic_string@DU?$char_traits@D@std@@V?$allocator@D@2@@std@@SAXXZ 000000014001c1a0 f i button.obj
 0002:000081f0       ?__empty_global_delete@@YAXPEAX@Z 000000014001c1f0 f i button.obj
 0002:00008230       ?__empty_global_delete@@YAXPEAX_K@Z 000000014001c230 f i button.obj
 0002:00008280       ?allocate@?$allocator@D@std@@QEAAPEAD_K@Z 000000014001c280 f i button.obj
 0002:000082e0       ?allocate@?$allocator@U_Container_proxy@std@@@std@@QEAAPEAU_Container_proxy@2@_K@Z 000000014001c2e0 f i button.obj
 0002:00008340       ?assign@?$_WChar_traits@_W@std@@SAXAEA_WAEB_W@Z 000000014001c340 f i button.obj
 0002:000083a0       ?assign@?$basic_string@DU?$char_traits@D@std@@V?$allocator@D@2@@std@@QEAAAEAV12@QEBD@Z 000000014001c3a0 f i button.obj
 0002:00008420       ?assign@?$basic_string@DU?$char_traits@D@std@@V?$allocator@D@2@@std@@QEAAAEAV12@QEBD_K@Z 000000014001c420 f i button.obj
 0002:00008560       ?assign@?$char_traits@D@std@@SAXAEADAEBD@Z 000000014001c560 f i button.obj
 0002:000085c0       ?c_str@?$basic_string@_WU?$char_traits@_W@std@@V?$allocator@_W@2@@std@@QEBAPEB_WXZ 000000014001c5c0 f i button.obj
 0002:00008630       ?calculatePosText@Button@@AEAAXXZ 000000014001c630 f   button.obj
 0002:00008770       ?copy@?$char_traits@D@std@@SAPEADQEADQEBD_K@Z 000000014001c770 f i button.obj
 0002:000087e0       ?deallocate@?$_Default_allocator_traits@V?$allocator@U_Container_proxy@std@@@std@@@std@@SAXAEAV?$allocator@U_Container_proxy@std@@@2@QEAU_Container_proxy@2@_K@Z 000000014001c7e0 f i button.obj
 0002:00008850       ?deallocate@?$allocator@D@std@@QEAAXQEAD_K@Z 000000014001c850 f i button.obj
 0002:000088c0       ?deallocate@?$allocator@_W@std@@QEAAXQEA_W_K@Z 000000014001c8c0 f i button.obj
 0002:00008930       ?length@?$char_traits@D@std@@SA_KQEBD@Z 000000014001c930 f i button.obj
 0002:00008980       ?max@?$numeric_limits@_J@std@@SA_JXZ 000000014001c980 f i button.obj
 0002:000089c0       ?max_size@?$_Default_allocator_traits@V?$allocator@D@std@@@std@@SA_KAEBV?$allocator@D@2@@Z 000000014001c9c0 f i button.obj
 0002:00008a10       ?max_size@?$basic_string@DU?$char_traits@D@std@@V?$allocator@D@2@@std@@QEBA_KXZ 000000014001ca10 f i button.obj
 0002:00008b00       ?move@?$char_traits@D@std@@SAPEADQEADQEBD_K@Z 000000014001cb00 f i button.obj
 0002:00008b70       ?swap@?$function@$$A6AXPEAVButton@@@Z@std@@QEAAXAEAV12@@Z 000000014001cb70 f i button.obj
 0002:00008bd0       wmemcpy                    000000014001cbd0 f i button.obj
 0002:00008c50       ??$?0$$QEAW4Object_Type@@$$Z$$V@?$pair@$$CBW4Object_Type@@PEBVGameObject@@@std@@QEAA@Upiecewise_construct_t@1@V?$tuple@$$QEAW4Object_Type@@@1@V?$tuple@$$V@1@@Z 000000014001cc50 f i config.obj
 0002:00008cf0       ??$?0AEAV?$_Tree_iterator@V?$_Tree_val@U?$_Tree_simple_types@U?$pair@$$CBW4Object_Type@@PEBVGameObject@@@std@@@std@@@std@@@std@@_N$0A@@?$pair@V?$_Tree_iterator@V?$_Tree_val@U?$_Tree_simple_types@U?$pair@$$CBW4Object_Type@@PEBVGameObject@@@std@@@std@@@std@@@std@@_N@std@@QEAA@AEAV?$_Tree_iterator@V?$_Tree_val@U?$_Tree_simple_types@U?$pair@$$CBW4Object_Type@@PEBVGameObject@@@std@@@std@@@std@@@1@$$QEA_N@Z 000000014001ccf0 f i config.obj
 0002:00008d90       ??$?0AEBV?$allocator@D@std@@$$V@?$_Compressed_pair@V?$allocator@D@std@@V?$_String_val@U?$_Simple_types@D@std@@@2@$00@std@@QEAA@U_One_then_variadic_args_t@1@AEBV?$allocator@D@1@@Z 000000014001cd90 f i config.obj
 0002:00008e10       ??$?0AEBV?$allocator@D@std@@X@?$_String_alloc@U?$_String_base_types@DV?$allocator@D@std@@@std@@@std@@QEAA@AEBV?$allocator@D@1@@Z 000000014001ce10 f i config.obj
 0002:00008eb0       ??$?0U_Exact_args_t@std@@$0A@@?$tuple@$$V@std@@QEAA@U_Exact_args_t@1@@Z 000000014001ceb0 f i config.obj
 0002:00008f00       ??$?0U_Exact_args_t@std@@W4Object_Type@@$$V$0A@@?$tuple@$$QEAW4Object_Type@@@std@@QEAA@U_Exact_args_t@1@$$QEAW4Object_Type@@@Z 000000014001cf00 f i config.obj
 0002:00008fb0       ??$?0V?$_Tree_iterator@V?$_Tree_val@U?$_Tree_simple_types@U?$pair@$$CBW4Object_Type@@PEBVGameObject@@@std@@@std@@@std@@@std@@_N$0A@@?$pair@V?$_Tree_iterator@V?$_Tree_val@U?$_Tree_simple_types@U?$pair@$$CBW4Object_Type@@PEBVGameObject@@@std@@@std@@@std@@@std@@_N@std@@QEAA@$$QEAV?$_Tree_iterator@V?$_Tree_val@U?$_Tree_simple_types@U?$pair@$$CBW4Object_Type@@PEBVGameObject@@@std@@@std@@@std@@@1@$$QEA_N@Z 000000014001cfb0 f i config.obj
 0002:00009050       ??$?0V?$tuple@$$QEAW4Object_Type@@@std@@V?$tuple@$$V@1@$0A@$$Z$S@?$pair@$$CBW4Object_Type@@PEBVGameObject@@@std@@QEAA@AEAV?$tuple@$$QEAW4Object_Type@@@1@AEAV?$tuple@$$V@1@U?$integer_sequence@_K$0A@@1@U?$integer_sequence@_K$S@1@@Z 000000014001d050 f i config.obj
 0002:000090f0       ??$?0W4Object_Type@@$$V$0A@@?$tuple@$$QEAW4Object_Type@@@std@@QEAA@$$QEAW4Object_Type@@@Z 000000014001d0f0 f i config.obj
 0002:00009190       ??$?0W4Object_Type@@@?$_Tuple_val@$$QEAW4Object_Type@@@std@@QEAA@$$QEAW4Object_Type@@@Z 000000014001d190 f i config.obj
 0002:00009200       ??$?9DD@std@@YA_NAEBV?$allocator@D@0@0@Z 000000014001d200 f i config.obj
 0002:00009250       ??$_Buy_if_not_node@AEAU?$pair@$$CBW4Object_Type@@PEBVGameObject@@@std@@@?$_Tree@V?$_Tmap_traits@W4Object_Type@@PEBVGameObject@@U?$less@W4Object_Type@@@std@@V?$allocator@U?$pair@$$CBW4Object_Type@@PEBVGameObject@@@std@@@4@$0A@@std@@@std@@IEAAPEAU?$_Tree_node@U?$pair@$$CBW4Object_Type@@PEBVGameObject@@@std@@PEAX@1@PEAU21@AEAU?$pair@$$CBW4Object_Type@@PEBVGameObject@@@1@@Z 000000014001d250 f i config.obj
 0002:000092b0       ??$_Buynode@AEBUpiecewise_construct_t@std@@V?$tuple@$$QEAW4Object_Type@@@2@V?$tuple@$$V@2@@?$_Tree_comp_alloc@V?$_Tmap_traits@W4Object_Type@@PEBVGameObject@@U?$less@W4Object_Type@@@std@@V?$allocator@U?$pair@$$CBW4Object_Type@@PEBVGameObject@@@std@@@4@$0A@@std@@@std@@QEAAPEAU?$_Tree_node@U?$pair@$$CBW4Object_Type@@PEBVGameObject@@@std@@PEAX@1@AEBUpiecewise_construct_t@1@$$QEAV?$tuple@$$QEAW4Object_Type@@@1@$$QEAV?$tuple@$$V@1@@Z 000000014001d2b0 f i config.obj
 0002:000093f0       ??$_Debug_lt_pred@AEAU?$less@W4Object_Type@@@std@@AEAW4Object_Type@@AEBW43@@std@@YA_NAEAU?$less@W4Object_Type@@@0@AEAW4Object_Type@@AEBW42@PEB_WI@Z 000000014001d3f0 f i config.obj
 0002:00009530       ??$_Debug_lt_pred@AEAU?$less@W4Object_Type@@@std@@AEBW4Object_Type@@AEBW43@@std@@YA_NAEAU?$less@W4Object_Type@@@0@AEBW4Object_Type@@1PEB_WI@Z 000000014001d530 f i config.obj
 0002:00009670       ??$_Debug_lt_pred@AEBU?$less@W4Object_Type@@@std@@AEBW4Object_Type@@AEBW43@@std@@YA_NAEBU?$less@W4Object_Type@@@0@AEBW4Object_Type@@1PEB_WI@Z 000000014001d670 f i config.obj
 0002:000097b0       ??$_Freenode0@V?$allocator@U?$_Tree_node@U?$pair@$$CBW4Object_Type@@PEBVGameObject@@@std@@PEAX@std@@@std@@@?$_Tree_node@U?$pair@$$CBW4Object_Type@@PEBVGameObject@@@std@@PEAX@std@@SAXAEAV?$allocator@U?$_Tree_node@U?$pair@$$CBW4Object_Type@@PEBVGameObject@@@std@@PEAX@std@@@1@PEAU01@@Z 000000014001d7b0 f i config.obj
 0002:000098b0       ??$_Get_size_of_n@$0DA@@std@@YA_K_K@Z 000000014001d8b0 f i config.obj
 0002:00009940       ??$_Insert_at@AEAU?$pair@$$CBW4Object_Type@@PEBVGameObject@@@std@@PEAU?$_Tree_node@U?$pair@$$CBW4Object_Type@@PEBVGameObject@@@std@@PEAX@2@@?$_Tree@V?$_Tmap_traits@W4Object_Type@@PEBVGameObject@@U?$less@W4Object_Type@@@std@@V?$allocator@U?$pair@$$CBW4Object_Type@@PEBVGameObject@@@std@@@4@$0A@@std@@@std@@IEAA?AV?$_Tree_iterator@V?$_Tree_val@U?$_Tree_simple_types@U?$pair@$$CBW4Object_Type@@PEBVGameObject@@@std@@@std@@@std@@@1@_NPEAU?$_Tree_node@U?$pair@$$CBW4Object_Type@@PEBVGameObject@@@std@@PEAX@1@AEAU?$pair@$$CBW4Object_Type@@PEBVGameObject@@@1@1@Z 000000014001d940 f i config.obj
 0002:00009cd0       ?HandleEvents@Engine@@QEAAXXZ 000000014001dcd0 f   engine.obj
 0002:00009db0       ??$_Insert_hint@AEAU?$pair@$$CBW4Object_Type@@PEBVGameObject@@@std@@PEAU?$_Tree_node@U?$pair@$$CBW4Object_Type@@PEBVGameObject@@@std@@PEAX@2@@?$_Tree@V?$_Tmap_traits@W4Object_Type@@PEBVGameObject@@U?$less@W4Object_Type@@@std@@V?$allocator@U?$pair@$$CBW4Object_Type@@PEBVGameObject@@@std@@@4@$0A@@std@@@std@@IEAA?AV?$_Tree_iterator@V?$_Tree_val@U?$_Tree_simple_types@U?$pair@$$CBW4Object_Type@@PEBVGameObject@@@std@@@std@@@std@@@1@V?$_Tree_const_iterator@V?$_Tree_val@U?$_Tree_simple_types@U?$pair@$$CBW4Object_Type@@PEBVGameObject@@@std@@@std@@@std@@@1@AEAU?$pair@$$CBW4Object_Type@@PEBVGameObject@@@1@PEAU?$_Tree_node@U?$pair@$$CBW4Object_Type@@PEBVGameObject@@@std@@PEAX@1@@Z 000000014001ddb0 f i config.obj
 0002:0000aee0       ??0?$Rect@H@sf@@QEAA@XZ    000000014001eee0 f i object.obj
 0002:0000af50       ?SetTexture@Object@@QEAA_NPEBD@Z 000000014001ef50 f   object.obj
 0002:0000b090       ?_Change_array@?$vector@PEAVObject@@V?$allocator@PEAVObject@@@std@@@std@@AEAAXQEAPEAVObject@@_K1@Z 000000014001f090 f i engine.obj
 0002:0000b1f0       ?_Free_proxy@?$_Vector_alloc@U?$_Vec_base_types@PEAVObject@@V?$allocator@PEAVObject@@@std@@@std@@@std@@QEAAXXZ 000000014001f1f0 f i engine.obj
 0002:0000b2a0       ?max_size@?$vector@PEAVObject@@V?$allocator@PEAVObject@@@std@@@std@@QEBA_KXZ 000000014001f2a0 f i engine.obj
 0002:0000b320       ??$_Insert_nohint@AEAU?$pair@$$CBW4Object_Type@@PEBVGameObject@@@std@@PEAU?$_Tree_node@U?$pair@$$CBW4Object_Type@@PEBVGameObject@@@std@@PEAX@2@@?$_Tree@V?$_Tmap_traits@W4Object_Type@@PEBVGameObject@@U?$less@W4Object_Type@@@std@@V?$allocator@U?$pair@$$CBW4Object_Type@@PEBVGameObject@@@std@@@4@$0A@@std@@@std@@IEAA?AU?$pair@V?$_Tree_iterator@V?$_Tree_val@U?$_Tree_simple_types@U?$pair@$$CBW4Object_Type@@PEBVGameObject@@@std@@@std@@@std@@@std@@_N@1@_NAEAU?$pair@$$CBW4Object_Type@@PEBVGameObject@@@1@PEAU?$_Tree_node@U?$pair@$$CBW4Object_Type@@PEBVGameObject@@@std@@PEAX@1@@Z 000000014001f320 f i config.obj
 0002:0000b870       ?_Tidy@?$vector@PEAVObject@@V?$allocator@PEAVObject@@@std@@@std@@AEAAXXZ 000000014001f870 f i engine.obj
 0002:0000b9c0       ??$_Kfn@$$CBW4Object_Type@@PEBVGameObject@@@?$_Tmap_traits@W4Object_Type@@PEBVGameObject@@U?$less@W4Object_Type@@@std@@V?$allocator@U?$pair@$$CBW4Object_Type@@PEBVGameObject@@@std@@@4@$0A@@std@@SAAEBW4Object_Type@@AEBU?$pair@$$CBW4Object_Type@@PEBVGameObject@@@1@@Z 000000014001f9c0 f i config.obj
 0002:0000ba10       ??$_Lbound@W4Object_Type@@@?$_Tree@V?$_Tmap_traits@W4Object_Type@@PEBVGameObject@@U?$less@W4Object_Type@@@std@@V?$allocator@U?$pair@$$CBW4Object_Type@@PEBVGameObject@@@std@@@4@$0A@@std@@@std@@IEBAPEAU?$_Tree_node@U?$pair@$$CBW4Object_Type@@PEBVGameObject@@@std@@PEAX@1@AEBW4Object_Type@@@Z 000000014001fa10 f i config.obj
 0002:0000bb00       ??$_Pocma@V?$allocator@D@std@@@std@@YAXAEAV?$allocator@D@0@0@Z 000000014001fb00 f i config.obj
 0002:0000bb80       ??$_Pocma@V?$allocator@D@std@@@std@@YAXAEAV?$allocator@D@0@0U?$integral_constant@_N$00@0@@Z 000000014001fb80 f i config.obj
 0002:0000bdc0       ??$_Try_emplace@W4Object_Type@@$$V@?$map@W4Object_Type@@PEBVGameObject@@U?$less@W4Object_Type@@@std@@V?$allocator@U?$pair@$$CBW4Object_Type@@PEBVGameObject@@@std@@@4@@std@@QEAA?AU?$pair@V?$_Tree_iterator@V?$_Tree_val@U?$_Tree_simple_types@U?$pair@$$CBW4Object_Type@@PEBVGameObject@@@std@@@std@@@std@@@std@@_N@1@$$QEAW4Object_Type@@@Z 000000014001fdc0 f i config.obj
 0002:0000c070       ?_Umove_if_noexcept@?$vector@PEAVObject@@V?$allocator@PEAVObject@@@std@@@std@@AEAAXPEAPEAVObject@@00@Z 0000000140020070 f i engine.obj
 0002:0000c110       ??$addressof@$$CBU?$pair@$$CBW4Object_Type@@PEBVGameObject@@@std@@@std@@YAPEBU?$pair@$$CBW4Object_Type@@PEBVGameObject@@@0@AEBU10@@Z 0000000140020110 f i config.obj
 0002:0000c160       ??$addressof@$$CBV?$_Tree_val@U?$_Tree_simple_types@U?$pair@$$CBW4Object_Type@@PEBVGameObject@@@std@@@std@@@std@@@std@@YAPEBV?$_Tree_val@U?$_Tree_simple_types@U?$pair@$$CBW4Object_Type@@PEBVGameObject@@@std@@@std@@@0@AEBV10@@Z 0000000140020160 f i config.obj
 0002:0000c1b0       ??$addressof@PEAU?$_Tree_node@U?$pair@$$CBW4Object_Type@@PEBVGameObject@@@std@@PEAX@std@@@std@@YAPEAPEAU?$_Tree_node@U?$pair@$$CBW4Object_Type@@PEBVGameObject@@@std@@PEAX@0@AEAPEAU10@@Z 00000001400201b0 f i config.obj
 0002:0000c200       ??$addressof@U?$pair@$$CBW4Object_Type@@PEBVGameObject@@@std@@@std@@YAPEAU?$pair@$$CBW4Object_Type@@PEBVGameObject@@@0@AEAU10@@Z 0000000140020200 f i config.obj
 0002:0000c250       ??$addressof@V?$_Tree_val@U?$_Tree_simple_types@U?$pair@$$CBW4Object_Type@@PEBVGameObject@@@std@@@std@@@std@@@std@@YAPEAV?$_Tree_val@U?$_Tree_simple_types@U?$pair@$$CBW4Object_Type@@PEBVGameObject@@@std@@@std@@@0@AEAV10@@Z 0000000140020250 f i config.obj
 0002:0000c2a0       ??$addressof@V?$basic_string@DU?$char_traits@D@std@@V?$allocator@D@2@@std@@@std@@YAPEAV?$basic_string@DU?$char_traits@D@std@@V?$allocator@D@2@@0@AEAV10@@Z 00000001400202a0 f i config.obj
 0002:0000c2f0       ??$construct@PEAU?$_Tree_node@U?$pair@$$CBW4Object_Type@@PEBVGameObject@@@std@@PEAX@std@@AEAPEAU12@@?$_Default_allocator_traits@V?$allocator@U?$_Tree_node@U?$pair@$$CBW4Object_Type@@PEBVGameObject@@@std@@PEAX@std@@@std@@@std@@SAXAEAV?$allocator@U?$_Tree_node@U?$pair@$$CBW4Object_Type@@PEBVGameObject@@@std@@PEAX@std@@@1@QEAPEAU?$_Tree_node@U?$pair@$$CBW4Object_Type@@PEBVGameObject@@@std@@PEAX@1@AEAPEAU31@@Z 00000001400202f0 f i config.obj
 0002:0000c380       ??$construct@U?$pair@$$CBW4Object_Type@@PEBVGameObject@@@std@@AEBUpiecewise_construct_t@2@V?$tuple@$$QEAW4Object_Type@@@2@V?$tuple@$$V@2@@?$_Default_allocator_traits@V?$allocator@U?$_Tree_node@U?$pair@$$CBW4Object_Type@@PEBVGameObject@@@std@@PEAX@std@@@std@@@std@@SAXAEAV?$allocator@U?$_Tree_node@U?$pair@$$CBW4Object_Type@@PEBVGameObject@@@std@@PEAX@std@@@1@QEAU?$pair@$$CBW4Object_Type@@PEBVGameObject@@@1@AEBUpiecewise_construct_t@1@$$QEAV?$tuple@$$QEAW4Object_Type@@@1@$$QEAV?$tuple@$$V@1@@Z 0000000140020380 f i config.obj
 0002:0000c4b0       ??$destroy@PEAU?$_Tree_node@U?$pair@$$CBW4Object_Type@@PEBVGameObject@@@std@@PEAX@std@@@?$_Default_allocator_traits@V?$allocator@U?$_Tree_node@U?$pair@$$CBW4Object_Type@@PEBVGameObject@@@std@@PEAX@std@@@std@@@std@@SAXAEAV?$allocator@U?$_Tree_node@U?$pair@$$CBW4Object_Type@@PEBVGameObject@@@std@@PEAX@std@@@1@QEAPEAU?$_Tree_node@U?$pair@$$CBW4Object_Type@@PEBVGameObject@@@std@@PEAX@1@@Z 00000001400204b0 f i config.obj
 0002:0000c500       ??$destroy@U?$pair@$$CBW4Object_Type@@PEBVGameObject@@@std@@@?$_Default_allocator_traits@V?$allocator@U?$_Tree_node@U?$pair@$$CBW4Object_Type@@PEBVGameObject@@@std@@PEAX@std@@@std@@@std@@SAXAEAV?$allocator@U?$_Tree_node@U?$pair@$$CBW4Object_Type@@PEBVGameObject@@@std@@PEAX@std@@@1@QEAU?$pair@$$CBW4Object_Type@@PEBVGameObject@@@1@@Z 0000000140020500 f i config.obj
 0002:0000c550       ??$emplace_hint@AEBUpiecewise_construct_t@std@@V?$tuple@$$QEAW4Object_Type@@@2@V?$tuple@$$V@2@@?$_Tree@V?$_Tmap_traits@W4Object_Type@@PEBVGameObject@@U?$less@W4Object_Type@@@std@@V?$allocator@U?$pair@$$CBW4Object_Type@@PEBVGameObject@@@std@@@4@$0A@@std@@@std@@QEAA?AV?$_Tree_iterator@V?$_Tree_val@U?$_Tree_simple_types@U?$pair@$$CBW4Object_Type@@PEBVGameObject@@@std@@@std@@@std@@@1@V?$_Tree_const_iterator@V?$_Tree_val@U?$_Tree_simple_types@U?$pair@$$CBW4Object_Type@@PEBVGameObject@@@std@@@std@@@std@@@1@AEBUpiecewise_construct_t@1@$$QEAV?$tuple@$$QEAW4Object_Type@@@1@$$QEAV?$tuple@$$V@1@@Z 0000000140020550 f i config.obj
 0002:0000c6e0       ??$forward@$$QEAW4Object_Type@@@std@@YA$$QEAW4Object_Type@@AEAW41@@Z 00000001400206e0 f i config.obj
 0002:0000c730       ??$forward@AEAPEAU?$_Tree_node@U?$pair@$$CBW4Object_Type@@PEBVGameObject@@@std@@PEAX@std@@@std@@YAAEAPEAU?$_Tree_node@U?$pair@$$CBW4Object_Type@@PEBVGameObject@@@std@@PEAX@0@AEAPEAU10@@Z 0000000140020730 f i config.obj
 0002:0000c780       ??$forward@AEAU?$pair@$$CBW4Object_Type@@PEBVGameObject@@@std@@@std@@YAAEAU?$pair@$$CBW4Object_Type@@PEBVGameObject@@@0@AEAU10@@Z 0000000140020780 f i config.obj
 0002:0000c7d0       ??$forward@AEAV?$_Tree_iterator@V?$_Tree_val@U?$_Tree_simple_types@U?$pair@$$CBW4Object_Type@@PEBVGameObject@@@std@@@std@@@std@@@std@@@std@@YAAEAV?$_Tree_iterator@V?$_Tree_val@U?$_Tree_simple_types@U?$pair@$$CBW4Object_Type@@PEBVGameObject@@@std@@@std@@@std@@@0@AEAV10@@Z 00000001400207d0 f i config.obj
 0002:0000c820       ??$forward@AEBUpiecewise_construct_t@std@@@std@@YAAEBUpiecewise_construct_t@0@AEBU10@@Z 0000000140020820 f i config.obj
 0002:0000c870       ??$forward@AEBV?$allocator@D@std@@@std@@YAAEBV?$allocator@D@0@AEBV10@@Z 0000000140020870 f i config.obj
 0002:0000c8c0       ??$forward@V?$_Tree_iterator@V?$_Tree_val@U?$_Tree_simple_types@U?$pair@$$CBW4Object_Type@@PEBVGameObject@@@std@@@std@@@std@@@std@@@std@@YA$$QEAV?$_Tree_iterator@V?$_Tree_val@U?$_Tree_simple_types@U?$pair@$$CBW4Object_Type@@PEBVGameObject@@@std@@@std@@@std@@@0@AEAV10@@Z 00000001400208c0 f i config.obj
 0002:0000c910       ??$forward@V?$tuple@$$QEAW4Object_Type@@@std@@@std@@YA$$QEAV?$tuple@$$QEAW4Object_Type@@@0@AEAV10@@Z 0000000140020910 f i config.obj
 0002:0000c960       ??$forward@V?$tuple@$$V@std@@@std@@YA$$QEAV?$tuple@$$V@0@AEAV10@@Z 0000000140020960 f i config.obj
 0002:0000c9b0       ??$forward@W4Object_Type@@@std@@YA$$QEAW4Object_Type@@AEAW41@@Z 00000001400209b0 f i config.obj
 0002:0000ca00       ??$forward@_N@std@@YA$$QEA_NAEA_N@Z 0000000140020a00 f i config.obj
 0002:0000ca50       ??$forward_as_tuple@$$V@std@@YA?AV?$tuple@$$V@0@XZ 0000000140020a50 f i config.obj
 0002:0000cab0       ??$forward_as_tuple@W4Object_Type@@@std@@YA?AV?$tuple@$$QEAW4Object_Type@@@0@$$QEAW4Object_Type@@@Z 0000000140020ab0 f i config.obj
 0002:0000cb40       ??$get@$0A@$$QEAW4Object_Type@@@std@@YA$$QEAW4Object_Type@@$$QEAV?$tuple@$$QEAW4Object_Type@@@0@@Z 0000000140020b40 f i config.obj
 0002:0000cba0       ??$move@AEAV?$allocator@D@std@@@std@@YA$$QEAV?$allocator@D@0@AEAV10@@Z 0000000140020ba0 f i config.obj
 0002:0000cbf0       ??$move@AEAV?$basic_string@DU?$char_traits@D@std@@V?$allocator@D@2@@std@@@std@@YA$$QEAV?$basic_string@DU?$char_traits@D@std@@V?$allocator@D@2@@0@AEAV10@@Z 0000000140020bf0 f i config.obj
 0002:0000cc40       ??$move@AEAV?$tuple@$$QEAW4Object_Type@@@std@@@std@@YA$$QEAV?$tuple@$$QEAW4Object_Type@@@0@AEAV10@@Z 0000000140020c40 f i config.obj
 0002:0000cc90       ??$move@AEAW4Object_Type@@@std@@YA$$QEAW4Object_Type@@AEAW41@@Z 0000000140020c90 f i config.obj
 0002:0000cce0       ??$try_emplace@$$V@?$map@W4Object_Type@@PEBVGameObject@@U?$less@W4Object_Type@@@std@@V?$allocator@U?$pair@$$CBW4Object_Type@@PEBVGameObject@@@std@@@4@@std@@QEAA?AU?$pair@V?$_Tree_iterator@V?$_Tree_val@U?$_Tree_simple_types@U?$pair@$$CBW4Object_Type@@PEBVGameObject@@@std@@@std@@@std@@@std@@_N@1@$$QEAW4Object_Type@@@Z 0000000140020ce0 f i config.obj
 0002:0000cd80       ??0?$_Tree_const_iterator@V?$_Tree_val@U?$_Tree_simple_types@U?$pair@$$CBW4Object_Type@@PEBVGameObject@@@std@@@std@@@std@@@std@@QEAA@$$QEAV01@@Z 0000000140020d80 f i config.obj
 0002:0000cdf0       ??0?$_Tree_const_iterator@V?$_Tree_val@U?$_Tree_simple_types@U?$pair@$$CBW4Object_Type@@PEBVGameObject@@@std@@@std@@@std@@@std@@QEAA@AEBV01@@Z 0000000140020df0 f i config.obj
 0002:0000ce60       ??0?$_Tree_const_iterator@V?$_Tree_val@U?$_Tree_simple_types@U?$pair@$$CBW4Object_Type@@PEBVGameObject@@@std@@@std@@@std@@@std@@QEAA@PEAU?$_Tree_node@U?$pair@$$CBW4Object_Type@@PEBVGameObject@@@std@@PEAX@1@PEBV?$_Tree_val@U?$_Tree_simple_types@U?$pair@$$CBW4Object_Type@@PEBVGameObject@@@std@@@std@@@1@@Z 0000000140020e60 f i config.obj
 0002:0000cee0       ??0?$_Tree_const_iterator@V?$_Tree_val@U?$_Tree_simple_types@U?$pair@$$CBW4Object_Type@@PEBVGameObject@@@std@@@std@@@std@@@std@@QEAA@XZ 0000000140020ee0 f i config.obj
 0002:0000cf40       ??0?$_Tree_iterator@V?$_Tree_val@U?$_Tree_simple_types@U?$pair@$$CBW4Object_Type@@PEBVGameObject@@@std@@@std@@@std@@@std@@QEAA@$$QEAV01@@Z 0000000140020f40 f i config.obj
 0002:0000cfb0       ??0?$_Tree_iterator@V?$_Tree_val@U?$_Tree_simple_types@U?$pair@$$CBW4Object_Type@@PEBVGameObject@@@std@@@std@@@std@@@std@@QEAA@AEBV01@@Z 0000000140020fb0 f i config.obj
 0002:0000d020       ??0?$_Tree_iterator@V?$_Tree_val@U?$_Tree_simple_types@U?$pair@$$CBW4Object_Type@@PEBVGameObject@@@std@@@std@@@std@@@std@@QEAA@PEAU?$_Tree_node@U?$pair@$$CBW4Object_Type@@PEBVGameObject@@@std@@PEAX@1@PEBV?$_Tree_val@U?$_Tree_simple_types@U?$pair@$$CBW4Object_Type@@PEBVGameObject@@@std@@@std@@@1@@Z 0000000140021020 f i config.obj
 0002:0000d0a0       ??0?$_Tree_unchecked_const_iterator@V?$_Tree_val@U?$_Tree_simple_types@U?$pair@$$CBW4Object_Type@@PEBVGameObject@@@std@@@std@@@std@@U_Iterator_base12@2@@std@@QEAA@$$QEAV01@@Z 00000001400210a0 f i config.obj
 0002:0000d130       ??0?$_Tree_unchecked_const_iterator@V?$_Tree_val@U?$_Tree_simple_types@U?$pair@$$CBW4Object_Type@@PEBVGameObject@@@std@@@std@@@std@@U_Iterator_base12@2@@std@@QEAA@AEBV01@@Z 0000000140021130 f i config.obj
 0002:0000d1c0       ??0?$_Tree_unchecked_const_iterator@V?$_Tree_val@U?$_Tree_simple_types@U?$pair@$$CBW4Object_Type@@PEBVGameObject@@@std@@@std@@@std@@U_Iterator_base12@2@@std@@QEAA@PEAU?$_Tree_node@U?$pair@$$CBW4Object_Type@@PEBVGameObject@@@std@@PEAX@1@PEBV?$_Tree_val@U?$_Tree_simple_types@U?$pair@$$CBW4Object_Type@@PEBVGameObject@@@std@@@std@@@1@@Z 00000001400211c0 f i config.obj
 0002:0000d260       ??0?$_Tree_unchecked_const_iterator@V?$_Tree_val@U?$_Tree_simple_types@U?$pair@$$CBW4Object_Type@@PEBVGameObject@@@std@@@std@@@std@@U_Iterator_base12@2@@std@@QEAA@XZ 0000000140021260 f i config.obj
 0002:0000d2d0       ??0?$basic_string@DU?$char_traits@D@std@@V?$allocator@D@2@@std@@QEAA@AEBV01@_K1AEBV?$allocator@D@1@@Z 00000001400212d0 f i config.obj
 0002:0000d390       ??0?$tuple@$$QEAW4Object_Type@@@std@@QEAA@$$QEAV01@@Z 0000000140021390 f i config.obj
 0002:0000d410       ??0?$tuple@$$V@std@@QEAA@AEBV01@@Z 0000000140021410 f i config.obj
 0002:0000d460       ??0?$tuple@$$V@std@@QEAA@XZ 0000000140021460 f i config.obj
 0002:0000d4b0       ??0_Iterator_base12@std@@QEAA@AEBU01@@Z 00000001400214b0 f i config.obj
 0002:0000d540       ??0_Iterator_base12@std@@QEAA@XZ 0000000140021540 f i config.obj
 0002:0000d5b0       ??1?$_Tree_const_iterator@V?$_Tree_val@U?$_Tree_simple_types@U?$pair@$$CBW4Object_Type@@PEBVGameObject@@@std@@@std@@@std@@@std@@QEAA@XZ 00000001400215b0 f i config.obj
 0002:0000d600       ??1?$_Tree_iterator@V?$_Tree_val@U?$_Tree_simple_types@U?$pair@$$CBW4Object_Type@@PEBVGameObject@@@std@@@std@@@std@@@std@@QEAA@XZ 0000000140021600 f i config.obj
 0002:0000d650       ??1?$_Tree_unchecked_const_iterator@V?$_Tree_val@U?$_Tree_simple_types@U?$pair@$$CBW4Object_Type@@PEBVGameObject@@@std@@@std@@@std@@U_Iterator_base12@2@@std@@QEAA@XZ 0000000140021650 f i config.obj
 0002:0000d6a0       ??1?$pair@V?$_Tree_iterator@V?$_Tree_val@U?$_Tree_simple_types@U?$pair@$$CBW4Object_Type@@PEBVGameObject@@@std@@@std@@@std@@@std@@_N@std@@QEAA@XZ 00000001400216a0 f i config.obj
 0002:0000d700       ??1_Iterator_base12@std@@QEAA@XZ 0000000140021700 f i config.obj
 0002:0000d7a0       ??4?$_Tree_const_iterator@V?$_Tree_val@U?$_Tree_simple_types@U?$pair@$$CBW4Object_Type@@PEBVGameObject@@@std@@@std@@@std@@@std@@QEAAAEAV01@AEBV01@@Z 00000001400217a0 f i config.obj
 0002:0000d810       ??4?$_Tree_unchecked_const_iterator@V?$_Tree_val@U?$_Tree_simple_types@U?$pair@$$CBW4Object_Type@@PEBVGameObject@@@std@@@std@@@std@@U_Iterator_base12@2@@std@@QEAAAEAV01@AEBV01@@Z 0000000140021810 f i config.obj
 0002:0000d8a0       ??4?$basic_string@DU?$char_traits@D@std@@V?$allocator@D@2@@std@@QEAAAEAV01@$$QEAV01@@Z 00000001400218a0 f i config.obj
 0002:0000d9a0       ??4_Iterator_base12@std@@QEAAAEAU01@AEBU01@@Z 00000001400219a0 f i config.obj
 0002:0000daa0       ??8?$_Tree_const_iterator@V?$_Tree_val@U?$_Tree_simple_types@U?$pair@$$CBW4Object_Type@@PEBVGameObject@@@std@@@std@@@std@@@std@@QEBA_NAEBV01@@Z 0000000140021aa0 f i config.obj
 0002:0000dbc0       ??A?$map@W4Object_Type@@PEBVGameObject@@U?$less@W4Object_Type@@@std@@V?$allocator@U?$pair@$$CBW4Object_Type@@PEBVGameObject@@@std@@@4@@std@@QEAAAEAPEBVGameObject@@$$QEAW4Object_Type@@@Z 0000000140021bc0 f i config.obj
 0002:0000dca0       ??C?$_Tree_const_iterator@V?$_Tree_val@U?$_Tree_simple_types@U?$pair@$$CBW4Object_Type@@PEBVGameObject@@@std@@@std@@@std@@@std@@QEBAPEBU?$pair@$$CBW4Object_Type@@PEBVGameObject@@@1@XZ 0000000140021ca0 f i config.obj
 0002:0000dd00       ??C?$_Tree_iterator@V?$_Tree_val@U?$_Tree_simple_types@U?$pair@$$CBW4Object_Type@@PEBVGameObject@@@std@@@std@@@std@@@std@@QEBAPEAU?$pair@$$CBW4Object_Type@@PEBVGameObject@@@1@XZ 0000000140021d00 f i config.obj
 0002:0000dd60       ??D?$_Tree_const_iterator@V?$_Tree_val@U?$_Tree_simple_types@U?$pair@$$CBW4Object_Type@@PEBVGameObject@@@std@@@std@@@std@@@std@@QEBAAEBU?$pair@$$CBW4Object_Type@@PEBVGameObject@@@1@XZ 0000000140021d60 f i config.obj
 0002:0000de50       ??D?$_Tree_iterator@V?$_Tree_val@U?$_Tree_simple_types@U?$pair@$$CBW4Object_Type@@PEBVGameObject@@@std@@@std@@@std@@@std@@QEBAAEAU?$pair@$$CBW4Object_Type@@PEBVGameObject@@@1@XZ 0000000140021e50 f i config.obj
 0002:0000dea0       ??E?$_Tree_const_iterator@V?$_Tree_val@U?$_Tree_simple_types@U?$pair@$$CBW4Object_Type@@PEBVGameObject@@@std@@@std@@@std@@@std@@QEAAAEAV01@XZ 0000000140021ea0 f i config.obj
 0002:0000df90       ??E?$_Tree_unchecked_const_iterator@V?$_Tree_val@U?$_Tree_simple_types@U?$pair@$$CBW4Object_Type@@PEBVGameObject@@@std@@@std@@@std@@U_Iterator_base12@2@@std@@QEAAAEAV01@XZ 0000000140021f90 f i config.obj
 0002:0000e0b0       ??F?$_Tree_const_iterator@V?$_Tree_val@U?$_Tree_simple_types@U?$pair@$$CBW4Object_Type@@PEBVGameObject@@@std@@@std@@@std@@@std@@QEAAAEAV01@XZ 00000001400220b0 f i config.obj
 0002:0000e200       ??F?$_Tree_iterator@V?$_Tree_val@U?$_Tree_simple_types@U?$pair@$$CBW4Object_Type@@PEBVGameObject@@@std@@@std@@@std@@@std@@QEAAAEAV01@XZ 0000000140022200 f i config.obj
 0002:0000e260       ??F?$_Tree_unchecked_const_iterator@V?$_Tree_val@U?$_Tree_simple_types@U?$pair@$$CBW4Object_Type@@PEBVGameObject@@@std@@@std@@@std@@U_Iterator_base12@2@@std@@QEAAAEAV01@XZ 0000000140022260 f i config.obj
 0002:0000e460       ??R?$less@W4Object_Type@@@std@@QEBA_NAEBW4Object_Type@@0@Z 0000000140022460 f i config.obj
 0002:0000e4f0       ?Create_Object@ConfigManager@@QEBAPEAVGameObject@@W4Object_Type@@@Z 00000001400224f0 f   config.obj
 0002:0000e680       ?Get_Word_Pos_End@Config_Parser@@YAPEBDPEBD@Z 0000000140022680 f   config.obj
 0002:0000e760       ?Is_Comment_Line@Config_Parser@@YA_NPEBD@Z 0000000140022760 f   config.obj
 0002:0000e7f0       ?Load@ConfigManager@@QEAA_NPEBD@Z 00000001400227f0 f   config.obj
 0002:0000e980       ?Read@Config_Parser@@YAPEBDPEBDAEAH@Z 0000000140022980 f   config.obj
 0002:0000eb10       ?Read@Config_Parser@@YAPEBDPEBDAEAM@Z 0000000140022b10 f   config.obj
 0002:0000eca0       ?Read@Config_Parser@@YAPEBDPEBDAEAV?$basic_string@DU?$char_traits@D@std@@V?$allocator@D@2@@std@@@Z 0000000140022ca0 f   config.obj
 0002:0000ee10       ?Read_Line@ConfigManager@@AEBA_KPEAU_iobuf@@PEAD_K@Z 0000000140022e10 f   config.obj
 0002:0000ef60       ?_Adopt@_Iterator_base12@std@@QEAAXPEBU_Container_base12@2@@Z 0000000140022f60 f i config.obj
 0002:0000f0a0       ?_Assign_rv_contents@?$basic_string@DU?$char_traits@D@std@@V?$allocator@D@2@@std@@QEAAX$$QEAV12@U?$integral_constant@_N$00@2@@Z 00000001400230a0 f i config.obj
 0002:0000f140       ?_Assign_rv_contents_with_alloc_always_equal@?$basic_string@DU?$char_traits@D@std@@V?$allocator@D@2@@std@@QEAAX$$QEAV12@U?$integral_constant@_N$00@2@@Z 0000000140023140 f i config.obj
 0002:0000f260       ?_Buynode0@?$_Tree_comp_alloc@V?$_Tmap_traits@W4Object_Type@@PEBVGameObject@@U?$less@W4Object_Type@@@std@@V?$allocator@U?$pair@$$CBW4Object_Type@@PEBVGameObject@@@std@@@4@$0A@@std@@@std@@QEAAPEAU?$_Tree_node@U?$pair@$$CBW4Object_Type@@PEBVGameObject@@@std@@PEAX@2@XZ 0000000140023260 f i config.obj
 0002:0000f3b0       ?_Check_offset@?$_String_val@U?$_Simple_types@D@std@@@std@@QEBAX_K@Z 00000001400233b0 f i config.obj
 0002:0000f420       ?_Clamp_suffix_size@?$_String_val@U?$_Simple_types@D@std@@@std@@QEBA_K_K0@Z 0000000140023420 f i config.obj
 0002:0000f4b0       ?_Compare@?$_Tree@V?$_Tmap_traits@W4Object_Type@@PEBVGameObject@@U?$less@W4Object_Type@@@std@@V?$allocator@U?$pair@$$CBW4Object_Type@@PEBVGameObject@@@std@@@4@$0A@@std@@@std@@IEBA_NAEBW4Object_Type@@0@Z 00000001400234b0 f i config.obj
 0002:0000f540       ?_Destroy_if_node@?$_Tree@V?$_Tmap_traits@W4Object_Type@@PEBVGameObject@@U?$less@W4Object_Type@@@std@@V?$allocator@U?$pair@$$CBW4Object_Type@@PEBVGameObject@@@std@@@4@$0A@@std@@@std@@IEAAXPEAU?$_Tree_node@U?$pair@$$CBW4Object_Type@@PEBVGameObject@@@std@@PEAX@2@@Z 0000000140023540 f i config.obj
 0002:0000f5e0       ?_Freenode0@?$_Tree_comp_alloc@V?$_Tmap_traits@W4Object_Type@@PEBVGameObject@@U?$less@W4Object_Type@@@std@@V?$allocator@U?$pair@$$CBW4Object_Type@@PEBVGameObject@@@std@@@4@$0A@@std@@@std@@QEAAXPEAU?$_Tree_node@U?$pair@$$CBW4Object_Type@@PEBVGameObject@@@std@@PEAX@2@@Z 00000001400235e0 f i config.obj
 0002:0000f650       ?_Get_data@?$_Tree_comp_alloc@V?$_Tmap_traits@W4Object_Type@@PEBVGameObject@@U?$less@W4Object_Type@@@std@@V?$allocator@U?$pair@$$CBW4Object_Type@@PEBVGameObject@@@std@@@4@$0A@@std@@@std@@QEAAAEAV?$_Tree_val@U?$_Tree_simple_types@U?$pair@$$CBW4Object_Type@@PEBVGameObject@@@std@@@std@@@2@XZ 0000000140023650 f i config.obj
 0002:0000f6b0       ?_Get_data@?$_Tree_comp_alloc@V?$_Tmap_traits@W4Object_Type@@PEBVGameObject@@U?$less@W4Object_Type@@@std@@V?$allocator@U?$pair@$$CBW4Object_Type@@PEBVGameObject@@@std@@@4@$0A@@std@@@std@@QEBAAEBV?$_Tree_val@U?$_Tree_simple_types@U?$pair@$$CBW4Object_Type@@PEBVGameObject@@@std@@@std@@@2@XZ 00000001400236b0 f i config.obj
 0002:0000f710       ?_Get_first@?$_Compressed_pair@U?$less@W4Object_Type@@@std@@V?$_Compressed_pair@V?$allocator@U?$_Tree_node@U?$pair@$$CBW4Object_Type@@PEBVGameObject@@@std@@PEAX@std@@@std@@V?$_Tree_val@U?$_Tree_simple_types@U?$pair@$$CBW4Object_Type@@PEBVGameObject@@@std@@@std@@@2@$00@2@$00@std@@QEAAAEAU?$less@W4Object_Type@@@2@XZ 0000000140023710 f i config.obj
 0002:0000f760       ?_Get_first@?$_Compressed_pair@U?$less@W4Object_Type@@@std@@V?$_Compressed_pair@V?$allocator@U?$_Tree_node@U?$pair@$$CBW4Object_Type@@PEBVGameObject@@@std@@PEAX@std@@@std@@V?$_Tree_val@U?$_Tree_simple_types@U?$pair@$$CBW4Object_Type@@PEBVGameObject@@@std@@@std@@@2@$00@2@$00@std@@QEBAAEBU?$less@W4Object_Type@@@2@XZ 0000000140023760 f i config.obj
 0002:0000f7b0       ?_Get_first@?$_Compressed_pair@V?$allocator@U?$_Tree_node@U?$pair@$$CBW4Object_Type@@PEBVGameObject@@@std@@PEAX@std@@@std@@V?$_Tree_val@U?$_Tree_simple_types@U?$pair@$$CBW4Object_Type@@PEBVGameObject@@@std@@@std@@@2@$00@std@@QEAAAEAV?$allocator@U?$_Tree_node@U?$pair@$$CBW4Object_Type@@PEBVGameObject@@@std@@PEAX@std@@@2@XZ 00000001400237b0 f i config.obj
 0002:0000f800       ?_Get_first@?$_Compressed_pair@V?$allocator@U?$_Tree_node@U?$pair@$$CBW4Object_Type@@PEBVGameObject@@@std@@PEAX@std@@@std@@V?$_Tree_val@U?$_Tree_simple_types@U?$pair@$$CBW4Object_Type@@PEBVGameObject@@@std@@@std@@@2@$00@std@@QEBAAEBV?$allocator@U?$_Tree_node@U?$pair@$$CBW4Object_Type@@PEBVGameObject@@@std@@PEAX@std@@@2@XZ 0000000140023800 f i config.obj
 0002:0000f850       ?_Get_second@?$_Compressed_pair@U?$less@W4Object_Type@@@std@@V?$_Compressed_pair@V?$allocator@U?$_Tree_node@U?$pair@$$CBW4Object_Type@@PEBVGameObject@@@std@@PEAX@std@@@std@@V?$_Tree_val@U?$_Tree_simple_types@U?$pair@$$CBW4Object_Type@@PEBVGameObject@@@std@@@std@@@2@$00@2@$00@std@@QEAAAEAV?$_Compressed_pair@V?$allocator@U?$_Tree_node@U?$pair@$$CBW4Object_Type@@PEBVGameObject@@@std@@PEAX@std@@@std@@V?$_Tree_val@U?$_Tree_simple_types@U?$pair@$$CBW4Object_Type@@PEBVGameObject@@@std@@@std@@@2@$00@2@XZ 0000000140023850 f i config.obj
 0002:0000f8a0       ?_Get_second@?$_Compressed_pair@U?$less@W4Object_Type@@@std@@V?$_Compressed_pair@V?$allocator@U?$_Tree_node@U?$pair@$$CBW4Object_Type@@PEBVGameObject@@@std@@PEAX@std@@@std@@V?$_Tree_val@U?$_Tree_simple_types@U?$pair@$$CBW4Object_Type@@PEBVGameObject@@@std@@@std@@@2@$00@2@$00@std@@QEBAAEBV?$_Compressed_pair@V?$allocator@U?$_Tree_node@U?$pair@$$CBW4Object_Type@@PEBVGameObject@@@std@@PEAX@std@@@std@@V?$_Tree_val@U?$_Tree_simple_types@U?$pair@$$CBW4Object_Type@@PEBVGameObject@@@std@@@std@@@2@$00@2@XZ 00000001400238a0 f i config.obj
 0002:0000f8f0       ?_Get_second@?$_Compressed_pair@V?$allocator@U?$_Tree_node@U?$pair@$$CBW4Object_Type@@PEBVGameObject@@@std@@PEAX@std@@@std@@V?$_Tree_val@U?$_Tree_simple_types@U?$pair@$$CBW4Object_Type@@PEBVGameObject@@@std@@@std@@@2@$00@std@@QEAAAEAV?$_Tree_val@U?$_Tree_simple_types@U?$pair@$$CBW4Object_Type@@PEBVGameObject@@@std@@@std@@@2@XZ 00000001400238f0 f i config.obj
 0002:0000f940       ?_Get_second@?$_Compressed_pair@V?$allocator@U?$_Tree_node@U?$pair@$$CBW4Object_Type@@PEBVGameObject@@@std@@PEAX@std@@@std@@V?$_Tree_val@U?$_Tree_simple_types@U?$pair@$$CBW4Object_Type@@PEBVGameObject@@@std@@@std@@@2@$00@std@@QEBAAEBV?$_Tree_val@U?$_Tree_simple_types@U?$pair@$$CBW4Object_Type@@PEBVGameObject@@@std@@@std@@@2@XZ 0000000140023940 f i config.obj
 0002:0000f990       ?_Getal@?$_Tree_comp_alloc@V?$_Tmap_traits@W4Object_Type@@PEBVGameObject@@U?$less@W4Object_Type@@@std@@V?$allocator@U?$pair@$$CBW4Object_Type@@PEBVGameObject@@@std@@@4@$0A@@std@@@std@@QEAAAEAV?$allocator@U?$_Tree_node@U?$pair@$$CBW4Object_Type@@PEBVGameObject@@@std@@PEAX@std@@@2@XZ 0000000140023990 f i config.obj
 0002:0000f9f0       ?_Getal@?$_Tree_comp_alloc@V?$_Tmap_traits@W4Object_Type@@PEBVGameObject@@U?$less@W4Object_Type@@@std@@V?$allocator@U?$pair@$$CBW4Object_Type@@PEBVGameObject@@@std@@@4@$0A@@std@@@std@@QEBAAEBV?$allocator@U?$_Tree_node@U?$pair@$$CBW4Object_Type@@PEBVGameObject@@@std@@PEAX@std@@@2@XZ 00000001400239f0 f i config.obj
 0002:0000fa50       ?_Getcomp@?$_Tree_comp_alloc@V?$_Tmap_traits@W4Object_Type@@PEBVGameObject@@U?$less@W4Object_Type@@@std@@V?$allocator@U?$pair@$$CBW4Object_Type@@PEBVGameObject@@@std@@@4@$0A@@std@@@std@@QEAAAEAU?$less@W4Object_Type@@@2@XZ 0000000140023a50 f i config.obj
 0002:0000fab0       ?_Getcomp@?$_Tree_comp_alloc@V?$_Tmap_traits@W4Object_Type@@PEBVGameObject@@U?$less@W4Object_Type@@@std@@V?$allocator@U?$pair@$$CBW4Object_Type@@PEBVGameObject@@@std@@@4@$0A@@std@@@std@@QEBAAEBU?$less@W4Object_Type@@@2@XZ 0000000140023ab0 f i config.obj
 0002:0000fb10       ?_Getcont@_Iterator_base12@std@@QEBAPEBU_Container_base12@2@XZ 0000000140023b10 f i config.obj
 0002:0000fb90       ?_Key@?$_Tree@V?$_Tmap_traits@W4Object_Type@@PEBVGameObject@@U?$less@W4Object_Type@@@std@@V?$allocator@U?$pair@$$CBW4Object_Type@@PEBVGameObject@@@std@@@4@$0A@@std@@@std@@IEBAAEBW4Object_Type@@PEAU?$_Tree_node@U?$pair@$$CBW4Object_Type@@PEBVGameObject@@@std@@PEAX@2@@Z 0000000140023b90 f i config.obj
 0002:0000fc00       ?_Kfn@?$_Tree@V?$_Tmap_traits@W4Object_Type@@PEBVGameObject@@U?$less@W4Object_Type@@@std@@V?$allocator@U?$pair@$$CBW4Object_Type@@PEBVGameObject@@@std@@@4@$0A@@std@@@std@@IEBAAEBW4Object_Type@@AEBU?$pair@$$CBW4Object_Type@@PEBVGameObject@@@2@@Z 0000000140023c00 f i config.obj
 0002:0000fc60       ?_Lmost@?$_Tree_val@U?$_Tree_simple_types@U?$pair@$$CBW4Object_Type@@PEBVGameObject@@@std@@@std@@@std@@QEBAAEAPEAU?$_Tree_node@U?$pair@$$CBW4Object_Type@@PEBVGameObject@@@std@@PEAX@2@XZ 0000000140023c60 f i config.obj
 0002:0000fcb0       ?_Lrotate@?$_Tree_val@U?$_Tree_simple_types@U?$pair@$$CBW4Object_Type@@PEBVGameObject@@@std@@@std@@@std@@QEAAXPEAU?$_Tree_node@U?$pair@$$CBW4Object_Type@@PEBVGameObject@@@std@@PEAX@2@@Z 0000000140023cb0 f i config.obj
 0002:0000fe10       ?_Max@?$_Tree_val@U?$_Tree_simple_types@U?$pair@$$CBW4Object_Type@@PEBVGameObject@@@std@@@std@@@std@@SAPEAU?$_Tree_node@U?$pair@$$CBW4Object_Type@@PEBVGameObject@@@std@@PEAX@2@PEAU32@@Z 0000000140023e10 f i config.obj
 0002:0000fe90       ?_Min@?$_Tree_val@U?$_Tree_simple_types@U?$pair@$$CBW4Object_Type@@PEBVGameObject@@@std@@@std@@@std@@SAPEAU?$_Tree_node@U?$pair@$$CBW4Object_Type@@PEBVGameObject@@@std@@PEAX@2@PEAU32@@Z 0000000140023e90 f i config.obj
 0002:0000ff10       ?_Move_alloc@?$_String_alloc@U?$_String_base_types@DV?$allocator@D@std@@@std@@@std@@QEAAXAEAV?$allocator@D@2@@Z 0000000140023f10 f i config.obj
 0002:00010000       ?_Myptr@?$_String_val@U?$_Simple_types@D@std@@@std@@QEBAPEBDXZ 0000000140024000 f i config.obj
 0002:00010090       ?_Orphan_me@_Iterator_base12@std@@QEAAXXZ 0000000140024090 f i config.obj
 0002:000101d0       ?_Rmost@?$_Tree_val@U?$_Tree_simple_types@U?$pair@$$CBW4Object_Type@@PEBVGameObject@@@std@@@std@@@std@@QEBAAEAPEAU?$_Tree_node@U?$pair@$$CBW4Object_Type@@PEBVGameObject@@@std@@PEAX@2@XZ 00000001400241d0 f i config.obj
 0002:00010230       ?_Root@?$_Tree_val@U?$_Tree_simple_types@U?$pair@$$CBW4Object_Type@@PEBVGameObject@@@std@@@std@@@std@@QEBAAEAPEAU?$_Tree_node@U?$pair@$$CBW4Object_Type@@PEBVGameObject@@@std@@PEAX@2@XZ 0000000140024230 f i config.obj
 0002:00010290       ?_Rrotate@?$_Tree_val@U?$_Tree_simple_types@U?$pair@$$CBW4Object_Type@@PEBVGameObject@@@std@@@std@@@std@@QEAAXPEAU?$_Tree_node@U?$pair@$$CBW4Object_Type@@PEBVGameObject@@@std@@PEAX@2@@Z 0000000140024290 f i config.obj
 0002:000103f0       ?_Swap_all@?$_String_alloc@U?$_String_base_types@DV?$allocator@D@std@@@std@@@std@@QEAAXAEAV12@@Z 00000001400243f0 f i config.obj
 0002:00010480       ?_Swap_all@_Container_base12@std@@QEAAXAEAU12@@Z 0000000140024480 f i config.obj
 0002:000105a0       ?_Xran@?$_String_val@U?$_Simple_types@D@std@@@std@@SAXXZ 00000001400245a0 f i config.obj
 0002:000105f0       ?allocate@?$allocator@U?$_Tree_node@U?$pair@$$CBW4Object_Type@@PEBVGameObject@@@std@@PEAX@std@@@std@@QEAAPEAU?$_Tree_node@U?$pair@$$CBW4Object_Type@@PEBVGameObject@@@std@@PEAX@2@_K@Z 00000001400245f0 f i config.obj
 0002:00010650       ?assign@?$basic_string@DU?$char_traits@D@std@@V?$allocator@D@2@@std@@QEAAAEAV12@AEBV12@_K_K@Z 0000000140024650 f i config.obj
 0002:00010720       ?begin@?$_Tree@V?$_Tmap_traits@W4Object_Type@@PEBVGameObject@@U?$less@W4Object_Type@@@std@@V?$allocator@U?$pair@$$CBW4Object_Type@@PEBVGameObject@@@std@@@4@$0A@@std@@@std@@QEAA?AV?$_Tree_iterator@V?$_Tree_val@U?$_Tree_simple_types@U?$pair@$$CBW4Object_Type@@PEBVGameObject@@@std@@@std@@@std@@@2@XZ 0000000140024720 f i config.obj
 0002:000107e0       ?c_str@?$basic_string@DU?$char_traits@D@std@@V?$allocator@D@2@@std@@QEBAPEBDXZ 00000001400247e0 f i config.obj
 0002:00010850       ?deallocate@?$_Default_allocator_traits@V?$allocator@U?$_Tree_node@U?$pair@$$CBW4Object_Type@@PEBVGameObject@@@std@@PEAX@std@@@std@@@std@@SAXAEAV?$allocator@U?$_Tree_node@U?$pair@$$CBW4Object_Type@@PEBVGameObject@@@std@@PEAX@std@@@2@QEAU?$_Tree_node@U?$pair@$$CBW4Object_Type@@PEBVGameObject@@@std@@PEAX@2@_K@Z 0000000140024850 f i config.obj
 0002:000108c0       ?deallocate@?$allocator@U?$_Tree_node@U?$pair@$$CBW4Object_Type@@PEBVGameObject@@@std@@PEAX@std@@@std@@QEAAXQEAU?$_Tree_node@U?$pair@$$CBW4Object_Type@@PEBVGameObject@@@std@@PEAX@2@_K@Z 00000001400248c0 f i config.obj
 0002:00010930       ?end@?$_Tree@V?$_Tmap_traits@W4Object_Type@@PEBVGameObject@@U?$less@W4Object_Type@@@std@@V?$allocator@U?$pair@$$CBW4Object_Type@@PEBVGameObject@@@std@@@4@$0A@@std@@@std@@QEAA?AV?$_Tree_iterator@V?$_Tree_val@U?$_Tree_simple_types@U?$pair@$$CBW4Object_Type@@PEBVGameObject@@@std@@@std@@@std@@@2@XZ 0000000140024930 f i config.obj
 0002:000109d0       ?end@?$_Tree@V?$_Tmap_traits@W4Object_Type@@PEBVGameObject@@U?$less@W4Object_Type@@@std@@V?$allocator@U?$pair@$$CBW4Object_Type@@PEBVGameObject@@@std@@@4@$0A@@std@@@std@@QEBA?AV?$_Tree_const_iterator@V?$_Tree_val@U?$_Tree_simple_types@U?$pair@$$CBW4Object_Type@@PEBVGameObject@@@std@@@std@@@std@@@2@XZ 00000001400249d0 f i config.obj
 0002:00010a70       ?find@?$_Tree@V?$_Tmap_traits@W4Object_Type@@PEBVGameObject@@U?$less@W4Object_Type@@@std@@V?$allocator@U?$pair@$$CBW4Object_Type@@PEBVGameObject@@@std@@@4@$0A@@std@@@std@@QEBA?AV?$_Tree_const_iterator@V?$_Tree_val@U?$_Tree_simple_types@U?$pair@$$CBW4Object_Type@@PEBVGameObject@@@std@@@std@@@std@@@2@AEBW4Object_Type@@@Z 0000000140024a70 f i config.obj
 0002:00010d40       ?lower_bound@?$_Tree@V?$_Tmap_traits@W4Object_Type@@PEBVGameObject@@U?$less@W4Object_Type@@@std@@V?$allocator@U?$pair@$$CBW4Object_Type@@PEBVGameObject@@@std@@@4@$0A@@std@@@std@@QEAA?AV?$_Tree_iterator@V?$_Tree_val@U?$_Tree_simple_types@U?$pair@$$CBW4Object_Type@@PEBVGameObject@@@std@@@std@@@std@@@2@AEBW4Object_Type@@@Z 0000000140024d40 f i config.obj
 0002:00010e10       ?lower_bound@?$_Tree@V?$_Tmap_traits@W4Object_Type@@PEBVGameObject@@U?$less@W4Object_Type@@@std@@V?$allocator@U?$pair@$$CBW4Object_Type@@PEBVGameObject@@@std@@@4@$0A@@std@@@std@@QEBA?AV?$_Tree_const_iterator@V?$_Tree_val@U?$_Tree_simple_types@U?$pair@$$CBW4Object_Type@@PEBVGameObject@@@std@@@std@@@std@@@2@AEBW4Object_Type@@@Z 0000000140024e10 f i config.obj
 0002:00010ee0       ?max_size@?$_Default_allocator_traits@V?$allocator@U?$_Tree_node@U?$pair@$$CBW4Object_Type@@PEBVGameObject@@@std@@PEAX@std@@@std@@@std@@SA_KAEBV?$allocator@U?$_Tree_node@U?$pair@$$CBW4Object_Type@@PEBVGameObject@@@std@@PEAX@std@@@2@@Z 0000000140024ee0 f i config.obj
 0002:00010f30       ?max_size@?$_Tree@V?$_Tmap_traits@W4Object_Type@@PEBVGameObject@@U?$less@W4Object_Type@@@std@@V?$allocator@U?$pair@$$CBW4Object_Type@@PEBVGameObject@@@std@@@4@$0A@@std@@@std@@QEBA_KXZ 0000000140024f30 f i config.obj
 0002:00010f90       ?pointer_to@?$pointer_traits@PEAU?$pair@$$CBW4Object_Type@@PEBVGameObject@@@std@@@std@@SAPEAU?$pair@$$CBW4Object_Type@@PEBVGameObject@@@2@AEAU32@@Z 0000000140024f90 f i config.obj
 0002:00010fe0       ?pointer_to@?$pointer_traits@PEBU?$pair@$$CBW4Object_Type@@PEBVGameObject@@@std@@@std@@SAPEBU?$pair@$$CBW4Object_Type@@PEBVGameObject@@@2@AEBU32@@Z 0000000140024fe0 f i config.obj
 0002:00011030       ?size@?$_Tree@V?$_Tmap_traits@W4Object_Type@@PEBVGameObject@@U?$less@W4Object_Type@@@std@@V?$allocator@U?$pair@$$CBW4Object_Type@@PEBVGameObject@@@std@@@4@$0A@@std@@@std@@QEBA_KXZ 0000000140025030 f i config.obj
 0002:00011090       ?stof@std@@YAMAEBV?$basic_string@DU?$char_traits@D@std@@V?$allocator@D@2@@1@PEA_K@Z 0000000140025090 f i config.obj
 0002:000111b0       ?stoi@std@@YAHAEBV?$basic_string@DU?$char_traits@D@std@@V?$allocator@D@2@@1@PEA_KH@Z 00000001400251b0 f i config.obj
 0002:000112e0       __local_stdio_printf_options 00000001400252e0 f i config.obj
 0002:00011320       _vfprintf_l                0000000140025320 f i config.obj
 0002:000113b0       printf                     00000001400253b0 f i config.obj
 0002:00011470       ??0?$Container@VGameObject@@@@QEAA@AEBV?$Vector2@M@sf@@0@Z 0000000140025470 f i container.obj
 0002:00011530       ??0?$Container@VWidget@@@@QEAA@AEBV?$Vector2@M@sf@@0@Z 0000000140025530 f i container.obj
 0002:000115f0       ??1?$Container@VGameObject@@@@UEAA@XZ 00000001400255f0 f i container.obj
 0002:000116b0       ??1?$Container@VWidget@@@@UEAA@XZ 00000001400256b0 f i container.obj
 0002:00011770       ??_G?$Container@VGameObject@@@@UEAAPEAXI@Z 0000000140025770 f i container.obj
 0002:00011770       ??_E?$Container@VGameObject@@@@UEAAPEAXI@Z 0000000140025770 f i container.obj
 0002:00011800       ??_E?$Container@VWidget@@@@UEAAPEAXI@Z 0000000140025800 f i container.obj
 0002:00011800       ??_G?$Container@VWidget@@@@UEAAPEAXI@Z 0000000140025800 f i container.obj
 0002:00011890       ?AddWidget@?$Container@VGameObject@@@@QEAAXPEAVGameObject@@@Z 0000000140025890 f i container.obj
 0002:00011a40       ?AddWidget@?$Container@VWidget@@@@QEAAXPEAVWidget@@@Z 0000000140025a40 f i container.obj
 0002:00011bf0       ?Draw@?$Container@VGameObject@@@@UEAAXPEAVRenderWindow@sf@@@Z 0000000140025bf0 f i container.obj
 0002:00011cd0       ?Draw@?$Container@VWidget@@@@UEAAXPEAVRenderWindow@sf@@@Z 0000000140025cd0 f i container.obj
 0002:00011db0       ?GetWidget@?$Container@VGameObject@@@@QEBAPEAVGameObject@@_K@Z 0000000140025db0 f i container.obj
 0002:00011e50       ?GetWidget@?$Container@VWidget@@@@QEBAPEAVWidget@@_K@Z 0000000140025e50 f i container.obj
 0002:00011ef0       ?GetWidgetsCount@?$Container@VGameObject@@@@QEBA_KXZ 0000000140025ef0 f i container.obj
 0002:00011f40       ?GetWidgetsCount@?$Container@VWidget@@@@QEBA_KXZ 0000000140025f40 f i container.obj
 0002:00011f90       ?HandleEvent@?$Container@VGameObject@@@@UEAAXAEBVEvent@sf@@@Z 0000000140025f90 f i container.obj
 0002:00011fe0       ?HandleEvent@?$Container@VWidget@@@@UEAAXAEBVEvent@sf@@@Z 0000000140025fe0 f   container.obj
 0002:000120b0       ?RemoveWidget@?$Container@VGameObject@@@@QEAA_NPEAVGameObject@@@Z 00000001400260b0 f i container.obj
 0002:00012270       ?RemoveWidget@?$Container@VWidget@@@@QEAA_NPEAVWidget@@@Z 0000000140026270 f i container.obj
 0002:00012430       ?SetPos@?$Container@VGameObject@@@@UEAAXAEBV?$Vector2@M@sf@@@Z 0000000140026430 f i container.obj
 0002:000124f0       ?SetPos@?$Container@VWidget@@@@UEAAXAEBV?$Vector2@M@sf@@@Z 00000001400264f0 f i container.obj
 0002:000125b0       ?Update@?$Container@VGameObject@@@@UEAAXAEBVTime@sf@@@Z 00000001400265b0 f i container.obj
 0002:00012680       ?Update@?$Container@VWidget@@@@UEAAXAEBVTime@sf@@@Z 0000000140026680 f i container.obj
 0002:00012750       ??$?0$$V@?$_Compressed_pair@V?$allocator@PEAV?$Container@VWidget@@@@@std@@V?$_Vector_val@U?$_Simple_types@PEAV?$Container@VWidget@@@@@std@@@2@$00@std@@QEAA@U_Zero_then_variadic_args_t@1@@Z 0000000140026750 f i engine.obj
 0002:000127c0       ??$?0$$V@?$_Compressed_pair@V?$allocator@PEAVObject@@@std@@V?$_Vector_val@U?$_Simple_types@PEAVObject@@@std@@@2@$00@std@@QEAA@U_Zero_then_variadic_args_t@1@@Z 00000001400267c0 f i engine.obj
 0002:00012830       ??$?0$$V@?$_Compressed_pair@V?$allocator@U?$_Tree_node@U?$pair@$$CBW4Object_Type@@PEBVGameObject@@@std@@PEAX@std@@@std@@V?$_Tree_val@U?$_Tree_simple_types@U?$pair@$$CBW4Object_Type@@PEBVGameObject@@@std@@@std@@@2@$00@std@@QEAA@U_Zero_then_variadic_args_t@1@@Z 0000000140026830 f i engine.obj
 0002:000128a0       ??$?0AEBU?$less@W4Object_Type@@@std@@U_Zero_then_variadic_args_t@1@@?$_Compressed_pair@U?$less@W4Object_Type@@@std@@V?$_Compressed_pair@V?$allocator@U?$_Tree_node@U?$pair@$$CBW4Object_Type@@PEBVGameObject@@@std@@PEAX@std@@@std@@V?$_Tree_val@U?$_Tree_simple_types@U?$pair@$$CBW4Object_Type@@PEBVGameObject@@@std@@@std@@@2@$00@2@$00@std@@QEAA@U_One_then_variadic_args_t@1@AEBU?$less@W4Object_Type@@@1@$$QEAU_Zero_then_variadic_args_t@1@@Z 00000001400268a0 f i engine.obj
 0002:00012930       ??$?0PEAV?$Container@VWidget@@@@@?$allocator@U_Container_proxy@std@@@std@@QEAA@AEBV?$allocator@PEAV?$Container@VWidget@@@@@1@@Z 0000000140026930 f i engine.obj
 0002:00012980       ??$?0PEAVObject@@@?$allocator@U_Container_proxy@std@@@std@@QEAA@AEBV?$allocator@PEAVObject@@@1@@Z 0000000140026980 f i engine.obj
 0002:000129d0       ??$?0U?$_Tree_node@U?$pair@$$CBW4Object_Type@@PEBVGameObject@@@std@@PEAX@std@@@?$allocator@U_Container_proxy@std@@@std@@QEAA@AEBV?$allocator@U?$_Tree_node@U?$pair@$$CBW4Object_Type@@PEBVGameObject@@@std@@PEAX@std@@@1@@Z 00000001400269d0 f i engine.obj
 0002:00012a20       ??$_Copy_memmove@PEAPEAV?$Container@VWidget@@@@PEAPEAV1@@std@@YAPEAPEAV?$Container@VWidget@@@@PEAPEAV1@00@Z 0000000140026a20 f i engine.obj
 0002:00012ae0       ??$_Copy_memmove@PEAPEAVObject@@PEAPEAV1@@std@@YAPEAPEAVObject@@PEAPEAV1@00@Z 0000000140026ae0 f i engine.obj
 0002:00012ba0       ??$_Destroy_range1@V?$allocator@PEAV?$Container@VWidget@@@@@std@@@std@@YAXPEAPEAV?$Container@VWidget@@@@0AEAV?$allocator@PEAV?$Container@VWidget@@@@@0@U?$integral_constant@_N$00@0@@Z 0000000140026ba0 f i engine.obj
 0002:00012c00       ??$_Destroy_range1@V?$allocator@PEAVObject@@@std@@@std@@YAXPEAPEAVObject@@0AEAV?$allocator@PEAVObject@@@0@U?$integral_constant@_N$00@0@@Z 0000000140026c00 f i engine.obj
 0002:00012c60       ??$_Destroy_range@V?$allocator@PEAV?$Container@VWidget@@@@@std@@@std@@YAXPEAPEAV?$Container@VWidget@@@@0AEAV?$allocator@PEAV?$Container@VWidget@@@@@0@@Z 0000000140026c60 f i engine.obj
 0002:00012ce0       ??$_Destroy_range@V?$allocator@PEAVObject@@@std@@@std@@YAXPEAPEAVObject@@0AEAV?$allocator@PEAVObject@@@0@@Z 0000000140026ce0 f i engine.obj
 0002:00012d60       ??$_Emplace_back_with_unused_capacity@AEBQEAV?$Container@VWidget@@@@@?$vector@PEAV?$Container@VWidget@@@@V?$allocator@PEAV?$Container@VWidget@@@@@std@@@std@@AEAA@AEBQEAV?$Container@VWidget@@@@@Z 0000000140026d60 f i engine.obj
 0002:00012eb0       ??$_Emplace_back_with_unused_capacity@AEBQEAVObject@@@?$vector@PEAVObject@@V?$allocator@PEAVObject@@@std@@@std@@AEAA@AEBQEAVObject@@@Z 0000000140026eb0 f i engine.obj
 0002:00013000       ??$_Emplace_reallocate@AEBQEAV?$Container@VWidget@@@@@?$vector@PEAV?$Container@VWidget@@@@V?$allocator@PEAV?$Container@VWidget@@@@@std@@@std@@QEAAPEAPEAV?$Container@VWidget@@@@QEAPEAV2@AEBQEAV2@@Z 0000000140027000 f i engine.obj
 0002:00013300       ??$_Emplace_reallocate@AEBQEAVObject@@@?$vector@PEAVObject@@V?$allocator@PEAVObject@@@std@@@std@@QEAAPEAPEAVObject@@QEAPEAV2@AEBQEAV2@@Z 0000000140027300 f i engine.obj
 0002:00013600       ??$_Get_size_of_n@$07@std@@YA_K_K@Z 0000000140027600 f i engine.obj
 0002:00013690       ??$_Ptr_move_cat@PEAV?$Container@VWidget@@@@PEAV1@@std@@YA?AU_Really_trivial_ptr_iterator_tag@0@AEBQEAPEAV?$Container@VWidget@@@@0@Z 0000000140027690 f i engine.obj
 0002:000136f0       ??$_Ptr_move_cat@PEAVObject@@PEAV1@@std@@YA?AU_Really_trivial_ptr_iterator_tag@0@AEBQEAPEAVObject@@0@Z 00000001400276f0 f i engine.obj
 0002:00013750       ??$_Rechecked@PEAPEAV?$Container@VWidget@@@@PEAPEAV1@@std@@YAAEAPEAPEAV?$Container@VWidget@@@@AEAPEAPEAV1@QEAPEAV1@@Z 0000000140027750 f i engine.obj
 0002:000137c0       ??$_Rechecked@PEAPEAVObject@@PEAPEAV1@@std@@YAAEAPEAPEAVObject@@AEAPEAPEAV1@QEAPEAV1@@Z 00000001400277c0 f i engine.obj
 0002:00013830       ??$_Unchecked@PEAPEAV?$Container@VWidget@@@@@std@@YAPEAPEAV?$Container@VWidget@@@@PEAPEAV1@@Z 0000000140027830 f i engine.obj
 0002:00013880       ??$_Unchecked@PEAPEAVObject@@@std@@YAPEAPEAVObject@@PEAPEAV1@@Z 0000000140027880 f i engine.obj
 0002:000138d0       ??$_Unfancy@PEAV?$Container@VWidget@@@@@std@@YAPEAPEAV?$Container@VWidget@@@@PEAPEAV1@@Z 00000001400278d0 f i engine.obj
 0002:00013920       ??$_Unfancy@PEAVObject@@@std@@YAPEAPEAVObject@@PEAPEAV1@@Z 0000000140027920 f i engine.obj
 0002:00013970       ??$_Uninitialized_move@PEAPEAV?$Container@VWidget@@@@PEAPEAV1@V?$allocator@PEAV?$Container@VWidget@@@@@std@@@std@@YAPEAPEAV?$Container@VWidget@@@@QEAPEAV1@0PEAPEAV1@AEAV?$allocator@PEAV?$Container@VWidget@@@@@0@@Z 0000000140027970 f i engine.obj
 0002:00013a80       ??$_Uninitialized_move@PEAPEAVObject@@PEAPEAV1@V?$allocator@PEAVObject@@@std@@@std@@YAPEAPEAVObject@@QEAPEAV1@0PEAPEAV1@AEAV?$allocator@PEAVObject@@@0@@Z 0000000140027a80 f i engine.obj
 0002:00013b90       ??$_Uninitialized_move_al_unchecked@PEAV?$Container@VWidget@@@@PEAV1@V?$allocator@PEAV?$Container@VWidget@@@@@std@@@std@@YAPEAPEAV?$Container@VWidget@@@@QEAPEAV1@00AEAV?$allocator@PEAV?$Container@VWidget@@@@@0@U_Really_trivial_ptr_iterator_tag@0@U?$integral_constant@_N$00@0@@Z 0000000140027b90 f i engine.obj
 0002:00013c10       ??$_Uninitialized_move_al_unchecked@PEAVObject@@PEAV1@V?$allocator@PEAVObject@@@std@@@std@@YAPEAPEAVObject@@QEAPEAV1@00AEAV?$allocator@PEAVObject@@@0@U_Really_trivial_ptr_iterator_tag@0@U?$integral_constant@_N$00@0@@Z 0000000140027c10 f i engine.obj
 0002:00013c90       ??$addressof@V?$_Vector_val@U?$_Simple_types@PEAV?$Container@VWidget@@@@@std@@@std@@@std@@YAPEAV?$_Vector_val@U?$_Simple_types@PEAV?$Container@VWidget@@@@@std@@@0@AEAV10@@Z 0000000140027c90 f i engine.obj
 0002:00013ce0       ??$addressof@V?$_Vector_val@U?$_Simple_types@PEAVObject@@@std@@@std@@@std@@YAPEAV?$_Vector_val@U?$_Simple_types@PEAVObject@@@std@@@0@AEAV10@@Z 0000000140027ce0 f i engine.obj
 0002:00013d30       ??$construct@PEAV?$Container@VWidget@@@@AEBQEAV1@@?$_Default_allocator_traits@V?$allocator@PEAV?$Container@VWidget@@@@@std@@@std@@SAXAEAV?$allocator@PEAV?$Container@VWidget@@@@@1@QEAPEAV?$Container@VWidget@@@@AEBQEAV3@@Z 0000000140027d30 f i engine.obj
 0002:00013dc0       ??$construct@PEAVObject@@AEBQEAV1@@?$_Default_allocator_traits@V?$allocator@PEAVObject@@@std@@@std@@SAXAEAV?$allocator@PEAVObject@@@1@QEAPEAVObject@@AEBQEAV3@@Z 0000000140027dc0 f i engine.obj
 0002:00013e50       ??$emplace_back@AEBQEAV?$Container@VWidget@@@@@?$vector@PEAV?$Container@VWidget@@@@V?$allocator@PEAV?$Container@VWidget@@@@@std@@@std@@QEAA@AEBQEAV?$Container@VWidget@@@@@Z 0000000140027e50 f i engine.obj
 0002:00013f20       ??$emplace_back@AEBQEAVObject@@@?$vector@PEAVObject@@V?$allocator@PEAVObject@@@std@@@std@@QEAA@AEBQEAVObject@@@Z 0000000140027f20 f i engine.obj
 0002:00013ff0       ??$forward@AEBQEAV?$Container@VWidget@@@@@std@@YAAEBQEAV?$Container@VWidget@@@@AEBQEAV1@@Z 0000000140027ff0 f i engine.obj
 0002:00014040       ??$forward@AEBQEAVObject@@@std@@YAAEBQEAVObject@@AEBQEAV1@@Z 0000000140028040 f i engine.obj
 0002:00014090       ??$forward@AEBU?$less@W4Object_Type@@@std@@@std@@YAAEBU?$less@W4Object_Type@@@0@AEBU10@@Z 0000000140028090 f i engine.obj
 0002:000140e0       ??$forward@U_Zero_then_variadic_args_t@std@@@std@@YA$$QEAU_Zero_then_variadic_args_t@0@AEAU10@@Z 00000001400280e0 f i engine.obj
 0002:00014130       ??$move@AEAD@std@@YA$$QEADAEAD@Z 0000000140028130 f i engine.obj
 0002:00014180       ??$swap@DX@std@@YAXAEAD0@Z 0000000140028180 f i engine.obj
 0002:00014230       ??0?$_Tree@V?$_Tmap_traits@W4Object_Type@@PEBVGameObject@@U?$less@W4Object_Type@@@std@@V?$allocator@U?$pair@$$CBW4Object_Type@@PEBVGameObject@@@std@@@4@$0A@@std@@@std@@QEAA@AEBU?$less@W4Object_Type@@@1@@Z 0000000140028230 f i engine.obj
 0002:000142a0       ??0?$_Tree_comp_alloc@V?$_Tmap_traits@W4Object_Type@@PEBVGameObject@@U?$less@W4Object_Type@@@std@@V?$allocator@U?$pair@$$CBW4Object_Type@@PEBVGameObject@@@std@@@4@$0A@@std@@@std@@QEAA@AEBU?$less@W4Object_Type@@@1@@Z 00000001400282a0 f i engine.obj
 0002:00014330       ??0?$_Tree_val@U?$_Tree_simple_types@U?$pair@$$CBW4Object_Type@@PEBVGameObject@@@std@@@std@@@std@@QEAA@XZ 0000000140028330 f i engine.obj
 0002:000143b0       ??0?$_Vector_alloc@U?$_Vec_base_types@PEAV?$Container@VWidget@@@@V?$allocator@PEAV?$Container@VWidget@@@@@std@@@std@@@std@@QEAA@XZ 00000001400283b0 f i engine.obj
 0002:00014430       ??0?$_Vector_alloc@U?$_Vec_base_types@PEAVObject@@V?$allocator@PEAVObject@@@std@@@std@@@std@@QEAA@XZ 0000000140028430 f i engine.obj
 0002:000144b0       ??0?$_Vector_val@U?$_Simple_types@PEAV?$Container@VWidget@@@@@std@@@std@@QEAA@XZ 00000001400284b0 f i engine.obj
 0002:00014550       ??0?$_Vector_val@U?$_Simple_types@PEAVObject@@@std@@@std@@QEAA@XZ 0000000140028550 f i engine.obj
 0002:000145f0       ??0?$allocator@PEAV?$Container@VWidget@@@@@std@@QEAA@XZ 00000001400285f0 f i engine.obj
 0002:00014640       ??0?$allocator@PEAVObject@@@std@@QEAA@XZ 0000000140028640 f i engine.obj
 0002:00014690       ??0?$allocator@U?$_Tree_node@U?$pair@$$CBW4Object_Type@@PEBVGameObject@@@std@@PEAX@std@@@std@@QEAA@XZ 0000000140028690 f i engine.obj
 0002:000146e0       ??0?$map@W4Object_Type@@PEBVGameObject@@U?$less@W4Object_Type@@@std@@V?$allocator@U?$pair@$$CBW4Object_Type@@PEBVGameObject@@@std@@@4@@std@@QEAA@XZ 00000001400286e0 f i engine.obj
 0002:00014750       ??0?$vector@PEAV?$Container@VWidget@@@@V?$allocator@PEAV?$Container@VWidget@@@@@std@@@std@@QEAA@XZ 0000000140028750 f i engine.obj
 0002:000147c0       ??0?$vector@PEAVObject@@V?$allocator@PEAVObject@@@std@@@std@@QEAA@XZ 00000001400287c0 f i engine.obj
 0002:00014830       ??0ConfigManager@@QEAA@XZ  0000000140028830 f i engine.obj
 0002:00014890       ??0ContextSettings@sf@@QEAA@IIIIII_N@Z 0000000140028890 f i engine.obj
 0002:00014980       ??0Engine@@QEAA@XZ         0000000140028980 f   engine.obj
 0002:00014c50       ?clear@?$vector@PEAVObject@@V?$allocator@PEAVObject@@@std@@@std@@QEAAXXZ 0000000140028c50 f i engine.obj
 0002:00014d10       ??0locale@std@@QEAA@XZ     0000000140028d10 f i engine.obj
 0002:00014d80       ??1?$_Tree@V?$_Tmap_traits@W4Object_Type@@PEBVGameObject@@U?$less@W4Object_Type@@@std@@V?$allocator@U?$pair@$$CBW4Object_Type@@PEBVGameObject@@@std@@@4@$0A@@std@@@std@@QEAA@XZ 0000000140028d80 f i engine.obj
 0002:00014df0       ??1?$_Tree_comp_alloc@V?$_Tmap_traits@W4Object_Type@@PEBVGameObject@@U?$less@W4Object_Type@@@std@@V?$allocator@U?$pair@$$CBW4Object_Type@@PEBVGameObject@@@std@@@4@$0A@@std@@@std@@QEAA@XZ 0000000140028df0 f i engine.obj
 0002:00014e80       ??1?$_Vector_alloc@U?$_Vec_base_types@PEAV?$Container@VWidget@@@@V?$allocator@PEAV?$Container@VWidget@@@@@std@@@std@@@std@@QEAA@XZ 0000000140028e80 f i engine.obj
 0002:00014ee0       ??1?$_Vector_alloc@U?$_Vec_base_types@PEAVObject@@V?$allocator@PEAVObject@@@std@@@std@@@std@@QEAA@XZ 0000000140028ee0 f i engine.obj
 0002:00014f40       ??1?$map@W4Object_Type@@PEBVGameObject@@U?$less@W4Object_Type@@@std@@V?$allocator@U?$pair@$$CBW4Object_Type@@PEBVGameObject@@@std@@@4@@std@@QEAA@XZ 0000000140028f40 f i engine.obj
 0002:00014f90       ??1?$vector@PEAV?$Container@VWidget@@@@V?$allocator@PEAV?$Container@VWidget@@@@@std@@@std@@QEAA@XZ 0000000140028f90 f i engine.obj
 0002:00015000       ??1?$vector@PEAVObject@@V?$allocator@PEAVObject@@@std@@@std@@QEAA@XZ 0000000140029000 f i engine.obj
 0002:00015070       ??1ConfigManager@@QEAA@XZ  0000000140029070 f i engine.obj
 0002:000150d0       ??1Engine@@QEAA@XZ         00000001400290d0 f   engine.obj
 0002:000151f0       ??1locale@std@@QEAA@XZ     00000001400291f0 f i engine.obj
 0002:000152e0       ??9?$_Tree_const_iterator@V?$_Tree_val@U?$_Tree_simple_types@U?$pair@$$CBW4Object_Type@@PEBVGameObject@@@std@@@std@@@std@@@std@@QEBA_NAEBV01@@Z 00000001400292e0 f i engine.obj
 0002:00015370       ??A?$vector@PEAV?$Container@VWidget@@@@V?$allocator@PEAV?$Container@VWidget@@@@@std@@@std@@QEAAAEAPEAV?$Container@VWidget@@@@_K@Z 0000000140029370 f i engine.obj
 0002:00015450       ??A?$vector@PEAVObject@@V?$allocator@PEAVObject@@@std@@@std@@QEAAAEAPEAVObject@@_K@Z 0000000140029450 f i engine.obj
 0002:00015530       ??E?$_Tree_const_iterator@V?$_Tree_val@U?$_Tree_simple_types@U?$pair@$$CBW4Object_Type@@PEBVGameObject@@@std@@@std@@@std@@@std@@QEAA?AV01@H@Z 0000000140029530 f i engine.obj
 0002:00015614       ??_ERenderWindow@sf@@WDI@EAAPEAXI@Z 0000000140029614 f i engine.obj
 0002:00015620       ??_GRenderWindow@sf@@UEAAPEAXI@Z 0000000140029620 f i engine.obj
 0002:00015620       ??_ERenderWindow@sf@@UEAAPEAXI@Z 0000000140029620 f i engine.obj
 0002:000156b0       ?ChangeWindow@Engine@@QEAAXPEAV?$Window@VWidget@@@@@Z 00000001400296b0 f   engine.obj
 0002:000157d0       ?Close@Engine@@QEAAXXZ     00000001400297d0 f   engine.obj
 0002:00015820       ??0?$Vector2@H@sf@@QEAA@HH@Z 0000000140029820 f i object.obj
 0002:00015930       ?Draw@Engine@@QEAAXXZ      0000000140029930 f   engine.obj
 0002:00015a50       ?SetSize@Object@@QEAAXAEBV?$Vector2@M@sf@@@Z 0000000140029a50 f   object.obj
 0002:00015ba0       ?GetConfigManager@Engine@@QEAAPEAVConfigManager@@XZ 0000000140029ba0 f   engine.obj
 0002:00015c10       ?GetSize@Engine@@QEBA?AV?$Vector2@M@sf@@XZ 0000000140029c10 f   engine.obj
 0002:00015c70       ??_GObject@@UEAAPEAXI@Z    0000000140029c70 f i object.obj
 0002:00015c70       ??_EObject@@UEAAPEAXI@Z    0000000140029c70 f i object.obj
 0002:00015d90       ?SetSize@Engine@@QEAAXAEBV?$Vector2@M@sf@@@Z 0000000140029d90 f   engine.obj
 0002:00015e60       ?Update@Engine@@QEAAXAEBVTime@sf@@@Z 0000000140029e60 f   engine.obj
 0002:00015fa0       ?_Alloc_proxy@?$_Tree_comp_alloc@V?$_Tmap_traits@W4Object_Type@@PEBVGameObject@@U?$less@W4Object_Type@@@std@@V?$allocator@U?$pair@$$CBW4Object_Type@@PEBVGameObject@@@std@@@4@$0A@@std@@@std@@QEAAXXZ 0000000140029fa0 f i engine.obj
 0002:000160e0       ?_Alloc_proxy@?$_Vector_alloc@U?$_Vec_base_types@PEAV?$Container@VWidget@@@@V?$allocator@PEAV?$Container@VWidget@@@@@std@@@std@@@std@@QEAAXXZ 000000014002a0e0 f i engine.obj
 0002:00016220       ?_Alloc_proxy@?$_Vector_alloc@U?$_Vec_base_types@PEAVObject@@V?$allocator@PEAVObject@@@std@@@std@@@std@@QEAAXXZ 000000014002a220 f i engine.obj
 0002:00016350       ?_Buyheadnode@?$_Tree_comp_alloc@V?$_Tmap_traits@W4Object_Type@@PEBVGameObject@@U?$less@W4Object_Type@@@std@@V?$allocator@U?$pair@$$CBW4Object_Type@@PEBVGameObject@@@std@@@4@$0A@@std@@@std@@QEAAPEAU?$_Tree_node@U?$pair@$$CBW4Object_Type@@PEBVGameObject@@@std@@PEAX@2@XZ 000000014002a350 f i engine.obj
 0002:00016440       ?_Calculate_growth@?$vector@PEAV?$Container@VWidget@@@@V?$allocator@PEAV?$Container@VWidget@@@@@std@@@std@@AEBA_K_K@Z 000000014002a440 f i engine.obj
 0002:00016530       ?_Calculate_growth@?$vector@PEAVObject@@V?$allocator@PEAVObject@@@std@@@std@@AEBA_K_K@Z 000000014002a530 f i engine.obj
 0002:000166f0       ?_Change_array@?$vector@PEAV?$Container@VWidget@@@@V?$allocator@PEAV?$Container@VWidget@@@@@std@@@std@@AEAAXQEAPEAV?$Container@VWidget@@@@_K1@Z 000000014002a6f0 f i engine.obj
 0002:00016900       ?_Clrcont@_Iterator_base12@std@@QEAAXXZ 000000014002a900 f i engine.obj
 0002:00016990       ?_Construct@?$_Tree_comp_alloc@V?$_Tmap_traits@W4Object_Type@@PEBVGameObject@@U?$less@W4Object_Type@@@std@@V?$allocator@U?$pair@$$CBW4Object_Type@@PEBVGameObject@@@std@@@4@$0A@@std@@@std@@QEAAXXZ 000000014002a990 f i engine.obj
 0002:00016a10       ?_Destroy@?$vector@PEAV?$Container@VWidget@@@@V?$allocator@PEAV?$Container@VWidget@@@@@std@@@std@@AEAAXPEAPEAV?$Container@VWidget@@@@0@Z 000000014002aa10 f i engine.obj
 0002:00016a90       ?_Destroy@?$vector@PEAVObject@@V?$allocator@PEAVObject@@@std@@@std@@AEAAXPEAPEAVObject@@0@Z 000000014002aa90 f i engine.obj
 0002:00016b80       ?_Erase@?$_Tree@V?$_Tmap_traits@W4Object_Type@@PEBVGameObject@@U?$less@W4Object_Type@@@std@@V?$allocator@U?$pair@$$CBW4Object_Type@@PEBVGameObject@@@std@@@4@$0A@@std@@@std@@IEAAXPEAU?$_Tree_node@U?$pair@$$CBW4Object_Type@@PEBVGameObject@@@std@@PEAX@2@@Z 000000014002ab80 f i engine.obj
 0002:00016c40       ?_Extract@?$_Tree_val@U?$_Tree_simple_types@U?$pair@$$CBW4Object_Type@@PEBVGameObject@@@std@@@std@@@std@@QEAAPEAU?$_Tree_node@U?$pair@$$CBW4Object_Type@@PEBVGameObject@@@std@@PEAX@2@V?$_Tree_const_iterator@V?$_Tree_val@U?$_Tree_simple_types@U?$pair@$$CBW4Object_Type@@PEBVGameObject@@@std@@@std@@@std@@@2@@Z 000000014002ac40 f i engine.obj
 0002:00017260       ??0Object@@QEAA@AEBV?$Vector2@M@sf@@0@Z 000000014002b260 f   object.obj
 0002:00017400       ?_Free_proxy@?$_Tree_comp_alloc@V?$_Tmap_traits@W4Object_Type@@PEBVGameObject@@U?$less@W4Object_Type@@@std@@V?$allocator@U?$pair@$$CBW4Object_Type@@PEBVGameObject@@@std@@@4@$0A@@std@@@std@@QEAAXXZ 000000014002b400 f i engine.obj
 0002:000174e0       ?_Free_proxy@?$_Vector_alloc@U?$_Vec_base_types@PEAV?$Container@VWidget@@@@V?$allocator@PEAV?$Container@VWidget@@@@@std@@@std@@@std@@QEAAXXZ 000000014002b4e0 f i engine.obj
 0002:00017630       ?_Freeheadnode@?$_Tree_comp_alloc@V?$_Tmap_traits@W4Object_Type@@PEBVGameObject@@U?$less@W4Object_Type@@@std@@V?$allocator@U?$pair@$$CBW4Object_Type@@PEBVGameObject@@@std@@@4@$0A@@std@@@std@@QEAAXPEAU?$_Tree_node@U?$pair@$$CBW4Object_Type@@PEBVGameObject@@@std@@PEAX@2@@Z 000000014002b630 f i engine.obj
 0002:00017690       ?_Get_data@?$_Vector_alloc@U?$_Vec_base_types@PEAV?$Container@VWidget@@@@V?$allocator@PEAV?$Container@VWidget@@@@@std@@@std@@@std@@QEAAAEAV?$_Vector_val@U?$_Simple_types@PEAV?$Container@VWidget@@@@@std@@@2@XZ 000000014002b690 f i engine.obj
 0002:000176f0       ?_Get_data@?$_Vector_alloc@U?$_Vec_base_types@PEAV?$Container@VWidget@@@@V?$allocator@PEAV?$Container@VWidget@@@@@std@@@std@@@std@@QEBAAEBV?$_Vector_val@U?$_Simple_types@PEAV?$Container@VWidget@@@@@std@@@2@XZ 000000014002b6f0 f i engine.obj
 0002:00017750       ?_Get_data@?$_Vector_alloc@U?$_Vec_base_types@PEAVObject@@V?$allocator@PEAVObject@@@std@@@std@@@std@@QEAAAEAV?$_Vector_val@U?$_Simple_types@PEAVObject@@@std@@@2@XZ 000000014002b750 f i engine.obj
 0002:000177b0       ?_Get_data@?$_Vector_alloc@U?$_Vec_base_types@PEAVObject@@V?$allocator@PEAVObject@@@std@@@std@@@std@@QEBAAEBV?$_Vector_val@U?$_Simple_types@PEAVObject@@@std@@@2@XZ 000000014002b7b0 f i engine.obj
 0002:00017800       ?_Get_first@?$_Compressed_pair@V?$allocator@PEAV?$Container@VWidget@@@@@std@@V?$_Vector_val@U?$_Simple_types@PEAV?$Container@VWidget@@@@@std@@@2@$00@std@@QEAAAEAV?$allocator@PEAV?$Container@VWidget@@@@@2@XZ 000000014002b800 f i engine.obj
 0002:00017850       ?_Get_first@?$_Compressed_pair@V?$allocator@PEAV?$Container@VWidget@@@@@std@@V?$_Vector_val@U?$_Simple_types@PEAV?$Container@VWidget@@@@@std@@@2@$00@std@@QEBAAEBV?$allocator@PEAV?$Container@VWidget@@@@@2@XZ 000000014002b850 f i engine.obj
 0002:000178a0       ?_Get_first@?$_Compressed_pair@V?$allocator@PEAVObject@@@std@@V?$_Vector_val@U?$_Simple_types@PEAVObject@@@std@@@2@$00@std@@QEAAAEAV?$allocator@PEAVObject@@@2@XZ 000000014002b8a0 f i engine.obj
 0002:000178f0       ?_Get_first@?$_Compressed_pair@V?$allocator@PEAVObject@@@std@@V?$_Vector_val@U?$_Simple_types@PEAVObject@@@std@@@2@$00@std@@QEBAAEBV?$allocator@PEAVObject@@@2@XZ 000000014002b8f0 f i engine.obj
 0002:00017940       ?_Get_second@?$_Compressed_pair@V?$allocator@PEAV?$Container@VWidget@@@@@std@@V?$_Vector_val@U?$_Simple_types@PEAV?$Container@VWidget@@@@@std@@@2@$00@std@@QEAAAEAV?$_Vector_val@U?$_Simple_types@PEAV?$Container@VWidget@@@@@std@@@2@XZ 000000014002b940 f i engine.obj
 0002:00017990       ?_Get_second@?$_Compressed_pair@V?$allocator@PEAV?$Container@VWidget@@@@@std@@V?$_Vector_val@U?$_Simple_types@PEAV?$Container@VWidget@@@@@std@@@2@$00@std@@QEBAAEBV?$_Vector_val@U?$_Simple_types@PEAV?$Container@VWidget@@@@@std@@@2@XZ 000000014002b990 f i engine.obj
 0002:000179e0       ?_Get_second@?$_Compressed_pair@V?$allocator@PEAVObject@@@std@@V?$_Vector_val@U?$_Simple_types@PEAVObject@@@std@@@2@$00@std@@QEAAAEAV?$_Vector_val@U?$_Simple_types@PEAVObject@@@std@@@2@XZ 000000014002b9e0 f i engine.obj
 0002:00017a30       ?_Get_second@?$_Compressed_pair@V?$allocator@PEAVObject@@@std@@V?$_Vector_val@U?$_Simple_types@PEAVObject@@@std@@@2@$00@std@@QEBAAEBV?$_Vector_val@U?$_Simple_types@PEAVObject@@@std@@@2@XZ 000000014002ba30 f i engine.obj
 0002:00017a90       ?_Getal@?$_Vector_alloc@U?$_Vec_base_types@PEAV?$Container@VWidget@@@@V?$allocator@PEAV?$Container@VWidget@@@@@std@@@std@@@std@@QEAAAEAV?$allocator@PEAV?$Container@VWidget@@@@@2@XZ 000000014002ba90 f i engine.obj
 0002:00017af0       ?_Getal@?$_Vector_alloc@U?$_Vec_base_types@PEAV?$Container@VWidget@@@@V?$allocator@PEAV?$Container@VWidget@@@@@std@@@std@@@std@@QEBAAEBV?$allocator@PEAV?$Container@VWidget@@@@@2@XZ 000000014002baf0 f i engine.obj
 0002:00017b50       ?_Getal@?$_Vector_alloc@U?$_Vec_base_types@PEAVObject@@V?$allocator@PEAVObject@@@std@@@std@@@std@@QEAAAEAV?$allocator@PEAVObject@@@2@XZ 000000014002bb50 f i engine.obj
 0002:00017bb0       ?_Getal@?$_Vector_alloc@U?$_Vec_base_types@PEAVObject@@V?$allocator@PEAVObject@@@std@@@std@@@std@@QEBAAEBV?$allocator@PEAVObject@@@2@XZ 000000014002bbb0 f i engine.obj
 0002:00017c10       ?_Getpfirst@?$_Tree_comp_alloc@V?$_Tmap_traits@W4Object_Type@@PEBVGameObject@@U?$less@W4Object_Type@@@std@@V?$allocator@U?$pair@$$CBW4Object_Type@@PEBVGameObject@@@std@@@4@$0A@@std@@@std@@QEBAPEAPEAU_Iterator_base12@2@XZ 000000014002bc10 f i engine.obj
 0002:00017c70       ?_Getpfirst@?$_Vector_alloc@U?$_Vec_base_types@PEAV?$Container@VWidget@@@@V?$allocator@PEAV?$Container@VWidget@@@@@std@@@std@@@std@@QEBAPEAPEAU_Iterator_base12@2@XZ 000000014002bc70 f i engine.obj
 0002:00017cd0       ?_Getpfirst@?$_Vector_alloc@U?$_Vec_base_types@PEAVObject@@V?$allocator@PEAVObject@@@std@@@std@@@std@@QEBAPEAPEAU_Iterator_base12@2@XZ 000000014002bcd0 f i engine.obj
 0002:00017db0       ?_Getpnext@_Iterator_base12@std@@QEAAPEAPEAU12@XZ 000000014002bdb0 f i engine.obj
 0002:00017e50       ?_Has_unused_capacity@?$vector@PEAV?$Container@VWidget@@@@V?$allocator@PEAV?$Container@VWidget@@@@@std@@@std@@AEBA_NXZ 000000014002be50 f i engine.obj
 0002:00017f50       ?_Myend@?$_Vector_alloc@U?$_Vec_base_types@PEAV?$Container@VWidget@@@@V?$allocator@PEAV?$Container@VWidget@@@@@std@@@std@@@std@@QEAAAEAPEAPEAV?$Container@VWidget@@@@XZ 000000014002bf50 f i engine.obj
 0002:00017fb0       ?_Myend@?$_Vector_alloc@U?$_Vec_base_types@PEAV?$Container@VWidget@@@@V?$allocator@PEAV?$Container@VWidget@@@@@std@@@std@@@std@@QEBAAEBQEAPEAV?$Container@VWidget@@@@XZ 000000014002bfb0 f i engine.obj
 0002:00018010       ?_Myend@?$_Vector_alloc@U?$_Vec_base_types@PEAVObject@@V?$allocator@PEAVObject@@@std@@@std@@@std@@QEAAAEAPEAPEAVObject@@XZ 000000014002c010 f i engine.obj
 0002:00018070       ?_Myend@?$_Vector_alloc@U?$_Vec_base_types@PEAVObject@@V?$allocator@PEAVObject@@@std@@@std@@@std@@QEBAAEBQEAPEAVObject@@XZ 000000014002c070 f i engine.obj
 0002:000180d0       ?_Myfirst@?$_Vector_alloc@U?$_Vec_base_types@PEAV?$Container@VWidget@@@@V?$allocator@PEAV?$Container@VWidget@@@@@std@@@std@@@std@@QEAAAEAPEAPEAV?$Container@VWidget@@@@XZ 000000014002c0d0 f i engine.obj
 0002:00018130       ?_Myfirst@?$_Vector_alloc@U?$_Vec_base_types@PEAV?$Container@VWidget@@@@V?$allocator@PEAV?$Container@VWidget@@@@@std@@@std@@@std@@QEBAAEBQEAPEAV?$Container@VWidget@@@@XZ 000000014002c130 f i engine.obj
 0002:00018190       ?_Myfirst@?$_Vector_alloc@U?$_Vec_base_types@PEAVObject@@V?$allocator@PEAVObject@@@std@@@std@@@std@@QEAAAEAPEAPEAVObject@@XZ 000000014002c190 f i engine.obj
 0002:000181f0       ?_Myfirst@?$_Vector_alloc@U?$_Vec_base_types@PEAVObject@@V?$allocator@PEAVObject@@@std@@@std@@@std@@QEBAAEBQEAPEAVObject@@XZ 000000014002c1f0 f i engine.obj
 0002:00018250       ?_Mylast@?$_Vector_alloc@U?$_Vec_base_types@PEAV?$Container@VWidget@@@@V?$allocator@PEAV?$Container@VWidget@@@@@std@@@std@@@std@@QEAAAEAPEAPEAV?$Container@VWidget@@@@XZ 000000014002c250 f i engine.obj
 0002:000182b0       ?_Mylast@?$_Vector_alloc@U?$_Vec_base_types@PEAV?$Container@VWidget@@@@V?$allocator@PEAV?$Container@VWidget@@@@@std@@@std@@@std@@QEBAAEBQEAPEAV?$Container@VWidget@@@@XZ 000000014002c2b0 f i engine.obj
 0002:00018310       ?_Mylast@?$_Vector_alloc@U?$_Vec_base_types@PEAVObject@@V?$allocator@PEAVObject@@@std@@@std@@@std@@QEAAAEAPEAPEAVObject@@XZ 000000014002c310 f i engine.obj
 0002:00018370       ?_Mylast@?$_Vector_alloc@U?$_Vec_base_types@PEAVObject@@V?$allocator@PEAVObject@@@std@@@std@@@std@@QEBAAEBQEAPEAVObject@@XZ 000000014002c370 f i engine.obj
 0002:000183c0       ?_Myproxy@?$_Tree_comp_alloc@V?$_Tmap_traits@W4Object_Type@@PEBVGameObject@@U?$less@W4Object_Type@@@std@@V?$allocator@U?$pair@$$CBW4Object_Type@@PEBVGameObject@@@std@@@4@$0A@@std@@@std@@QEAAAEAPEAU_Container_proxy@2@XZ 000000014002c3c0 f i engine.obj
 0002:00018410       ?_Myproxy@?$_Vector_alloc@U?$_Vec_base_types@PEAV?$Container@VWidget@@@@V?$allocator@PEAV?$Container@VWidget@@@@@std@@@std@@@std@@QEAAAEAPEAU_Container_proxy@2@XZ 000000014002c410 f i engine.obj
 0002:00018460       ?_Myproxy@?$_Vector_alloc@U?$_Vec_base_types@PEAVObject@@V?$allocator@PEAVObject@@@std@@@std@@@std@@QEAAAEAPEAU_Container_proxy@2@XZ 000000014002c460 f i engine.obj
 0002:000184c0       ?_Orphan_all@?$_Tree_comp_alloc@V?$_Tmap_traits@W4Object_Type@@PEBVGameObject@@U?$less@W4Object_Type@@@std@@V?$allocator@U?$pair@$$CBW4Object_Type@@PEBVGameObject@@@std@@@4@$0A@@std@@@std@@QEAAXXZ 000000014002c4c0 f i engine.obj
 0002:00018520       ?_Orphan_all@?$_Vector_alloc@U?$_Vec_base_types@PEAV?$Container@VWidget@@@@V?$allocator@PEAV?$Container@VWidget@@@@@std@@@std@@@std@@QEAAXXZ 000000014002c520 f i engine.obj
 0002:00018580       ?_Orphan_all@?$_Vector_alloc@U?$_Vec_base_types@PEAVObject@@V?$allocator@PEAVObject@@@std@@@std@@@std@@QEAAXXZ 000000014002c580 f i engine.obj
 0002:000185d0       ?SetPos@Object@@UEAAXAEBV?$Vector2@M@sf@@@Z 000000014002c5d0 f   object.obj
 0002:000186e0       ?_Orphan_ptr@?$_Tree@V?$_Tmap_traits@W4Object_Type@@PEBVGameObject@@U?$less@W4Object_Type@@@std@@V?$allocator@U?$pair@$$CBW4Object_Type@@PEBVGameObject@@@std@@@4@$0A@@std@@@std@@IEAAXPEAU?$_Tree_node@U?$pair@$$CBW4Object_Type@@PEBVGameObject@@@std@@PEAX@2@@Z 000000014002c6e0 f i engine.obj
 0002:00018810       ?_Orphan_range@?$vector@PEAV?$Container@VWidget@@@@V?$allocator@PEAV?$Container@VWidget@@@@@std@@@std@@AEBAXPEAPEAV?$Container@VWidget@@@@0@Z 000000014002c810 f i engine.obj
 0002:00018940       ?_Orphan_range@?$vector@PEAVObject@@V?$allocator@PEAVObject@@@std@@@std@@AEBAXPEAPEAVObject@@0@Z 000000014002c940 f i engine.obj
 0002:00018ab0       ?_Tidy@?$_Tree@V?$_Tmap_traits@W4Object_Type@@PEBVGameObject@@U?$less@W4Object_Type@@@std@@V?$allocator@U?$pair@$$CBW4Object_Type@@PEBVGameObject@@@std@@@4@$0A@@std@@@std@@IEAAXXZ 000000014002cab0 f i engine.obj
 0002:00018c10       ?_Tidy@?$vector@PEAV?$Container@VWidget@@@@V?$allocator@PEAV?$Container@VWidget@@@@@std@@@std@@AEAAXXZ 000000014002cc10 f i engine.obj
 0002:00018e00       ?_Umove@?$vector@PEAV?$Container@VWidget@@@@V?$allocator@PEAV?$Container@VWidget@@@@@std@@@std@@AEAAPEAPEAV?$Container@VWidget@@@@PEAPEAV3@00@Z 000000014002ce00 f i engine.obj
 0002:00018e90       ?_Umove@?$vector@PEAVObject@@V?$allocator@PEAVObject@@@std@@@std@@AEAAPEAPEAVObject@@PEAPEAV3@00@Z 000000014002ce90 f i engine.obj
 0002:00018f20       ?_Umove_if_noexcept1@?$vector@PEAV?$Container@VWidget@@@@V?$allocator@PEAV?$Container@VWidget@@@@@std@@@std@@AEAAXPEAPEAV?$Container@VWidget@@@@00U?$integral_constant@_N$00@2@@Z 000000014002cf20 f i engine.obj
 0002:00018fb0       ?_Umove_if_noexcept1@?$vector@PEAVObject@@V?$allocator@PEAVObject@@@std@@@std@@AEAAXPEAPEAVObject@@00U?$integral_constant@_N$00@2@@Z 000000014002cfb0 f i engine.obj
 0002:00019060       ?_Umove_if_noexcept@?$vector@PEAV?$Container@VWidget@@@@V?$allocator@PEAV?$Container@VWidget@@@@@std@@@std@@AEAAXPEAPEAV?$Container@VWidget@@@@00@Z 000000014002d060 f i engine.obj
 0002:00019160       ?_Xlength@?$vector@PEAV?$Container@VWidget@@@@V?$allocator@PEAV?$Container@VWidget@@@@@std@@@std@@CAXXZ 000000014002d160 f i engine.obj
 0002:000191b0       ?_Xlength@?$vector@PEAVObject@@V?$allocator@PEAVObject@@@std@@@std@@CAXXZ 000000014002d1b0 f i engine.obj
 0002:00019210       ?allocate@?$allocator@PEAV?$Container@VWidget@@@@@std@@QEAAPEAPEAV?$Container@VWidget@@@@_K@Z 000000014002d210 f i engine.obj
 0002:00019270       ?allocate@?$allocator@PEAVObject@@@std@@QEAAPEAPEAVObject@@_K@Z 000000014002d270 f i engine.obj
 0002:00019300       ?capacity@?$vector@PEAV?$Container@VWidget@@@@V?$allocator@PEAV?$Container@VWidget@@@@@std@@@std@@QEBA_KXZ 000000014002d300 f i engine.obj
 0002:00019390       ?capacity@?$vector@PEAVObject@@V?$allocator@PEAVObject@@@std@@@std@@QEBA_KXZ 000000014002d390 f i engine.obj
 0002:00019490       ?clear@?$_Tree@V?$_Tmap_traits@W4Object_Type@@PEBVGameObject@@U?$less@W4Object_Type@@@std@@V?$allocator@U?$pair@$$CBW4Object_Type@@PEBVGameObject@@@std@@@4@$0A@@std@@@std@@QEAAXXZ 000000014002d490 f i engine.obj
 0002:00019580       ?clear@?$vector@PEAV?$Container@VWidget@@@@V?$allocator@PEAV?$Container@VWidget@@@@@std@@@std@@QEAAXXZ 000000014002d580 f i engine.obj
 0002:000196e0       ?deallocate@?$allocator@PEAV?$Container@VWidget@@@@@std@@QEAAXQEAPEAV?$Container@VWidget@@@@_K@Z 000000014002d6e0 f i engine.obj
 0002:00019750       ?deallocate@?$allocator@PEAVObject@@@std@@QEAAXQEAPEAVObject@@_K@Z 000000014002d750 f i engine.obj
 0002:00019890       ?destroyObjectsDeffered@Engine@@AEAAXXZ 000000014002d890 f   engine.obj
 0002:00019990       ?erase@?$_Tree@V?$_Tmap_traits@W4Object_Type@@PEBVGameObject@@U?$less@W4Object_Type@@@std@@V?$allocator@U?$pair@$$CBW4Object_Type@@PEBVGameObject@@@std@@@4@$0A@@std@@@std@@QEAA?AV?$_Tree_iterator@V?$_Tree_val@U?$_Tree_simple_types@U?$pair@$$CBW4Object_Type@@PEBVGameObject@@@std@@@std@@@std@@@2@V?$_Tree_const_iterator@V?$_Tree_val@U?$_Tree_simple_types@U?$pair@$$CBW4Object_Type@@PEBVGameObject@@@std@@@std@@@std@@@2@0@Z 000000014002d990 f i engine.obj
 0002:00019c40       ?erase@?$_Tree@V?$_Tmap_traits@W4Object_Type@@PEBVGameObject@@U?$less@W4Object_Type@@@std@@V?$allocator@U?$pair@$$CBW4Object_Type@@PEBVGameObject@@@std@@@4@$0A@@std@@@std@@QEAA?AV?$_Tree_iterator@V?$_Tree_val@U?$_Tree_simple_types@U?$pair@$$CBW4Object_Type@@PEBVGameObject@@@std@@@std@@@std@@@2@V?$_Tree_const_iterator@V?$_Tree_val@U?$_Tree_simple_types@U?$pair@$$CBW4Object_Type@@PEBVGameObject@@@std@@@std@@@std@@@2@@Z 000000014002dc40 f i engine.obj
 0002:00019e90       ?max_size@?$_Default_allocator_traits@V?$allocator@PEAV?$Container@VWidget@@@@@std@@@std@@SA_KAEBV?$allocator@PEAV?$Container@VWidget@@@@@2@@Z 000000014002de90 f i engine.obj
 0002:00019ee0       ?max_size@?$_Default_allocator_traits@V?$allocator@PEAVObject@@@std@@@std@@SA_KAEBV?$allocator@PEAVObject@@@2@@Z 000000014002dee0 f i engine.obj
 0002:00019f70       ?max_size@?$vector@PEAV?$Container@VWidget@@@@V?$allocator@PEAV?$Container@VWidget@@@@@std@@@std@@QEBA_KXZ 000000014002df70 f i engine.obj
 0002:0001a060       ?push_back@?$vector@PEAV?$Container@VWidget@@@@V?$allocator@PEAV?$Container@VWidget@@@@@std@@@std@@QEAAXAEBQEAV?$Container@VWidget@@@@@Z 000000014002e060 f i engine.obj
 0002:0001a0c0       ?push_back@?$vector@PEAVObject@@V?$allocator@PEAVObject@@@std@@@std@@QEAAXAEBQEAVObject@@@Z 000000014002e0c0 f i engine.obj
 0002:0001a150       ?size@?$vector@PEAV?$Container@VWidget@@@@V?$allocator@PEAV?$Container@VWidget@@@@@std@@@std@@QEBA_KXZ 000000014002e150 f i engine.obj
 0002:0001a1e0       WinMain                    000000014002e1e0 f   main.obj
 0002:0001a270       ??0?$ContainerMoving@VWidget@@@@QEAA@AEBV?$Vector2@M@sf@@0@Z 000000014002e270 f i container-moving.obj
 0002:0001a380       ??0?$Vector2@M@sf@@QEAA@XZ 000000014002e380 f i container-moving.obj
 0002:0001a3f0       ??1?$ContainerMoving@VWidget@@@@UEAA@XZ 000000014002e3f0 f i container-moving.obj
 0002:0001a460       ??_E?$ContainerMoving@VWidget@@@@UEAAPEAXI@Z 000000014002e460 f i container-moving.obj
 0002:0001a460       ??_G?$ContainerMoving@VWidget@@@@UEAAPEAXI@Z 000000014002e460 f i container-moving.obj
 0002:0001a4f0       ?HandleEvent@?$ContainerMoving@VWidget@@@@UEAAXAEBVEvent@sf@@@Z 000000014002e4f0 f i container-moving.obj
 0002:0001a9f0       ?SetMoveBeginListener@?$ContainerMoving@VWidget@@@@QEAAXP6APEAVWidget@@PEAV2@@Z@Z 000000014002e9f0 f i container-moving.obj
 0002:0001aa50       ?SetMoveEndListener@?$ContainerMoving@VWidget@@@@QEAAXP6AXPEAVWidget@@@Z@Z 000000014002ea50 f i container-moving.obj
 0002:0001aab0       ?SetMovingListener@?$ContainerMoving@VWidget@@@@QEAAXP6AXPEAVWidget@@@Z@Z 000000014002eab0 f i container-moving.obj
 0002:0001ab10       ??0?$basic_string@DU?$char_traits@D@std@@V?$allocator@D@2@@std@@QEAA@XZ 000000014002eb10 f i game-object.obj
 0002:0001ab90       ??0GameObject@@QEAA@PEBD@Z 000000014002eb90 f   game-object.obj
 0002:0001af90       ??0GameObject@@QEAA@PEBV0@@Z 000000014002ef90 f   game-object.obj
 0002:0001b1c0       ??0ID@@QEAA@XZ             000000014002f1c0 f i game-object.obj
 0002:0001b220       ??1GameObject@@UEAA@XZ     000000014002f220 f   game-object.obj
 0002:0001b2a0       ??1ID@@QEAA@XZ             000000014002f2a0 f i game-object.obj
 0002:0001b2e0       ??_EGameObject@@UEAAPEAXI@Z 000000014002f2e0 f i game-object.obj
 0002:0001b2e0       ??_GGameObject@@UEAAPEAXI@Z 000000014002f2e0 f i game-object.obj
 0002:0001b370       ?CheckIntersect@GameObject@@QEBA_NPEBV1@VTime@sf@@@Z 000000014002f370 f   game-object.obj
 0002:0001b440       ?CheckIntersectX@GameObject@@QEBA_NPEBV1@VTime@sf@@@Z 000000014002f440 f   game-object.obj
 0002:0001ba10       ?CheckIntersectY@GameObject@@QEBA_NPEBV1@VTime@sf@@@Z 000000014002fa10 f   game-object.obj
 0002:0001bff0       ?Create@GameObject@@SAPEBV1@PEBD@Z 000000014002fff0 f   game-object.obj
 0002:0001c190       ?CreateImpl@GameObject@@CAPEAV1@W4Object_Type@@PEBD@Z 0000000140030190 f   game-object.obj
 0002:0001c390       ?Generate@ID@@QEAAXXZ      0000000140030390 f i game-object.obj
 0002:0001c480       ?GetDirection@GameObject@@QEBA?AV?$Vector2@M@sf@@XZ 0000000140030480 f   game-object.obj
 0002:0001c4f0       ?GetGroup@GameObject@@QEBA_KXZ 00000001400304f0 f   game-object.obj
 0002:0001c540       ?GetHealth@GameObject@@QEBAHXZ 0000000140030540 f   game-object.obj
 0002:0001c590       ?GetType@GameObject@@QEBA?AW4Object_Type@@XZ 0000000140030590 f   game-object.obj
 0002:0001c5e0       ?GetVelocity@GameObject@@QEBA?AV?$Vector2@M@sf@@XZ 00000001400305e0 f   game-object.obj
 0002:0001c650       ?SetGroup@GameObject@@QEAAX_K@Z 0000000140030650 f   game-object.obj
 0002:0001c6b0       ?SetType@GameObject@@QEAAX_K@Z 00000001400306b0 f   game-object.obj
 0002:0001c760       ?SetVelocity@GameObject@@QEAAXAEBV?$Vector2@M@sf@@@Z 0000000140030760 f   game-object.obj
 0002:0001c7e0       ?Update@GameObject@@UEAAXAEBVTime@sf@@@Z 00000001400307e0 f   game-object.obj
 0002:0001c830       ?calculateDirection@GameObject@@AEAAXXZ 0000000140030830 f   game-object.obj
 0002:0001ca50       ?fabs@@YAMM@Z              0000000140030a50 f i game-object.obj
 0002:0001caa0       fabsf                      0000000140030aa0 f i game-object.obj
 0002:0001d3f0       ??$_Deallocate@$07$0A@@std@@YAXPEAX_K@Z 00000001400313f0 f i menu-window.obj
 0002:0001e230       ??0?$_Func_base@XPEAVButton@@@std@@QEAA@XZ 0000000140032230 f i menu-window.obj
 0002:0001e280       ??0MenuWindow@@QEAA@PEAVEngine@@AEBV?$Vector2@M@sf@@1@Z 0000000140032280 f   menu-window.obj
 0002:0001e9c0       ??1MenuWindow@@UEAA@XZ     00000001400329c0 f   menu-window.obj
 0002:0001eb80       ??_EMenuWindow@@UEAAPEAXI@Z 0000000140032b80 f i menu-window.obj
 0002:0001eb80       ??_GMenuWindow@@UEAAPEAXI@Z 0000000140032b80 f i menu-window.obj
 0002:0001f5a0       ?onEditorClicked@MenuWindow@@AEAAXPEAVButton@@@Z 00000001400335a0 f   menu-window.obj
 0002:0001f5f0       ?onExitClicked@MenuWindow@@AEAAXPEAVButton@@@Z 00000001400335f0 f   menu-window.obj
 0002:0001f640       ?onStartClicked@MenuWindow@@AEAAXPEAVButton@@@Z 0000000140033640 f   menu-window.obj
 0002:0001f780       ??0Missile@@QEAA@XZ        0000000140033780 f   missile.obj
 0002:0001f7d0       ??1Missile@@QEAA@XZ        00000001400337d0 f   missile.obj
 0002:0001f9f0       ??0?$Rect@H@sf@@QEAA@AEBV?$Vector2@H@1@0@Z 00000001400339f0 f i object.obj
 0002:0001fa80       ?calculateSpriteSize@Object@@AEAAXXZ 0000000140033a80 f   object.obj
 0002:0001fcd0       ??0Object@@QEAA@PEBD@Z     0000000140033cd0 f   object.obj
 0002:0001fdf0       ??0Object@@QEAA@PEBV0@@Z   0000000140033df0 f   object.obj
 0002:0001ff90       ??1Object@@UEAA@XZ         0000000140033f90 f   object.obj
 0002:00020160       ?CalculateSpritePos@Object@@QEAAXXZ 0000000140034160 f   object.obj
 0002:000201e0       ?CheckIntersect@Object@@QEBA_NAEBV?$Vector2@M@sf@@@Z 00000001400341e0 f   object.obj
 0002:000202f0       ?Draw@Object@@UEAAXPEAVRenderWindow@sf@@@Z 00000001400342f0 f   object.obj
 0002:00020370       ?GetAbsolutePos@Object@@QEBA?AV?$Vector2@M@sf@@XZ 0000000140034370 f   object.obj
 0002:000204d0       ?GetPos@Object@@QEBA?AV?$Vector2@M@sf@@XZ 00000001400344d0 f   object.obj
 0002:00020540       ?GetSize@Object@@QEBA?AV?$Vector2@M@sf@@XZ 0000000140034540 f   object.obj
 0002:000205b0       ?SetParent@Object@@QEAAXPEAV1@@Z 00000001400345b0 f   object.obj
 0002:00020970       ??0Player@@QEAA@PEAVGameObject@@@Z 0000000140034970 f   player.obj
 0002:000209e0       ??1Player@@QEAA@XZ         00000001400349e0 f   player.obj
 0002:00020a20       ?HandleEvent@Player@@QEAA_NAEBVEvent@sf@@@Z 0000000140034a20 f   player.obj
 0002:00020c00       ??0Tank@@QEAA@PEBD@Z       0000000140034c00 f   tank.obj
 0002:00020c90       ??0Tank@@QEAA@PEBV0@@Z     0000000140034c90 f   tank.obj
 0002:00020d10       ??1Tank@@UEAA@XZ           0000000140034d10 f   tank.obj
 0002:00020d80       ??_GTank@@UEAAPEAXI@Z      0000000140034d80 f i tank.obj
 0002:00020d80       ??_ETank@@UEAAPEAXI@Z      0000000140034d80 f i tank.obj
 0002:00020e10       ?Clone@Tank@@UEBAPEAVGameObject@@XZ 0000000140034e10 f   tank.obj
 0002:00020ed0       ?OnIntersect@Tank@@UEAAXPEAVGameObject@@@Z 0000000140034ed0 f   tank.obj
 0002:00020f20       ??0Wall@@QEAA@PEBD@Z       0000000140034f20 f   wall.obj
 0002:00020fa0       ??0Wall@@QEAA@PEBV0@@Z     0000000140034fa0 f   wall.obj
 0002:00021020       ??1Wall@@UEAA@XZ           0000000140035020 f   wall.obj
 0002:00021090       ??_GWall@@UEAAPEAXI@Z      0000000140035090 f i wall.obj
 0002:00021090       ??_EWall@@UEAAPEAXI@Z      0000000140035090 f i wall.obj
 0002:00021120       ?Clone@Wall@@UEBAPEAVGameObject@@XZ 0000000140035120 f   wall.obj
 0002:000211e0       ?OnIntersect@Wall@@UEAAXPEAVGameObject@@@Z 00000001400351e0 f   wall.obj
 0002:00021230       ??0WidgetGame@@QEAA@PEAVEngine@@AEBV?$Vector2@M@sf@@1@Z 0000000140035230 f   widget-game.obj
 0002:000213a0       ??1WidgetGame@@UEAA@XZ     00000001400353a0 f   widget-game.obj
 0002:00021410       ??_GWidgetGame@@UEAAPEAXI@Z 0000000140035410 f i widget-game.obj
 0002:00021410       ??_EWidgetGame@@UEAAPEAXI@Z 0000000140035410 f i widget-game.obj
 0002:000214a0       ?Draw@WidgetGame@@UEAAXPEAVRenderWindow@sf@@@Z 00000001400354a0 f   widget-game.obj
 0002:00021500       ?GetNearestIntersectX@WidgetGame@@AEBAPEAVGameObject@@PEBV2@VTime@sf@@@Z 0000000140035500 f   widget-game.obj
 0002:000216f0       ?GetNearestIntersectY@WidgetGame@@AEBAPEAVGameObject@@PEBV2@VTime@sf@@@Z 00000001400356f0 f   widget-game.obj
 0002:000218e0       ?HandleEvent@WidgetGame@@UEAAXAEBVEvent@sf@@@Z 00000001400358e0 f   widget-game.obj
 0002:00021960       ?Update@WidgetGame@@UEAAXAEBVTime@sf@@@Z 0000000140035960 f   widget-game.obj
 0002:00021c10       ?createWorldWalls@WidgetGame@@QEAAXPEBVConfigManager@@@Z 0000000140035c10 f   widget-game.obj
 0002:00021f40       ??0?$Rect@M@sf@@QEAA@MMMM@Z 0000000140035f40 f i widget.obj
 0002:00022000       ??0Widget@@QEAA@AEBV?$Vector2@M@sf@@0@Z 0000000140036000 f   widget.obj
 0002:00022090       ??1Widget@@UEAA@XZ         0000000140036090 f   widget.obj
 0002:00022100       ??_GWidget@@UEAAPEAXI@Z    0000000140036100 f i widget.obj
 0002:00022100       ??_EWidget@@UEAAPEAXI@Z    0000000140036100 f i widget.obj
 0002:00022190       ?Draw@Widget@@UEAAXPEAVRenderWindow@sf@@@Z 0000000140036190 f   widget.obj
 0002:000223a0       ??0WidgetTemplates@@QEAA@AEBV?$Vector2@M@sf@@0@Z 00000001400363a0 f   widget-templates.obj
 0002:00022430       ??1WidgetTemplates@@UEAA@XZ 0000000140036430 f   widget-templates.obj
 0002:000224a0       ??_GWidgetTemplates@@UEAAPEAXI@Z 00000001400364a0 f i widget-templates.obj
 0002:000224a0       ??_EWidgetTemplates@@UEAAPEAXI@Z 00000001400364a0 f i widget-templates.obj
 0002:00022530       ??0?$Window@VWidget@@@@QEAA@AEBV?$Vector2@M@sf@@0@Z 0000000140036530 f i window.obj
 0002:000225c0       ??1?$Window@VWidget@@@@UEAA@XZ 00000001400365c0 f i window.obj
 0002:00022630       ??_E?$Window@VWidget@@@@UEAAPEAXI@Z 0000000140036630 f i window.obj
 0002:00022630       ??_G?$Window@VWidget@@@@UEAAPEAXI@Z 0000000140036630 f i window.obj
 0002:000226c0       ??0WindowGame@@QEAA@PEAVEngine@@AEBV?$Vector2@M@sf@@1@Z 00000001400366c0 f   window-game.obj
 0002:00022850       ??1WindowGame@@UEAA@XZ     0000000140036850 f   window-game.obj
 0002:000228c0       ??_EWindowGame@@UEAAPEAXI@Z 00000001400368c0 f i window-game.obj
 0002:000228c0       ??_GWindowGame@@UEAAPEAXI@Z 00000001400368c0 f i window-game.obj
 0002:000229b0       ??0WindowEditor@@QEAA@PEAVEngine@@AEBV?$Vector2@M@sf@@1@Z 00000001400369b0 f   window-editor.obj
 0002:00022b60       ??1WindowEditor@@UEAA@XZ   0000000140036b60 f   window-editor.obj
 0002:00022c70       ??_GWindowEditor@@UEAAPEAXI@Z 0000000140036c70 f i window-editor.obj
 0002:00022c70       ??_EWindowEditor@@UEAAPEAXI@Z 0000000140036c70 f i window-editor.obj
 0002:00022cf3       ?setPosition@Transformable@sf@@QEAAXMM@Z 0000000140036cf3 f   sfml-graphics-d:sfml-graphics-d-2.dll
 0002:00022cf9       ?setOrigin@Transformable@sf@@QEAAXAEBV?$Vector2@M@2@@Z 0000000140036cf9 f   sfml-graphics-d:sfml-graphics-d-2.dll
 0002:00022cff       ??0Font@sf@@QEAA@XZ        0000000140036cff f   sfml-graphics-d:sfml-graphics-d-2.dll
 0002:00022d05       ??1Font@sf@@QEAA@XZ        0000000140036d05 f   sfml-graphics-d:sfml-graphics-d-2.dll
 0002:00022d0b       ?loadFromFile@Font@sf@@QEAA_NAEBV?$basic_string@DU?$char_traits@D@std@@V?$allocator@D@2@@std@@@Z 0000000140036d0b f   sfml-graphics-d:sfml-graphics-d-2.dll
 0002:00022d11       ?draw@RenderTarget@sf@@QEAAXAEBVDrawable@2@AEBVRenderStates@2@@Z 0000000140036d11 f   sfml-graphics-d:sfml-graphics-d-2.dll
 0002:00022d17       ??0Text@sf@@QEAA@XZ        0000000140036d17 f   sfml-graphics-d:sfml-graphics-d-2.dll
 0002:00022d1d       ?setString@Text@sf@@QEAAXAEBVString@2@@Z 0000000140036d1d f   sfml-graphics-d:sfml-graphics-d-2.dll
 0002:00022d23       ?setFont@Text@sf@@QEAAXAEBVFont@2@@Z 0000000140036d23 f   sfml-graphics-d:sfml-graphics-d-2.dll
 0002:00022d29       ?setCharacterSize@Text@sf@@QEAAXI@Z 0000000140036d29 f   sfml-graphics-d:sfml-graphics-d-2.dll
 0002:00022d2f       ?setColor@Text@sf@@QEAAXAEBVColor@2@@Z 0000000140036d2f f   sfml-graphics-d:sfml-graphics-d-2.dll
 0002:00022d35       ?getString@Text@sf@@QEBAAEBVString@2@XZ 0000000140036d35 f   sfml-graphics-d:sfml-graphics-d-2.dll
 0002:00022d3b       ?getLocalBounds@Text@sf@@QEBA?AV?$Rect@M@2@XZ 0000000140036d3b f   sfml-graphics-d:sfml-graphics-d-2.dll
 0002:00022d41       ??1Text@sf@@UEAA@XZ        0000000140036d41 f   sfml-graphics-d:sfml-graphics-d-2.dll
 0002:00022d47       ??0Color@sf@@QEAA@EEEE@Z   0000000140036d47 f   sfml-graphics-d:sfml-graphics-d-2.dll
 0002:00022d4d       ?clear@RenderTarget@sf@@QEAAXAEBVColor@2@@Z 0000000140036d4d f   sfml-graphics-d:sfml-graphics-d-2.dll
 0002:00022d53       ?setView@RenderTarget@sf@@QEAAXAEBVView@2@@Z 0000000140036d53 f   sfml-graphics-d:sfml-graphics-d-2.dll
 0002:00022d59       ?getDefaultView@RenderTarget@sf@@QEBAAEBVView@2@XZ 0000000140036d59 f   sfml-graphics-d:sfml-graphics-d-2.dll
 0002:00022d5f       ??0RenderWindow@sf@@QEAA@VVideoMode@1@AEBVString@1@IAEBUContextSettings@1@@Z 0000000140036d5f f   sfml-graphics-d:sfml-graphics-d-2.dll
 0002:00022d65       ??1RenderWindow@sf@@UEAA@XZ 0000000140036d65 f   sfml-graphics-d:sfml-graphics-d-2.dll
 0002:00022d6b       ?getSize@RenderWindow@sf@@UEBA?AV?$Vector2@I@2@XZ 0000000140036d6b f   sfml-graphics-d:sfml-graphics-d-2.dll
 0002:00022d71       ?onCreate@RenderWindow@sf@@MEAAXXZ 0000000140036d71 f   sfml-graphics-d:sfml-graphics-d-2.dll
 0002:00022d77       ?onResize@RenderWindow@sf@@MEAAXXZ 0000000140036d77 f   sfml-graphics-d:sfml-graphics-d-2.dll
 0002:00022d7d       ?setActive@RenderWindow@sf@@UEAA_N_N@Z 0000000140036d7d f   sfml-graphics-d:sfml-graphics-d-2.dll
 0002:00022d83       ?setPosition@Transformable@sf@@QEAAXAEBV?$Vector2@M@2@@Z 0000000140036d83 f   sfml-graphics-d:sfml-graphics-d-2.dll
 0002:00022d89       ??0Texture@sf@@QEAA@XZ     0000000140036d89 f   sfml-graphics-d:sfml-graphics-d-2.dll
 0002:00022d8f       ??1Texture@sf@@QEAA@XZ     0000000140036d8f f   sfml-graphics-d:sfml-graphics-d-2.dll
 0002:00022d95       ?loadFromFile@Texture@sf@@QEAA_NAEBV?$basic_string@DU?$char_traits@D@std@@V?$allocator@D@2@@std@@AEBV?$Rect@H@2@@Z 0000000140036d95 f   sfml-graphics-d:sfml-graphics-d-2.dll
 0002:00022d9b       ?getSize@Texture@sf@@QEBA?AV?$Vector2@I@2@XZ 0000000140036d9b f   sfml-graphics-d:sfml-graphics-d-2.dll
 0002:00022da1       ??4Texture@sf@@QEAAAEAV01@AEBV01@@Z 0000000140036da1 f   sfml-graphics-d:sfml-graphics-d-2.dll
 0002:00022da7       ??0Sprite@sf@@QEAA@XZ      0000000140036da7 f   sfml-graphics-d:sfml-graphics-d-2.dll
 0002:00022dad       ?setTexture@Sprite@sf@@QEAAXAEBVTexture@2@_N@Z 0000000140036dad f   sfml-graphics-d:sfml-graphics-d-2.dll
 0002:00022db3       ?setTextureRect@Sprite@sf@@QEAAXAEBV?$Rect@H@2@@Z 0000000140036db3 f   sfml-graphics-d:sfml-graphics-d-2.dll
 0002:00022db9       ?getTexture@Sprite@sf@@QEBAPEBVTexture@2@XZ 0000000140036db9 f   sfml-graphics-d:sfml-graphics-d-2.dll
 0002:00022dbf       ??1Sprite@sf@@UEAA@XZ      0000000140036dbf f   sfml-graphics-d:sfml-graphics-d-2.dll
 0002:00022dc5       ??4Sprite@sf@@QEAAAEAV01@AEBV01@@Z 0000000140036dc5 f   sfml-graphics-d:sfml-graphics-d-2.dll
 0002:00022dcb       ??0View@sf@@QEAA@XZ        0000000140036dcb f   sfml-graphics-d:sfml-graphics-d-2.dll
 0002:00022dd1       ?setViewport@View@sf@@QEAAXAEBV?$Rect@M@2@@Z 0000000140036dd1 f   sfml-graphics-d:sfml-graphics-d-2.dll
 0002:00022dd7       ??0VideoMode@sf@@QEAA@III@Z 0000000140036dd7 f   sfml-window-d:sfml-window-d-2.dll
 0002:00022ddd       ?close@Window@sf@@QEAAXXZ  0000000140036ddd f   sfml-window-d:sfml-window-d-2.dll
 0002:00022de3       ?isOpen@Window@sf@@QEBA_NXZ 0000000140036de3 f   sfml-window-d:sfml-window-d-2.dll
 0002:00022de9       ?pollEvent@Window@sf@@QEAA_NAEAVEvent@2@@Z 0000000140036de9 f   sfml-window-d:sfml-window-d-2.dll
 0002:00022def       ?display@Window@sf@@QEAAXXZ 0000000140036def f   sfml-window-d:sfml-window-d-2.dll
 0002:00022df5       ??0String@sf@@QEAA@PEB_W@Z 0000000140036df5 f   sfml-system-d:sfml-system-d-2.dll
 0002:00022dfb       ?toWideString@String@sf@@QEBA?AV?$basic_string@_WU?$char_traits@_W@std@@V?$allocator@_W@2@@std@@XZ 0000000140036dfb f   sfml-system-d:sfml-system-d-2.dll
 0002:00022e01       ??1String@sf@@QEAA@XZ      0000000140036e01 f   sfml-system-d:sfml-system-d-2.dll
 0002:00022e07       ?asMilliseconds@Time@sf@@QEBAHXZ 0000000140036e07 f   sfml-system-d:sfml-system-d-2.dll
 0002:00022e0d       ??Gsf@@YA?AVTime@0@V10@0@Z 0000000140036e0d f   sfml-system-d:sfml-system-d-2.dll
 0002:00022e13       ??0Clock@sf@@QEAA@XZ       0000000140036e13 f   sfml-system-d:sfml-system-d-2.dll
 0002:00022e19       ?getElapsedTime@Clock@sf@@QEBA?AVTime@2@XZ 0000000140036e19 f   sfml-system-d:sfml-system-d-2.dll
 0002:00022e1f       ??0String@sf@@QEAA@PEBDAEBVlocale@std@@@Z 0000000140036e1f f   sfml-system-d:sfml-system-d-2.dll
 0002:00022e25       ??0_Lockit@std@@QEAA@H@Z   0000000140036e25 f   msvcprtd:MSVCP140D.dll
 0002:00022e2b       ??1_Lockit@std@@QEAA@XZ    0000000140036e2b f   msvcprtd:MSVCP140D.dll
 0002:00022e31       ?_Xbad_alloc@std@@YAXXZ    0000000140036e31 f   msvcprtd:MSVCP140D.dll
 0002:00022e37       ?_Xlength_error@std@@YAXPEBD@Z 0000000140036e37 f   msvcprtd:MSVCP140D.dll
 0002:00022e3d       _Mbrtowc                   0000000140036e3d f   msvcprtd:MSVCP140D.dll
 0002:00022e43       ?_Getcvt@_Locinfo@std@@QEBA?AU_Cvtvec@@XZ 0000000140036e43 f   msvcprtd:MSVCP140D.dll
 0002:00022e49       ?_Getdays@_Locinfo@std@@QEBAPEBDXZ 0000000140036e49 f   msvcprtd:MSVCP140D.dll
 0002:00022e4f       ?_Getmonths@_Locinfo@std@@QEBAPEBDXZ 0000000140036e4f f   msvcprtd:MSVCP140D.dll
 0002:00022e55       ?_W_Getdays@_Locinfo@std@@QEBAPEBGXZ 0000000140036e55 f   msvcprtd:MSVCP140D.dll
 0002:00022e5b       ?_W_Getmonths@_Locinfo@std@@QEBAPEBGXZ 0000000140036e5b f   msvcprtd:MSVCP140D.dll
 0002:00022e61       ?_Xbad_function_call@std@@YAXXZ 0000000140036e61 f   msvcprtd:MSVCP140D.dll
 0002:00022e67       ?_Debug_message@std@@YAXPEB_W0I@Z 0000000140036e67 f   msvcprtd:MSVCP140D.dll
 0002:00022e6d       ?_Xinvalid_argument@std@@YAXPEBD@Z 0000000140036e6d f   msvcprtd:MSVCP140D.dll
 0002:00022e73       ?_Xout_of_range@std@@YAXPEBD@Z 0000000140036e73 f   msvcprtd:MSVCP140D.dll
 0002:00022e79       ?_Init@locale@std@@CAPEAV_Locimp@12@_N@Z 0000000140036e79 f   msvcprtd:MSVCP140D.dll
 0002:00022e80       ??2@YAPEAX_K@Z             0000000140036e80 f   MSVCRTD:new_scalar.obj
 0002:00022ef0       ??3@YAXPEAX_K@Z            0000000140036ef0 f   MSVCRTD:delete_scalar_size.obj
 0002:00022f20       ??$__crt_fast_decode_pointer@PEAP6AXXZ@@YAPEAP6AXXZQEAP6AXXZ@Z 0000000140036f20 f i MSVCRTD:utility.obj
 0002:00022f70       ??$__crt_fast_encode_pointer@PEAP6AXXZ@@YAPEAP6AXXZQEAP6AXXZ@Z 0000000140036f70 f i MSVCRTD:utility.obj
 0002:00022fc0       ?__crt_rotate_pointer_value@@YA_K_KH@Z 0000000140036fc0 f i MSVCRTD:utility.obj
 0002:00022fe0       ?configure_argv@__scrt_narrow_argv_policy@@SAHXZ 0000000140036fe0 f i MSVCRTD:utility.obj
 0002:00023100       ?initialize_environment@__scrt_narrow_environment_policy@@SAHXZ 0000000140037100 f i MSVCRTD:utility.obj
 0002:000231d0       NtCurrentTeb               00000001400371d0 f i MSVCRTD:utility.obj
 0002:000231e0       __scrt_acquire_startup_lock 00000001400371e0 f   MSVCRTD:utility.obj
 0002:00023260       __scrt_dllmain_after_initialize_c 0000000140037260 f   MSVCRTD:utility.obj
 0002:000232a0       __scrt_dllmain_before_initialize_c 00000001400372a0 f   MSVCRTD:utility.obj
 0002:000232d0       __scrt_dllmain_crt_thread_attach 00000001400372d0 f   MSVCRTD:utility.obj
 0002:00023310       __scrt_dllmain_crt_thread_detach 0000000140037310 f   MSVCRTD:utility.obj
 0002:00023330       __scrt_dllmain_exception_filter 0000000140037330 f   MSVCRTD:utility.obj
 0002:000233b0       __scrt_dllmain_uninitialize_c 00000001400373b0 f   MSVCRTD:utility.obj
 0002:000233f0       __scrt_dllmain_uninitialize_critical 00000001400373f0 f   MSVCRTD:utility.obj
 0002:00023410       __scrt_initialize_crt      0000000140037410 f   MSVCRTD:utility.obj
 0002:00023470       __scrt_initialize_onexit_tables 0000000140037470 f   MSVCRTD:utility.obj
 0002:000235c0       __scrt_is_nonwritable_in_current_image 00000001400375c0 f   MSVCRTD:utility.obj
 0002:00023670       __scrt_release_startup_lock 0000000140037670 f   MSVCRTD:utility.obj
 0002:000236b0       __scrt_uninitialize_crt    00000001400376b0 f   MSVCRTD:utility.obj
 0002:00023700       _onexit                    0000000140037700 f   MSVCRTD:utility.obj
 0002:000237b0       at_quick_exit              00000001400377b0 f   MSVCRTD:utility.obj
 0002:00023820       atexit                     0000000140037820 f   MSVCRTD:utility.obj
 0002:00023860       _RTC_AllocaHelper          0000000140037860 f   MSVCRTD:_stack_.obj
 0002:000238b0       _RTC_CheckStackVars        00000001400378b0 f   MSVCRTD:_stack_.obj
 0002:00023960       _RTC_CheckStackVars2       0000000140037960 f   MSVCRTD:_stack_.obj
 0002:00023ab0       _CRT_RTC_INIT              0000000140037ab0 f   MSVCRTD:_init_.obj
 0002:00023ac0       _CRT_RTC_INITW             0000000140037ac0 f   MSVCRTD:_init_.obj
 0002:00023ad0       _RTC_InitBase              0000000140037ad0 f   MSVCRTD:_init_.obj
 0002:00023b20       _RTC_Shutdown              0000000140037b20 f   MSVCRTD:_init_.obj
 0002:00023b50       __GSHandlerCheck           0000000140037b50 f   MSVCRTD:_gshandler_.obj
 0002:00023ba0       __GSHandlerCheckCommon     0000000140037ba0 f   MSVCRTD:_gshandler_.obj
 0002:00023ce0       __GSHandlerCheck_EH        0000000140037ce0 f   MSVCRTD:gshandlereh.obj
 0002:00023dc0       __security_check_cookie    0000000140037dc0 f   MSVCRTD:_amdsecgs_.obj
 0002:00023df0       ??1type_info@@UEAA@XZ      0000000140037df0 f   MSVCRTD:std_type_info_static.obj
 0002:00023e10       ??_Gtype_info@@UEAAPEAXI@Z 0000000140037e10 f i MSVCRTD:std_type_info_static.obj
 0002:00023e10       ??_Etype_info@@UEAAPEAXI@Z 0000000140037e10 f i MSVCRTD:std_type_info_static.obj
 0002:00023e60       ??_U@YAPEAX_K@Z            0000000140037e60 f   MSVCRTD:new_array.obj
 0002:00023f30       ?_RTC_AllocaFailure@@YAXPEAXPEAU_RTC_ALLOCA_NODE@@H@Z 0000000140037f30 f   MSVCRTD:_error_.obj
 0002:000240e0       ?_RTC_Failure@@YAXPEAXH@Z  00000001400380e0 f   MSVCRTD:_error_.obj
 0002:00024150       ?_RTC_StackFailure@@YAXPEAXPEBD@Z 0000000140038150 f   MSVCRTD:_error_.obj
 0002:00024690       _RTC_UninitUse             0000000140038690 f   MSVCRTD:_error_.obj
 0002:00024790       _vsprintf_s_l              0000000140038790 f i MSVCRTD:_error_.obj
 0002:00024810       sprintf_s                  0000000140038810 f i MSVCRTD:_error_.obj
 0002:00024bb0       ?set_app_type@__scrt_winmain_policy@@SAXXZ 0000000140038bb0 f i MSVCRTD:exe_winmain.obj
 0002:00024bd0       ?set_commode@__scrt_file_policy@@SAXXZ 0000000140038bd0 f i MSVCRTD:exe_winmain.obj
 0002:00024c00       ?set_fmode@__scrt_file_policy@@SAXXZ 0000000140038c00 f i MSVCRTD:exe_winmain.obj
 0002:00024c20       WinMainCRTStartup          0000000140038c20 f   MSVCRTD:exe_winmain.obj
 0002:00024c40       ??0bad_alloc@std@@AEAA@QEBD@Z 0000000140038c40 f i MSVCRTD:throw_bad_alloc.obj
 0002:00024c90       ??0bad_alloc@std@@QEAA@AEBV01@@Z 0000000140038c90 f i MSVCRTD:throw_bad_alloc.obj
 0002:00024ce0       ??0bad_alloc@std@@QEAA@XZ  0000000140038ce0 f i MSVCRTD:throw_bad_alloc.obj
 0002:00024d30       ??0bad_array_new_length@std@@QEAA@AEBV01@@Z 0000000140038d30 f i MSVCRTD:throw_bad_alloc.obj
 0002:00024d80       ??0bad_array_new_length@std@@QEAA@XZ 0000000140038d80 f i MSVCRTD:throw_bad_alloc.obj
 0002:00024dc0       ??0exception@std@@QEAA@AEBV01@@Z 0000000140038dc0 f i MSVCRTD:throw_bad_alloc.obj
 0002:00024e30       ??0exception@std@@QEAA@QEBDH@Z 0000000140038e30 f i MSVCRTD:throw_bad_alloc.obj
 0002:00024e90       ??1bad_alloc@std@@UEAA@XZ  0000000140038e90 f i MSVCRTD:throw_bad_alloc.obj
 0002:00024eb0       ??1bad_array_new_length@std@@UEAA@XZ 0000000140038eb0 f i MSVCRTD:throw_bad_alloc.obj
 0002:00024ed0       ??1exception@std@@UEAA@XZ  0000000140038ed0 f i MSVCRTD:throw_bad_alloc.obj
 0002:00024f10       ??_Gbad_alloc@std@@UEAAPEAXI@Z 0000000140038f10 f i MSVCRTD:throw_bad_alloc.obj
 0002:00024f10       ??_Ebad_alloc@std@@UEAAPEAXI@Z 0000000140038f10 f i MSVCRTD:throw_bad_alloc.obj
 0002:00024f60       ??_Ebad_array_new_length@std@@UEAAPEAXI@Z 0000000140038f60 f i MSVCRTD:throw_bad_alloc.obj
 0002:00024f60       ??_Gbad_array_new_length@std@@UEAAPEAXI@Z 0000000140038f60 f i MSVCRTD:throw_bad_alloc.obj
 0002:00024fb0       ??_Eexception@std@@UEAAPEAXI@Z 0000000140038fb0 f i MSVCRTD:throw_bad_alloc.obj
 0002:00024fb0       ??_Gexception@std@@UEAAPEAXI@Z 0000000140038fb0 f i MSVCRTD:throw_bad_alloc.obj
 0002:00025000       ?__scrt_throw_std_bad_alloc@@YAXXZ 0000000140039000 f   MSVCRTD:throw_bad_alloc.obj
 0002:00025030       ?__scrt_throw_std_bad_array_new_length@@YAXXZ 0000000140039030 f   MSVCRTD:throw_bad_alloc.obj
 0002:00025060       ?what@exception@std@@UEBAPEBDXZ 0000000140039060 f i MSVCRTD:throw_bad_alloc.obj
 0002:000250b0       ??3@YAXPEAX@Z              00000001400390b0 f   MSVCRTD:delete_scalar.obj
 0002:000250e0       __isa_available_init       00000001400390e0 f   MSVCRTD:_cpu_disp_.obj
 0002:00025530       _get_startup_argv_mode     0000000140039530 f   MSVCRTD:argv_mode.obj
 0002:00025540       __scrt_is_ucrt_dll_in_use  0000000140039540 f   MSVCRTD:ucrt_detection.obj
 0002:00025570       __crt_debugger_hook        0000000140039570 f   MSVCRTD:utility_desktop.obj
 0002:00025590       __scrt_fastfail            0000000140039590 f   MSVCRTD:utility_desktop.obj
 0002:00025790       __scrt_get_show_window_mode 0000000140039790 f   MSVCRTD:utility_desktop.obj
 0002:00025800       __scrt_initialize_winrt    0000000140039800 f   MSVCRTD:utility_desktop.obj
 0002:00025810       __scrt_is_managed_app      0000000140039810 f   MSVCRTD:utility_desktop.obj
 0002:000258e0       __scrt_set_unhandled_exception_filter 00000001400398e0 f   MSVCRTD:utility_desktop.obj
 0002:00025900       __scrt_unhandled_exception_filter 0000000140039900 f   MSVCRTD:utility_desktop.obj
 0002:00025990       _guard_check_icall_nop     0000000140039990 f i MSVCRTD:guard_support.obj
 0002:000259a0       ReadNoFence64              00000001400399a0 f i MSVCRTD:guard_support.obj
 0002:000259d0       ReadPointerNoFence         00000001400399d0 f i MSVCRTD:guard_support.obj
 0002:000259f0       _guard_icall_checks_enforced 00000001400399f0 f i MSVCRTD:guard_support.obj
 0002:00025a40       _guard_rf_checks_enforced  0000000140039a40 f i MSVCRTD:guard_support.obj
 0002:00025a50       ?_RTC_GetErrorFunc@@YAP6AHHPEBDH00ZZPEBX@Z 0000000140039a50 f   MSVCRTD:_userapi_.obj
 0002:00025a60       ?_RTC_GetErrorFuncW@@YAP6AHHPEB_WH00ZZPEBX@Z 0000000140039a60 f   MSVCRTD:_userapi_.obj
 0002:00025a70       _RTC_GetErrDesc            0000000140039a70 f   MSVCRTD:_userapi_.obj
 0002:00025a90       _RTC_NumErrors             0000000140039a90 f   MSVCRTD:_userapi_.obj
 0002:00025aa0       _RTC_SetErrorFunc          0000000140039aa0 f   MSVCRTD:_userapi_.obj
 0002:00025ac0       _RTC_SetErrorFuncW         0000000140039ac0 f   MSVCRTD:_userapi_.obj
 0002:00025ae0       _RTC_SetErrorType          0000000140039ae0 f   MSVCRTD:_userapi_.obj
 0002:00025b10       __raise_securityfailure    0000000140039b10 f   MSVCRTD:gs_report.obj
 0002:00025b60       __report_gsfailure         0000000140039b60 f   MSVCRTD:gs_report.obj
 0002:00025c70       __report_rangecheckfailure 0000000140039c70 f   MSVCRTD:gs_report.obj
 0002:00025c90       __report_securityfailure   0000000140039c90 f   MSVCRTD:gs_report.obj
 0002:00025d60       __report_securityfailureEx 0000000140039d60 f   MSVCRTD:gs_report.obj
 0002:000266b0       ?_RTC_GetSrcLine@@YAHPEAEPEA_WKPEAH1K@Z 000000014003a6b0 f   MSVCRTD:_pdblkup_.obj
 0002:00026c60       __security_init_cookie     000000014003ac60 f   MSVCRTD:gs_support.obj
 0002:00026d00       _matherr                   000000014003ad00 f   MSVCRTD:matherr.obj
 0002:00026d10       _get_startup_commit_mode   000000014003ad10 f   MSVCRTD:commit_mode.obj
 0002:00026d20       _get_startup_file_mode     000000014003ad20 f   MSVCRTD:file_mode.obj
 0002:00026d30       _get_startup_new_mode      000000014003ad30 f   MSVCRTD:new_mode.obj
 0002:00026d40       _get_startup_thread_locale_mode 000000014003ad40 f   MSVCRTD:thread_locale.obj
 0002:00026d50       ?__scrt_initialize_type_info@@YAXXZ 000000014003ad50 f   MSVCRTD:tncleanup.obj
 0002:00026d70       ?__scrt_uninitialize_type_info@@YAXXZ 000000014003ad70 f   MSVCRTD:tncleanup.obj
 0002:00026d90       _should_initialize_environment 000000014003ad90 f   MSVCRTD:env_mode.obj
 0002:00026da0       _initialize_invalid_parameter_handler 000000014003ada0 f   MSVCRTD:invalid_parameter_handler.obj
 0002:00026db0       _initialize_denormal_control 000000014003adb0 f   MSVCRTD:denormal_control.obj
 0002:00026dc0       __local_stdio_scanf_options 000000014003adc0 f i MSVCRTD:default_local_stdio_options.obj
 0002:00026dd0       __scrt_initialize_default_local_stdio_options 000000014003add0 f   MSVCRTD:default_local_stdio_options.obj
 0002:00026e30       __scrt_is_user_matherr_present 000000014003ae30 f   MSVCRTD:matherr_detection.obj
 0002:00026e60       __scrt_get_dyn_tls_init_callback 000000014003ae60 f   MSVCRTD:dyn_tls_init.obj
 0002:00026e70       __scrt_get_dyn_tls_dtor_callback 000000014003ae70 f   MSVCRTD:dyn_tls_dtor.obj
 0002:00026e80       _RTC_Initialize            000000014003ae80 f   MSVCRTD:_initsect_.obj
 0002:00026ee0       _RTC_Terminate             000000014003aee0 f   MSVCRTD:_initsect_.obj
 0002:00026f40       memcpy                     000000014003af40 f   vcruntimed:VCRUNTIME140D.dll
 0002:00026f46       memmove                    000000014003af46 f   vcruntimed:VCRUNTIME140D.dll
 0002:00026f4c       __CxxFrameHandler3         000000014003af4c f   vcruntimed:VCRUNTIME140D.dll
 0002:00026f52       _CxxThrowException         000000014003af52 f   vcruntimed:VCRUNTIME140D.dll
 0002:00026f58       _purecall                  000000014003af58 f   vcruntimed:VCRUNTIME140D.dll
 0002:00026f5e       __C_specific_handler       000000014003af5e f   vcruntimed:VCRUNTIME140D.dll
 0002:00026f64       __C_specific_handler_noexcept 000000014003af64 f   vcruntimed:VCRUNTIME140D.dll
 0002:00026f6a       __std_exception_copy       000000014003af6a f   vcruntimed:VCRUNTIME140D.dll
 0002:00026f70       __std_exception_destroy    000000014003af70 f   vcruntimed:VCRUNTIME140D.dll
 0002:00026f76       __vcrt_GetModuleFileNameW  000000014003af76 f   vcruntimed:VCRUNTIME140D.dll
 0002:00026f7c       __vcrt_GetModuleHandleW    000000014003af7c f   vcruntimed:VCRUNTIME140D.dll
 0002:00026f82       __vcrt_LoadLibraryExW      000000014003af82 f   vcruntimed:VCRUNTIME140D.dll
 0002:00026f88       __std_type_info_destroy_list 000000014003af88 f   vcruntimed:VCRUNTIME140D.dll
 0002:00026f8e       _invalid_parameter         000000014003af8e f   ucrtd:ucrtbased.dll
 0002:00026f94       wcslen                     000000014003af94 f   ucrtd:ucrtbased.dll
 0002:00026f9a       strlen                     000000014003af9a f   ucrtd:ucrtbased.dll
 0002:00026fa0       _calloc_dbg                000000014003afa0 f   ucrtd:ucrtbased.dll
 0002:00026fa6       _CrtDbgReportW             000000014003afa6 f   ucrtd:ucrtbased.dll
 0002:00026fac       _errno                     000000014003afac f   ucrtd:ucrtbased.dll
 0002:00026fb2       strtof                     000000014003afb2 f   ucrtd:ucrtbased.dll
 0002:00026fb8       strtol                     000000014003afb8 f   ucrtd:ucrtbased.dll
 0002:00026fbe       __acrt_iob_func            000000014003afbe f   ucrtd:ucrtbased.dll
 0002:00026fc4       fclose                     000000014003afc4 f   ucrtd:ucrtbased.dll
 0002:00026fca       fopen                      000000014003afca f   ucrtd:ucrtbased.dll
 0002:00026fd0       fread                      000000014003afd0 f   ucrtd:ucrtbased.dll
 0002:00026fd6       __stdio_common_vfprintf    000000014003afd6 f   ucrtd:ucrtbased.dll
 0002:00026fdc       rand                       000000014003afdc f   ucrtd:ucrtbased.dll
 0002:00026fe2       fabs                       000000014003afe2 f   ucrtd:ucrtbased.dll
 0002:00026fe8       _callnewh                  000000014003afe8 f   ucrtd:ucrtbased.dll
 0002:00026fee       malloc                     000000014003afee f   ucrtd:ucrtbased.dll
 0002:00026ff4       _seh_filter_dll            000000014003aff4 f   ucrtd:ucrtbased.dll
 0002:00026ffa       _configure_narrow_argv     000000014003affa f   ucrtd:ucrtbased.dll
 0002:00027000       _initialize_narrow_environment 000000014003b000 f   ucrtd:ucrtbased.dll
 0002:00027006       _initialize_onexit_table   000000014003b006 f   ucrtd:ucrtbased.dll
 0002:0002700c       _register_onexit_function  000000014003b00c f   ucrtd:ucrtbased.dll
 0002:00027012       _execute_onexit_table      000000014003b012 f   ucrtd:ucrtbased.dll
 0002:00027018       _crt_atexit                000000014003b018 f   ucrtd:ucrtbased.dll
 0002:0002701e       _crt_at_quick_exit         000000014003b01e f   ucrtd:ucrtbased.dll
 0002:00027024       _cexit                     000000014003b024 f   ucrtd:ucrtbased.dll
 0002:0002702a       _CrtDbgReport              000000014003b02a f   ucrtd:ucrtbased.dll
 0002:00027030       strcpy_s                   000000014003b030 f   ucrtd:ucrtbased.dll
 0002:00027036       strcat_s                   000000014003b036 f   ucrtd:ucrtbased.dll
 0002:0002703c       __stdio_common_vsprintf_s  000000014003b03c f   ucrtd:ucrtbased.dll
 0002:00027042       _seh_filter_exe            000000014003b042 f   ucrtd:ucrtbased.dll
 0002:00027048       _set_app_type              000000014003b048 f   ucrtd:ucrtbased.dll
 0002:0002704e       __setusermatherr           000000014003b04e f   ucrtd:ucrtbased.dll
 0002:00027054       _get_narrow_winmain_command_line 000000014003b054 f   ucrtd:ucrtbased.dll
 0002:0002705a       _initterm                  000000014003b05a f   ucrtd:ucrtbased.dll
 0002:00027060       _initterm_e                000000014003b060 f   ucrtd:ucrtbased.dll
 0002:00027066       exit                       000000014003b066 f   ucrtd:ucrtbased.dll
 0002:0002706c       _exit                      000000014003b06c f   ucrtd:ucrtbased.dll
 0002:00027072       _set_fmode                 000000014003b072 f   ucrtd:ucrtbased.dll
 0002:00027078       _c_exit                    000000014003b078 f   ucrtd:ucrtbased.dll
 0002:0002707e       _register_thread_local_exe_atexit_callback 000000014003b07e f   ucrtd:ucrtbased.dll
 0002:00027084       _configthreadlocale        000000014003b084 f   ucrtd:ucrtbased.dll
 0002:0002708a       _set_new_mode              000000014003b08a f   ucrtd:ucrtbased.dll
 0002:00027090       __p__commode               000000014003b090 f   ucrtd:ucrtbased.dll
 0002:00027096       _free_dbg                  000000014003b096 f   ucrtd:ucrtbased.dll
 0002:0002709c       terminate                  000000014003b09c f   ucrtd:ucrtbased.dll
 0002:000270a2       _wmakepath_s               000000014003b0a2 f   ucrtd:ucrtbased.dll
 0002:000270a8       _wsplitpath_s              000000014003b0a8 f   ucrtd:ucrtbased.dll
 0002:000270ae       wcscpy_s                   000000014003b0ae f   ucrtd:ucrtbased.dll
 0002:000270b4       IsDebuggerPresent          000000014003b0b4 f   kernel32:KERNEL32.dll
 0002:000270ba       RaiseException             000000014003b0ba f   kernel32:KERNEL32.dll
 0002:000270c0       MultiByteToWideChar        000000014003b0c0 f   kernel32:KERNEL32.dll
 0002:000270c6       WideCharToMultiByte        000000014003b0c6 f   kernel32:KERNEL32.dll
 0002:000270cc       RtlCaptureContext          000000014003b0cc f   kernel32:KERNEL32.dll
 0002:000270d2       RtlLookupFunctionEntry     000000014003b0d2 f   kernel32:KERNEL32.dll
 0002:000270d8       RtlVirtualUnwind           000000014003b0d8 f   kernel32:KERNEL32.dll
 0002:000270de       UnhandledExceptionFilter   000000014003b0de f   kernel32:KERNEL32.dll
 0002:000270e4       SetUnhandledExceptionFilter 000000014003b0e4 f   kernel32:KERNEL32.dll
 0002:000270ea       GetStartupInfoW            000000014003b0ea f   kernel32:KERNEL32.dll
 0002:000270f0       IsProcessorFeaturePresent  000000014003b0f0 f   kernel32:KERNEL32.dll
 0002:000270f6       GetModuleHandleW           000000014003b0f6 f   kernel32:KERNEL32.dll
 0002:000270fc       GetCurrentProcess          000000014003b0fc f   kernel32:KERNEL32.dll
 0002:00027102       TerminateProcess           000000014003b102 f   kernel32:KERNEL32.dll
 0002:00027108       GetLastError               000000014003b108 f   kernel32:KERNEL32.dll
 0002:0002710e       HeapAlloc                  000000014003b10e f   kernel32:KERNEL32.dll
 0002:00027114       HeapFree                   000000014003b114 f   kernel32:KERNEL32.dll
 0002:0002711a       GetProcessHeap             000000014003b11a f   kernel32:KERNEL32.dll
 0002:00027120       VirtualQuery               000000014003b120 f   kernel32:KERNEL32.dll
 0002:00027126       FreeLibrary                000000014003b126 f   kernel32:KERNEL32.dll
 0002:0002712c       GetProcAddress             000000014003b12c f   kernel32:KERNEL32.dll
 0002:00027132       QueryPerformanceCounter    000000014003b132 f   kernel32:KERNEL32.dll
 0002:00027138       GetCurrentProcessId        000000014003b138 f   kernel32:KERNEL32.dll
 0002:0002713e       GetCurrentThreadId         000000014003b13e f   kernel32:KERNEL32.dll
 0002:00027144       GetSystemTimeAsFileTime    000000014003b144 f   kernel32:KERNEL32.dll
 0002:0002714a       InitializeSListHead        000000014003b14a f   kernel32:KERNEL32.dll
 0002:00027150       __vcrt_initialize          000000014003b150 f   MSVCRTD:ucrt_stubs.obj
 0002:00027150       __acrt_initialize          000000014003b150 f   MSVCRTD:ucrt_stubs.obj
 0002:00027150       __scrt_stub_for_acrt_initialize 000000014003b150 f   MSVCRTD:ucrt_stubs.obj
 0002:00027160       __vcrt_thread_attach       000000014003b160 f   MSVCRTD:ucrt_stubs.obj
 0002:00027160       __scrt_stub_for_acrt_thread_attach 000000014003b160 f   MSVCRTD:ucrt_stubs.obj
 0002:00027160       __acrt_thread_attach       000000014003b160 f   MSVCRTD:ucrt_stubs.obj
 0002:00027170       __scrt_stub_for_acrt_thread_detach 000000014003b170 f   MSVCRTD:ucrt_stubs.obj
 0002:00027170       __acrt_thread_detach       000000014003b170 f   MSVCRTD:ucrt_stubs.obj
 0002:00027170       __vcrt_thread_detach       000000014003b170 f   MSVCRTD:ucrt_stubs.obj
 0002:00027180       __vcrt_uninitialize        000000014003b180 f   MSVCRTD:ucrt_stubs.obj
 0002:00027180       __acrt_uninitialize        000000014003b180 f   MSVCRTD:ucrt_stubs.obj
 0002:00027180       __scrt_stub_for_acrt_uninitialize 000000014003b180 f   MSVCRTD:ucrt_stubs.obj
 0002:00027190       __vcrt_uninitialize_critical 000000014003b190 f   MSVCRTD:ucrt_stubs.obj
 0002:00027190       __scrt_stub_for_acrt_uninitialize_critical 000000014003b190 f   MSVCRTD:ucrt_stubs.obj
 0002:00027190       __acrt_uninitialize_critical 000000014003b190 f   MSVCRTD:ucrt_stubs.obj
 0002:000271a0       __scrt_stub_for_is_c_termination_complete 000000014003b1a0 f   MSVCRTD:ucrt_stubs.obj
 0002:000271a0       _is_c_termination_complete 000000014003b1a0 f   MSVCRTD:ucrt_stubs.obj
 0002:000271b0       ?Execute@Engine@@QEAAXXZ   000000014003b1b0 f   engine.obj
 0002:000289f0       _guard_dispatch_icall_nop  000000014003c9f0 f   MSVCRTD:_guard_dispatch_.obj
 0003:00000000       __xc_a                     0000000140042000     MSVCRTD:initializers.obj
 0003:00000330       __xc_z                     0000000140042330     MSVCRTD:initializers.obj
 0003:00000440       __xi_a                     0000000140042440     MSVCRTD:initializers.obj
 0003:00000770       __xi_z                     0000000140042770     MSVCRTD:initializers.obj
 0003:00000880       __xp_a                     0000000140042880     MSVCRTD:initializers.obj
 0003:00000990       __xp_z                     0000000140042990     MSVCRTD:initializers.obj
 0003:00000aa0       __xt_a                     0000000140042aa0     MSVCRTD:initializers.obj
 0003:00000bb0       __xt_z                     0000000140042bb0     MSVCRTD:initializers.obj
 0003:00000d48       ??_C@_0BD@OLBABOEK@vector?$DMT?$DO?5too?5long?$AA@ 0000000140042d48     engine.obj
 0003:00001480       ??_C@_1NC@BCCBOEFF@?$AAc?$AA?3?$AA?2?$AAp?$AAr?$AAo?$AAg?$AAr?$AAa?$AAm?$AA?5?$AAf?$AAi?$AAl?$AAe?$AAs?$AA?5?$AA?$CI?$AAx?$AA8?$AA6?$AA?$CJ?$AA?2?$AAm?$AAi?$AAc?$AAr?$AAo?$AAs?$AAo?$AAf?$AAt@ 0000000140043480     button.obj
 0003:00001580       ??_C@_1EK@NIFDJFDG@?$AAs?$AAt?$AAd?$AA?3?$AA?3?$AA_?$AAA?$AAd?$AAj?$AAu?$AAs?$AAt?$AA_?$AAm?$AAa?$AAn?$AAu?$AAa?$AAl?$AAl?$AAy?$AA_?$AAv?$AAe?$AAc?$AAt?$AAo?$AAr?$AA_?$AAa?$AAl?$AAi@ 0000000140043580     button.obj
 0003:000015d8       ??_C@_1CG@JNLFBNGN@?$AA?$CC?$AAi?$AAn?$AAv?$AAa?$AAl?$AAi?$AAd?$AA?5?$AAa?$AAr?$AAg?$AAu?$AAm?$AAe?$AAn?$AAt?$AA?$CC?$AA?$AA@ 00000001400435d8     button.obj
 0003:00001610       ??_C@_0GI@EPMNOPBK@c?3?2program?5files?5?$CIx86?$CJ?2microsoft@ 0000000140043610     button.obj
 0003:00001690       ??_C@_0GI@MMIAONLL@c?3?2program?5files?5?$CIx86?$CJ?2microsoft@ 0000000140043690     button.obj
 0003:00001718       ??_7Button@@6B@            0000000140043718     button.obj
 0003:00001750       ??_C@_0CC@KHCOGICN@C?3?1C?$CL?$CL?1Tanks?1x64?1Debug?1button?4pn@ 0000000140043750     button.obj
 0003:00001778       ??_C@_0CG@IEMLCEJ@C?3?1C?$CL?$CL?1Tanks?1x64?1Debug?1capture?9i@ 0000000140043778     button.obj
 0003:000017a8       ??_C@_0N@LPFKKEBD@?3AM?3am?3PM?3pm?$AA@ 00000001400437a8     button.obj
 0003:000017b8       ??_C@_1BK@MHIKGOKE@?$AA?3?$AAA?$AAM?$AA?3?$AAa?$AAm?$AA?3?$AAP?$AAM?$AA?3?$AAp?$AAm?$AA?$AA@ 00000001400437b8     button.obj
 0003:000017d8       ??_C@_0BA@JFNIOLAK@string?5too?5long?$AA@ 00000001400437d8     button.obj
 0003:000017f0       ??_C@_0BE@LMNLACIC@_Ptr_container?5?$CB?$DN?50?$AA@ 00000001400437f0     button.obj
 0003:00001808       ??_C@_1DG@HGDKEBPG@?$AA?$CC?$AA_?$AAP?$AAt?$AAr?$AA_?$AAc?$AAo?$AAn?$AAt?$AAa?$AAi?$AAn?$AAe?$AAr?$AA?5?$AA?$CB?$AA?$DN?$AA?5?$AA0?$AA?$CC?$AA?5?$AA?$CG?$AA?$CG?$AA?5?$AA0?$AA?$AA@ 0000000140043808     button.obj
 0003:00001848       ??_C@_17CNPHIMPH@?$AA?$CF?$AAl?$AAs?$AA?$AA@ 0000000140043848     button.obj
 0003:00001860       ??_C@_1EO@GFNCMDLA@?$AAs?$AAt?$AAd?$AA?3?$AA?3?$AA_?$AAA?$AAl?$AAl?$AAo?$AAc?$AAa?$AAt?$AAe?$AA_?$AAm?$AAa?$AAn?$AAu?$AAa?$AAl?$AAl?$AAy?$AA_?$AAv?$AAe?$AAc?$AAt?$AAo?$AAr?$AA_?$AAa@ 0000000140043860     button.obj
 0003:000018c0       __real@40000000            00000001400438c0     button.obj
 0003:00002620       ??_C@_1NC@OPMKDBPG@?$AAc?$AA?3?$AA?2?$AAp?$AAr?$AAo?$AAg?$AAr?$AAa?$AAm?$AA?5?$AAf?$AAi?$AAl?$AAe?$AAs?$AA?5?$AA?$CI?$AAx?$AA8?$AA6?$AA?$CJ?$AA?2?$AAm?$AAi?$AAc?$AAr?$AAo?$AAs?$AAo?$AAf?$AAt@ 0000000140044620     config.obj
 0003:00002720       ??_C@_1DC@POOIKBAO@?$AAI?$AAT?$AAE?$AAR?$AAA?$AAT?$AAO?$AAR?$AA?5?$AAL?$AAI?$AAS?$AAT?$AA?5?$AAC?$AAO?$AAR?$AAR?$AAU?$AAP?$AAT?$AAE?$AAD?$AA?$CB?$AA?$AA@ 0000000140044720     config.obj
 0003:00002760       ??_C@_1EE@KLDMFDFL@?$AAs?$AAt?$AAd?$AA?3?$AA?3?$AA_?$AAI?$AAt?$AAe?$AAr?$AAa?$AAt?$AAo?$AAr?$AA_?$AAb?$AAa?$AAs?$AAe?$AA1?$AA2?$AA?3?$AA?3?$AA_?$AAO?$AAr?$AAp?$AAh?$AAa?$AAn?$AA_?$AAm@ 0000000140044760     config.obj
 0003:000027b8       ??_C@_1DG@PLBPCAEM@?$AA?$CC?$AAI?$AAT?$AAE?$AAR?$AAA?$AAT?$AAO?$AAR?$AA?5?$AAL?$AAI?$AAS?$AAT?$AA?5?$AAC?$AAO?$AAR?$AAR?$AAU?$AAP?$AAT?$AAE?$AAD?$AA?$CB?$AA?$CC?$AA?$AA@ 00000001400447b8     config.obj
 0003:000027f8       ??_C@_0BG@HGEDEDEC@invalid?5stoi?5argument?$AA@ 00000001400447f8     config.obj
 0003:00002818       ??_C@_0BL@MFFNMGGC@stoi?5argument?5out?5of?5range?$AA@ 0000000140044818     config.obj
 0003:00002838       ??_C@_0BG@OFLLLHIE@invalid?5stof?5argument?$AA@ 0000000140044838     config.obj
 0003:00002858       ??_C@_0BL@CGEIMNKL@stof?5argument?5out?5of?5range?$AA@ 0000000140044858     config.obj
 0003:00002878       ??_C@_01KDCPPGHE@r?$AA@    0000000140044878     config.obj
 0003:00002880       ??_C@_0BC@BGEEBOPC@File?5?$CFs?5not?5found?$AA@ 0000000140044880     config.obj
 0003:00002898       ??_C@_0BP@FLACLNDA@Buffer?5too?5small?5for?5read?5line?$AA@ 0000000140044898     config.obj
 0003:000028c0       ??_C@_0DF@CDFJBOGE@Create?5object?5error?3?5not?5found?5p@ 00000001400448c0     config.obj
 0003:00002900       ??_C@_1MM@KGLOHGEF@?$AAc?$AA?3?$AA?2?$AAp?$AAr?$AAo?$AAg?$AAr?$AAa?$AAm?$AA?5?$AAf?$AAi?$AAl?$AAe?$AAs?$AA?5?$AA?$CI?$AAx?$AA8?$AA6?$AA?$CJ?$AA?2?$AAm?$AAi?$AAc?$AAr?$AAo?$AAs?$AAo?$AAf?$AAt@ 0000000140044900     config.obj
 0003:000029f8       ??_C@_1DO@CFEEPGGJ@?$AAm?$AAa?$AAp?$AA?1?$AAs?$AAe?$AAt?$AA?5?$AAi?$AAt?$AAe?$AAr?$AAa?$AAt?$AAo?$AAr?$AAs?$AA?5?$AAi?$AAn?$AAc?$AAo?$AAm?$AAp?$AAa?$AAt?$AAi?$AAb?$AAl?$AAe?$AA?$AA@ 00000001400449f8     config.obj
 0003:00002a50       ??_C@_1BEI@IJEMBBLM@?$AAs?$AAt?$AAd?$AA?3?$AA?3?$AA_?$AAT?$AAr?$AAe?$AAe?$AA_?$AAc?$AAo?$AAn?$AAs?$AAt?$AA_?$AAi?$AAt?$AAe?$AAr?$AAa?$AAt?$AAo?$AAr?$AA?$DM?$AAc?$AAl?$AAa?$AAs?$AAs?$AA?5@ 0000000140044a50     config.obj
 0003:00002b98       ??_C@_1DM@LHGCHCBA@?$AAv?$AAe?$AAc?$AAt?$AAo?$AAr?$AA?5?$AAs?$AAu?$AAb?$AAs?$AAc?$AAr?$AAi?$AAp?$AAt?$AA?5?$AAo?$AAu?$AAt?$AA?5?$AAo?$AAf?$AA?5?$AAr?$AAa?$AAn?$AAg?$AAe?$AA?$AA@ 0000000140044b98     engine.obj
 0003:00002be0       ??_C@_1EC@JLIDLCDH@?$AA?$CC?$AAm?$AAa?$AAp?$AA?1?$AAs?$AAe?$AAt?$AA?5?$AAi?$AAt?$AAe?$AAr?$AAa?$AAt?$AAo?$AAr?$AAs?$AA?5?$AAi?$AAn?$AAc?$AAo?$AAm?$AAp?$AAa?$AAt?$AAi?$AAb?$AAl?$AAe?$AA?$CC@ 0000000140044be0     config.obj
 0003:00002c30       ??_C@_1EI@FHEHNNNM@?$AAm?$AAa?$AAp?$AA?1?$AAs?$AAe?$AAt?$AA?5?$AAi?$AAt?$AAe?$AAr?$AAa?$AAt?$AAo?$AAr?$AA?5?$AAn?$AAo?$AAt?$AA?5?$AAd?$AAe?$AAr?$AAe?$AAf?$AAe?$AAr?$AAe?$AAn?$AAc?$AAa@ 0000000140044c30     config.obj
 0003:00002c90       ??_C@_1BEG@CCJOBLNO@?$AAs?$AAt?$AAd?$AA?3?$AA?3?$AA_?$AAT?$AAr?$AAe?$AAe?$AA_?$AAc?$AAo?$AAn?$AAs?$AAt?$AA_?$AAi?$AAt?$AAe?$AAr?$AAa?$AAt?$AAo?$AAr?$AA?$DM?$AAc?$AAl?$AAa?$AAs?$AAs?$AA?5@ 0000000140044c90     config.obj
 0003:00002e20       ??_C@_1EM@KEKCOCNI@?$AA?$CC?$AAm?$AAa?$AAp?$AA?1?$AAs?$AAe?$AAt?$AA?5?$AAi?$AAt?$AAe?$AAr?$AAa?$AAt?$AAo?$AAr?$AA?5?$AAn?$AAo?$AAt?$AA?5?$AAd?$AAe?$AAr?$AAe?$AAf?$AAe?$AAr?$AAe?$AAn?$AAc@ 0000000140044e20     config.obj
 0003:00002e80       ??_C@_0BI@CFPLBAOH@invalid?5string?5position?$AA@ 0000000140044e80     config.obj
 0003:00002ea0       ??_C@_1CG@LEJCKCBB@?$AAi?$AAn?$AAv?$AAa?$AAl?$AAi?$AAd?$AA?5?$AAc?$AAo?$AAm?$AAp?$AAa?$AAr?$AAa?$AAt?$AAo?$AAr?$AA?$AA@ 0000000140044ea0     config.obj
 0003:00002ed0       ??_C@_1CI@JONCLBEJ@?$AAs?$AAt?$AAd?$AA?3?$AA?3?$AA_?$AAD?$AAe?$AAb?$AAu?$AAg?$AA_?$AAl?$AAt?$AA_?$AAp?$AAr?$AAe?$AAd?$AA?$AA@ 0000000140044ed0     config.obj
 0003:00002f00       ??_C@_1CK@NDNHPKPI@?$AA?$CC?$AAi?$AAn?$AAv?$AAa?$AAl?$AAi?$AAd?$AA?5?$AAc?$AAo?$AAm?$AAp?$AAa?$AAr?$AAa?$AAt?$AAo?$AAr?$AA?$CC?$AA?$AA@ 0000000140044f00     config.obj
 0003:00002f40       ??_C@_1MI@GHHFAAMD@?$AAc?$AA?3?$AA?2?$AAp?$AAr?$AAo?$AAg?$AAr?$AAa?$AAm?$AA?5?$AAf?$AAi?$AAl?$AAe?$AAs?$AA?5?$AA?$CI?$AAx?$AA8?$AA6?$AA?$CJ?$AA?2?$AAm?$AAi?$AAc?$AAr?$AAo?$AAs?$AAo?$AAf?$AAt@ 0000000140044f40     config.obj
 0003:00003030       ??_C@_1EM@MHOKKPFH@?$AAm?$AAa?$AAp?$AA?1?$AAs?$AAe?$AAt?$AA?5?$AAi?$AAn?$AAs?$AAe?$AAr?$AAt?$AA?5?$AAi?$AAt?$AAe?$AAr?$AAa?$AAt?$AAo?$AAr?$AA?5?$AAo?$AAu?$AAt?$AAs?$AAi?$AAd?$AAe?$AA?5@ 0000000140045030     config.obj
 0003:00003090       ??_C@_1BLK@BGDFBAC@?$AAs?$AAt?$AAd?$AA?3?$AA?3?$AA_?$AAT?$AAr?$AAe?$AAe?$AA?$DM?$AAc?$AAl?$AAa?$AAs?$AAs?$AA?5?$AAs?$AAt?$AAd?$AA?3?$AA?3?$AA_?$AAT?$AAm?$AAa?$AAp?$AA_?$AAt?$AAr?$AAa?$AAi@ 0000000140045090     config.obj
 0003:000032b0       ??_C@_1FA@HNFOKDLB@?$AA?$CC?$AAm?$AAa?$AAp?$AA?1?$AAs?$AAe?$AAt?$AA?5?$AAi?$AAn?$AAs?$AAe?$AAr?$AAt?$AA?5?$AAi?$AAt?$AAe?$AAr?$AAa?$AAt?$AAo?$AAr?$AA?5?$AAo?$AAu?$AAt?$AAs?$AAi?$AAd?$AAe@ 00000001400452b0     config.obj
 0003:00003310       ??_C@_1EG@OKCGOALM@?$AAm?$AAa?$AAp?$AA?1?$AAs?$AAe?$AAt?$AA?5?$AAi?$AAt?$AAe?$AAr?$AAa?$AAt?$AAo?$AAr?$AA?5?$AAn?$AAo?$AAt?$AA?5?$AAd?$AAe?$AAc?$AAr?$AAe?$AAm?$AAe?$AAn?$AAt?$AAa?$AAb@ 0000000140045310     config.obj
 0003:00003370       ??_C@_1BEI@NKIDEELI@?$AAs?$AAt?$AAd?$AA?3?$AA?3?$AA_?$AAT?$AAr?$AAe?$AAe?$AA_?$AAc?$AAo?$AAn?$AAs?$AAt?$AA_?$AAi?$AAt?$AAe?$AAr?$AAa?$AAt?$AAo?$AAr?$AA?$DM?$AAc?$AAl?$AAa?$AAs?$AAs?$AA?5@ 0000000140045370     config.obj
 0003:00003500       ??_C@_1EK@OIBHPACE@?$AA?$CC?$AAm?$AAa?$AAp?$AA?1?$AAs?$AAe?$AAt?$AA?5?$AAi?$AAt?$AAe?$AAr?$AAa?$AAt?$AAo?$AAr?$AA?5?$AAn?$AAo?$AAt?$AA?5?$AAd?$AAe?$AAc?$AAr?$AAe?$AAm?$AAe?$AAn?$AAt?$AAa@ 0000000140045500     config.obj
 0003:00003560       ??_C@_1EG@EHJFMBHJ@?$AAm?$AAa?$AAp?$AA?1?$AAs?$AAe?$AAt?$AA?5?$AAi?$AAt?$AAe?$AAr?$AAa?$AAt?$AAo?$AAr?$AA?5?$AAn?$AAo?$AAt?$AA?5?$AAi?$AAn?$AAc?$AAr?$AAe?$AAm?$AAe?$AAn?$AAt?$AAa?$AAb@ 0000000140045560     config.obj
 0003:000035c0       ??_C@_1BEI@CJLBPIHJ@?$AAs?$AAt?$AAd?$AA?3?$AA?3?$AA_?$AAT?$AAr?$AAe?$AAe?$AA_?$AAc?$AAo?$AAn?$AAs?$AAt?$AA_?$AAi?$AAt?$AAe?$AAr?$AAa?$AAt?$AAo?$AAr?$AA?$DM?$AAc?$AAl?$AAa?$AAs?$AAs?$AA?5@ 00000001400455c0     config.obj
 0003:00003750       ??_C@_1EK@BCPDGOMC@?$AA?$CC?$AAm?$AAa?$AAp?$AA?1?$AAs?$AAe?$AAt?$AA?5?$AAi?$AAt?$AAe?$AAr?$AAa?$AAt?$AAo?$AAr?$AA?5?$AAn?$AAo?$AAt?$AA?5?$AAi?$AAn?$AAc?$AAr?$AAe?$AAm?$AAe?$AAn?$AAt?$AAa@ 0000000140045750     config.obj
 0003:000037a8       ??_C@_0BE@JONHPENG@map?1set?$DMT?$DO?5too?5long?$AA@ 00000001400457a8     config.obj
 0003:000037c8       ??_7?$Container@VWidget@@@@6B@ 00000001400457c8     container.obj
 0003:00003808       ??_7?$Container@VGameObject@@@@6B@ 0000000140045808     container.obj
 0003:000047b8       ??_SRenderWindow@sf@@6BWindow@1@@ 00000001400467b8     engine.obj
 0003:000047e0       ??_SRenderWindow@sf@@6BRenderTarget@1@@ 00000001400467e0     engine.obj
 0003:00004800       ??_C@_05OGBJMEIE@Tanks?$AA@ 0000000140046800     engine.obj
 0003:00004808       ??_C@_0M@EGINLKPJ@objects?4txt?$AA@ 0000000140046808     engine.obj
 0003:00004820       ??_C@_1MO@HAJOKNPG@?$AAc?$AA?3?$AA?2?$AAp?$AAr?$AAo?$AAg?$AAr?$AAa?$AAm?$AA?5?$AAf?$AAi?$AAl?$AAe?$AAs?$AA?5?$AA?$CI?$AAx?$AA8?$AA6?$AA?$CJ?$AA?2?$AAm?$AAi?$AAc?$AAr?$AAo?$AAs?$AAo?$AAf?$AAt@ 0000000140046820     engine.obj
 0003:00004918       ??_C@_0CG@GCDIHCHK@C?3?1C?$CL?$CL?1Tanks?1x64?1Debug?1backgroun@ 0000000140046918     engine.obj
 0003:00004960       ??_C@_1JO@KNCEHHPG@?$AAs?$AAt?$AAd?$AA?3?$AA?3?$AAv?$AAe?$AAc?$AAt?$AAo?$AAr?$AA?$DM?$AAc?$AAl?$AAa?$AAs?$AAs?$AA?5?$AAO?$AAb?$AAj?$AAe?$AAc?$AAt?$AA?5?$AA?$CK?$AA?0?$AAc?$AAl?$AAa?$AAs?$AAs@ 0000000140046960     engine.obj
 0003:00004a20       ??_C@_1EA@LEKOKFNB@?$AA?$CC?$AAv?$AAe?$AAc?$AAt?$AAo?$AAr?$AA?5?$AAs?$AAu?$AAb?$AAs?$AAc?$AAr?$AAi?$AAp?$AAt?$AA?5?$AAo?$AAu?$AAt?$AA?5?$AAo?$AAf?$AA?5?$AAr?$AAa?$AAn?$AAg?$AAe?$AA?$CC?$AA?$AA@ 0000000140046a20     engine.obj
 0003:00004a70       ??_C@_1OC@CMNDILFB@?$AAs?$AAt?$AAd?$AA?3?$AA?3?$AAv?$AAe?$AAc?$AAt?$AAo?$AAr?$AA?$DM?$AAc?$AAl?$AAa?$AAs?$AAs?$AA?5?$AAC?$AAo?$AAn?$AAt?$AAa?$AAi?$AAn?$AAe?$AAr?$AA?$DM?$AAc?$AAl?$AAa?$AAs@ 0000000140046a70     engine.obj
 0003:00004b80       ??_C@_1EK@PPDBPCAN@?$AAm?$AAa?$AAp?$AA?1?$AAs?$AAe?$AAt?$AA?5?$AAe?$AAr?$AAa?$AAs?$AAe?$AA?5?$AAi?$AAt?$AAe?$AAr?$AAa?$AAt?$AAo?$AAr?$AA?5?$AAo?$AAu?$AAt?$AAs?$AAi?$AAd?$AAe?$AA?5?$AAr@ 0000000140046b80     engine.obj
 0003:00004be0       ??_C@_1BKM@HLCHENFC@?$AAs?$AAt?$AAd?$AA?3?$AA?3?$AA_?$AAT?$AAr?$AAe?$AAe?$AA?$DM?$AAc?$AAl?$AAa?$AAs?$AAs?$AA?5?$AAs?$AAt?$AAd?$AA?3?$AA?3?$AA_?$AAT?$AAm?$AAa?$AAp?$AA_?$AAt?$AAr?$AAa?$AAi@ 0000000140046be0     engine.obj
 0003:00004df0       ??_C@_1EO@CEDAEPC@?$AA?$CC?$AAm?$AAa?$AAp?$AA?1?$AAs?$AAe?$AAt?$AA?5?$AAe?$AAr?$AAa?$AAs?$AAe?$AA?5?$AAi?$AAt?$AAe?$AAr?$AAa?$AAt?$AAo?$AAr?$AA?5?$AAo?$AAu?$AAt?$AAs?$AAi?$AAd?$AAe?$AA?5@ 0000000140046df0     engine.obj
 0003:00004e50       ??_C@_1PO@NJEBKHHO@?$AAs?$AAt?$AAd?$AA?3?$AA?3?$AA_?$AAT?$AAr?$AAe?$AAe?$AA_?$AAv?$AAa?$AAl?$AA?$DM?$AAs?$AAt?$AAr?$AAu?$AAc?$AAt?$AA?5?$AAs?$AAt?$AAd?$AA?3?$AA?3?$AA_?$AAT?$AAr?$AAe?$AAe@ 0000000140046e50     engine.obj
 0003:00004f98       __real@43c80000            0000000140046f98     engine.obj
 0003:00004f9c       __real@44480000            0000000140046f9c     engine.obj
 0003:000051e8       ??_7?$ContainerMoving@VWidget@@@@6B@ 00000001400471e8     container-moving.obj
 0003:000055b0       ??_C@_0DP@KCEOKPLH@0123456789ABCDEFGHIJKLMNOPQRSTUV@ 00000001400475b0     game-object.obj
 0003:00005608       ??_7GameObject@@6B@        0000000140047608     game-object.obj
 0003:00005648       ??_C@_0CB@CMNCMBA@C?3?1C?$CL?$CL?1Tanks?1x64?1Debug?1image?4png@ 0000000140047648     game-object.obj
 0003:00005670       ??_C@_0BE@HJKCDIFN@Error?5create?5Object?$AA@ 0000000140047670     game-object.obj
 0003:00005688       ??_C@_0N@HIPKJAJN@Invalid?5type?$AA@ 0000000140047688     game-object.obj
 0003:00005698       __real@00000000            0000000140047698     game-object.obj
 0003:0000569c       __real@3f800000            000000014004769c     game-object.obj
 0003:000059a0       ??_7MenuWindow@@6B@        00000001400479a0     menu-window.obj
 0003:000059d8       ??_C@_1O@LLHHDKLO@?$AE?$BI?$AE3?$AE?$EA?$AE0?$AEB?$AEL?$AA?$AA@ 00000001400479d8     menu-window.obj
 0003:000059e8       ??_C@_1BC@ILIDCEOG@?$AE?5?$AE5?$AE4?$AE0?$AE?3?$AEB?$AE?$DO?$AE?$EA?$AA?$AA@ 00000001400479e8     menu-window.obj
 0003:00005a00       ??_C@_1M@MJOEHLIH@?$AE?$BC?$AEK?$AEE?$AE?$DO?$AE4?$AA?$AA@ 0000000140047a00     menu-window.obj
 0003:00005ae4       __real@41200000            0000000140047ae4     menu-window.obj
 0003:00005ae8       __real@42200000            0000000140047ae8     menu-window.obj
 0003:00005aec       __real@42f00000            0000000140047aec     menu-window.obj
 0003:00005de3       ??_C@_00CNPNBAHC@?$AA@     0000000140047de3     object.obj
 0003:00005df0       ??_7Object@@6B@            0000000140047df0     object.obj
 0003:00005e18       __real@bf800000            0000000140047e18     player.obj
 0003:00005e58       ??_7Tank@@6B@              0000000140047e58     tank.obj
 0003:00005ed0       ??_7Wall@@6B@              0000000140047ed0     wall.obj
 0003:00005f48       ??_7WidgetGame@@6B@        0000000140047f48     widget-game.obj
 0003:00006060       ??_7Widget@@6B@            0000000140048060     widget.obj
 0003:000060a0       ??_7WidgetTemplates@@6B@   00000001400480a0     widget-templates.obj
 0003:000060e0       ??_7?$Window@VWidget@@@@6B@ 00000001400480e0     window.obj
 0003:00006150       ??_7WindowGame@@6B@        0000000140048150     window-game.obj
 0003:00006184       __real@42c80000            0000000140048184     window-game.obj
 0003:00006188       __real@43480000            0000000140048188     window-game.obj
 0003:000061c8       ??_7WindowEditor@@6B@      00000001400481c8     window-editor.obj
 0003:00006208       ??_7type_info@@6B@         0000000140048208     MSVCRTD:std_type_info_static.obj
 0003:00006300       ??_C@_0NN@NGPKDKPD@The?5value?5of?5ESP?5was?5not?5properl@ 0000000140048300     MSVCRTD:_error_.obj
 0003:00006410       ??_C@_0BBN@GPMLNJCF@A?5cast?5to?5a?5smaller?5data?5type?5ha@ 0000000140048410     MSVCRTD:_error_.obj
 0003:00006568       ??_C@_0BN@FFOINMNJ@Stack?5memory?5was?5corrupted?6?$AN?$AA@ 0000000140048568     MSVCRTD:_error_.obj
 0003:00006590       ??_C@_0DG@HKJMLLLP@A?5local?5variable?5was?5used?5before@ 0000000140048590     MSVCRTD:_error_.obj
 0003:000065d0       ??_C@_0CM@NGINOKPC@Stack?5memory?5around?5_alloca?5was?5@ 00000001400485d0     MSVCRTD:_error_.obj
 0003:00006608       ??_C@_0BO@GNIAFIKK@Unknown?5Runtime?5Check?5Error?6?$AN?$AA@ 0000000140048608     MSVCRTD:_error_.obj
 0003:00006630       ??_C@_1GM@OLMCBDMB@?$AAR?$AAu?$AAn?$AAt?$AAi?$AAm?$AAe?$AA?5?$AAC?$AAh?$AAe?$AAc?$AAk?$AA?5?$AAE?$AAr?$AAr?$AAo?$AAr?$AA?4?$AA?6?$AA?$AN?$AA?5?$AAU?$AAn?$AAa?$AAb?$AAl?$AAe?$AA?5?$AAt?$AAo@ 0000000140048630     MSVCRTD:_error_.obj
 0003:000066c0       ??_C@_1EA@NFKNIFJP@?$AAR?$AAu?$AAn?$AA?9?$AAT?$AAi?$AAm?$AAe?$AA?5?$AAC?$AAh?$AAe?$AAc?$AAk?$AA?5?$AAF?$AAa?$AAi?$AAl?$AAu?$AAr?$AAe?$AA?5?$AA?$CD?$AA?$CF?$AAd?$AA?5?$AA?9?$AA?5?$AA?$CF?$AAs?$AA?$AA@ 00000001400486c0     MSVCRTD:_error_.obj
 0003:00006710       ??_C@_0BB@PFFGGCJP@Unknown?5Filename?$AA@ 0000000140048710     MSVCRTD:_error_.obj
 0003:00006728       ??_C@_0BE@GNBOBNCK@Unknown?5Module?5Name?$AA@ 0000000140048728     MSVCRTD:_error_.obj
 0003:00006740       ??_C@_0CA@IODNCDPG@Run?9Time?5Check?5Failure?5?$CD?$CFd?5?9?5?$CFs?$AA@ 0000000140048740     MSVCRTD:_error_.obj
 0003:00006768       ??_C@_0CG@IAFNJNEE@Stack?5corrupted?5near?5unknown?5var@ 0000000140048768     MSVCRTD:_error_.obj
 0003:00006798       ??_C@_05MKKEDADM@?$CF?42X?5?$AA@ 0000000140048798     MSVCRTD:_error_.obj
 0003:000067a0       ??_C@_0EJ@LJKNEOLN@Stack?5area?5around?5_alloca?5memory@ 00000001400487a0     MSVCRTD:_error_.obj
 0003:000067f8       ??_C@_01EEMJAFIK@?6?$AA@   00000001400487f8     MSVCRTD:_error_.obj
 0003:000067fc       ??_C@_02LLMPMKNF@?$DO?5?$AA@ 00000001400487fc     MSVCRTD:_error_.obj
 0003:00006800       ??_C@_08OMAHNMHJ@?6Data?3?5?$DM?$AA@ 0000000140048800     MSVCRTD:_error_.obj
 0003:00006810       ??_C@_0CK@DKGBICFE@?6Allocation?5number?5within?5this?5f@ 0000000140048810     MSVCRTD:_error_.obj
 0003:00006848       ??_C@_07DFDJCKFN@?6Size?3?5?$AA@ 0000000140048848     MSVCRTD:_error_.obj
 0003:00006858       ??_C@_0N@MHFFIMFG@?6Address?3?50x?$AA@ 0000000140048858     MSVCRTD:_error_.obj
 0003:00006870       ??_C@_0EI@CLEPFNGI@Stack?5area?5around?5_alloca?5memory@ 0000000140048870     MSVCRTD:_error_.obj
 0003:000068c8       ??_C@_0BK@ODNDAGKB@?$CFs?$CFs?$CFp?$CFs?$CFzd?$CFs?$CFd?$CFs?$CFs?$CFs?$CFs?$CFs?$AA@ 00000001400488c8     MSVCRTD:_error_.obj
 0003:000068e8       ??_C@_0DE@OHJBPMBP@A?5variable?5is?5being?5used?5without@ 00000001400488e8     MSVCRTD:_error_.obj
 0003:00006930       ??_7exception@std@@6B@     0000000140048930     MSVCRTD:throw_bad_alloc.obj
 0003:00006948       ??_C@_0BC@EOODALEL@Unknown?5exception?$AA@ 0000000140048948     MSVCRTD:throw_bad_alloc.obj
 0003:00006968       ??_7bad_alloc@std@@6B@     0000000140048968     MSVCRTD:throw_bad_alloc.obj
 0003:00006980       ??_C@_0P@GHFPNOJB@bad?5allocation?$AA@ 0000000140048980     MSVCRTD:throw_bad_alloc.obj
 0003:000069a0       ??_7bad_array_new_length@std@@6B@ 00000001400489a0     MSVCRTD:throw_bad_alloc.obj
 0003:000069b8       ??_C@_0BF@KINCDENJ@bad?5array?5new?5length?$AA@ 00000001400489b8     MSVCRTD:throw_bad_alloc.obj
 0003:00006a08       ??_C@_0BJ@HEGAHDFO@Stack?5pointer?5corruption?$AA@ 0000000140048a08     MSVCRTD:_userapi_.obj
 0003:00006a28       ??_C@_0CK@FEGOIOPB@Cast?5to?5smaller?5type?5causing?5los@ 0000000140048a28     MSVCRTD:_userapi_.obj
 0003:00006a60       ??_C@_0BI@CIGMDCBH@Stack?5memory?5corruption?$AA@ 0000000140048a60     MSVCRTD:_userapi_.obj
 0003:00006a80       ??_C@_0CK@CNLNOEPB@Local?5variable?5used?5before?5initi@ 0000000140048a80     MSVCRTD:_userapi_.obj
 0003:00006ab8       ??_C@_0BP@OGBCLIBO@Stack?5around?5_alloca?5corrupted?$AA@ 0000000140048ab8     MSVCRTD:_userapi_.obj
 0003:00006b60       ??_C@_1EI@MLPKHBGE@?$AAa?$AAp?$AAi?$AA?9?$AAm?$AAs?$AA?9?$AAw?$AAi?$AAn?$AA?9?$AAc?$AAo?$AAr?$AAe?$AA?9?$AAr?$AAe?$AAg?$AAi?$AAs?$AAt?$AAr?$AAy?$AA?9?$AAl?$AA1?$AA?9?$AA1?$AA?9?$AA0?$AA?4@ 0000000140048b60     MSVCRTD:_pdblkup_.obj
 0003:00006bb8       ??_C@_1BK@JHLNAEJL@?$AAa?$AAd?$AAv?$AAa?$AAp?$AAi?$AA3?$AA2?$AA?4?$AAd?$AAl?$AAl?$AA?$AA@ 0000000140048bb8     MSVCRTD:_pdblkup_.obj
 0003:00006bd8       ??_C@_0O@COHOBMLB@RegOpenKeyExW?$AA@ 0000000140048bd8     MSVCRTD:_pdblkup_.obj
 0003:00006be8       ??_C@_0BB@GLNAEDBD@RegQueryValueExW?$AA@ 0000000140048be8     MSVCRTD:_pdblkup_.obj
 0003:00006c00       ??_C@_0M@HLOHPNFA@RegCloseKey?$AA@ 0000000140048c00     MSVCRTD:_pdblkup_.obj
 0003:00006c10       ??_C@_1HE@EBEAGLFB@?$AAS?$AAO?$AAF?$AAT?$AAW?$AAA?$AAR?$AAE?$AA?2?$AAW?$AAo?$AAw?$AA6?$AA4?$AA3?$AA2?$AAN?$AAo?$AAd?$AAe?$AA?2?$AAM?$AAi?$AAc?$AAr?$AAo?$AAs?$AAo?$AAf?$AAt?$AA?2?$AAV@ 0000000140048c10     MSVCRTD:_pdblkup_.obj
 0003:00006ca0       ??_C@_1BG@EABPBLLF@?$AAP?$AAr?$AAo?$AAd?$AAu?$AAc?$AAt?$AAD?$AAi?$AAr?$AA?$AA@ 0000000140048ca0     MSVCRTD:_pdblkup_.obj
 0003:00006ce8       ??_C@_1BC@JINFINNJ@?$AAM?$AAS?$AAP?$AAD?$AAB?$AA1?$AA4?$AA0?$AA?$AA@ 0000000140048ce8     MSVCRTD:_pdblkup_.obj
 0003:00006d00       ??_C@_0BB@KCIACLNC@PDBOpenValidate5?$AA@ 0000000140048d00     MSVCRTD:_pdblkup_.obj
 0003:00006d60       _load_config_used          0000000140048d60     MSVCRTD:loadcfg.obj
 0003:000070e0       ??_R4Button@@6B@           00000001400490e0     button.obj
 0003:00007110       ??_R3Button@@8             0000000140049110     button.obj
 0003:00007128       ??_R2Button@@8             0000000140049128     button.obj
 0003:00007150       ??_R1A@?0A@EA@Button@@8    0000000140049150     button.obj
 0003:00007180       ??_R1A@?0A@EA@Widget@@8    0000000140049180     button.obj
 0003:000071b0       ??_R3Widget@@8             00000001400491b0     button.obj
 0003:000071c8       ??_R2Widget@@8             00000001400491c8     button.obj
 0003:000071e0       ??_R1A@?0A@EA@Object@@8    00000001400491e0     button.obj
 0003:00007210       ??_R3Object@@8             0000000140049210     button.obj
 0003:00007228       ??_R2Object@@8             0000000140049228     button.obj
 0003:00007238       ??_R4?$Container@VWidget@@@@6B@ 0000000140049238     container.obj
 0003:00007268       ??_R3?$Container@VWidget@@@@8 0000000140049268     container.obj
 0003:00007280       ??_R2?$Container@VWidget@@@@8 0000000140049280     container.obj
 0003:000072a8       ??_R1A@?0A@EA@?$Container@VWidget@@@@8 00000001400492a8     container.obj
 0003:000072d8       ??_R4?$Container@VGameObject@@@@6B@ 00000001400492d8     container.obj
 0003:00007308       ??_R3?$Container@VGameObject@@@@8 0000000140049308     container.obj
 0003:00007320       ??_R2?$Container@VGameObject@@@@8 0000000140049320     container.obj
 0003:00007348       ??_R1A@?0A@EA@?$Container@VGameObject@@@@8 0000000140049348     container.obj
 0003:00007378       ??_R4RenderWindow@sf@@6BWindow@1@@ 0000000140049378     engine.obj
 0003:000073a8       ??_R3RenderWindow@sf@@8    00000001400493a8     engine.obj
 0003:000073c0       ??_R2RenderWindow@sf@@8    00000001400493c0     engine.obj
 0003:00007400       ??_R1A@?0A@EA@RenderWindow@sf@@8 0000000140049400     engine.obj
 0003:00007430       ??_R1A@?0A@EA@Window@sf@@8 0000000140049430     engine.obj
 0003:00007460       ??_R3Window@sf@@8          0000000140049460     engine.obj
 0003:00007478       ??_R2Window@sf@@8          0000000140049478     engine.obj
 0003:000074a0       ??_R17?0A@EN@GlResource@sf@@8 00000001400494a0     engine.obj
 0003:000074d0       ??_R3GlResource@sf@@8      00000001400494d0     engine.obj
 0003:000074e8       ??_R2GlResource@sf@@8      00000001400494e8     engine.obj
 0003:000074f8       ??_R1A@?0A@EA@GlResource@sf@@8 00000001400494f8     engine.obj
 0003:00007528       ??_R18?0A@EN@NonCopyable@sf@@8 0000000140049528     engine.obj
 0003:00007558       ??_R3NonCopyable@sf@@8     0000000140049558     engine.obj
 0003:00007570       ??_R2NonCopyable@sf@@8     0000000140049570     engine.obj
 0003:00007580       ??_R1A@?0A@EA@NonCopyable@sf@@8 0000000140049580     engine.obj
 0003:000075b0       ??_R18?0A@EP@NonCopyable@sf@@8 00000001400495b0     engine.obj
 0003:000075e0       ??_R1DI@?0A@EA@RenderTarget@sf@@8 00000001400495e0     engine.obj
 0003:00007610       ??_R3RenderTarget@sf@@8    0000000140049610     engine.obj
 0003:00007628       ??_R2RenderTarget@sf@@8    0000000140049628     engine.obj
 0003:00007640       ??_R1A@?0A@EA@RenderTarget@sf@@8 0000000140049640     engine.obj
 0003:00007670       ??_R17?0A@EN@NonCopyable@sf@@8 0000000140049670     engine.obj
 0003:000076a0       ??_R1EA@?0A@EP@NonCopyable@sf@@8 00000001400496a0     engine.obj
 0003:000076d0       ??_R4RenderWindow@sf@@6BRenderTarget@1@@ 00000001400496d0     engine.obj
 0003:00007700       ??_R4?$ContainerMoving@VWidget@@@@6B@ 0000000140049700     container-moving.obj
 0003:00007730       ??_R3?$ContainerMoving@VWidget@@@@8 0000000140049730     container-moving.obj
 0003:00007748       ??_R2?$ContainerMoving@VWidget@@@@8 0000000140049748     container-moving.obj
 0003:00007778       ??_R1A@?0A@EA@?$ContainerMoving@VWidget@@@@8 0000000140049778     container-moving.obj
 0003:000077a8       ??_R4GameObject@@6B@       00000001400497a8     game-object.obj
 0003:000077d8       ??_R3GameObject@@8         00000001400497d8     game-object.obj
 0003:000077f0       ??_R2GameObject@@8         00000001400497f0     game-object.obj
 0003:00007808       ??_R1A@?0A@EA@GameObject@@8 0000000140049808     game-object.obj
 0003:00007838       ??_R3?$_Func_base@XPEAVButton@@@std@@8 0000000140049838     menu-window.obj
 0003:00007850       ??_R2?$_Func_base@XPEAVButton@@@std@@8 0000000140049850     menu-window.obj
 0003:00007860       ??_R1A@?0A@EA@?$_Func_base@XPEAVButton@@@std@@8 0000000140049860     menu-window.obj
 0003:00007890       ??_R4MenuWindow@@6B@       0000000140049890     menu-window.obj
 0003:000078c0       ??_R3MenuWindow@@8         00000001400498c0     menu-window.obj
 0003:000078d8       ??_R2MenuWindow@@8         00000001400498d8     menu-window.obj
 0003:00007910       ??_R1A@?0A@EA@MenuWindow@@8 0000000140049910     menu-window.obj
 0003:00007940       ??_R1A@?0A@EA@?$Window@VWidget@@@@8 0000000140049940     menu-window.obj
 0003:00007970       ??_R3?$Window@VWidget@@@@8 0000000140049970     menu-window.obj
 0003:00007988       ??_R2?$Window@VWidget@@@@8 0000000140049988     menu-window.obj
 0003:00007b68       ??_R4Object@@6B@           0000000140049b68     object.obj
 0003:00007b98       ??_R4Tank@@6B@             0000000140049b98     tank.obj
 0003:00007bc8       ??_R3Tank@@8               0000000140049bc8     tank.obj
 0003:00007be0       ??_R2Tank@@8               0000000140049be0     tank.obj
 0003:00007c08       ??_R1A@?0A@EA@Tank@@8      0000000140049c08     tank.obj
 0003:00007c38       ??_R4Wall@@6B@             0000000140049c38     wall.obj
 0003:00007c68       ??_R3Wall@@8               0000000140049c68     wall.obj
 0003:00007c80       ??_R2Wall@@8               0000000140049c80     wall.obj
 0003:00007ca8       ??_R1A@?0A@EA@Wall@@8      0000000140049ca8     wall.obj
 0003:00007cd8       ??_R4WidgetGame@@6B@       0000000140049cd8     widget-game.obj
 0003:00007d08       ??_R3WidgetGame@@8         0000000140049d08     widget-game.obj
 0003:00007d20       ??_R2WidgetGame@@8         0000000140049d20     widget-game.obj
 0003:00007d50       ??_R1A@?0A@EA@WidgetGame@@8 0000000140049d50     widget-game.obj
 0003:00007d80       ??_R4Widget@@6B@           0000000140049d80     widget.obj
 0003:00007db0       ??_R4WidgetTemplates@@6B@  0000000140049db0     widget-templates.obj
 0003:00007de0       ??_R3WidgetTemplates@@8    0000000140049de0     widget-templates.obj
 0003:00007df8       ??_R2WidgetTemplates@@8    0000000140049df8     widget-templates.obj
 0003:00007e20       ??_R1A@?0A@EA@WidgetTemplates@@8 0000000140049e20     widget-templates.obj
 0003:00007e50       ??_R4?$Window@VWidget@@@@6B@ 0000000140049e50     window.obj
 0003:00007e80       ??_R4WindowGame@@6B@       0000000140049e80     window-game.obj
 0003:00007eb0       ??_R3WindowGame@@8         0000000140049eb0     window-game.obj
 0003:00007ec8       ??_R2WindowGame@@8         0000000140049ec8     window-game.obj
 0003:00007f00       ??_R1A@?0A@EA@WindowGame@@8 0000000140049f00     window-game.obj
 0003:00007f30       ??_R4WindowEditor@@6B@     0000000140049f30     window-editor.obj
 0003:00007f60       ??_R3WindowEditor@@8       0000000140049f60     window-editor.obj
 0003:00007f78       ??_R2WindowEditor@@8       0000000140049f78     window-editor.obj
 0003:00007fb0       ??_R1A@?0A@EA@WindowEditor@@8 0000000140049fb0     window-editor.obj
 0003:00007fe0       ??_R4type_info@@6B@        0000000140049fe0     MSVCRTD:std_type_info_static.obj
 0003:00008010       ??_R3type_info@@8          000000014004a010     MSVCRTD:std_type_info_static.obj
 0003:00008028       ??_R2type_info@@8          000000014004a028     MSVCRTD:std_type_info_static.obj
 0003:00008038       ??_R1A@?0A@EA@type_info@@8 000000014004a038     MSVCRTD:std_type_info_static.obj
 0003:00008068       ??_R4exception@std@@6B@    000000014004a068     MSVCRTD:throw_bad_alloc.obj
 0003:00008098       ??_R3exception@std@@8      000000014004a098     MSVCRTD:throw_bad_alloc.obj
 0003:000080b0       ??_R2exception@std@@8      000000014004a0b0     MSVCRTD:throw_bad_alloc.obj
 0003:000080c0       ??_R1A@?0A@EA@exception@std@@8 000000014004a0c0     MSVCRTD:throw_bad_alloc.obj
 0003:000080f0       ??_R4bad_alloc@std@@6B@    000000014004a0f0     MSVCRTD:throw_bad_alloc.obj
 0003:00008120       ??_R3bad_alloc@std@@8      000000014004a120     MSVCRTD:throw_bad_alloc.obj
 0003:00008138       ??_R2bad_alloc@std@@8      000000014004a138     MSVCRTD:throw_bad_alloc.obj
 0003:00008150       ??_R1A@?0A@EA@bad_alloc@std@@8 000000014004a150     MSVCRTD:throw_bad_alloc.obj
 0003:00008180       ??_R4bad_array_new_length@std@@6B@ 000000014004a180     MSVCRTD:throw_bad_alloc.obj
 0003:000081b0       ??_R3bad_array_new_length@std@@8 000000014004a1b0     MSVCRTD:throw_bad_alloc.obj
 0003:000081c8       ??_R2bad_array_new_length@std@@8 000000014004a1c8     MSVCRTD:throw_bad_alloc.obj
 0003:000081f0       ??_R1A@?0A@EA@bad_array_new_length@std@@8 000000014004a1f0     MSVCRTD:throw_bad_alloc.obj
 0003:000084e0       __rtc_iaa                  000000014004a4e0     MSVCRTD:_initsect_.obj
 0003:00008840       __rtc_izz                  000000014004a840     MSVCRTD:_initsect_.obj
 0003:00008950       __rtc_taa                  000000014004a950     MSVCRTD:_initsect_.obj
 0003:00008cb0       __rtc_tzz                  000000014004acb0     MSVCRTD:_initsect_.obj
 0003:0000ea60       _TI2PEAD                   0000000140050a60     config.obj
 0003:0000ea80       _CTA2PEAD                  0000000140050a80     config.obj
 0003:0000ea98       _CT??_R0PEAD@88            0000000140050a98     config.obj
 0003:0000eac0       _CT??_R0PEAX@88            0000000140050ac0     config.obj
 0003:0000eae8       _TI2?AVbad_alloc@std@@     0000000140050ae8     MSVCRTD:throw_bad_alloc.obj
 0003:0000eb08       _CTA2?AVbad_alloc@std@@    0000000140050b08     MSVCRTD:throw_bad_alloc.obj
 0003:0000eb20       _CT??_R0?AVbad_alloc@std@@@8??0bad_alloc@std@@QEAA@AEBV01@@Z24 0000000140050b20     MSVCRTD:throw_bad_alloc.obj
 0003:0000eb48       _CT??_R0?AVexception@std@@@8??0exception@std@@QEAA@AEBV01@@Z24 0000000140050b48     MSVCRTD:throw_bad_alloc.obj
 0003:0000eb70       _TI3?AVbad_array_new_length@std@@ 0000000140050b70     MSVCRTD:throw_bad_alloc.obj
 0003:0000eb90       _CTA3?AVbad_array_new_length@std@@ 0000000140050b90     MSVCRTD:throw_bad_alloc.obj
 0003:0000ebb0       _CT??_R0?AVbad_array_new_length@std@@@8??0bad_array_new_length@std@@QEAA@AEBV01@@Z24 0000000140050bb0     MSVCRTD:throw_bad_alloc.obj
 0004:00000000       ?__LINE__Var@?0??_Adjust_manually_vector_aligned@std@@YAXAEAPEAXAEA_K@Z@4JA 0000000140051000     button.obj
 0004:00000004       ?__LINE__Var@?0??_Maklocwcs@std@@YAPEA_WPEB_W@Z@4JA 0000000140051004     button.obj
 0004:00000008       __scrt_native_dllmain_reason 0000000140051008     MSVCRTD:utility.obj
 0004:00000010       __security_cookie          0000000140051010     MSVCRTD:gs_cookie.obj
 0004:00000018       __security_cookie_complement 0000000140051018     MSVCRTD:gs_cookie.obj
 0004:00000024       _fltused                   0000000140051024     MSVCRTD:fltused.obj
 0004:00000028       ?_RTC_ErrorLevels@@3PAHA   0000000140051028     MSVCRTD:_error_.obj
 0004:00000040       __isa_available            0000000140051040     MSVCRTD:_cpu_disp_.obj
 0004:00000044       __isa_enabled              0000000140051044     MSVCRTD:_cpu_disp_.obj
 0004:00000048       __memcpy_nt_iters          0000000140051048     MSVCRTD:_cpu_disp_.obj
 0004:00000054       __scrt_default_matherr     0000000140051054     MSVCRTD:matherr.obj
 0004:00000060       __scrt_ucrt_dll_is_in_use  0000000140051060     MSVCRTD:ucrt_stubs.obj
 0004:00000170       ??_R0?AVButton@@@8         0000000140051170     button.obj
 0004:00000198       ??_R0?AVWidget@@@8         0000000140051198     button.obj
 0004:000001c0       ??_R0?AVObject@@@8         00000001400511c0     button.obj
 0004:000001e8       ??_R0PEAD@8                00000001400511e8     config.obj
 0004:00000208       ??_R0PEAX@8                0000000140051208     config.obj
 0004:00000228       ??_R0?AV?$Container@VWidget@@@@@8 0000000140051228     container.obj
 0004:00000260       ??_R0?AV?$Container@VGameObject@@@@@8 0000000140051260     container.obj
 0004:000002a0       ??_R0?AVRenderWindow@sf@@@8 00000001400512a0     engine.obj
 0004:000002d0       ??_R0?AVWindow@sf@@@8      00000001400512d0     engine.obj
 0004:000002f8       ??_R0?AVGlResource@sf@@@8  00000001400512f8     engine.obj
 0004:00000328       ??_R0?AVNonCopyable@sf@@@8 0000000140051328     engine.obj
 0004:00000358       ??_R0?AVRenderTarget@sf@@@8 0000000140051358     engine.obj
 0004:00000388       ??_R0?AV?$ContainerMoving@VWidget@@@@@8 0000000140051388     container-moving.obj
 0004:000003c8       ??_R0?AVGameObject@@@8     00000001400513c8     game-object.obj
 0004:000004e0       ??_R0?AV?$_Func_base@XPEAVButton@@@std@@@8 00000001400514e0     menu-window.obj
 0004:00000520       ??_R0?AVMenuWindow@@@8     0000000140051520     menu-window.obj
 0004:00000548       ??_R0?AV?$Window@VWidget@@@@@8 0000000140051548     menu-window.obj
 0004:00000700       ??_R0?AVTank@@@8           0000000140051700     tank.obj
 0004:00000720       ??_R0?AVWall@@@8           0000000140051720     wall.obj
 0004:00000740       ??_R0?AVWidgetGame@@@8     0000000140051740     widget-game.obj
 0004:00000768       ??_R0?AVWidgetTemplates@@@8 0000000140051768     widget-templates.obj
 0004:00000798       ??_R0?AVWindowGame@@@8     0000000140051798     window-game.obj
 0004:000007c0       ??_R0?AVWindowEditor@@@8   00000001400517c0     window-editor.obj
 0004:000007f0       ??_R0?AVtype_info@@@8      00000001400517f0     MSVCRTD:std_type_info_static.obj
 0004:00000818       ??_R0?AVbad_alloc@std@@@8  0000000140051818     MSVCRTD:throw_bad_alloc.obj
 0004:00000848       ??_R0?AVexception@std@@@8  0000000140051848     MSVCRTD:throw_bad_alloc.obj
 0004:00000878       ??_R0?AVbad_array_new_length@std@@@8 0000000140051878     MSVCRTD:throw_bad_alloc.obj
 0004:000009e0       ?font@@3VFont@sf@@A        00000001400519e0     button.obj
 0004:00000a88       ?_OptionsStorage@?1??__local_stdio_printf_options@@9@4_KA 0000000140051a88     config.obj
 0004:00000a98       __scrt_current_native_startup_state 0000000140051a98     MSVCRTD:utility.obj
 0004:00000aa0       __scrt_native_startup_lock 0000000140051aa0     MSVCRTD:utility.obj
 0004:00000ae8       __favor                    0000000140051ae8     MSVCRTD:_cpu_disp_.obj
 0004:00000aec       __scrt_debugger_hook_flag  0000000140051aec     MSVCRTD:utility_desktop.obj
 0004:000011b0       ?__type_info_root_node@@3U__type_info_node@@A 00000001400521b0     MSVCRTD:tncleanup.obj
 0004:000011c8       ?_OptionsStorage@?1??__local_stdio_scanf_options@@9@4_KA 00000001400521c8     MSVCRTD:default_local_stdio_options.obj
 0004:000011d8       __dyn_tls_dtor_callback    00000001400521d8     <common>
 0004:000011f0       __dyn_tls_init_callback    00000001400521f0     <common>
 0006:00000000       __imp_TerminateProcess     0000000140058000     kernel32:KERNEL32.dll
 0006:00000008       __imp_InitializeSListHead  0000000140058008     kernel32:KERNEL32.dll
 0006:00000010       __imp_GetSystemTimeAsFileTime 0000000140058010     kernel32:KERNEL32.dll
 0006:00000018       __imp_GetCurrentThreadId   0000000140058018     kernel32:KERNEL32.dll
 0006:00000020       __imp_GetCurrentProcessId  0000000140058020     kernel32:KERNEL32.dll
 0006:00000028       __imp_QueryPerformanceCounter 0000000140058028     kernel32:KERNEL32.dll
 0006:00000030       __imp_GetProcAddress       0000000140058030     kernel32:KERNEL32.dll
 0006:00000038       __imp_FreeLibrary          0000000140058038     kernel32:KERNEL32.dll
 0006:00000040       __imp_VirtualQuery         0000000140058040     kernel32:KERNEL32.dll
 0006:00000048       __imp_GetProcessHeap       0000000140058048     kernel32:KERNEL32.dll
 0006:00000050       __imp_HeapFree             0000000140058050     kernel32:KERNEL32.dll
 0006:00000058       __imp_HeapAlloc            0000000140058058     kernel32:KERNEL32.dll
 0006:00000060       __imp_GetLastError         0000000140058060     kernel32:KERNEL32.dll
 0006:00000068       __imp_IsDebuggerPresent    0000000140058068     kernel32:KERNEL32.dll
 0006:00000070       __imp_GetCurrentProcess    0000000140058070     kernel32:KERNEL32.dll
 0006:00000078       __imp_GetModuleHandleW     0000000140058078     kernel32:KERNEL32.dll
 0006:00000080       __imp_IsProcessorFeaturePresent 0000000140058080     kernel32:KERNEL32.dll
 0006:00000088       __imp_GetStartupInfoW      0000000140058088     kernel32:KERNEL32.dll
 0006:00000090       __imp_SetUnhandledExceptionFilter 0000000140058090     kernel32:KERNEL32.dll
 0006:00000098       __imp_UnhandledExceptionFilter 0000000140058098     kernel32:KERNEL32.dll
 0006:000000a0       __imp_RtlVirtualUnwind     00000001400580a0     kernel32:KERNEL32.dll
 0006:000000a8       __imp_RtlLookupFunctionEntry 00000001400580a8     kernel32:KERNEL32.dll
 0006:000000b0       __imp_RtlCaptureContext    00000001400580b0     kernel32:KERNEL32.dll
 0006:000000b8       __imp_WideCharToMultiByte  00000001400580b8     kernel32:KERNEL32.dll
 0006:000000c0       __imp_MultiByteToWideChar  00000001400580c0     kernel32:KERNEL32.dll
 0006:000000c8       __imp_RaiseException       00000001400580c8     kernel32:KERNEL32.dll
 0006:000000d0       \177KERNEL32_NULL_THUNK_DATA 00000001400580d0     kernel32:KERNEL32.dll
 0006:00000150       __imp_??1_Lockit@std@@QEAA@XZ 0000000140058150     msvcprtd:MSVCP140D.dll
 0006:00000158       __imp_??0_Lockit@std@@QEAA@H@Z 0000000140058158     msvcprtd:MSVCP140D.dll
 0006:00000160       __imp_?_Xbad_alloc@std@@YAXXZ 0000000140058160     msvcprtd:MSVCP140D.dll
 0006:00000168       __imp_?_Xlength_error@std@@YAXPEBD@Z 0000000140058168     msvcprtd:MSVCP140D.dll
 0006:00000170       __imp__Mbrtowc             0000000140058170     msvcprtd:MSVCP140D.dll
 0006:00000178       __imp_?_Getcvt@_Locinfo@std@@QEBA?AU_Cvtvec@@XZ 0000000140058178     msvcprtd:MSVCP140D.dll
 0006:00000180       __imp_?_Getdays@_Locinfo@std@@QEBAPEBDXZ 0000000140058180     msvcprtd:MSVCP140D.dll
 0006:00000188       __imp_?_Getmonths@_Locinfo@std@@QEBAPEBDXZ 0000000140058188     msvcprtd:MSVCP140D.dll
 0006:00000190       __imp_?_W_Getdays@_Locinfo@std@@QEBAPEBGXZ 0000000140058190     msvcprtd:MSVCP140D.dll
 0006:00000198       __imp_?_W_Getmonths@_Locinfo@std@@QEBAPEBGXZ 0000000140058198     msvcprtd:MSVCP140D.dll
 0006:000001a0       __imp_?_Xbad_function_call@std@@YAXXZ 00000001400581a0     msvcprtd:MSVCP140D.dll
 0006:000001a8       __imp_?_Debug_message@std@@YAXPEB_W0I@Z 00000001400581a8     msvcprtd:MSVCP140D.dll
 0006:000001b0       __imp_?_Xinvalid_argument@std@@YAXPEBD@Z 00000001400581b0     msvcprtd:MSVCP140D.dll
 0006:000001b8       __imp_?_Xout_of_range@std@@YAXPEBD@Z 00000001400581b8     msvcprtd:MSVCP140D.dll
 0006:000001c0       __imp_?_Init@locale@std@@CAPEAV_Locimp@12@_N@Z 00000001400581c0     msvcprtd:MSVCP140D.dll
 0006:000001c8       \177MSVCP140D_NULL_THUNK_DATA 00000001400581c8     msvcprtd:MSVCP140D.dll
 0006:00000238       __imp_memcpy               0000000140058238     vcruntimed:VCRUNTIME140D.dll
 0006:00000240       __imp_memmove              0000000140058240     vcruntimed:VCRUNTIME140D.dll
 0006:00000248       __imp___CxxFrameHandler3   0000000140058248     vcruntimed:VCRUNTIME140D.dll
 0006:00000250       __imp__CxxThrowException   0000000140058250     vcruntimed:VCRUNTIME140D.dll
 0006:00000258       __imp__purecall            0000000140058258     vcruntimed:VCRUNTIME140D.dll
 0006:00000260       __imp___C_specific_handler 0000000140058260     vcruntimed:VCRUNTIME140D.dll
 0006:00000268       __imp___C_specific_handler_noexcept 0000000140058268     vcruntimed:VCRUNTIME140D.dll
 0006:00000270       __imp___std_exception_copy 0000000140058270     vcruntimed:VCRUNTIME140D.dll
 0006:00000278       __imp___std_exception_destroy 0000000140058278     vcruntimed:VCRUNTIME140D.dll
 0006:00000280       __imp___vcrt_GetModuleFileNameW 0000000140058280     vcruntimed:VCRUNTIME140D.dll
 0006:00000288       __imp___vcrt_GetModuleHandleW 0000000140058288     vcruntimed:VCRUNTIME140D.dll
 0006:00000290       __imp___std_type_info_destroy_list 0000000140058290     vcruntimed:VCRUNTIME140D.dll
 0006:00000298       __imp___vcrt_LoadLibraryExW 0000000140058298     vcruntimed:VCRUNTIME140D.dll
 0006:000002a0       \177VCRUNTIME140D_NULL_THUNK_DATA 00000001400582a0     vcruntimed:VCRUNTIME140D.dll
 0006:00000308       __imp_?setActive@RenderWindow@sf@@UEAA_N_N@Z 0000000140058308     sfml-graphics-d:sfml-graphics-d-2.dll
 0006:00000310       __imp_?onResize@RenderWindow@sf@@MEAAXXZ 0000000140058310     sfml-graphics-d:sfml-graphics-d-2.dll
 0006:00000318       __imp_?onCreate@RenderWindow@sf@@MEAAXXZ 0000000140058318     sfml-graphics-d:sfml-graphics-d-2.dll
 0006:00000320       __imp_?getSize@RenderWindow@sf@@UEBA?AV?$Vector2@I@2@XZ 0000000140058320     sfml-graphics-d:sfml-graphics-d-2.dll
 0006:00000328       __imp_??1RenderWindow@sf@@UEAA@XZ 0000000140058328     sfml-graphics-d:sfml-graphics-d-2.dll
 0006:00000330       __imp_??0RenderWindow@sf@@QEAA@VVideoMode@1@AEBVString@1@IAEBUContextSettings@1@@Z 0000000140058330     sfml-graphics-d:sfml-graphics-d-2.dll
 0006:00000338       __imp_?getDefaultView@RenderTarget@sf@@QEBAAEBVView@2@XZ 0000000140058338     sfml-graphics-d:sfml-graphics-d-2.dll
 0006:00000340       __imp_?setView@RenderTarget@sf@@QEAAXAEBVView@2@@Z 0000000140058340     sfml-graphics-d:sfml-graphics-d-2.dll
 0006:00000348       __imp_?setOrigin@Transformable@sf@@QEAAXAEBV?$Vector2@M@2@@Z 0000000140058348     sfml-graphics-d:sfml-graphics-d-2.dll
 0006:00000350       __imp_??0Font@sf@@QEAA@XZ  0000000140058350     sfml-graphics-d:sfml-graphics-d-2.dll
 0006:00000358       __imp_??1Font@sf@@QEAA@XZ  0000000140058358     sfml-graphics-d:sfml-graphics-d-2.dll
 0006:00000360       __imp_?loadFromFile@Font@sf@@QEAA_NAEBV?$basic_string@DU?$char_traits@D@std@@V?$allocator@D@2@@std@@@Z 0000000140058360     sfml-graphics-d:sfml-graphics-d-2.dll
 0006:00000368       __imp_?draw@RenderTarget@sf@@QEAAXAEBVDrawable@2@AEBVRenderStates@2@@Z 0000000140058368     sfml-graphics-d:sfml-graphics-d-2.dll
 0006:00000370       __imp_??0Text@sf@@QEAA@XZ  0000000140058370     sfml-graphics-d:sfml-graphics-d-2.dll
 0006:00000378       __imp_?clear@RenderTarget@sf@@QEAAXAEBVColor@2@@Z 0000000140058378     sfml-graphics-d:sfml-graphics-d-2.dll
 0006:00000380       __imp_?setViewport@View@sf@@QEAAXAEBV?$Rect@M@2@@Z 0000000140058380     sfml-graphics-d:sfml-graphics-d-2.dll
 0006:00000388       __imp_??0View@sf@@QEAA@XZ  0000000140058388     sfml-graphics-d:sfml-graphics-d-2.dll
 0006:00000390       __imp_??4Sprite@sf@@QEAAAEAV01@AEBV01@@Z 0000000140058390     sfml-graphics-d:sfml-graphics-d-2.dll
 0006:00000398       __imp_??1Sprite@sf@@UEAA@XZ 0000000140058398     sfml-graphics-d:sfml-graphics-d-2.dll
 0006:000003a0       __imp_?getTexture@Sprite@sf@@QEBAPEBVTexture@2@XZ 00000001400583a0     sfml-graphics-d:sfml-graphics-d-2.dll
 0006:000003a8       __imp_?setTextureRect@Sprite@sf@@QEAAXAEBV?$Rect@H@2@@Z 00000001400583a8     sfml-graphics-d:sfml-graphics-d-2.dll
 0006:000003b0       __imp_?setTexture@Sprite@sf@@QEAAXAEBVTexture@2@_N@Z 00000001400583b0     sfml-graphics-d:sfml-graphics-d-2.dll
 0006:000003b8       __imp_??0Sprite@sf@@QEAA@XZ 00000001400583b8     sfml-graphics-d:sfml-graphics-d-2.dll
 0006:000003c0       __imp_??4Texture@sf@@QEAAAEAV01@AEBV01@@Z 00000001400583c0     sfml-graphics-d:sfml-graphics-d-2.dll
 0006:000003c8       __imp_?getSize@Texture@sf@@QEBA?AV?$Vector2@I@2@XZ 00000001400583c8     sfml-graphics-d:sfml-graphics-d-2.dll
 0006:000003d0       __imp_?loadFromFile@Texture@sf@@QEAA_NAEBV?$basic_string@DU?$char_traits@D@std@@V?$allocator@D@2@@std@@AEBV?$Rect@H@2@@Z 00000001400583d0     sfml-graphics-d:sfml-graphics-d-2.dll
 0006:000003d8       __imp_??1Texture@sf@@QEAA@XZ 00000001400583d8     sfml-graphics-d:sfml-graphics-d-2.dll
 0006:000003e0       __imp_??0Texture@sf@@QEAA@XZ 00000001400583e0     sfml-graphics-d:sfml-graphics-d-2.dll
 0006:000003e8       __imp_?setPosition@Transformable@sf@@QEAAXMM@Z 00000001400583e8     sfml-graphics-d:sfml-graphics-d-2.dll
 0006:000003f0       __imp_?setString@Text@sf@@QEAAXAEBVString@2@@Z 00000001400583f0     sfml-graphics-d:sfml-graphics-d-2.dll
 0006:000003f8       __imp_?setFont@Text@sf@@QEAAXAEBVFont@2@@Z 00000001400583f8     sfml-graphics-d:sfml-graphics-d-2.dll
 0006:00000400       __imp_?setCharacterSize@Text@sf@@QEAAXI@Z 0000000140058400     sfml-graphics-d:sfml-graphics-d-2.dll
 0006:00000408       __imp_?setColor@Text@sf@@QEAAXAEBVColor@2@@Z 0000000140058408     sfml-graphics-d:sfml-graphics-d-2.dll
 0006:00000410       __imp_?getString@Text@sf@@QEBAAEBVString@2@XZ 0000000140058410     sfml-graphics-d:sfml-graphics-d-2.dll
 0006:00000418       __imp_?getLocalBounds@Text@sf@@QEBA?AV?$Rect@M@2@XZ 0000000140058418     sfml-graphics-d:sfml-graphics-d-2.dll
 0006:00000420       __imp_??1Text@sf@@UEAA@XZ  0000000140058420     sfml-graphics-d:sfml-graphics-d-2.dll
 0006:00000428       __imp_?Default@RenderStates@sf@@2V12@B 0000000140058428     sfml-graphics-d:sfml-graphics-d-2.dll
 0006:00000430       __imp_?White@Color@sf@@2V12@B 0000000140058430     sfml-graphics-d:sfml-graphics-d-2.dll
 0006:00000438       __imp_??0Color@sf@@QEAA@EEEE@Z 0000000140058438     sfml-graphics-d:sfml-graphics-d-2.dll
 0006:00000440       __imp_?setPosition@Transformable@sf@@QEAAXAEBV?$Vector2@M@2@@Z 0000000140058440     sfml-graphics-d:sfml-graphics-d-2.dll
 0006:00000448       __imp_?setScale@Transformable@sf@@QEAAXAEBV?$Vector2@M@2@@Z 0000000140058448     sfml-graphics-d:sfml-graphics-d-2.dll
 0006:00000450       __imp_?getTextureRect@Sprite@sf@@QEBAAEBV?$Rect@H@2@XZ 0000000140058450     sfml-graphics-d:sfml-graphics-d-2.dll
 0006:00000458       \177sfml-graphics-d-2_NULL_THUNK_DATA 0000000140058458     sfml-graphics-d:sfml-graphics-d-2.dll
 0006:000004e0       __imp_??1String@sf@@QEAA@XZ 00000001400584e0     sfml-system-d:sfml-system-d-2.dll
 0006:000004e8       __imp_?asMilliseconds@Time@sf@@QEBAHXZ 00000001400584e8     sfml-system-d:sfml-system-d-2.dll
 0006:000004f0       __imp_??0String@sf@@QEAA@PEB_W@Z 00000001400584f0     sfml-system-d:sfml-system-d-2.dll
 0006:000004f8       __imp_??0Clock@sf@@QEAA@XZ 00000001400584f8     sfml-system-d:sfml-system-d-2.dll
 0006:00000500       __imp_?getElapsedTime@Clock@sf@@QEBA?AVTime@2@XZ 0000000140058500     sfml-system-d:sfml-system-d-2.dll
 0006:00000508       __imp_??0String@sf@@QEAA@PEBDAEBVlocale@std@@@Z 0000000140058508     sfml-system-d:sfml-system-d-2.dll
 0006:00000510       __imp_??Gsf@@YA?AVTime@0@V10@0@Z 0000000140058510     sfml-system-d:sfml-system-d-2.dll
 0006:00000518       __imp_?toWideString@String@sf@@QEBA?AV?$basic_string@_WU?$char_traits@_W@std@@V?$allocator@_W@2@@std@@XZ 0000000140058518     sfml-system-d:sfml-system-d-2.dll
 0006:00000520       \177sfml-system-d-2_NULL_THUNK_DATA 0000000140058520     sfml-system-d:sfml-system-d-2.dll
 0006:00000580       __imp_?pollEvent@Window@sf@@QEAA_NAEAVEvent@2@@Z 0000000140058580     sfml-window-d:sfml-window-d-2.dll
 0006:00000588       __imp_?isOpen@Window@sf@@QEBA_NXZ 0000000140058588     sfml-window-d:sfml-window-d-2.dll
 0006:00000590       __imp_?close@Window@sf@@QEAAXXZ 0000000140058590     sfml-window-d:sfml-window-d-2.dll
 0006:00000598       __imp_??0VideoMode@sf@@QEAA@III@Z 0000000140058598     sfml-window-d:sfml-window-d-2.dll
 0006:000005a0       __imp_?display@Window@sf@@QEAAXXZ 00000001400585a0     sfml-window-d:sfml-window-d-2.dll
 0006:000005a8       \177sfml-window-d-2_NULL_THUNK_DATA 00000001400585a8     sfml-window-d:sfml-window-d-2.dll
 0006:00000608       __imp_strcpy_s             0000000140058608     ucrtd:ucrtbased.dll
 0006:00000610       __imp_strcat_s             0000000140058610     ucrtd:ucrtbased.dll
 0006:00000618       __imp___stdio_common_vsprintf_s 0000000140058618     ucrtd:ucrtbased.dll
 0006:00000620       __imp__seh_filter_exe      0000000140058620     ucrtd:ucrtbased.dll
 0006:00000628       __imp__set_app_type        0000000140058628     ucrtd:ucrtbased.dll
 0006:00000630       __imp___setusermatherr     0000000140058630     ucrtd:ucrtbased.dll
 0006:00000638       __imp__get_narrow_winmain_command_line 0000000140058638     ucrtd:ucrtbased.dll
 0006:00000640       __imp__initterm            0000000140058640     ucrtd:ucrtbased.dll
 0006:00000648       __imp__initterm_e          0000000140058648     ucrtd:ucrtbased.dll
 0006:00000650       __imp_exit                 0000000140058650     ucrtd:ucrtbased.dll
 0006:00000658       __imp__exit                0000000140058658     ucrtd:ucrtbased.dll
 0006:00000660       __imp__set_fmode           0000000140058660     ucrtd:ucrtbased.dll
 0006:00000668       __imp__c_exit              0000000140058668     ucrtd:ucrtbased.dll
 0006:00000670       __imp__register_thread_local_exe_atexit_callback 0000000140058670     ucrtd:ucrtbased.dll
 0006:00000678       __imp__configthreadlocale  0000000140058678     ucrtd:ucrtbased.dll
 0006:00000680       __imp__set_new_mode        0000000140058680     ucrtd:ucrtbased.dll
 0006:00000688       __imp___p__commode         0000000140058688     ucrtd:ucrtbased.dll
 0006:00000690       __imp__free_dbg            0000000140058690     ucrtd:ucrtbased.dll
 0006:00000698       __imp_terminate            0000000140058698     ucrtd:ucrtbased.dll
 0006:000006a0       __imp__wmakepath_s         00000001400586a0     ucrtd:ucrtbased.dll
 0006:000006a8       __imp__wsplitpath_s        00000001400586a8     ucrtd:ucrtbased.dll
 0006:000006b0       __imp__CrtDbgReport        00000001400586b0     ucrtd:ucrtbased.dll
 0006:000006b8       __imp__crt_atexit          00000001400586b8     ucrtd:ucrtbased.dll
 0006:000006c0       __imp__initialize_narrow_environment 00000001400586c0     ucrtd:ucrtbased.dll
 0006:000006c8       __imp__configure_narrow_argv 00000001400586c8     ucrtd:ucrtbased.dll
 0006:000006d0       __imp__seh_filter_dll      00000001400586d0     ucrtd:ucrtbased.dll
 0006:000006d8       __imp_malloc               00000001400586d8     ucrtd:ucrtbased.dll
 0006:000006e0       __imp__callnewh            00000001400586e0     ucrtd:ucrtbased.dll
 0006:000006e8       __imp_fabs                 00000001400586e8     ucrtd:ucrtbased.dll
 0006:000006f0       __imp_rand                 00000001400586f0     ucrtd:ucrtbased.dll
 0006:000006f8       __imp___stdio_common_vfprintf 00000001400586f8     ucrtd:ucrtbased.dll
 0006:00000700       __imp_fread                0000000140058700     ucrtd:ucrtbased.dll
 0006:00000708       __imp_fopen                0000000140058708     ucrtd:ucrtbased.dll
 0006:00000710       __imp_fclose               0000000140058710     ucrtd:ucrtbased.dll
 0006:00000718       __imp___acrt_iob_func      0000000140058718     ucrtd:ucrtbased.dll
 0006:00000720       __imp_strtol               0000000140058720     ucrtd:ucrtbased.dll
 0006:00000728       __imp_strtof               0000000140058728     ucrtd:ucrtbased.dll
 0006:00000730       __imp__errno               0000000140058730     ucrtd:ucrtbased.dll
 0006:00000738       __imp__CrtDbgReportW       0000000140058738     ucrtd:ucrtbased.dll
 0006:00000740       __imp__calloc_dbg          0000000140058740     ucrtd:ucrtbased.dll
 0006:00000748       __imp_strlen               0000000140058748     ucrtd:ucrtbased.dll
 0006:00000750       __imp_wcslen               0000000140058750     ucrtd:ucrtbased.dll
 0006:00000758       __imp__invalid_parameter   0000000140058758     ucrtd:ucrtbased.dll
 0006:00000760       __imp__cexit               0000000140058760     ucrtd:ucrtbased.dll
 0006:00000768       __imp__crt_at_quick_exit   0000000140058768     ucrtd:ucrtbased.dll
 0006:00000770       __imp__initialize_onexit_table 0000000140058770     ucrtd:ucrtbased.dll
 0006:00000778       __imp__execute_onexit_table 0000000140058778     ucrtd:ucrtbased.dll
 0006:00000780       __imp_wcscpy_s             0000000140058780     ucrtd:ucrtbased.dll
 0006:00000788       __imp__register_onexit_function 0000000140058788     ucrtd:ucrtbased.dll
 0006:00000790       \177ucrtbased_NULL_THUNK_DATA 0000000140058790     ucrtd:ucrtbased.dll
 0006:00000830       __IMPORT_DESCRIPTOR_sfml-graphics-d-2 0000000140058830     sfml-graphics-d:sfml-graphics-d-2.dll
 0006:00000844       __IMPORT_DESCRIPTOR_sfml-window-d-2 0000000140058844     sfml-window-d:sfml-window-d-2.dll
 0006:00000858       __IMPORT_DESCRIPTOR_sfml-system-d-2 0000000140058858     sfml-system-d:sfml-system-d-2.dll
 0006:0000086c       __IMPORT_DESCRIPTOR_MSVCP140D 000000014005886c     msvcprtd:MSVCP140D.dll
 0006:00000880       __IMPORT_DESCRIPTOR_VCRUNTIME140D 0000000140058880     vcruntimed:VCRUNTIME140D.dll
 0006:00000894       __IMPORT_DESCRIPTOR_ucrtbased 0000000140058894     ucrtd:ucrtbased.dll
 0006:000008a8       __IMPORT_DESCRIPTOR_KERNEL32 00000001400588a8     kernel32:KERNEL32.dll
 0006:000008bc       __NULL_IMPORT_DESCRIPTOR   00000001400588bc     sfml-graphics-d:sfml-graphics-d-2.dll
 0007:00000000       __guard_check_icall_fptr   000000014005b000     MSVCRTD:guard_support.obj
 0007:00000010       __guard_dispatch_icall_fptr 000000014005b010     MSVCRTD:guard_support.obj

 entry point at        0002:000004a1

 Static symbols

 0000:fffa2000       .debug$S                   0000000140000000     ucrtd:ucrtbased.dll
 0005:fffad000       $pdata$??$_Getvals@_W@?$time_get@DV?$istreambuf_iterator@DU?$char_traits@D@std@@@std@@@std@@IEAAX_WAEBV_Locinfo@1@@Z 0000000140000000     widget-game.obj
 0005:fffad000       $pdata$??$forward@U_Container_proxy@std@@@std@@YA$$QEAU_Container_proxy@0@AEAU10@@Z 0000000140000000     object.obj
 0003:fffbe000       $unwind$??$forward@U_Container_proxy@std@@@std@@YA$$QEAU_Container_proxy@0@AEAU10@@Z 0000000140000000     object.obj
 0005:fffad000       $pdata$??$_Allocate_manually_vector_aligned@U_Default_allocate_traits@std@@@std@@YAPEAX_K@Z 0000000140000000     object.obj
 0003:fffbe000       $unwind$??$_Allocate_manually_vector_aligned@U_Default_allocate_traits@std@@@std@@YAPEAX_K@Z 0000000140000000     object.obj
 0005:fffad000       $pdata$??$forward@AEBQEAD@std@@YAAEBQEADAEBQEAD@Z 0000000140000000     object.obj
 0003:fffbe000       $unwind$??$forward@AEBQEAD@std@@YAAEBQEADAEBQEAD@Z 0000000140000000     object.obj
 0005:fffad000       $pdata$??$_Maklocstr@D@std@@YAPEADPEBDPEADAEBU_Cvtvec@@@Z 0000000140000000     object.obj
 0003:fffbe000       $unwind$??$_Maklocstr@D@std@@YAPEADPEBDPEADAEBU_Cvtvec@@@Z 0000000140000000     object.obj
 0005:fffad000       $pdata$??$_Get_size_of_n@$0BA@@std@@YA_K_K@Z 0000000140000000     object.obj
 0003:fffbe000       $unwind$??$_Get_size_of_n@$0BA@@std@@YA_K_K@Z 0000000140000000     object.obj
 0005:fffad000       $pdata$??$?0D@?$allocator@U_Container_proxy@std@@@std@@QEAA@AEBV?$allocator@D@1@@Z 0000000140000000     object.obj
 0003:fffbe000       $unwind$??$?0D@?$allocator@U_Container_proxy@std@@@std@@QEAA@AEBV?$allocator@D@1@@Z 0000000140000000     object.obj
 0005:fffad000       $pdata$??$construct@U_Container_proxy@std@@U12@@?$_Default_allocator_traits@V?$allocator@U_Container_proxy@std@@@std@@@std@@SAXAEAV?$allocator@U_Container_proxy@std@@@1@QEAU_Container_proxy@1@$$QEAU31@@Z 0000000140000000     object.obj
 0003:fffbe000       $unwind$??$construct@U_Container_proxy@std@@U12@@?$_Default_allocator_traits@V?$allocator@U_Container_proxy@std@@@std@@@std@@SAXAEAV?$allocator@U_Container_proxy@std@@@1@QEAU_Container_proxy@1@$$QEAU31@@Z 0000000140000000     object.obj
 0005:fffad000       $pdata$??$_Unfancy@U_Container_proxy@std@@@std@@YAPEAU_Container_proxy@0@PEAU10@@Z 0000000140000000     object.obj
 0003:fffbe000       $unwind$??$_Unfancy@U_Container_proxy@std@@@std@@YAPEAU_Container_proxy@0@PEAU10@@Z 0000000140000000     object.obj
 0005:fffad000       $pdata$??$_Deallocate_plain@V?$allocator@U_Container_proxy@std@@@std@@$0A@@std@@YAXAEAV?$allocator@U_Container_proxy@std@@@0@QEAU_Container_proxy@0@@Z 0000000140000000     object.obj
 0003:fffbe000       $unwind$??$_Deallocate_plain@V?$allocator@U_Container_proxy@std@@@std@@$0A@@std@@YAXAEAV?$allocator@U_Container_proxy@std@@@0@QEAU_Container_proxy@0@@Z 0000000140000000     object.obj
 0005:fffad000       $pdata$??$destroy@U_Container_proxy@std@@@?$_Default_allocator_traits@V?$allocator@U_Container_proxy@std@@@std@@@std@@SAXAEAV?$allocator@U_Container_proxy@std@@@1@QEAU_Container_proxy@1@@Z 0000000140000000     object.obj
 0003:fffbe000       $unwind$??$destroy@U_Container_proxy@std@@@?$_Default_allocator_traits@V?$allocator@U_Container_proxy@std@@@std@@@std@@SAXAEAV?$allocator@U_Container_proxy@std@@@1@QEAU_Container_proxy@1@@Z 0000000140000000     object.obj
 0005:fffad000       $pdata$?deallocate@?$_Default_allocator_traits@V?$allocator@U_Container_proxy@std@@@std@@@std@@SAXAEAV?$allocator@U_Container_proxy@std@@@2@QEAU_Container_proxy@2@_K@Z 0000000140000000     object.obj
 0003:fffbe000       $unwind$?deallocate@?$_Default_allocator_traits@V?$allocator@U_Container_proxy@std@@@std@@@std@@SAXAEAV?$allocator@U_Container_proxy@std@@@2@QEAU_Container_proxy@2@_K@Z 0000000140000000     object.obj
 0005:fffad000       $pdata$?allocate@?$allocator@U_Container_proxy@std@@@std@@QEAAPEAU_Container_proxy@2@_K@Z 0000000140000000     object.obj
 0003:fffbe000       $unwind$?allocate@?$allocator@U_Container_proxy@std@@@std@@QEAAPEAU_Container_proxy@2@_K@Z 0000000140000000     object.obj
 0005:fffad000       $pdata$??$_Deallocate@$0BA@$0A@@std@@YAXPEAX_K@Z 0000000140000000     object.obj
 0003:fffbe000       $unwind$??$_Deallocate@$0BA@$0A@@std@@YAXPEAX_K@Z 0000000140000000     object.obj
 0005:fffad000       $pdata$??$_Allocate@$0BA@U_Default_allocate_traits@std@@$0A@@std@@YAPEAX_K@Z 0000000140000000     object.obj
 0003:fffbe000       $unwind$??$_Allocate@$0BA@U_Default_allocate_traits@std@@$0A@@std@@YAPEAX_K@Z 0000000140000000     object.obj
 0005:fffad000       $pdata$??$construct@PEADAEBQEAD@?$_Default_allocator_traits@V?$allocator@D@std@@@std@@SAXAEAV?$allocator@D@1@QEAPEADAEBQEAD@Z 0000000140000000     object.obj
 0003:fffbe000       $unwind$??$construct@PEADAEBQEAD@?$_Default_allocator_traits@V?$allocator@D@std@@@std@@SAXAEAV?$allocator@D@1@QEAPEADAEBQEAD@Z 0000000140000000     object.obj
 0005:fffad000       $pdata$??$_Reallocate_for@V<lambda_66f57f934f28d61049862f64df852ff0>@@PEBD@?$basic_string@DU?$char_traits@D@std@@V?$allocator@D@2@@std@@QEAAAEAV01@_KV<lambda_66f57f934f28d61049862f64df852ff0>@@PEBD@Z 0000000140000000     object.obj
 0000:fffa2000       .debug$S                   0000000140000000     vcruntimed:VCRUNTIME140D.dll
 0000:fffa2000       .debug$S                   0000000140000000     sfml-window-d:sfml-window-d-2.dll
 0005:fffad000       $pdata$??0?$basic_string@DU?$char_traits@D@std@@V?$allocator@D@2@@std@@QEAA@QEBD@Z 0000000140000000     config.obj
 0000:fffa2000       .debug$S                   0000000140000000     sfml-window-d:sfml-window-d-2.dll
 0005:fffad000       $pdata$??R<lambda_66f57f934f28d61049862f64df852ff0>@@QEBAXQEAD_KQEBD@Z 0000000140000000     object.obj
 0000:fffa2000       .debug$S                   0000000140000000     sfml-window-d:sfml-window-d-2.dll
 0005:fffad000       $pdata$??$addressof@V?$_String_val@U?$_Simple_types@D@std@@@std@@@std@@YAPEAV?$_String_val@U?$_Simple_types@D@std@@@0@AEAV10@@Z 0000000140000000     object.obj
 0003:fffbe000       $unwind$??$addressof@V?$_String_val@U?$_Simple_types@D@std@@@std@@@std@@YAPEAV?$_String_val@U?$_Simple_types@D@std@@@0@AEAV10@@Z 0000000140000000     object.obj
 0005:fffad000       $pdata$??$_Max_value@_K@std@@YAAEB_KAEB_K0@Z 0000000140000000     object.obj
 0003:fffbe000       $unwind$??$_Max_value@_K@std@@YAAEB_KAEB_K0@Z 0000000140000000     object.obj
 0005:fffad000       $pdata$??$destroy@PEAD@?$_Default_allocator_traits@V?$allocator@D@std@@@std@@SAXAEAV?$allocator@D@1@QEAPEAD@Z 0000000140000000     object.obj
 0003:fffbe000       $unwind$??$destroy@PEAD@?$_Default_allocator_traits@V?$allocator@D@std@@@std@@SAXAEAV?$allocator@D@1@QEAPEAD@Z 0000000140000000     object.obj
 0005:fffad000       $pdata$??$addressof@PEAD@std@@YAPEAPEADAEAPEAD@Z 0000000140000000     object.obj
 0003:fffbe000       $unwind$??$addressof@PEAD@std@@YAPEAPEADAEAPEAD@Z 0000000140000000     object.obj
 0005:fffad000       $pdata$??$?0$$V@?$_Compressed_pair@V?$allocator@D@std@@V?$_String_val@U?$_Simple_types@D@std@@@2@$00@std@@QEAA@U_Zero_then_variadic_args_t@1@@Z 0000000140000000     object.obj
 0003:fffbe000       $unwind$??$?0$$V@?$_Compressed_pair@V?$allocator@D@std@@V?$_String_val@U?$_Simple_types@D@std@@@2@$00@std@@QEAA@U_Zero_then_variadic_args_t@1@@Z 0000000140000000     object.obj
 0005:fffad000       $pdata$??$_Unfancy@D@std@@YAPEADPEAD@Z 0000000140000000     object.obj
 0003:fffbe000       $unwind$??$_Unfancy@D@std@@YAPEADPEAD@Z 0000000140000000     object.obj
 0005:fffad000       $pdata$??$_Min_value@_K@std@@YAAEB_KAEB_K0@Z 0000000140000000     object.obj
 0003:fffbe000       $unwind$??$_Min_value@_K@std@@YAAEB_KAEB_K0@Z 0000000140000000     object.obj
 0005:fffad000       $pdata$??0?$Vector2@H@sf@@QEAA@HH@Z 0000000140000000     object.obj
 0000:fffa2000       .debug$S                   0000000140000000     sfml-window-d:sfml-window-d-2.dll
 0005:fffad000       $pdata$??_GObject@@UEAAPEAXI@Z 0000000140000000     object.obj
 0000:fffa2000       .debug$S                   0000000140000000     sfml-graphics-d:sfml-graphics-d-2.dll
 0005:fffad000       $pdata$?calculateSpriteSize@Object@@AEAAXXZ 0000000140000000     object.obj
 0000:fffa2000       .debug$S                   0000000140000000     vcruntimed:VCRUNTIME140D.dll
 0005:fffad000       $pdata$?CalculateSpritePos@Object@@QEAAXXZ 0000000140000000     object.obj
 0000:fffa2000       .debug$S                   0000000140000000     sfml-graphics-d:sfml-graphics-d-2.dll
 0005:fffad000       $pdata$?Draw@Object@@UEAAXPEAVRenderWindow@sf@@@Z 0000000140000000     object.obj
 0003:fffbe000       $cppxdata$??0?$basic_string@DU?$char_traits@D@std@@V?$allocator@D@2@@std@@QEAA@QEBD@Z 0000000140000000     config.obj
 0005:fffad000       $pdata$?CheckIntersect@Object@@QEBA_NAEBV?$Vector2@M@sf@@@Z 0000000140000000     object.obj
 0000:fffa2000       .debug$S                   0000000140000000     sfml-graphics-d:sfml-graphics-d-2.dll
 0003:fffbe000       $unwind$?__empty_global_delete@@YAXPEAX@Z 0000000140000000     menu-window.obj
 0005:fffad000       $pdata$?assign@?$basic_string@DU?$char_traits@D@std@@V?$allocator@D@2@@std@@QEAAAEAV12@QEBD@Z 0000000140000000     config.obj
 0003:fffbe000       $unwind$?assign@?$basic_string@DU?$char_traits@D@std@@V?$allocator@D@2@@std@@QEAAAEAV12@QEBD@Z 0000000140000000     config.obj
 0000:fffa2000       .debug$S                   0000000140000000     sfml-graphics-d:sfml-graphics-d-2.dll
 0005:fffad000       $pdata$?GetAbsolutePos@Object@@QEBA?AV?$Vector2@M@sf@@XZ 0000000140000000     object.obj
 0005:fffad000       $pdata$?assign@?$basic_string@DU?$char_traits@D@std@@V?$allocator@D@2@@std@@QEAAAEAV12@QEBD_K@Z 0000000140000000     config.obj
 0005:fffad000       $pdata$?__empty_global_delete@@YAXPEAX@Z 0000000140000000     menu-window.obj
 0005:fffad000       $pdata$??$construct@PEADAEBQEAD@?$_Default_allocator_traits@V?$allocator@D@std@@@std@@SAXAEAV?$allocator@D@1@QEAPEADAEBQEAD@Z 0000000140000000     config.obj
 0003:fffbe000       $unwind$?__empty_global_delete@@YAXPEAX_K@Z 0000000140000000     menu-window.obj
 0005:fffad000       $pdata$?dtor$0@?0??SetTexture@Object@@QEAA_NPEBD@Z@4HA 0000000140000000     object.obj
 0003:fffbe000       $unwind$??$construct@PEADAEBQEAD@?$_Default_allocator_traits@V?$allocator@D@std@@@std@@SAXAEAV?$allocator@D@1@QEAPEADAEBQEAD@Z 0000000140000000     config.obj
 0003:fffbe000       $unwind$??$_Maklocstr@_W@std@@YAPEA_WPEBDPEA_WAEBU_Cvtvec@@@Z 0000000140000000     window.obj
 0000:fffa2000       .debug$S                   0000000140000000     sfml-graphics-d:sfml-graphics-d-2.dll
 0000:fffa2000       .debug$S                   0000000140000000     sfml-graphics-d:sfml-graphics-d-2.dll
 0005:fffad000       $pdata$?SetTexture@Object@@QEAA_NPEBD@Z 0000000140000000     object.obj
 0000:fffa2000       .debug$S                   0000000140000000     sfml-graphics-d:sfml-graphics-d-2.dll
 0005:fffad000       $pdata$?SetSize@Object@@QEAAXAEBV?$Vector2@M@sf@@@Z 0000000140000000     object.obj
 0003:fffbe000       $unwind$??$?0$$V@?$_Compressed_pair@V?$allocator@D@std@@V?$_String_val@U?$_Simple_types@D@std@@@2@$00@std@@QEAA@U_Zero_then_variadic_args_t@1@@Z 0000000140000000     config.obj
 0005:fffad000       $pdata$?GetSize@Object@@QEBA?AV?$Vector2@M@sf@@XZ 0000000140000000     object.obj
 0005:fffad000       $pdata$?__empty_global_delete@@YAXPEAX_K@Z 0000000140000000     menu-window.obj
 0005:fffad000       $pdata$?SetPos@Object@@UEAAXAEBV?$Vector2@M@sf@@@Z 0000000140000000     object.obj
 0000:fffa2000       .debug$S                   0000000140000000     sfml-graphics-d:sfml-graphics-d-2.dll
 0005:fffad000       $pdata$?GetPos@Object@@QEBA?AV?$Vector2@M@sf@@XZ 0000000140000000     object.obj
 0003:fffbe000       $unwind$wmemcpy            0000000140000000     menu-window.obj
 0005:fffad000       $pdata$?SetParent@Object@@QEAAXPEAV1@@Z 0000000140000000     object.obj
 0000:fffa2000       .debug$S                   0000000140000000     sfml-graphics-d:sfml-graphics-d-2.dll
 0005:fffad000       $pdata$?GetParent@Object@@QEBAPEAV1@XZ 0000000140000000     object.obj
 0005:fffad000       $pdata$wmemcpy             0000000140000000     menu-window.obj
 0005:fffad000       $pdata$??1Object@@UEAA@XZ  0000000140000000     object.obj
 0000:fffa2000       .debug$S                   0000000140000000     sfml-graphics-d:sfml-graphics-d-2.dll
 0005:fffad000       $pdata$?dtor$1@?0???0Object@@QEAA@PEBV0@@Z@4HA 0000000140000000     object.obj
 0003:fffbe000       $unwind$??2@YAPEAX_KPEAX@Z 0000000140000000     menu-window.obj
 0005:fffad000       $pdata$?dtor$0@?0???0Object@@QEAA@PEBV0@@Z@4HA 0000000140000000     object.obj
 0000:fffa2000       .debug$S                   0000000140000000     sfml-graphics-d:sfml-graphics-d-2.dll
 0005:fffad000       $pdata$??2@YAPEAX_KPEAX@Z  0000000140000000     menu-window.obj
 0000:fffa2000       .debug$S                   0000000140000000     sfml-graphics-d:sfml-graphics-d-2.dll
 0003:fffbe000       $unwind$?_Adjust_manually_vector_aligned@std@@YAXAEAPEAXAEA_K@Z 0000000140000000     menu-window.obj
 0005:fffad000       $pdata$??0Object@@QEAA@PEBV0@@Z 0000000140000000     object.obj
 0000:fffa2000       .debug$S                   0000000140000000     sfml-graphics-d:sfml-graphics-d-2.dll
 0005:fffad000       $pdata$?dtor$1@?0???0Object@@QEAA@AEBV?$Vector2@M@sf@@0@Z@4HA 0000000140000000     object.obj
 0005:fffad000       $pdata$??$_Maklocstr@_W@std@@YAPEA_WPEBDPEA_WAEBU_Cvtvec@@@Z 0000000140000000     window.obj
 0005:fffad000       $pdata$?dtor$0@?0???0Object@@QEAA@AEBV?$Vector2@M@sf@@0@Z@4HA 0000000140000000     object.obj
 0000:fffa2000       .debug$S                   0000000140000000     sfml-graphics-d:sfml-graphics-d-2.dll
 0005:fffad000       $pdata$?_Adjust_manually_vector_aligned@std@@YAXAEAPEAXAEA_K@Z 0000000140000000     menu-window.obj
 0000:fffa2000       .debug$S                   0000000140000000     sfml-graphics-d:sfml-graphics-d-2.dll
 0003:fffbe000       $unwind$?_Maklocwcs@std@@YAPEA_WPEB_W@Z 0000000140000000     window.obj
 0005:fffad000       $pdata$??0Object@@QEAA@AEBV?$Vector2@M@sf@@0@Z 0000000140000000     object.obj
 0000:fffa2000       .debug$S                   0000000140000000     sfml-graphics-d:sfml-graphics-d-2.dll
 0005:fffad000       $pdata$?dtor$1@?0???0Object@@QEAA@PEBD@Z@4HA 0000000140000000     object.obj
 0003:fffbe000       ??$_Maklocstr@_W@std@@YAPEA_WPEBDPEA_WAEBU_Cvtvec@@@Z$rtcName$0 0000000140000000     menu-window.obj
 0005:fffad000       $pdata$?dtor$0@?0???0Object@@QEAA@PEBD@Z@4HA 0000000140000000     object.obj
 0000:fffa2000       .debug$S                   0000000140000000     sfml-graphics-d:sfml-graphics-d-2.dll
 0000:fffa2000       .debug$S                   0000000140000000     sfml-graphics-d:sfml-graphics-d-2.dll
 0000:fffa2000       .debug$S                   0000000140000000     sfml-graphics-d:sfml-graphics-d-2.dll
 0005:fffad000       $pdata$??$?0$$V@?$_Compressed_pair@V?$allocator@D@std@@V?$_String_val@U?$_Simple_types@D@std@@@2@$00@std@@QEAA@U_Zero_then_variadic_args_t@1@@Z 0000000140000000     config.obj
 0005:fffad000       $pdata$??0Object@@QEAA@PEBD@Z 0000000140000000     object.obj
 0005:fffad000       $pdata$?_Maklocwcs@std@@YAPEA_WPEB_W@Z 0000000140000000     window.obj
 0005:fffad000       $pdata$??0?$Rect@H@sf@@QEAA@AEBV?$Vector2@H@1@0@Z 0000000140000000     object.obj
 0000:fffa2000       .debug$S                   0000000140000000     sfml-graphics-d:sfml-graphics-d-2.dll
 0005:fffad000       $pdata$??0?$Rect@H@sf@@QEAA@XZ 0000000140000000     object.obj
 0000:fffa2000       .debug$S                   0000000140000000     sfml-graphics-d:sfml-graphics-d-2.dll
 0005:fffad000       $pdata$??0?$Vector2@M@sf@@QEAA@MM@Z 0000000140000000     object.obj
 0003:fffbe000       $unwind$??0?$Vector2@M@sf@@QEAA@MM@Z 0000000140000000     object.obj
 0005:fffad000       $pdata$??0?$Vector2@M@sf@@QEAA@XZ 0000000140000000     object.obj
 0003:fffbe000       $unwind$??0?$Vector2@M@sf@@QEAA@XZ 0000000140000000     object.obj
 0005:fffad000       $pdata$??$_Getvals@_W@?$time_get@_WV?$istreambuf_iterator@_WU?$char_traits@_W@std@@@std@@@std@@IEAAX_WAEBV_Locinfo@1@@Z 0000000140000000     object.obj
 0003:fffbe000       $unwind$??$_Getvals@_W@?$time_get@_WV?$istreambuf_iterator@_WU?$char_traits@_W@std@@@std@@@std@@IEAAX_WAEBV_Locinfo@1@@Z 0000000140000000     object.obj
 0005:fffad000       $pdata$??$_Getvals@_W@?$time_get@DV?$istreambuf_iterator@DU?$char_traits@D@std@@@std@@@std@@IEAAX_WAEBV_Locinfo@1@@Z 0000000140000000     object.obj
 0003:fffbe000       $unwind$??$_Getvals@_W@?$time_get@DV?$istreambuf_iterator@DU?$char_traits@D@std@@@std@@@std@@IEAAX_WAEBV_Locinfo@1@@Z 0000000140000000     object.obj
 0005:fffad000       $pdata$?_Maklocwcs@std@@YAPEA_WPEB_W@Z 0000000140000000     object.obj
 0003:fffbe000       $unwind$?_Maklocwcs@std@@YAPEA_WPEB_W@Z 0000000140000000     object.obj
 0005:fffad000       $pdata$??$_Maklocstr@_W@std@@YAPEA_WPEBDPEA_WAEBU_Cvtvec@@@Z 0000000140000000     object.obj
 0003:fffbe000       $unwind$??$_Maklocstr@_W@std@@YAPEA_WPEBDPEA_WAEBU_Cvtvec@@@Z 0000000140000000     object.obj
 0000:fffa2000       .debug$S                   0000000140000000     sfml-graphics-d:sfml-graphics-d-2.dll
 0000:fffa2000       .debug$S                   0000000140000000     sfml-graphics-d:sfml-graphics-d-2.dll
 0003:fffbe000       $unwind$?__empty_global_delete@@YAXPEAX@Z 0000000140000000     config.obj
 0000:fffa2000       .debug$S                   0000000140000000     sfml-graphics-d:sfml-graphics-d-2.dll
 0003:fffbe000       ??$_Maklocstr@_W@std@@YAPEA_WPEBDPEA_WAEBU_Cvtvec@@@Z$rtcName$0 0000000140000000     object.obj
 0005:fffad000       $pdata$?_Xlen@?$basic_string@DU?$char_traits@D@std@@V?$allocator@D@2@@std@@SAXXZ 0000000140000000     object.obj
 0003:fffbe000       $unwind$?_Xlen@?$basic_string@DU?$char_traits@D@std@@V?$allocator@D@2@@std@@SAXXZ 0000000140000000     object.obj
 0005:fffad000       $pdata$?_Tidy_deallocate@?$basic_string@DU?$char_traits@D@std@@V?$allocator@D@2@@std@@QEAAXXZ 0000000140000000     object.obj
 0003:fffbe000       $unwind$?_Tidy_deallocate@?$basic_string@DU?$char_traits@D@std@@V?$allocator@D@2@@std@@QEAAXXZ 0000000140000000     object.obj
 0005:fffad000       $pdata$?_Tidy_init@?$basic_string@DU?$char_traits@D@std@@V?$allocator@D@2@@std@@QEAAXXZ 0000000140000000     object.obj
 0003:fffbe000       $unwind$?_Tidy_init@?$basic_string@DU?$char_traits@D@std@@V?$allocator@D@2@@std@@QEAAXXZ 0000000140000000     object.obj
 0005:fffad000       $pdata$?_Calculate_growth@?$basic_string@DU?$char_traits@D@std@@V?$allocator@D@2@@std@@QEBA_K_K@Z 0000000140000000     object.obj
 0003:fffbe000       $unwind$?_Calculate_growth@?$basic_string@DU?$char_traits@D@std@@V?$allocator@D@2@@std@@QEBA_K_K@Z 0000000140000000     object.obj
 0003:fffbe000       $unwind$??$addressof@PEAD@std@@YAPEAPEADAEAPEAD@Z 0000000140000000     config.obj
 0000:fffa2000       .debug$S                   0000000140000000     sfml-graphics-d:sfml-graphics-d-2.dll
 0003:fffbe000       ?_Calculate_growth@?$basic_string@DU?$char_traits@D@std@@V?$allocator@D@2@@std@@QEBA_K_K@Z$rtcName$0 0000000140000000     object.obj
 0005:fffad000       $pdata$?max_size@?$basic_string@DU?$char_traits@D@std@@V?$allocator@D@2@@std@@QEBA_KXZ 0000000140000000     object.obj
 0003:fffbe000       $unwind$?max_size@?$basic_string@DU?$char_traits@D@std@@V?$allocator@D@2@@std@@QEBA_KXZ 0000000140000000     object.obj
 0000:fffa2000       .debug$S                   0000000140000000     sfml-graphics-d:sfml-graphics-d-2.dll
 0000:fffa2000       .debug$S                   0000000140000000     sfml-graphics-d:sfml-graphics-d-2.dll
 0003:fffbe000       ?max_size@?$basic_string@DU?$char_traits@D@std@@V?$allocator@D@2@@std@@QEBA_KXZ$rtcName$0 0000000140000000     object.obj
 0005:fffad000       $pdata$?assign@?$basic_string@DU?$char_traits@D@std@@V?$allocator@D@2@@std@@QEAAAEAV12@QEBD@Z 0000000140000000     object.obj
 0003:fffbe000       $unwind$?assign@?$basic_string@DU?$char_traits@D@std@@V?$allocator@D@2@@std@@QEAAAEAV12@QEBD@Z 0000000140000000     object.obj
 0005:fffad000       $pdata$?assign@?$basic_string@DU?$char_traits@D@std@@V?$allocator@D@2@@std@@QEAAAEAV12@QEBD_K@Z 0000000140000000     object.obj
 0003:fffbe000       $unwind$?assign@?$basic_string@DU?$char_traits@D@std@@V?$allocator@D@2@@std@@QEAAAEAV12@QEBD_K@Z 0000000140000000     object.obj
 0003:fffbe000       $ip2state$??1?$basic_string@DU?$char_traits@D@std@@V?$allocator@D@2@@std@@QEAA@XZ 0000000140000000     object.obj
 0003:fffbe000       $cppxdata$??1?$basic_string@DU?$char_traits@D@std@@V?$allocator@D@2@@std@@QEAA@XZ 0000000140000000     object.obj
 0005:fffad000       $pdata$??1?$basic_string@DU?$char_traits@D@std@@V?$allocator@D@2@@std@@QEAA@XZ 0000000140000000     object.obj
 0003:fffbe000       $unwind$??1?$basic_string@DU?$char_traits@D@std@@V?$allocator@D@2@@std@@QEAA@XZ 0000000140000000     object.obj
 0005:fffad000       $pdata$?dtor$0@?0???0?$basic_string@DU?$char_traits@D@std@@V?$allocator@D@2@@std@@QEAA@QEBD@Z@4HA 0000000140000000     object.obj
 0003:fffbe000       $unwind$?dtor$0@?0???0?$basic_string@DU?$char_traits@D@std@@V?$allocator@D@2@@std@@QEAA@QEBD@Z@4HA 0000000140000000     object.obj
 0003:fffbe000       $ip2state$??0?$basic_string@DU?$char_traits@D@std@@V?$allocator@D@2@@std@@QEAA@QEBD@Z 0000000140000000     object.obj
 0003:fffbe000       $stateUnwindMap$??0?$basic_string@DU?$char_traits@D@std@@V?$allocator@D@2@@std@@QEAA@QEBD@Z 0000000140000000     object.obj
 0003:fffbe000       $cppxdata$??0?$basic_string@DU?$char_traits@D@std@@V?$allocator@D@2@@std@@QEAA@QEBD@Z 0000000140000000     object.obj
 0005:fffad000       $pdata$??0?$basic_string@DU?$char_traits@D@std@@V?$allocator@D@2@@std@@QEAA@QEBD@Z 0000000140000000     object.obj
 0003:fffbe000       $unwind$??0?$basic_string@DU?$char_traits@D@std@@V?$allocator@D@2@@std@@QEAA@QEBD@Z 0000000140000000     object.obj
 0005:fffad000       $pdata$??1?$_Compressed_pair@V?$allocator@D@std@@V?$_String_val@U?$_Simple_types@D@std@@@2@$00@std@@QEAA@XZ 0000000140000000     object.obj
 0003:fffbe000       $unwind$??1?$_Compressed_pair@V?$allocator@D@std@@V?$_String_val@U?$_Simple_types@D@std@@@2@$00@std@@QEAA@XZ 0000000140000000     object.obj
 0005:fffad000       $pdata$?_Get_second@?$_Compressed_pair@V?$allocator@D@std@@V?$_String_val@U?$_Simple_types@D@std@@@2@$00@std@@QEBAAEBV?$_String_val@U?$_Simple_types@D@std@@@2@XZ 0000000140000000     object.obj
 0003:fffbe000       $unwind$?_Get_second@?$_Compressed_pair@V?$allocator@D@std@@V?$_String_val@U?$_Simple_types@D@std@@@2@$00@std@@QEBAAEBV?$_String_val@U?$_Simple_types@D@std@@@2@XZ 0000000140000000     object.obj
 0005:fffad000       $pdata$?_Get_second@?$_Compressed_pair@V?$allocator@D@std@@V?$_String_val@U?$_Simple_types@D@std@@@2@$00@std@@QEAAAEAV?$_String_val@U?$_Simple_types@D@std@@@2@XZ 0000000140000000     object.obj
 0003:fffbe000       $unwind$?_Get_second@?$_Compressed_pair@V?$allocator@D@std@@V?$_String_val@U?$_Simple_types@D@std@@@2@$00@std@@QEAAAEAV?$_String_val@U?$_Simple_types@D@std@@@2@XZ 0000000140000000     object.obj
 0005:fffad000       $pdata$?_Get_first@?$_Compressed_pair@V?$allocator@D@std@@V?$_String_val@U?$_Simple_types@D@std@@@2@$00@std@@QEBAAEBV?$allocator@D@2@XZ 0000000140000000     object.obj
 0003:fffbe000       $unwind$?_Get_first@?$_Compressed_pair@V?$allocator@D@std@@V?$_String_val@U?$_Simple_types@D@std@@@2@$00@std@@QEBAAEBV?$allocator@D@2@XZ 0000000140000000     object.obj
 0005:fffad000       $pdata$?_Get_first@?$_Compressed_pair@V?$allocator@D@std@@V?$_String_val@U?$_Simple_types@D@std@@@2@$00@std@@QEAAAEAV?$allocator@D@2@XZ 0000000140000000     object.obj
 0003:fffbe000       $unwind$?_Get_first@?$_Compressed_pair@V?$allocator@D@std@@V?$_String_val@U?$_Simple_types@D@std@@@2@$00@std@@QEAAAEAV?$allocator@D@2@XZ 0000000140000000     object.obj
 0005:fffad000       $pdata$?_Get_data@?$_String_alloc@U?$_String_base_types@DV?$allocator@D@std@@@std@@@std@@QEBAAEBV?$_String_val@U?$_Simple_types@D@std@@@2@XZ 0000000140000000     object.obj
 0003:fffbe000       $unwind$?_Get_data@?$_String_alloc@U?$_String_base_types@DV?$allocator@D@std@@@std@@@std@@QEBAAEBV?$_String_val@U?$_Simple_types@D@std@@@2@XZ 0000000140000000     object.obj
 0005:fffad000       $pdata$?_Get_data@?$_String_alloc@U?$_String_base_types@DV?$allocator@D@std@@@std@@@std@@QEAAAEAV?$_String_val@U?$_Simple_types@D@std@@@2@XZ 0000000140000000     object.obj
 0003:fffbe000       $unwind$?_Get_data@?$_String_alloc@U?$_String_base_types@DV?$allocator@D@std@@@std@@@std@@QEAAAEAV?$_String_val@U?$_Simple_types@D@std@@@2@XZ 0000000140000000     object.obj
 0005:fffad000       $pdata$?_Getal@?$_String_alloc@U?$_String_base_types@DV?$allocator@D@std@@@std@@@std@@QEBAAEBV?$allocator@D@2@XZ 0000000140000000     object.obj
 0003:fffbe000       $unwind$?_Getal@?$_String_alloc@U?$_String_base_types@DV?$allocator@D@std@@@std@@@std@@QEBAAEBV?$allocator@D@2@XZ 0000000140000000     object.obj
 0005:fffad000       $pdata$?_Getal@?$_String_alloc@U?$_String_base_types@DV?$allocator@D@std@@@std@@@std@@QEAAAEAV?$allocator@D@2@XZ 0000000140000000     object.obj
 0003:fffbe000       $unwind$?_Getal@?$_String_alloc@U?$_String_base_types@DV?$allocator@D@std@@@std@@@std@@QEAAAEAV?$allocator@D@2@XZ 0000000140000000     object.obj
 0005:fffad000       $pdata$?_Orphan_all@?$_String_alloc@U?$_String_base_types@DV?$allocator@D@std@@@std@@@std@@QEAAXXZ 0000000140000000     object.obj
 0003:fffbe000       $unwind$?_Orphan_all@?$_String_alloc@U?$_String_base_types@DV?$allocator@D@std@@@std@@@std@@QEAAXXZ 0000000140000000     object.obj
 0005:fffad000       $pdata$?_Myproxy@?$_String_alloc@U?$_String_base_types@DV?$allocator@D@std@@@std@@@std@@QEAAAEAPEAU_Container_proxy@2@XZ 0000000140000000     object.obj
 0003:fffbe000       $unwind$?_Myproxy@?$_String_alloc@U?$_String_base_types@DV?$allocator@D@std@@@std@@@std@@QEAAAEAPEAU_Container_proxy@2@XZ 0000000140000000     object.obj
 0005:fffad000       $pdata$?_Free_proxy@?$_String_alloc@U?$_String_base_types@DV?$allocator@D@std@@@std@@@std@@QEAAXXZ 0000000140000000     object.obj
 0003:fffbe000       $unwind$?_Free_proxy@?$_String_alloc@U?$_String_base_types@DV?$allocator@D@std@@@std@@@std@@QEAAXXZ 0000000140000000     object.obj
 0003:fffbe000       $stateUnwindMap$??0?$basic_string@DU?$char_traits@D@std@@V?$allocator@D@2@@std@@QEAA@QEBD@Z 0000000140000000     config.obj
 0000:fffa2000       .debug$S                   0000000140000000     sfml-graphics-d:sfml-graphics-d-2.dll
 0003:fffbe000       ?_Free_proxy@?$_String_alloc@U?$_String_base_types@DV?$allocator@D@std@@@std@@@std@@QEAAXXZ$rtcName$0 0000000140000000     object.obj
 0005:fffad000       $pdata$?_Alloc_proxy@?$_String_alloc@U?$_String_base_types@DV?$allocator@D@std@@@std@@@std@@QEAAXXZ 0000000140000000     object.obj
 0003:fffbe000       $unwind$?_Alloc_proxy@?$_String_alloc@U?$_String_base_types@DV?$allocator@D@std@@@std@@@std@@QEAAXXZ 0000000140000000     object.obj
 0005:fffad000       $pdata$?__empty_global_delete@@YAXPEAX@Z 0000000140000000     config.obj
 0000:fffa2000       .debug$S                   0000000140000000     sfml-graphics-d:sfml-graphics-d-2.dll
 0003:fffbe000       ?_Alloc_proxy@?$_String_alloc@U?$_String_base_types@DV?$allocator@D@std@@@std@@@std@@QEAAXXZ$rtcName$0 0000000140000000     object.obj
 0003:fffbe000       $ip2state$??1?$_String_alloc@U?$_String_base_types@DV?$allocator@D@std@@@std@@@std@@QEAA@XZ 0000000140000000     object.obj
 0003:fffbe000       $cppxdata$??1?$_String_alloc@U?$_String_base_types@DV?$allocator@D@std@@@std@@@std@@QEAA@XZ 0000000140000000     object.obj
 0005:fffad000       $pdata$??1?$_String_alloc@U?$_String_base_types@DV?$allocator@D@std@@@std@@@std@@QEAA@XZ 0000000140000000     object.obj
 0003:fffbe000       $unwind$??1?$_String_alloc@U?$_String_base_types@DV?$allocator@D@std@@@std@@@std@@QEAA@XZ 0000000140000000     object.obj
 0005:fffad000       $pdata$?dtor$0@?0???0?$_String_alloc@U?$_String_base_types@DV?$allocator@D@std@@@std@@@std@@QEAA@XZ@4HA 0000000140000000     object.obj
 0003:fffbe000       $unwind$?dtor$0@?0???0?$_String_alloc@U?$_String_base_types@DV?$allocator@D@std@@@std@@@std@@QEAA@XZ@4HA 0000000140000000     object.obj
 0003:fffbe000       $ip2state$??0?$_String_alloc@U?$_String_base_types@DV?$allocator@D@std@@@std@@@std@@QEAA@XZ 0000000140000000     object.obj
 0003:fffbe000       $stateUnwindMap$??0?$_String_alloc@U?$_String_base_types@DV?$allocator@D@std@@@std@@@std@@QEAA@XZ 0000000140000000     object.obj
 0003:fffbe000       $cppxdata$??0?$_String_alloc@U?$_String_base_types@DV?$allocator@D@std@@@std@@@std@@QEAA@XZ 0000000140000000     object.obj
 0005:fffad000       $pdata$??0?$_String_alloc@U?$_String_base_types@DV?$allocator@D@std@@@std@@@std@@QEAA@XZ 0000000140000000     object.obj
 0003:fffbe000       $unwind$??0?$_String_alloc@U?$_String_base_types@DV?$allocator@D@std@@@std@@@std@@QEAA@XZ 0000000140000000     object.obj
 0005:fffad000       $pdata$??1?$_String_val@U?$_Simple_types@D@std@@@std@@QEAA@XZ 0000000140000000     object.obj
 0003:fffbe000       $unwind$??1?$_String_val@U?$_Simple_types@D@std@@@std@@QEAA@XZ 0000000140000000     object.obj
 0005:fffad000       $pdata$??1_Bxty@?$_String_val@U?$_Simple_types@D@std@@@std@@QEAA@XZ 0000000140000000     object.obj
 0003:fffbe000       $unwind$??1_Bxty@?$_String_val@U?$_Simple_types@D@std@@@std@@QEAA@XZ 0000000140000000     object.obj
 0005:fffad000       $pdata$??0_Bxty@?$_String_val@U?$_Simple_types@D@std@@@std@@QEAA@XZ 0000000140000000     object.obj
 0003:fffbe000       $unwind$??0_Bxty@?$_String_val@U?$_Simple_types@D@std@@@std@@QEAA@XZ 0000000140000000     object.obj
 0005:fffad000       $pdata$?_Large_string_engaged@?$_String_val@U?$_Simple_types@D@std@@@std@@QEBA_NXZ 0000000140000000     object.obj
 0003:fffbe000       $unwind$?_Large_string_engaged@?$_String_val@U?$_Simple_types@D@std@@@std@@QEBA_NXZ 0000000140000000     object.obj
 0005:fffad000       $pdata$?_Myptr@?$_String_val@U?$_Simple_types@D@std@@@std@@QEAAPEADXZ 0000000140000000     object.obj
 0003:fffbe000       $unwind$?_Myptr@?$_String_val@U?$_Simple_types@D@std@@@std@@QEAAPEADXZ 0000000140000000     object.obj
 0005:fffad000       $pdata$??0?$_String_val@U?$_Simple_types@D@std@@@std@@QEAA@XZ 0000000140000000     object.obj
 0003:fffbe000       $unwind$??0?$_String_val@U?$_Simple_types@D@std@@@std@@QEAA@XZ 0000000140000000     object.obj
 0005:fffad000       $pdata$?max_size@?$_Default_allocator_traits@V?$allocator@D@std@@@std@@SA_KAEBV?$allocator@D@2@@Z 0000000140000000     object.obj
 0003:fffbe000       $unwind$?max_size@?$_Default_allocator_traits@V?$allocator@D@std@@@std@@SA_KAEBV?$allocator@D@2@@Z 0000000140000000     object.obj
 0005:fffad000       $pdata$?allocate@?$allocator@D@std@@QEAAPEAD_K@Z 0000000140000000     object.obj
 0003:fffbe000       $unwind$?allocate@?$allocator@D@std@@QEAAPEAD_K@Z 0000000140000000     object.obj
 0005:fffad000       $pdata$?deallocate@?$allocator@D@std@@QEAAXQEAD_K@Z 0000000140000000     object.obj
 0003:fffbe000       $unwind$?deallocate@?$allocator@D@std@@QEAAXQEAD_K@Z 0000000140000000     object.obj
 0005:fffad000       $pdata$??0?$allocator@D@std@@QEAA@XZ 0000000140000000     object.obj
 0003:fffbe000       $unwind$??0?$allocator@D@std@@QEAA@XZ 0000000140000000     object.obj
 0005:fffad000       $pdata$??$_Convert_size@_K@std@@YA_K_K@Z 0000000140000000     object.obj
 0003:fffbe000       $unwind$??$_Convert_size@_K@std@@YA_K_K@Z 0000000140000000     object.obj
 0005:fffad000       $pdata$?_Adjust_manually_vector_aligned@std@@YAXAEAPEAXAEA_K@Z 0000000140000000     object.obj
 0003:fffbe000       $unwind$?_Adjust_manually_vector_aligned@std@@YAXAEAPEAXAEA_K@Z 0000000140000000     object.obj
 0005:fffad000       $pdata$?_Allocate@_Default_allocate_traits@std@@SAPEAX_K@Z 0000000140000000     object.obj
 0003:fffbe000       $unwind$?_Allocate@_Default_allocate_traits@std@@SAPEAX_K@Z 0000000140000000     object.obj
 0005:fffad000       $pdata$??$_Get_size_of_n@$00@std@@YA_K_K@Z 0000000140000000     object.obj
 0003:fffbe000       $unwind$??$_Get_size_of_n@$00@std@@YA_K_K@Z 0000000140000000     object.obj
 0003:fffbe000       $ip2state$?_Orphan_all@_Container_base12@std@@QEAAXXZ 0000000140000000     object.obj
 0003:fffbe000       $ip2state$??0?$basic_string@DU?$char_traits@D@std@@V?$allocator@D@2@@std@@QEAA@QEBD@Z 0000000140000000     config.obj
 0005:fffad000       $pdata$?_Orphan_all@_Container_base12@std@@QEAAXXZ 0000000140000000     object.obj
 0003:fffbe000       $unwind$?_Orphan_all@_Container_base12@std@@QEAAXXZ 0000000140000000     object.obj
 0005:fffad000       $pdata$??$addressof@PEAD@std@@YAPEAPEADAEAPEAD@Z 0000000140000000     config.obj
 0000:fffa2000       .debug$S                   0000000140000000     sfml-graphics-d:sfml-graphics-d-2.dll
 0003:fffbe000       ?_Orphan_all@_Container_base12@std@@QEAAXXZ$rtcName$0 0000000140000000     object.obj
 0005:fffad000       $pdata$??0_Container_base12@std@@QEAA@XZ 0000000140000000     object.obj
 0003:fffbe000       $unwind$??0_Container_base12@std@@QEAA@XZ 0000000140000000     object.obj
 0005:fffad000       $pdata$??0_Container_proxy@std@@QEAA@XZ 0000000140000000     object.obj
 0003:fffbe000       $unwind$??0_Container_proxy@std@@QEAA@XZ 0000000140000000     object.obj
 0005:fffad000       $pdata$?assign@?$char_traits@D@std@@SAXAEADAEBD@Z 0000000140000000     object.obj
 0003:fffbe000       $unwind$?assign@?$char_traits@D@std@@SAXAEADAEBD@Z 0000000140000000     object.obj
 0005:fffad000       $pdata$?move@?$char_traits@D@std@@SAPEADQEADQEBD_K@Z 0000000140000000     object.obj
 0003:fffbe000       $unwind$?move@?$char_traits@D@std@@SAPEADQEADQEBD_K@Z 0000000140000000     object.obj
 0005:fffad000       $pdata$?copy@?$char_traits@D@std@@SAPEADQEADQEBD_K@Z 0000000140000000     object.obj
 0003:fffbe000       $unwind$?copy@?$char_traits@D@std@@SAPEADQEADQEBD_K@Z 0000000140000000     object.obj
 0005:fffad000       $pdata$?length@?$char_traits@D@std@@SA_KQEBD@Z 0000000140000000     object.obj
 0003:fffbe000       $unwind$?length@?$char_traits@D@std@@SA_KQEBD@Z 0000000140000000     object.obj
 0005:fffad000       $pdata$??2@YAPEAX_KPEAX@Z  0000000140000000     object.obj
 0003:fffbe000       $unwind$??2@YAPEAX_KPEAX@Z 0000000140000000     object.obj
 0005:fffad000       $pdata$?max@?$numeric_limits@_J@std@@SA_JXZ 0000000140000000     object.obj
 0003:fffbe000       $unwind$?max@?$numeric_limits@_J@std@@SA_JXZ 0000000140000000     object.obj
 0005:fffad000       $pdata$wmemcpy             0000000140000000     object.obj
 0003:fffbe000       $unwind$wmemcpy            0000000140000000     object.obj
 0005:fffad000       $pdata$?__empty_global_delete@@YAXPEAX_K@Z 0000000140000000     object.obj
 0003:fffbe000       $unwind$?__empty_global_delete@@YAXPEAX_K@Z 0000000140000000     object.obj
 0005:fffad000       $pdata$?__empty_global_delete@@YAXPEAX@Z 0000000140000000     object.obj
 0003:fffbe000       $unwind$?__empty_global_delete@@YAXPEAX@Z 0000000140000000     object.obj
 0000:fffa2000       .debug$S                   0000000140000000     sfml-graphics-d:sfml-graphics-d-2.dll
 0000:fffa2000       .debug$S                   0000000140000000     sfml-graphics-d:sfml-graphics-d-2.dll
 0003:fffbe000       $unwind$??$_Getvals@_W@?$time_get@DV?$istreambuf_iterator@DU?$char_traits@D@std@@@std@@@std@@IEAAX_WAEBV_Locinfo@1@@Z 0000000140000000     window.obj
 0003:fffbe000       $unwind$??$destroy@PEAD@?$_Default_allocator_traits@V?$allocator@D@std@@@std@@SAXAEAV?$allocator@D@1@QEAPEAD@Z 0000000140000000     config.obj
 0003:fffbe000       $unwind$??$_Maklocstr@_W@std@@YAPEA_WPEBDPEA_WAEBU_Cvtvec@@@Z 0000000140000000     menu-window.obj
 0005:fffad000       $pdata$??$destroy@PEAD@?$_Default_allocator_traits@V?$allocator@D@std@@@std@@SAXAEAV?$allocator@D@1@QEAPEAD@Z 0000000140000000     config.obj
 0005:fffad000       $pdata$??$_Getvals@_W@?$time_get@DV?$istreambuf_iterator@DU?$char_traits@D@std@@@std@@@std@@IEAAX_WAEBV_Locinfo@1@@Z 0000000140000000     window.obj
 0002:fffec000       ?dtor$0@?0???0?$basic_string@DU?$char_traits@D@std@@V?$allocator@D@2@@std@@QEAA@QEBD@Z@4HA 0000000140000000 f   object.obj
 0002:fffec000       ?dtor$0@?0???0?$_String_alloc@U?$_String_base_types@DV?$allocator@D@std@@@std@@@std@@QEAA@XZ@4HA 0000000140000000 f   object.obj
 0003:fffbe000       $unwind$??$_Max_value@_K@std@@YAAEB_KAEB_K0@Z 0000000140000000     config.obj
 0005:fffad000       $pdata$??$_Max_value@_K@std@@YAAEB_KAEB_K0@Z 0000000140000000     config.obj
 0000:fffa2000       .debug$S                   0000000140000000     sfml-graphics-d:sfml-graphics-d-2.dll
 0003:fffbe000       $unwind$??0_Bxty@?$_String_val@U?$_Simple_types@D@std@@@std@@QEAA@XZ 0000000140000000     config.obj
 0003:fffbe000       $unwind$??$_Getvals@_W@?$time_get@DV?$istreambuf_iterator@DU?$char_traits@D@std@@@std@@@std@@IEAAX_WAEBV_Locinfo@1@@Z 0000000140000000     widget-game.obj
 0003:fffbe000       $unwind$??0?$allocator@D@std@@QEAA@XZ 0000000140000000     config.obj
 0005:fffad000       $pdata$?_Maklocwcs@std@@YAPEA_WPEB_W@Z 0000000140000000     widget-game.obj
 0003:fffbe000       $unwind$??$_Maklocstr@D@std@@YAPEADPEBDPEADAEBU_Cvtvec@@@Z 0000000140000000     container-moving.obj
 0003:fffbe000       $unwind$?_Maklocwcs@std@@YAPEA_WPEB_W@Z 0000000140000000     widget-game.obj
 0005:fffad000       $pdata$??$_Maklocstr@D@std@@YAPEADPEBDPEADAEBU_Cvtvec@@@Z 0000000140000000     container-moving.obj
 0005:fffad000       $pdata$??$_Maklocstr@_W@std@@YAPEA_WPEBDPEA_WAEBU_Cvtvec@@@Z 0000000140000000     widget-game.obj
 0005:fffad000       $pdata$??0?$allocator@D@std@@QEAA@XZ 0000000140000000     config.obj
 0003:fffbe000       $unwind$??$_Maklocstr@_W@std@@YAPEA_WPEBDPEA_WAEBU_Cvtvec@@@Z 0000000140000000     widget-game.obj
 0003:fffbe000       $unwind$?deallocate@?$allocator@D@std@@QEAAXQEAD_K@Z 0000000140000000     config.obj
 0003:fffbe000       ??$_Maklocstr@_W@std@@YAPEA_WPEBDPEA_WAEBU_Cvtvec@@@Z$rtcName$0 0000000140000000     widget-game.obj
 0002:fffec000       ?dtor$0@?0???0?$_String_alloc@U?$_String_base_types@DV?$allocator@D@std@@@std@@@std@@QEAA@XZ@4HA 0000000140000000 f   game-object.obj
 0005:fffad000       $pdata$wmemcpy             0000000140000000     widget-game.obj
 0005:fffad000       $pdata$?deallocate@?$allocator@D@std@@QEAAXQEAD_K@Z 0000000140000000     config.obj
 0003:fffbe000       $unwind$wmemcpy            0000000140000000     widget-game.obj
 0003:fffbe000       $unwind$?allocate@?$allocator@D@std@@QEAAPEAD_K@Z 0000000140000000     config.obj
 0005:fffad000       $pdata$?fabs@@YAMM@Z       0000000140000000     widget-game.obj
 0005:fffad000       $pdata$?allocate@?$allocator@D@std@@QEAAPEAD_K@Z 0000000140000000     config.obj
 0003:fffbe000       $unwind$?fabs@@YAMM@Z      0000000140000000     widget-game.obj
 0003:fffbe000       $unwind$?max_size@?$_Default_allocator_traits@V?$allocator@D@std@@@std@@SA_KAEBV?$allocator@D@2@@Z 0000000140000000     config.obj
 0005:fffad000       $pdata$fabsf               0000000140000000     widget-game.obj
 0003:fffbe000       $unwind$?__empty_global_delete@@YAXPEAX@Z 0000000140000000     game-object.obj
 0003:fffbe000       $unwind$fabsf              0000000140000000     widget-game.obj
 0005:fffad000       $pdata$?__empty_global_delete@@YAXPEAX@Z 0000000140000000     game-object.obj
 0005:fffad000       $pdata$?__empty_global_delete@@YAXPEAX_K@Z 0000000140000000     widget-game.obj
 0003:fffbe000       $unwind$?__empty_global_delete@@YAXPEAX_K@Z 0000000140000000     game-object.obj
 0003:fffbe000       $unwind$?__empty_global_delete@@YAXPEAX_K@Z 0000000140000000     widget-game.obj
 0005:fffad000       $pdata$?__empty_global_delete@@YAXPEAX_K@Z 0000000140000000     game-object.obj
 0005:fffad000       $pdata$?__empty_global_delete@@YAXPEAX@Z 0000000140000000     widget-game.obj
 0003:fffbe000       $unwind$??2@YAPEAX_KPEAX@Z 0000000140000000     game-object.obj
 0003:fffbe000       $unwind$?__empty_global_delete@@YAXPEAX@Z 0000000140000000     widget-game.obj
 0005:fffad000       $pdata$??2@YAPEAX_KPEAX@Z  0000000140000000     game-object.obj
 0003:fffbe000       ??$_Maklocstr@_W@std@@YAPEA_WPEBDPEA_WAEBU_Cvtvec@@@Z$rtcName$0 0000000140000000     config.obj
 0003:fffbe000       $unwind$__local_stdio_printf_options 0000000140000000     game-object.obj
 0003:fffbe000       $unwind$??$_Deallocate@$0BA@$0A@@std@@YAXPEAX_K@Z 0000000140000000     config.obj
 0005:fffad000       $pdata$__local_stdio_printf_options 0000000140000000     game-object.obj
 0005:fffad000       $pdata$?_Large_string_engaged@?$_String_val@U?$_Simple_types@D@std@@@std@@QEBA_NXZ 0000000140000000     config.obj
 0003:fffbe000       $unwind$_vfprintf_l        0000000140000000     game-object.obj
 0005:fffad000       $pdata$?_Xlen@?$basic_string@DU?$char_traits@D@std@@V?$allocator@D@2@@std@@SAXXZ 0000000140000000     config.obj
 0003:fffbe000       $unwind$?_Large_string_engaged@?$_String_val@U?$_Simple_types@D@std@@@std@@QEBA_NXZ 0000000140000000     config.obj
 0005:fffad000       $pdata$_vfprintf_l         0000000140000000     game-object.obj
 0003:fffbe000       printf$rtcName$0           0000000140000000     game-object.obj
 0005:fffad000       $pdata$??$_Maklocstr@D@std@@YAPEADPEBDPEADAEBU_Cvtvec@@@Z 0000000140000000     wall.obj
 0005:fffad000       $pdata$?max_size@?$_Default_allocator_traits@V?$allocator@D@std@@@std@@SA_KAEBV?$allocator@D@2@@Z 0000000140000000     config.obj
 0003:fffbe000       $unwind$??$_Maklocstr@D@std@@YAPEADPEBDPEADAEBU_Cvtvec@@@Z 0000000140000000     wall.obj
 0003:fffbe000       $unwind$printf             0000000140000000     game-object.obj
 0005:fffad000       $pdata$printf              0000000140000000     game-object.obj
 0003:fffbe000       $unwind$wmemcpy            0000000140000000     game-object.obj
 0005:fffad000       $pdata$??$_Allocate@$0BA@U_Default_allocate_traits@std@@$0A@@std@@YAPEAX_K@Z 0000000140000000     config.obj
 0005:fffad000       $pdata$wmemcpy             0000000140000000     game-object.obj
 0003:fffbe000       $unwind$?_Xlen@?$basic_string@DU?$char_traits@D@std@@V?$allocator@D@2@@std@@SAXXZ 0000000140000000     config.obj
 0003:fffbe000       $unwind$?assign@?$char_traits@D@std@@SAXAEADAEBD@Z 0000000140000000     game-object.obj
 0003:fffbe000       $unwind$??$_Allocate@$0BA@U_Default_allocate_traits@std@@$0A@@std@@YAPEAX_K@Z 0000000140000000     config.obj
 0005:fffad000       $pdata$?assign@?$char_traits@D@std@@SAXAEADAEBD@Z 0000000140000000     game-object.obj
 0000:fffa2000       .debug$S                   0000000140000000     msvcprtd:MSVCP140D.dll
 0003:fffbe000       $unwind$??0_Container_proxy@std@@QEAA@XZ 0000000140000000     game-object.obj
 0000:fffa2000       .debug$S                   0000000140000000     msvcprtd:MSVCP140D.dll
 0005:fffad000       $pdata$??0_Container_proxy@std@@QEAA@XZ 0000000140000000     game-object.obj
 0005:fffad000       $pdata$?_Tidy_deallocate@?$basic_string@DU?$char_traits@D@std@@V?$allocator@D@2@@std@@QEAAXXZ 0000000140000000     config.obj
 0003:fffbe000       $unwind$??0_Container_base12@std@@QEAA@XZ 0000000140000000     game-object.obj
 0000:fffa2000       .debug$S                   0000000140000000     kernel32:KERNEL32.dll
 0005:fffad000       $pdata$??0_Container_base12@std@@QEAA@XZ 0000000140000000     game-object.obj
 0000:fffa2000       .debug$S                   0000000140000000     vcruntimed:VCRUNTIME140D.dll
 0003:fffbe000       ?_Orphan_all@_Container_base12@std@@QEAAXXZ$rtcName$0 0000000140000000     game-object.obj
 0000:fffa2000       .debug$S                   0000000140000000     msvcprtd:MSVCP140D.dll
 0003:fffbe000       $unwind$??0?$_String_val@U?$_Simple_types@D@std@@@std@@QEAA@XZ 0000000140000000     config.obj
 0000:fffa2000       .debug$S                   0000000140000000     msvcprtd:MSVCP140D.dll
 0005:fffad000       $pdata$??$_Getvals@_W@?$time_get@_WV?$istreambuf_iterator@_WU?$char_traits@_W@std@@@std@@@std@@IEAAX_WAEBV_Locinfo@1@@Z 0000000140000000     container.obj
 0005:fffad000       $pdata$??$_Getvals@_W@?$time_get@_WV?$istreambuf_iterator@_WU?$char_traits@_W@std@@@std@@@std@@IEAAX_WAEBV_Locinfo@1@@Z 0000000140000000     wall.obj
 0003:fffbe000       $unwind$?_Orphan_all@_Container_base12@std@@QEAAXXZ 0000000140000000     game-object.obj
 0003:fffbe000       $unwind$??$_Getvals@_W@?$time_get@_WV?$istreambuf_iterator@_WU?$char_traits@_W@std@@@std@@@std@@IEAAX_WAEBV_Locinfo@1@@Z 0000000140000000     wall.obj
 0005:fffad000       $pdata$?_Orphan_all@_Container_base12@std@@QEAAXXZ 0000000140000000     game-object.obj
 0005:fffad000       $pdata$??$_Getvals@_W@?$time_get@DV?$istreambuf_iterator@DU?$char_traits@D@std@@@std@@@std@@IEAAX_WAEBV_Locinfo@1@@Z 0000000140000000     wall.obj
 0005:fffad000       $pdata$?_Myptr@?$_String_val@U?$_Simple_types@D@std@@@std@@QEAAPEADXZ 0000000140000000     config.obj
 0003:fffbe000       $unwind$??$_Getvals@_W@?$time_get@_WV?$istreambuf_iterator@_WU?$char_traits@_W@std@@@std@@@std@@IEAAX_WAEBV_Locinfo@1@@Z 0000000140000000     container.obj
 0003:fffbe000       $ip2state$?_Orphan_all@_Container_base12@std@@QEAAXXZ 0000000140000000     game-object.obj
 0003:fffbe000       $unwind$?_Allocate@_Default_allocate_traits@std@@SAPEAX_K@Z 0000000140000000     game-object.obj
 0000:fffa2000       .debug$S                   0000000140000000     vcruntimed:VCRUNTIME140D.dll
 0003:fffbe000       $unwind$??$_Getvals@_W@?$time_get@DV?$istreambuf_iterator@DU?$char_traits@D@std@@@std@@@std@@IEAAX_WAEBV_Locinfo@1@@Z 0000000140000000     wall.obj
 0003:fffbe000       $unwind$??0?$basic_string@DU?$char_traits@D@std@@V?$allocator@D@2@@std@@QEAA@QEBD@Z 0000000140000000     config.obj
 0003:fffbe000       $unwind$?_Myptr@?$_String_val@U?$_Simple_types@D@std@@@std@@QEAAPEADXZ 0000000140000000     config.obj
 0003:fffbe000       $unwind$??0_Container_proxy@std@@QEAA@XZ 0000000140000000     config.obj
 0005:fffad000       $pdata$?_Allocate@_Default_allocate_traits@std@@SAPEAX_K@Z 0000000140000000     game-object.obj
 0005:fffad000       $pdata$??0_Container_proxy@std@@QEAA@XZ 0000000140000000     config.obj
 0005:fffad000       $pdata$??0?$_String_val@U?$_Simple_types@D@std@@@std@@QEAA@XZ 0000000140000000     config.obj
 0003:fffbe000       $unwind$??0_Container_base12@std@@QEAA@XZ 0000000140000000     config.obj
 0003:fffbe000       $unwind$?_Adjust_manually_vector_aligned@std@@YAXAEAPEAXAEA_K@Z 0000000140000000     game-object.obj
 0000:fffa5000       __guard_fids__guard_icall_checks_enforced 0000000140000000     MSVCRTD:guard_support.obj
 0005:fffad000       $pdata$?_Maklocwcs@std@@YAPEA_WPEB_W@Z 0000000140000000     wall.obj
 0005:fffad000       $pdata$??0_Container_base12@std@@QEAA@XZ 0000000140000000     config.obj
 0003:fffbe000       $unwind$?__empty_global_delete@@YAXPEAX@Z 0000000140000000     container.obj
 0003:fffbe000       ??$_Maklocstr@_W@std@@YAPEA_WPEBDPEA_WAEBU_Cvtvec@@@Z$rtcName$0 0000000140000000     window.obj
 0003:fffbe000       $unwind$?_Maklocwcs@std@@YAPEA_WPEB_W@Z 0000000140000000     wall.obj
 0005:fffad000       $pdata$??1?$_Compressed_pair@V?$allocator@D@std@@V?$_String_val@U?$_Simple_types@D@std@@@2@$00@std@@QEAA@XZ 0000000140000000     config.obj
 0005:fffad000       $pdata$?__empty_global_delete@@YAXPEAX@Z 0000000140000000     container.obj
 0005:fffad000       $pdata$wmemcpy             0000000140000000     window.obj
 0005:fffad000       $pdata$??$_Maklocstr@_W@std@@YAPEA_WPEBDPEA_WAEBU_Cvtvec@@@Z 0000000140000000     wall.obj
 0003:fffbe000       ?_Orphan_all@_Container_base12@std@@QEAAXXZ$rtcName$0 0000000140000000     config.obj
 0003:fffbe000       $unwind$?__empty_global_delete@@YAXPEAX_K@Z 0000000140000000     container.obj
 0003:fffbe000       $unwind$wmemcpy            0000000140000000     window.obj
 0003:fffbe000       $unwind$??1?$_Compressed_pair@V?$allocator@D@std@@V?$_String_val@U?$_Simple_types@D@std@@@2@$00@std@@QEAA@XZ 0000000140000000     config.obj
 0005:fffad000       $pdata$?__empty_global_delete@@YAXPEAX_K@Z 0000000140000000     window.obj
 0002:fffec000       ?dtor$0@?0???0?$basic_string@DU?$char_traits@D@std@@V?$allocator@D@2@@std@@QEAA@QEBD@Z@4HA 0000000140000000 f   config.obj
 0005:fffad000       $pdata$?_Get_second@?$_Compressed_pair@V?$allocator@D@std@@V?$_String_val@U?$_Simple_types@D@std@@@2@$00@std@@QEBAAEBV?$_String_val@U?$_Simple_types@D@std@@@2@XZ 0000000140000000     config.obj
 0003:fffbe000       $unwind$??$_Maklocstr@_W@std@@YAPEA_WPEBDPEA_WAEBU_Cvtvec@@@Z 0000000140000000     wall.obj
 0002:fffec000       ?dtor$0@?0???0?$_String_alloc@U?$_String_base_types@DV?$allocator@D@std@@@std@@@std@@QEAA@XZ@4HA 0000000140000000 f   config.obj
 0005:fffad000       $pdata$?_Adjust_manually_vector_aligned@std@@YAXAEAPEAXAEA_K@Z 0000000140000000     game-object.obj
 0003:fffbe000       $unwind$?__empty_global_delete@@YAXPEAX_K@Z 0000000140000000     window.obj
 0003:fffbe000       $unwind$?_Get_second@?$_Compressed_pair@V?$allocator@D@std@@V?$_String_val@U?$_Simple_types@D@std@@@2@$00@std@@QEBAAEBV?$_String_val@U?$_Simple_types@D@std@@@2@XZ 0000000140000000     config.obj
 0003:fffbe000       $unwind$?_Orphan_all@_Container_base12@std@@QEAAXXZ 0000000140000000     config.obj
 0005:fffad000       $pdata$?_Get_second@?$_Compressed_pair@V?$allocator@D@std@@V?$_String_val@U?$_Simple_types@D@std@@@2@$00@std@@QEAAAEAV?$_String_val@U?$_Simple_types@D@std@@@2@XZ 0000000140000000     config.obj
 0005:fffad000       $pdata$?_Orphan_all@_Container_base12@std@@QEAAXXZ 0000000140000000     config.obj
 0005:fffad000       $pdata$??$forward@AEAPEAU?$_Tree_node@U?$pair@$$CBW4Object_Type@@PEBVGameObject@@@std@@PEAX@std@@@std@@YAAEAPEAU?$_Tree_node@U?$pair@$$CBW4Object_Type@@PEBVGameObject@@@std@@PEAX@0@AEAPEAU10@@Z 0000000140000000     engine.obj
 0003:fffbe000       $unwind$??$forward@AEAPEAU?$_Tree_node@U?$pair@$$CBW4Object_Type@@PEBVGameObject@@@std@@PEAX@std@@@std@@YAAEAPEAU?$_Tree_node@U?$pair@$$CBW4Object_Type@@PEBVGameObject@@@std@@PEAX@0@AEAPEAU10@@Z 0000000140000000     engine.obj
 0003:fffbe000       $unwind$?_Tidy_deallocate@?$basic_string@DU?$char_traits@D@std@@V?$allocator@D@2@@std@@QEAAXXZ 0000000140000000     config.obj
 0005:fffad000       $pdata$?__empty_global_delete@@YAXPEAX@Z 0000000140000000     window.obj
 0003:fffbe000       $unwind$??0?$allocator@D@std@@QEAA@XZ 0000000140000000     game-object.obj
 0003:fffbe000       $unwind$?_Get_second@?$_Compressed_pair@V?$allocator@D@std@@V?$_String_val@U?$_Simple_types@D@std@@@2@$00@std@@QEAAAEAV?$_String_val@U?$_Simple_types@D@std@@@2@XZ 0000000140000000     config.obj
 0005:fffad000       $pdata$?_Tidy_init@?$basic_string@DU?$char_traits@D@std@@V?$allocator@D@2@@std@@QEAAXXZ 0000000140000000     config.obj
 0003:fffbe000       $ip2state$?_Orphan_all@_Container_base12@std@@QEAAXXZ 0000000140000000     config.obj
 0005:fffad000       $pdata$??0?$allocator@D@std@@QEAA@XZ 0000000140000000     game-object.obj
 0005:fffad000       $pdata$?_Get_first@?$_Compressed_pair@V?$allocator@D@std@@V?$_String_val@U?$_Simple_types@D@std@@@2@$00@std@@QEBAAEBV?$allocator@D@2@XZ 0000000140000000     config.obj
 0005:fffad000       $pdata$??$destroy@PEAU?$_Tree_node@U?$pair@$$CBW4Object_Type@@PEBVGameObject@@@std@@PEAX@std@@@?$_Default_allocator_traits@V?$allocator@U?$_Tree_node@U?$pair@$$CBW4Object_Type@@PEBVGameObject@@@std@@PEAX@std@@@std@@@std@@SAXAEAV?$allocator@U?$_Tree_node@U?$pair@$$CBW4Object_Type@@PEBVGameObject@@@std@@PEAX@std@@@1@QEAPEAU?$_Tree_node@U?$pair@$$CBW4Object_Type@@PEBVGameObject@@@std@@PEAX@1@@Z 0000000140000000     engine.obj
 0003:fffbe000       $unwind$??$destroy@PEAU?$_Tree_node@U?$pair@$$CBW4Object_Type@@PEBVGameObject@@@std@@PEAX@std@@@?$_Default_allocator_traits@V?$allocator@U?$_Tree_node@U?$pair@$$CBW4Object_Type@@PEBVGameObject@@@std@@PEAX@std@@@std@@@std@@SAXAEAV?$allocator@U?$_Tree_node@U?$pair@$$CBW4Object_Type@@PEBVGameObject@@@std@@PEAX@std@@@1@QEAPEAU?$_Tree_node@U?$pair@$$CBW4Object_Type@@PEBVGameObject@@@std@@PEAX@1@@Z 0000000140000000     engine.obj
 0005:fffad000       $pdata$??$forward@U_Container_proxy@std@@@std@@YA$$QEAU_Container_proxy@0@AEAU10@@Z 0000000140000000     engine.obj
 0003:fffbe000       $unwind$??$forward@U_Container_proxy@std@@@std@@YA$$QEAU_Container_proxy@0@AEAU10@@Z 0000000140000000     engine.obj
 0005:fffad000       $pdata$??$_Allocate_manually_vector_aligned@U_Default_allocate_traits@std@@@std@@YAPEAX_K@Z 0000000140000000     engine.obj
 0003:fffbe000       $unwind$??$_Allocate_manually_vector_aligned@U_Default_allocate_traits@std@@@std@@YAPEAX_K@Z 0000000140000000     engine.obj
 0003:fffbe000       ??$_Maklocstr@_W@std@@YAPEA_WPEBDPEA_WAEBU_Cvtvec@@@Z$rtcName$0 0000000140000000     wall.obj
 0005:fffad000       $pdata$??$_Maklocstr@D@std@@YAPEADPEBDPEADAEBU_Cvtvec@@@Z 0000000140000000     container.obj
 0003:fffbe000       $unwind$?deallocate@?$allocator@D@std@@QEAAXQEAD_K@Z 0000000140000000     game-object.obj
 0003:fffbe000       $unwind$?__empty_global_delete@@YAXPEAX@Z 0000000140000000     window.obj
 0005:fffad000       $pdata$??$_Maklocstr@D@std@@YAPEADPEBDPEADAEBU_Cvtvec@@@Z 0000000140000000     engine.obj
 0003:fffbe000       $unwind$??$_Maklocstr@D@std@@YAPEADPEBDPEADAEBU_Cvtvec@@@Z 0000000140000000     engine.obj
 0005:fffad000       $pdata$??$_Get_size_of_n@$0DA@@std@@YA_K_K@Z 0000000140000000     engine.obj
 0003:fffbe000       $unwind$??$_Get_size_of_n@$0DA@@std@@YA_K_K@Z 0000000140000000     engine.obj
 0005:fffad000       $pdata$??$construct@PEAU?$_Tree_node@U?$pair@$$CBW4Object_Type@@PEBVGameObject@@@std@@PEAX@std@@AEAPEAU12@@?$_Default_allocator_traits@V?$allocator@U?$_Tree_node@U?$pair@$$CBW4Object_Type@@PEBVGameObject@@@std@@PEAX@std@@@std@@@std@@SAXAEAV?$allocator@U?$_Tree_node@U?$pair@$$CBW4Object_Type@@PEBVGameObject@@@std@@PEAX@std@@@1@QEAPEAU?$_Tree_node@U?$pair@$$CBW4Object_Type@@PEBVGameObject@@@std@@PEAX@1@AEAPEAU31@@Z 0000000140000000     engine.obj
 0003:fffbe000       $unwind$??$construct@PEAU?$_Tree_node@U?$pair@$$CBW4Object_Type@@PEBVGameObject@@@std@@PEAX@std@@AEAPEAU12@@?$_Default_allocator_traits@V?$allocator@U?$_Tree_node@U?$pair@$$CBW4Object_Type@@PEBVGameObject@@@std@@PEAX@std@@@std@@@std@@SAXAEAV?$allocator@U?$_Tree_node@U?$pair@$$CBW4Object_Type@@PEBVGameObject@@@std@@PEAX@std@@@1@QEAPEAU?$_Tree_node@U?$pair@$$CBW4Object_Type@@PEBVGameObject@@@std@@PEAX@1@AEAPEAU31@@Z 0000000140000000     engine.obj
 0005:fffad000       $pdata$??$addressof@PEAU?$_Tree_node@U?$pair@$$CBW4Object_Type@@PEBVGameObject@@@std@@PEAX@std@@@std@@YAPEAPEAU?$_Tree_node@U?$pair@$$CBW4Object_Type@@PEBVGameObject@@@std@@PEAX@0@AEAPEAU10@@Z 0000000140000000     engine.obj
 0003:fffbe000       $unwind$??$addressof@PEAU?$_Tree_node@U?$pair@$$CBW4Object_Type@@PEBVGameObject@@@std@@PEAX@std@@@std@@YAPEAPEAU?$_Tree_node@U?$pair@$$CBW4Object_Type@@PEBVGameObject@@@std@@PEAX@0@AEAPEAU10@@Z 0000000140000000     engine.obj
 0005:fffad000       $pdata$?deallocate@?$allocator@D@std@@QEAAXQEAD_K@Z 0000000140000000     game-object.obj
 0003:fffbe000       $unwind$?_Get_first@?$_Compressed_pair@V?$allocator@D@std@@V?$_String_val@U?$_Simple_types@D@std@@@2@$00@std@@QEBAAEBV?$allocator@D@2@XZ 0000000140000000     config.obj
 0000:fffa2000       .debug$S                   0000000140000000     msvcprtd:MSVCP140D.dll
 0003:fffbe000       $unwind$??$_Maklocstr@D@std@@YAPEADPEBDPEADAEBU_Cvtvec@@@Z 0000000140000000     container.obj
 0005:fffad000       $pdata$?_Get_first@?$_Compressed_pair@V?$allocator@D@std@@V?$_String_val@U?$_Simple_types@D@std@@@2@$00@std@@QEAAAEAV?$allocator@D@2@XZ 0000000140000000     config.obj
 0005:fffad000       $pdata$??$_Get_size_of_n@$0BA@@std@@YA_K_K@Z 0000000140000000     engine.obj
 0003:fffbe000       $unwind$??$_Get_size_of_n@$0BA@@std@@YA_K_K@Z 0000000140000000     engine.obj
 0005:fffad000       $pdata$??$destroy@U?$pair@$$CBW4Object_Type@@PEBVGameObject@@@std@@@?$_Default_allocator_traits@V?$allocator@U?$_Tree_node@U?$pair@$$CBW4Object_Type@@PEBVGameObject@@@std@@PEAX@std@@@std@@@std@@SAXAEAV?$allocator@U?$_Tree_node@U?$pair@$$CBW4Object_Type@@PEBVGameObject@@@std@@PEAX@std@@@1@QEAU?$pair@$$CBW4Object_Type@@PEBVGameObject@@@1@@Z 0000000140000000     engine.obj
 0003:fffbe000       $unwind$??$destroy@U?$pair@$$CBW4Object_Type@@PEBVGameObject@@@std@@@?$_Default_allocator_traits@V?$allocator@U?$_Tree_node@U?$pair@$$CBW4Object_Type@@PEBVGameObject@@@std@@PEAX@std@@@std@@@std@@SAXAEAV?$allocator@U?$_Tree_node@U?$pair@$$CBW4Object_Type@@PEBVGameObject@@@std@@PEAX@std@@@1@QEAU?$pair@$$CBW4Object_Type@@PEBVGameObject@@@1@@Z 0000000140000000     engine.obj
 0005:fffad000       $pdata$??$addressof@U?$pair@$$CBW4Object_Type@@PEBVGameObject@@@std@@@std@@YAPEAU?$pair@$$CBW4Object_Type@@PEBVGameObject@@@0@AEAU10@@Z 0000000140000000     engine.obj
 0003:fffbe000       $unwind$??$addressof@U?$pair@$$CBW4Object_Type@@PEBVGameObject@@@std@@@std@@YAPEAU?$pair@$$CBW4Object_Type@@PEBVGameObject@@@0@AEAU10@@Z 0000000140000000     engine.obj
 0005:fffad000       $pdata$??$addressof@V?$_Tree_val@U?$_Tree_simple_types@U?$pair@$$CBW4Object_Type@@PEBVGameObject@@@std@@@std@@@std@@@std@@YAPEAV?$_Tree_val@U?$_Tree_simple_types@U?$pair@$$CBW4Object_Type@@PEBVGameObject@@@std@@@std@@@0@AEAV10@@Z 0000000140000000     engine.obj
 0003:fffbe000       $unwind$??$addressof@V?$_Tree_val@U?$_Tree_simple_types@U?$pair@$$CBW4Object_Type@@PEBVGameObject@@@std@@@std@@@std@@@std@@YAPEAV?$_Tree_val@U?$_Tree_simple_types@U?$pair@$$CBW4Object_Type@@PEBVGameObject@@@std@@@std@@@0@AEAV10@@Z 0000000140000000     engine.obj
 0005:fffad000       $pdata$??0?$Vector2@M@sf@@QEAA@MM@Z 0000000140000000     game-object.obj
 0003:fffbe000       $unwind$?__empty_global_delete@@YAXPEAX@Z 0000000140000000     main.obj
 0003:fffbe000       $unwind$??0?$Vector2@M@sf@@QEAA@MM@Z 0000000140000000     game-object.obj
 0003:fffbe000       $unwind$?_Get_first@?$_Compressed_pair@V?$allocator@D@std@@V?$_String_val@U?$_Simple_types@D@std@@@2@$00@std@@QEAAAEAV?$allocator@D@2@XZ 0000000140000000     config.obj
 0003:fffbe000       $ip2state$??$_Freenode0@V?$allocator@U?$_Tree_node@U?$pair@$$CBW4Object_Type@@PEBVGameObject@@@std@@PEAX@std@@@std@@@?$_Tree_node@U?$pair@$$CBW4Object_Type@@PEBVGameObject@@@std@@PEAX@std@@SAXAEAV?$allocator@U?$_Tree_node@U?$pair@$$CBW4Object_Type@@PEBVGameObject@@@std@@PEAX@std@@@1@PEAU01@@Z 0000000140000000     engine.obj
 0000:fffa5000       __guard_fids__             0000000140000000     MSVCRTD:guard_support.obj
 0005:fffad000       $pdata$??$_Freenode0@V?$allocator@U?$_Tree_node@U?$pair@$$CBW4Object_Type@@PEBVGameObject@@@std@@PEAX@std@@@std@@@?$_Tree_node@U?$pair@$$CBW4Object_Type@@PEBVGameObject@@@std@@PEAX@std@@SAXAEAV?$allocator@U?$_Tree_node@U?$pair@$$CBW4Object_Type@@PEBVGameObject@@@std@@PEAX@std@@@1@PEAU01@@Z 0000000140000000     engine.obj
 0003:fffbe000       $unwind$??$_Freenode0@V?$allocator@U?$_Tree_node@U?$pair@$$CBW4Object_Type@@PEBVGameObject@@@std@@PEAX@std@@@std@@@?$_Tree_node@U?$pair@$$CBW4Object_Type@@PEBVGameObject@@@std@@PEAX@std@@SAXAEAV?$allocator@U?$_Tree_node@U?$pair@$$CBW4Object_Type@@PEBVGameObject@@@std@@PEAX@std@@@1@PEAU01@@Z 0000000140000000     engine.obj
 0005:fffad000       $pdata$?_Get_data@?$_String_alloc@U?$_String_base_types@DV?$allocator@D@std@@@std@@@std@@QEBAAEBV?$_String_val@U?$_Simple_types@D@std@@@2@XZ 0000000140000000     config.obj
 0005:fffad000       $pdata$??$_Maklocstr@D@std@@YAPEADPEBDPEADAEBU_Cvtvec@@@Z 0000000140000000     widget-templates.obj
 0003:fffbe000       ??$_Freenode0@V?$allocator@U?$_Tree_node@U?$pair@$$CBW4Object_Type@@PEBVGameObject@@@std@@PEAX@std@@@std@@@?$_Tree_node@U?$pair@$$CBW4Object_Type@@PEBVGameObject@@@std@@PEAX@std@@SAXAEAV?$allocator@U?$_Tree_node@U?$pair@$$CBW4Object_Type@@PEBVGameObject@@@std@@PEAX@std@@@1@PEAU01@@Z$rtcName$0 0000000140000000     engine.obj
 0005:fffad000       $pdata$??0?$Vector2@M@sf@@QEAA@XZ 0000000140000000     game-object.obj
 0003:fffbe000       $unwind$?_Get_data@?$_String_alloc@U?$_String_base_types@DV?$allocator@D@std@@@std@@@std@@QEBAAEBV?$_String_val@U?$_Simple_types@D@std@@@2@XZ 0000000140000000     config.obj
 0003:fffbe000       $unwind$??0?$Vector2@M@sf@@QEAA@XZ 0000000140000000     game-object.obj
 0003:fffbe000       $unwind$??$_Maklocstr@D@std@@YAPEADPEBDPEADAEBU_Cvtvec@@@Z 0000000140000000     widget-templates.obj
 0005:fffad000       $pdata$wmemcpy             0000000140000000     wall.obj
 0005:fffad000       $pdata$?_Get_data@?$_String_alloc@U?$_String_base_types@DV?$allocator@D@std@@@std@@@std@@QEAAAEAV?$_String_val@U?$_Simple_types@D@std@@@2@XZ 0000000140000000     config.obj
 0005:fffad000       $pdata$??$construct@U_Container_proxy@std@@U12@@?$_Default_allocator_traits@V?$allocator@U_Container_proxy@std@@@std@@@std@@SAXAEAV?$allocator@U_Container_proxy@std@@@1@QEAU_Container_proxy@1@$$QEAU31@@Z 0000000140000000     engine.obj
 0003:fffbe000       $unwind$??$construct@U_Container_proxy@std@@U12@@?$_Default_allocator_traits@V?$allocator@U_Container_proxy@std@@@std@@@std@@SAXAEAV?$allocator@U_Container_proxy@std@@@1@QEAU_Container_proxy@1@$$QEAU31@@Z 0000000140000000     engine.obj
 0005:fffad000       $pdata$??$_Unfancy@U_Container_proxy@std@@@std@@YAPEAU_Container_proxy@0@PEAU10@@Z 0000000140000000     engine.obj
 0003:fffbe000       $unwind$??$_Unfancy@U_Container_proxy@std@@@std@@YAPEAU_Container_proxy@0@PEAU10@@Z 0000000140000000     engine.obj
 0005:fffad000       $pdata$??$_Deallocate_plain@V?$allocator@U_Container_proxy@std@@@std@@$0A@@std@@YAXAEAV?$allocator@U_Container_proxy@std@@@0@QEAU_Container_proxy@0@@Z 0000000140000000     engine.obj
 0003:fffbe000       $unwind$??$_Deallocate_plain@V?$allocator@U_Container_proxy@std@@@std@@$0A@@std@@YAXAEAV?$allocator@U_Container_proxy@std@@@0@QEAU_Container_proxy@0@@Z 0000000140000000     engine.obj
 0005:fffad000       $pdata$??$destroy@U_Container_proxy@std@@@?$_Default_allocator_traits@V?$allocator@U_Container_proxy@std@@@std@@@std@@SAXAEAV?$allocator@U_Container_proxy@std@@@1@QEAU_Container_proxy@1@@Z 0000000140000000     engine.obj
 0003:fffbe000       $unwind$??$destroy@U_Container_proxy@std@@@?$_Default_allocator_traits@V?$allocator@U_Container_proxy@std@@@std@@@std@@SAXAEAV?$allocator@U_Container_proxy@std@@@1@QEAU_Container_proxy@1@@Z 0000000140000000     engine.obj
 0005:fffad000       $pdata$?deallocate@?$_Default_allocator_traits@V?$allocator@U_Container_proxy@std@@@std@@@std@@SAXAEAV?$allocator@U_Container_proxy@std@@@2@QEAU_Container_proxy@2@_K@Z 0000000140000000     engine.obj
 0003:fffbe000       $unwind$?deallocate@?$_Default_allocator_traits@V?$allocator@U_Container_proxy@std@@@std@@@std@@SAXAEAV?$allocator@U_Container_proxy@std@@@2@QEAU_Container_proxy@2@_K@Z 0000000140000000     engine.obj
 0005:fffad000       $pdata$??$_Getvals@_W@?$time_get@_WV?$istreambuf_iterator@_WU?$char_traits@_W@std@@@std@@@std@@IEAAX_WAEBV_Locinfo@1@@Z 0000000140000000     game-object.obj
 0003:fffbe000       $unwind$??1?$basic_string@DU?$char_traits@D@std@@V?$allocator@D@2@@std@@QEAA@XZ 0000000140000000     config.obj
 0005:fffad000       $pdata$?allocate@?$allocator@U_Container_proxy@std@@@std@@QEAAPEAU_Container_proxy@2@_K@Z 0000000140000000     engine.obj
 0003:fffbe000       $unwind$?allocate@?$allocator@U_Container_proxy@std@@@std@@QEAAPEAU_Container_proxy@2@_K@Z 0000000140000000     engine.obj
 0005:fffad000       $pdata$??$_Deallocate@$0BA@$0A@@std@@YAXPEAX_K@Z 0000000140000000     engine.obj
 0003:fffbe000       $unwind$??$_Deallocate@$0BA@$0A@@std@@YAXPEAX_K@Z 0000000140000000     engine.obj
 0005:fffad000       $pdata$??$_Allocate@$0BA@U_Default_allocate_traits@std@@$0A@@std@@YAPEAX_K@Z 0000000140000000     engine.obj
 0003:fffbe000       $unwind$??$_Allocate@$0BA@U_Default_allocate_traits@std@@$0A@@std@@YAPEAX_K@Z 0000000140000000     engine.obj
 0005:fffad000       $pdata$??1?$_Tree_iterator@V?$_Tree_val@U?$_Tree_simple_types@U?$pair@$$CBW4Object_Type@@PEBVGameObject@@@std@@@std@@@std@@@std@@QEAA@XZ 0000000140000000     engine.obj
 0003:fffbe000       $unwind$??1?$_Tree_iterator@V?$_Tree_val@U?$_Tree_simple_types@U?$pair@$$CBW4Object_Type@@PEBVGameObject@@@std@@@std@@@std@@@std@@QEAA@XZ 0000000140000000     engine.obj
 0005:fffad000       $pdata$??0?$_Tree_iterator@V?$_Tree_val@U?$_Tree_simple_types@U?$pair@$$CBW4Object_Type@@PEBVGameObject@@@std@@@std@@@std@@@std@@QEAA@PEAU?$_Tree_node@U?$pair@$$CBW4Object_Type@@PEBVGameObject@@@std@@PEAX@1@PEBV?$_Tree_val@U?$_Tree_simple_types@U?$pair@$$CBW4Object_Type@@PEBVGameObject@@@std@@@std@@@1@@Z 0000000140000000     engine.obj
 0003:fffbe000       $unwind$??0?$_Tree_iterator@V?$_Tree_val@U?$_Tree_simple_types@U?$pair@$$CBW4Object_Type@@PEBVGameObject@@@std@@@std@@@std@@@std@@QEAA@PEAU?$_Tree_node@U?$pair@$$CBW4Object_Type@@PEBVGameObject@@@std@@PEAX@1@PEBV?$_Tree_val@U?$_Tree_simple_types@U?$pair@$$CBW4Object_Type@@PEBVGameObject@@@std@@@std@@@1@@Z 0000000140000000     engine.obj
 0005:fffad000       $pdata$??0?$_Tree_const_iterator@V?$_Tree_val@U?$_Tree_simple_types@U?$pair@$$CBW4Object_Type@@PEBVGameObject@@@std@@@std@@@std@@@std@@QEAA@$$QEAV01@@Z 0000000140000000     engine.obj
 0003:fffbe000       $unwind$??0?$_Tree_const_iterator@V?$_Tree_val@U?$_Tree_simple_types@U?$pair@$$CBW4Object_Type@@PEBVGameObject@@@std@@@std@@@std@@@std@@QEAA@$$QEAV01@@Z 0000000140000000     engine.obj
 0005:fffad000       $pdata$??0?$_Tree_const_iterator@V?$_Tree_val@U?$_Tree_simple_types@U?$pair@$$CBW4Object_Type@@PEBVGameObject@@@std@@@std@@@std@@@std@@QEAA@AEBV01@@Z 0000000140000000     engine.obj
 0003:fffbe000       $unwind$??0?$_Tree_const_iterator@V?$_Tree_val@U?$_Tree_simple_types@U?$pair@$$CBW4Object_Type@@PEBVGameObject@@@std@@@std@@@std@@@std@@QEAA@AEBV01@@Z 0000000140000000     engine.obj
 0005:fffad000       $pdata$??1?$_Tree_const_iterator@V?$_Tree_val@U?$_Tree_simple_types@U?$pair@$$CBW4Object_Type@@PEBVGameObject@@@std@@@std@@@std@@@std@@QEAA@XZ 0000000140000000     engine.obj
 0003:fffbe000       $unwind$??1?$_Tree_const_iterator@V?$_Tree_val@U?$_Tree_simple_types@U?$pair@$$CBW4Object_Type@@PEBVGameObject@@@std@@@std@@@std@@@std@@QEAA@XZ 0000000140000000     engine.obj
 0003:fffbe000       $unwind$wmemcpy            0000000140000000     wall.obj
 0003:fffbe000       $unwind$?_Get_data@?$_String_alloc@U?$_String_base_types@DV?$allocator@D@std@@@std@@@std@@QEAAAEAV?$_String_val@U?$_Simple_types@D@std@@@2@XZ 0000000140000000     config.obj
 0005:fffad000       $pdata$??8?$_Tree_const_iterator@V?$_Tree_val@U?$_Tree_simple_types@U?$pair@$$CBW4Object_Type@@PEBVGameObject@@@std@@@std@@@std@@@std@@QEBA_NAEBV01@@Z 0000000140000000     engine.obj
 0003:fffbe000       $unwind$??8?$_Tree_const_iterator@V?$_Tree_val@U?$_Tree_simple_types@U?$pair@$$CBW4Object_Type@@PEBVGameObject@@@std@@@std@@@std@@@std@@QEBA_NAEBV01@@Z 0000000140000000     engine.obj
 0003:fffbe000       $unwind$??$_Getvals@_W@?$time_get@_WV?$istreambuf_iterator@_WU?$char_traits@_W@std@@@std@@@std@@IEAAX_WAEBV_Locinfo@1@@Z 0000000140000000     game-object.obj
 0005:fffad000       $pdata$??1?$basic_string@DU?$char_traits@D@std@@V?$allocator@D@2@@std@@QEAA@XZ 0000000140000000     config.obj
 0005:fffad000       $pdata$?__empty_global_delete@@YAXPEAX@Z 0000000140000000     main.obj
 0000:fffa2000       .debug$S                   0000000140000000     msvcprtd:MSVCP140D.dll
 0005:fffad000       $pdata$?_Getal@?$_String_alloc@U?$_String_base_types@DV?$allocator@D@std@@@std@@@std@@QEBAAEBV?$allocator@D@2@XZ 0000000140000000     config.obj
 0005:fffad000       $pdata$?__empty_global_delete@@YAXPEAX_K@Z 0000000140000000     wall.obj
 0000:fffa5000       __guard_fids___scrt_set_unhandled_exception_filter 0000000140000000     MSVCRTD:utility_desktop.obj
 0003:fffbe000       $unwind$?__empty_global_delete@@YAXPEAX_K@Z 0000000140000000     main.obj
 0003:fffbe000       $unwind$?_Getal@?$_String_alloc@U?$_String_base_types@DV?$allocator@D@std@@@std@@@std@@QEBAAEBV?$allocator@D@2@XZ 0000000140000000     config.obj
 0005:fffad000       $pdata$?_Getal@?$_String_alloc@U?$_String_base_types@DV?$allocator@D@std@@@std@@@std@@QEAAAEAV?$allocator@D@2@XZ 0000000140000000     config.obj
 0005:fffad000       $pdata$??E?$_Tree_const_iterator@V?$_Tree_val@U?$_Tree_simple_types@U?$pair@$$CBW4Object_Type@@PEBVGameObject@@@std@@@std@@@std@@@std@@QEAAAEAV01@XZ 0000000140000000     engine.obj
 0003:fffbe000       $unwind$??E?$_Tree_const_iterator@V?$_Tree_val@U?$_Tree_simple_types@U?$pair@$$CBW4Object_Type@@PEBVGameObject@@@std@@@std@@@std@@@std@@QEAAAEAV01@XZ 0000000140000000     engine.obj
 0005:fffad000       $pdata$??0?$_Tree_const_iterator@V?$_Tree_val@U?$_Tree_simple_types@U?$pair@$$CBW4Object_Type@@PEBVGameObject@@@std@@@std@@@std@@@std@@QEAA@PEAU?$_Tree_node@U?$pair@$$CBW4Object_Type@@PEBVGameObject@@@std@@PEAX@1@PEBV?$_Tree_val@U?$_Tree_simple_types@U?$pair@$$CBW4Object_Type@@PEBVGameObject@@@std@@@std@@@1@@Z 0000000140000000     engine.obj
 0003:fffbe000       $unwind$??0?$_Tree_const_iterator@V?$_Tree_val@U?$_Tree_simple_types@U?$pair@$$CBW4Object_Type@@PEBVGameObject@@@std@@@std@@@std@@@std@@QEAA@PEAU?$_Tree_node@U?$pair@$$CBW4Object_Type@@PEBVGameObject@@@std@@PEAX@1@PEBV?$_Tree_val@U?$_Tree_simple_types@U?$pair@$$CBW4Object_Type@@PEBVGameObject@@@std@@@std@@@1@@Z 0000000140000000     engine.obj
 0005:fffad000       $pdata$??0?$_Tree_unchecked_const_iterator@V?$_Tree_val@U?$_Tree_simple_types@U?$pair@$$CBW4Object_Type@@PEBVGameObject@@@std@@@std@@@std@@U_Iterator_base12@2@@std@@QEAA@$$QEAV01@@Z 0000000140000000     engine.obj
 0003:fffbe000       $unwind$??0?$_Tree_unchecked_const_iterator@V?$_Tree_val@U?$_Tree_simple_types@U?$pair@$$CBW4Object_Type@@PEBVGameObject@@@std@@@std@@@std@@U_Iterator_base12@2@@std@@QEAA@$$QEAV01@@Z 0000000140000000     engine.obj
 0005:fffad000       $pdata$??0?$_Tree_unchecked_const_iterator@V?$_Tree_val@U?$_Tree_simple_types@U?$pair@$$CBW4Object_Type@@PEBVGameObject@@@std@@@std@@@std@@U_Iterator_base12@2@@std@@QEAA@AEBV01@@Z 0000000140000000     engine.obj
 0003:fffbe000       $unwind$??0?$_Tree_unchecked_const_iterator@V?$_Tree_val@U?$_Tree_simple_types@U?$pair@$$CBW4Object_Type@@PEBVGameObject@@@std@@@std@@@std@@U_Iterator_base12@2@@std@@QEAA@AEBV01@@Z 0000000140000000     engine.obj
 0005:fffad000       $pdata$??1?$_Tree_unchecked_const_iterator@V?$_Tree_val@U?$_Tree_simple_types@U?$pair@$$CBW4Object_Type@@PEBVGameObject@@@std@@@std@@@std@@U_Iterator_base12@2@@std@@QEAA@XZ 0000000140000000     engine.obj
 0003:fffbe000       $unwind$??1?$_Tree_unchecked_const_iterator@V?$_Tree_val@U?$_Tree_simple_types@U?$pair@$$CBW4Object_Type@@PEBVGameObject@@@std@@@std@@@std@@U_Iterator_base12@2@@std@@QEAA@XZ 0000000140000000     engine.obj
 0005:fffad000       $pdata$??E?$_Tree_unchecked_const_iterator@V?$_Tree_val@U?$_Tree_simple_types@U?$pair@$$CBW4Object_Type@@PEBVGameObject@@@std@@@std@@@std@@U_Iterator_base12@2@@std@@QEAAAEAV01@XZ 0000000140000000     engine.obj
 0003:fffbe000       $unwind$??E?$_Tree_unchecked_const_iterator@V?$_Tree_val@U?$_Tree_simple_types@U?$pair@$$CBW4Object_Type@@PEBVGameObject@@@std@@@std@@@std@@U_Iterator_base12@2@@std@@QEAAAEAV01@XZ 0000000140000000     engine.obj
 0005:fffad000       $pdata$??0?$_Tree_unchecked_const_iterator@V?$_Tree_val@U?$_Tree_simple_types@U?$pair@$$CBW4Object_Type@@PEBVGameObject@@@std@@@std@@@std@@U_Iterator_base12@2@@std@@QEAA@PEAU?$_Tree_node@U?$pair@$$CBW4Object_Type@@PEBVGameObject@@@std@@PEAX@1@PEBV?$_Tree_val@U?$_Tree_simple_types@U?$pair@$$CBW4Object_Type@@PEBVGameObject@@@std@@@std@@@1@@Z 0000000140000000     engine.obj
 0003:fffbe000       $unwind$??0?$_Tree_unchecked_const_iterator@V?$_Tree_val@U?$_Tree_simple_types@U?$pair@$$CBW4Object_Type@@PEBVGameObject@@@std@@@std@@@std@@U_Iterator_base12@2@@std@@QEAA@PEAU?$_Tree_node@U?$pair@$$CBW4Object_Type@@PEBVGameObject@@@std@@PEAX@1@PEBV?$_Tree_val@U?$_Tree_simple_types@U?$pair@$$CBW4Object_Type@@PEBVGameObject@@@std@@@std@@@1@@Z 0000000140000000     engine.obj
 0005:fffad000       $pdata$??$_Getvals@_W@?$time_get@DV?$istreambuf_iterator@DU?$char_traits@D@std@@@std@@@std@@IEAAX_WAEBV_Locinfo@1@@Z 0000000140000000     game-object.obj
 0003:fffbe000       $unwind$?_Getal@?$_String_alloc@U?$_String_base_types@DV?$allocator@D@std@@@std@@@std@@QEAAAEAV?$allocator@D@2@XZ 0000000140000000     config.obj
 0003:fffbe000       $unwind$?__empty_global_delete@@YAXPEAX_K@Z 0000000140000000     wall.obj
 0000:fffa2000       .debug$S                   0000000140000000     vcruntimed:VCRUNTIME140D.dll
 0003:fffbe000       $unwind$??$_Getvals@_W@?$time_get@DV?$istreambuf_iterator@DU?$char_traits@D@std@@@std@@@std@@IEAAX_WAEBV_Locinfo@1@@Z 0000000140000000     game-object.obj
 0005:fffad000       $pdata$?__empty_global_delete@@YAXPEAX_K@Z 0000000140000000     main.obj
 0005:fffad000       $pdata$?__empty_global_delete@@YAXPEAX@Z 0000000140000000     wall.obj
 0005:fffad000       $pdata$??$_Maklocstr@D@std@@YAPEADPEBDPEADAEBU_Cvtvec@@@Z 0000000140000000     config.obj
 0005:fffad000       $pdata$??$_Min_value@_K@std@@YAAEB_KAEB_K0@Z 0000000140000000     engine.obj
 0003:fffbe000       $unwind$??$_Min_value@_K@std@@YAAEB_KAEB_K0@Z 0000000140000000     engine.obj
 0005:fffad000       $pdata$?_Maklocwcs@std@@YAPEA_WPEB_W@Z 0000000140000000     game-object.obj
 0005:fffad000       $pdata$?_Orphan_all@?$_String_alloc@U?$_String_base_types@DV?$allocator@D@std@@@std@@@std@@QEAAXXZ 0000000140000000     config.obj
 0005:fffad000       $pdata$??$_Getvals@_W@?$time_get@_WV?$istreambuf_iterator@_WU?$char_traits@_W@std@@@std@@@std@@IEAAX_WAEBV_Locinfo@1@@Z 0000000140000000     widget-templates.obj
 0003:fffbe000       $unwind$wmemcpy            0000000140000000     main.obj
 0003:fffbe000       $unwind$??$_Getvals@_W@?$time_get@_WV?$istreambuf_iterator@_WU?$char_traits@_W@std@@@std@@@std@@IEAAX_WAEBV_Locinfo@1@@Z 0000000140000000     widget-templates.obj
 0003:fffbe000       $unwind$?_Orphan_all@?$_String_alloc@U?$_String_base_types@DV?$allocator@D@std@@@std@@@std@@QEAAXXZ 0000000140000000     config.obj
 0005:fffad000       $pdata$??$_Getvals@_W@?$time_get@DV?$istreambuf_iterator@DU?$char_traits@D@std@@@std@@@std@@IEAAX_WAEBV_Locinfo@1@@Z 0000000140000000     widget-templates.obj
 0003:fffbe000       $unwind$?__empty_global_delete@@YAXPEAX@Z 0000000140000000     wall.obj
 0005:fffad000       $pdata$wmemcpy             0000000140000000     main.obj
 0003:fffbe000       $unwind$?_Maklocwcs@std@@YAPEA_WPEB_W@Z 0000000140000000     game-object.obj
 0003:fffbe000       $unwind$??$_Getvals@_W@?$time_get@DV?$istreambuf_iterator@DU?$char_traits@D@std@@@std@@@std@@IEAAX_WAEBV_Locinfo@1@@Z 0000000140000000     widget-templates.obj
 0003:fffbe000       $unwind$?_Tidy_init@?$basic_string@DU?$char_traits@D@std@@V?$allocator@D@2@@std@@QEAAXXZ 0000000140000000     config.obj
 0005:fffad000       $pdata$?_Myproxy@?$_String_alloc@U?$_String_base_types@DV?$allocator@D@std@@@std@@@std@@QEAAAEAPEAU_Container_proxy@2@XZ 0000000140000000     config.obj
 0005:fffad000       $pdata$??$_Maklocstr@_W@std@@YAPEA_WPEBDPEA_WAEBU_Cvtvec@@@Z 0000000140000000     game-object.obj
 0005:fffad000       $pdata$?_Maklocwcs@std@@YAPEA_WPEB_W@Z 0000000140000000     widget-templates.obj
 0003:fffbe000       $unwind$??$_Maklocstr@_W@std@@YAPEA_WPEBDPEA_WAEBU_Cvtvec@@@Z 0000000140000000     game-object.obj
 0003:fffbe000       ??$_Maklocstr@_W@std@@YAPEA_WPEBDPEA_WAEBU_Cvtvec@@@Z$rtcName$0 0000000140000000     main.obj
 0003:fffbe000       $unwind$wmemcpy            0000000140000000     container.obj
 0003:fffbe000       $unwind$?_Myproxy@?$_String_alloc@U?$_String_base_types@DV?$allocator@D@std@@@std@@@std@@QEAAAEAPEAU_Container_proxy@2@XZ 0000000140000000     config.obj
 0005:fffad000       $pdata$wmemcpy             0000000140000000     container.obj
 0003:fffbe000       $unwind$??$_Maklocstr@_W@std@@YAPEA_WPEBDPEA_WAEBU_Cvtvec@@@Z 0000000140000000     main.obj
 0005:fffad000       $pdata$?_Free_proxy@?$_String_alloc@U?$_String_base_types@DV?$allocator@D@std@@@std@@@std@@QEAAXXZ 0000000140000000     config.obj
 0005:fffad000       $pdata$??$_Maklocstr@_W@std@@YAPEA_WPEBDPEA_WAEBU_Cvtvec@@@Z 0000000140000000     main.obj
 0003:fffbe000       $unwind$?_Free_proxy@?$_String_alloc@U?$_String_base_types@DV?$allocator@D@std@@@std@@@std@@QEAAXXZ 0000000140000000     config.obj
 0003:fffbe000       $unwind$?_Maklocwcs@std@@YAPEA_WPEB_W@Z 0000000140000000     widget-templates.obj
 0003:fffbe000       $unwind$?_Maklocwcs@std@@YAPEA_WPEB_W@Z 0000000140000000     main.obj
 0003:fffbe000       ??$_Maklocstr@_W@std@@YAPEA_WPEBDPEA_WAEBU_Cvtvec@@@Z$rtcName$0 0000000140000000     container.obj
 0005:fffad000       $pdata$?_Maklocwcs@std@@YAPEA_WPEB_W@Z 0000000140000000     main.obj
 0003:fffbe000       $unwind$??$_Maklocstr@_W@std@@YAPEA_WPEBDPEA_WAEBU_Cvtvec@@@Z 0000000140000000     container.obj
 0003:fffbe000       $unwind$??$_Getvals@_W@?$time_get@DV?$istreambuf_iterator@DU?$char_traits@D@std@@@std@@@std@@IEAAX_WAEBV_Locinfo@1@@Z 0000000140000000     main.obj
 0005:fffad000       $pdata$??$_Maklocstr@D@std@@YAPEADPEBDPEADAEBU_Cvtvec@@@Z 0000000140000000     tank.obj
 0003:fffbe000       ?_Free_proxy@?$_String_alloc@U?$_String_base_types@DV?$allocator@D@std@@@std@@@std@@QEAAXXZ$rtcName$0 0000000140000000     config.obj
 0003:fffbe000       ??$_Maklocstr@_W@std@@YAPEA_WPEBDPEA_WAEBU_Cvtvec@@@Z$rtcName$0 0000000140000000     game-object.obj
 0005:fffad000       $pdata$??$_Maklocstr@_W@std@@YAPEA_WPEBDPEA_WAEBU_Cvtvec@@@Z 0000000140000000     widget-templates.obj
 0003:fffbe000       $unwind$??$_Maklocstr@D@std@@YAPEADPEBDPEADAEBU_Cvtvec@@@Z 0000000140000000     tank.obj
 0005:fffad000       $pdata$??$_Getvals@_W@?$time_get@DV?$istreambuf_iterator@DU?$char_traits@D@std@@@std@@@std@@IEAAX_WAEBV_Locinfo@1@@Z 0000000140000000     main.obj
 0005:fffad000       $pdata$?_Tidy_deallocate@?$basic_string@DU?$char_traits@D@std@@V?$allocator@D@2@@std@@QEAAXXZ 0000000140000000     game-object.obj
 0003:fffbe000       $unwind$??$_Maklocstr@_W@std@@YAPEA_WPEBDPEA_WAEBU_Cvtvec@@@Z 0000000140000000     widget-templates.obj
 0000:fffa2000       .debug$S                   0000000140000000     msvcprtd:MSVCP140D.dll
 0005:fffad000       $pdata$?_Alloc_proxy@?$_String_alloc@U?$_String_base_types@DV?$allocator@D@std@@@std@@@std@@QEAAXXZ 0000000140000000     config.obj
 0003:fffbe000       $unwind$??$_Getvals@_W@?$time_get@_WV?$istreambuf_iterator@_WU?$char_traits@_W@std@@@std@@@std@@IEAAX_WAEBV_Locinfo@1@@Z 0000000140000000     main.obj
 0003:fffbe000       $unwind$?_Alloc_proxy@?$_String_alloc@U?$_String_base_types@DV?$allocator@D@std@@@std@@@std@@QEAAXXZ 0000000140000000     config.obj
 0005:fffad000       $pdata$??$_Getvals@_W@?$time_get@_WV?$istreambuf_iterator@_WU?$char_traits@_W@std@@@std@@@std@@IEAAX_WAEBV_Locinfo@1@@Z 0000000140000000     main.obj
 0003:fffbe000       $unwind$?_Tidy_deallocate@?$basic_string@DU?$char_traits@D@std@@V?$allocator@D@2@@std@@QEAAXXZ 0000000140000000     game-object.obj
 0000:fffa2000       .debug$S                   0000000140000000     vcruntimed:VCRUNTIME140D.dll
 0003:fffbe000       $unwind$?max@?$numeric_limits@_J@std@@SA_JXZ 0000000140000000     config.obj
 0003:fffbe000       $unwind$??$_Maklocstr@D@std@@YAPEADPEBDPEADAEBU_Cvtvec@@@Z 0000000140000000     config.obj
 0005:fffad000       $pdata$?max@?$numeric_limits@_J@std@@SA_JXZ 0000000140000000     config.obj
 0000:fffa2000       .debug$S                   0000000140000000     msvcprtd:MSVCP140D.dll
 0005:fffad000       $pdata$??$_Get_size_of_n@$0BA@@std@@YA_K_K@Z 0000000140000000     config.obj
 0005:fffad000       $pdata$?_Tidy_init@?$basic_string@DU?$char_traits@D@std@@V?$allocator@D@2@@std@@QEAAXXZ 0000000140000000     game-object.obj
 0003:fffbe000       ?_Alloc_proxy@?$_String_alloc@U?$_String_base_types@DV?$allocator@D@std@@@std@@@std@@QEAAXXZ$rtcName$0 0000000140000000     config.obj
 0000:fffa2000       .debug$S                   0000000140000000     msvcprtd:MSVCP140D.dll
 0003:fffbe000       $unwind$??$_Get_size_of_n@$0BA@@std@@YA_K_K@Z 0000000140000000     config.obj
 0003:fffbe000       $unwind$?_Tidy_init@?$basic_string@DU?$char_traits@D@std@@V?$allocator@D@2@@std@@QEAAXXZ 0000000140000000     game-object.obj
 0003:fffbe000       $unwind$??$_Get_size_of_n@$00@std@@YA_K_K@Z 0000000140000000     config.obj
 0003:fffbe000       $ip2state$??1?$basic_string@DU?$char_traits@D@std@@V?$allocator@D@2@@std@@QEAA@XZ 0000000140000000     game-object.obj
 0003:fffbe000       ??$_Maklocstr@_W@std@@YAPEA_WPEBDPEA_WAEBU_Cvtvec@@@Z$rtcName$0 0000000140000000     widget-templates.obj
 0003:fffbe000       $cppxdata$??1?$basic_string@DU?$char_traits@D@std@@V?$allocator@D@2@@std@@QEAA@XZ 0000000140000000     game-object.obj
 0005:fffad000       $pdata$??$_Get_size_of_n@$00@std@@YA_K_K@Z 0000000140000000     config.obj
 0005:fffad000       $pdata$??1?$basic_string@DU?$char_traits@D@std@@V?$allocator@D@2@@std@@QEAA@XZ 0000000140000000     game-object.obj
 0005:fffad000       $pdata$wmemcpy             0000000140000000     widget-templates.obj
 0000:fffa2000       .debug$S                   0000000140000000     msvcprtd:MSVCP140D.dll
 0003:fffbe000       $unwind$??$_Maklocstr@D@std@@YAPEADPEBDPEADAEBU_Cvtvec@@@Z 0000000140000000     main.obj
 0003:fffbe000       $unwind$??1?$basic_string@DU?$char_traits@D@std@@V?$allocator@D@2@@std@@QEAA@XZ 0000000140000000     game-object.obj
 0003:fffbe000       $unwind$wmemcpy            0000000140000000     widget-templates.obj
 0003:fffbe000       $unwind$??0?$_String_val@U?$_Simple_types@D@std@@@std@@QEAA@XZ 0000000140000000     game-object.obj
 0003:fffbe000       $ip2state$??1?$_String_alloc@U?$_String_base_types@DV?$allocator@D@std@@@std@@@std@@QEAA@XZ 0000000140000000     config.obj
 0005:fffad000       $pdata$??$_Maklocstr@_W@std@@YAPEA_WPEBDPEA_WAEBU_Cvtvec@@@Z 0000000140000000     container.obj
 0005:fffad000       $pdata$?__empty_global_delete@@YAXPEAX_K@Z 0000000140000000     widget-templates.obj
 0005:fffad000       $pdata$??0?$_String_val@U?$_Simple_types@D@std@@@std@@QEAA@XZ 0000000140000000     game-object.obj
 0005:fffad000       $pdata$??$_Maklocstr@D@std@@YAPEADPEBDPEADAEBU_Cvtvec@@@Z 0000000140000000     main.obj
 0000:fffa2000       .debug$S                   0000000140000000     sfml-system-d:sfml-system-d-2.dll
 0003:fffbe000       $unwind$?__empty_global_delete@@YAXPEAX_K@Z 0000000140000000     widget-templates.obj
 0003:fffbe000       $cppxdata$??1?$_String_alloc@U?$_String_base_types@DV?$allocator@D@std@@@std@@@std@@QEAA@XZ 0000000140000000     config.obj
 0005:fffad000       $pdata$?__empty_global_delete@@YAXPEAX@Z 0000000140000000     widget-templates.obj
 0003:fffbe000       $unwind$?_Large_string_engaged@?$_String_val@U?$_Simple_types@D@std@@@std@@QEBA_NXZ 0000000140000000     game-object.obj
 0003:fffbe000       $unwind$?_Allocate@_Default_allocate_traits@std@@SAPEAX_K@Z 0000000140000000     config.obj
 0005:fffad000       $pdata$?_Calculate_growth@?$basic_string@DU?$char_traits@D@std@@V?$allocator@D@2@@std@@QEBA_K_K@Z 0000000140000000     config.obj
 0003:fffbe000       $unwind$?__empty_global_delete@@YAXPEAX@Z 0000000140000000     widget-templates.obj
 0005:fffad000       $pdata$??1?$_String_alloc@U?$_String_base_types@DV?$allocator@D@std@@@std@@@std@@QEAA@XZ 0000000140000000     config.obj
 0005:fffad000       $pdata$??$?0D@?$allocator@U_Container_proxy@std@@@std@@QEAA@AEBV?$allocator@D@1@@Z 0000000140000000     config.obj
 0005:fffad000       $pdata$??1?$_Compressed_pair@V?$allocator@D@std@@V?$_String_val@U?$_Simple_types@D@std@@@2@$00@std@@QEAA@XZ 0000000140000000     game-object.obj
 0003:fffbe000       $unwind$?__empty_global_delete@@YAXPEAX@Z 0000000140000000     container-moving.obj
 0000:fffa2000       .debug$S                   0000000140000000     vcruntimed:VCRUNTIME140D.dll
 0003:fffbe000       $unwind$??1?$_String_alloc@U?$_String_base_types@DV?$allocator@D@std@@@std@@@std@@QEAA@XZ 0000000140000000     config.obj
 0000:fffa2000       .debug$S                   0000000140000000     sfml-system-d:sfml-system-d-2.dll
 0005:fffad000       $pdata$??$_Maklocstr@D@std@@YAPEADPEBDPEADAEBU_Cvtvec@@@Z 0000000140000000     widget.obj
 0003:fffbe000       $unwind$??1?$_Compressed_pair@V?$allocator@D@std@@V?$_String_val@U?$_Simple_types@D@std@@@2@$00@std@@QEAA@XZ 0000000140000000     game-object.obj
 0005:fffad000       $pdata$?dtor$0@?0???0?$_String_alloc@U?$_String_base_types@DV?$allocator@D@std@@@std@@@std@@QEAA@XZ@4HA 0000000140000000     config.obj
 0000:fffa2000       .debug$S                   0000000140000000     sfml-system-d:sfml-system-d-2.dll
 0003:fffbe000       $unwind$?dtor$0@?0???0?$_String_alloc@U?$_String_base_types@DV?$allocator@D@std@@@std@@@std@@QEAA@XZ@4HA 0000000140000000     config.obj
 0005:fffad000       $pdata$?_Get_second@?$_Compressed_pair@V?$allocator@D@std@@V?$_String_val@U?$_Simple_types@D@std@@@2@$00@std@@QEAAAEAV?$_String_val@U?$_Simple_types@D@std@@@2@XZ 0000000140000000     game-object.obj
 0003:fffbe000       $ip2state$??0?$_String_alloc@U?$_String_base_types@DV?$allocator@D@std@@@std@@@std@@QEAA@XZ 0000000140000000     config.obj
 0000:fffa2000       .debug$S                   0000000140000000     sfml-system-d:sfml-system-d-2.dll
 0003:fffbe000       $stateUnwindMap$??0?$_String_alloc@U?$_String_base_types@DV?$allocator@D@std@@@std@@@std@@QEAA@XZ 0000000140000000     config.obj
 0003:fffbe000       $unwind$?_Get_second@?$_Compressed_pair@V?$allocator@D@std@@V?$_String_val@U?$_Simple_types@D@std@@@2@$00@std@@QEAAAEAV?$_String_val@U?$_Simple_types@D@std@@@2@XZ 0000000140000000     game-object.obj
 0005:fffad000       $pdata$?__empty_global_delete@@YAXPEAX@Z 0000000140000000     container-moving.obj
 0000:fffa2000       .debug$S                   0000000140000000     sfml-system-d:sfml-system-d-2.dll
 0003:fffbe000       $cppxdata$??0?$_String_alloc@U?$_String_base_types@DV?$allocator@D@std@@@std@@@std@@QEAA@XZ 0000000140000000     config.obj
 0005:fffad000       $pdata$?_Get_first@?$_Compressed_pair@V?$allocator@D@std@@V?$_String_val@U?$_Simple_types@D@std@@@2@$00@std@@QEAAAEAV?$allocator@D@2@XZ 0000000140000000     game-object.obj
 0003:fffbe000       $unwind$??$_Maklocstr@D@std@@YAPEADPEBDPEADAEBU_Cvtvec@@@Z 0000000140000000     widget.obj
 0003:fffbe000       $unwind$?_Get_first@?$_Compressed_pair@V?$allocator@D@std@@V?$_String_val@U?$_Simple_types@D@std@@@2@$00@std@@QEAAAEAV?$allocator@D@2@XZ 0000000140000000     game-object.obj
 0003:fffbe000       $unwind$?__empty_global_delete@@YAXPEAX_K@Z 0000000140000000     container-moving.obj
 0005:fffad000       $pdata$?_Get_data@?$_String_alloc@U?$_String_base_types@DV?$allocator@D@std@@@std@@@std@@QEAAAEAV?$_String_val@U?$_Simple_types@D@std@@@2@XZ 0000000140000000     game-object.obj
 0005:fffad000       $pdata$??0?$_String_alloc@U?$_String_base_types@DV?$allocator@D@std@@@std@@@std@@QEAA@XZ 0000000140000000     config.obj
 0003:fffbe000       $unwind$?_Get_data@?$_String_alloc@U?$_String_base_types@DV?$allocator@D@std@@@std@@@std@@QEAAAEAV?$_String_val@U?$_Simple_types@D@std@@@2@XZ 0000000140000000     game-object.obj
 0005:fffad000       $pdata$?__empty_global_delete@@YAXPEAX_K@Z 0000000140000000     container-moving.obj
 0005:fffad000       $pdata$??$_Getvals@_W@?$time_get@_WV?$istreambuf_iterator@_WU?$char_traits@_W@std@@@std@@@std@@IEAAX_WAEBV_Locinfo@1@@Z 0000000140000000     tank.obj
 0003:fffbe000       $unwind$??0?$_String_alloc@U?$_String_base_types@DV?$allocator@D@std@@@std@@@std@@QEAA@XZ 0000000140000000     config.obj
 0005:fffad000       $pdata$?_Getal@?$_String_alloc@U?$_String_base_types@DV?$allocator@D@std@@@std@@@std@@QEAAAEAV?$allocator@D@2@XZ 0000000140000000     game-object.obj
 0003:fffbe000       $unwind$??$?0D@?$allocator@U_Container_proxy@std@@@std@@QEAA@AEBV?$allocator@D@1@@Z 0000000140000000     config.obj
 0003:fffbe000       $unwind$??$_Getvals@_W@?$time_get@_WV?$istreambuf_iterator@_WU?$char_traits@_W@std@@@std@@@std@@IEAAX_WAEBV_Locinfo@1@@Z 0000000140000000     tank.obj
 0003:fffbe000       $unwind$wmemcpy            0000000140000000     container-moving.obj
 0003:fffbe000       $unwind$?_Getal@?$_String_alloc@U?$_String_base_types@DV?$allocator@D@std@@@std@@@std@@QEAAAEAV?$allocator@D@2@XZ 0000000140000000     game-object.obj
 0005:fffad000       $pdata$??$construct@U_Container_proxy@std@@U12@@?$_Default_allocator_traits@V?$allocator@U_Container_proxy@std@@@std@@@std@@SAXAEAV?$allocator@U_Container_proxy@std@@@1@QEAU_Container_proxy@1@$$QEAU31@@Z 0000000140000000     config.obj
 0005:fffad000       $pdata$?_Orphan_all@?$_String_alloc@U?$_String_base_types@DV?$allocator@D@std@@@std@@@std@@QEAAXXZ 0000000140000000     game-object.obj
 0005:fffad000       $pdata$??$forward@U_Container_proxy@std@@@std@@YA$$QEAU_Container_proxy@0@AEAU10@@Z 0000000140000000     game-object.obj
 0003:fffbe000       $unwind$?_Orphan_all@?$_String_alloc@U?$_String_base_types@DV?$allocator@D@std@@@std@@@std@@QEAAXXZ 0000000140000000     game-object.obj
 0003:fffbe000       $unwind$??$construct@U_Container_proxy@std@@U12@@?$_Default_allocator_traits@V?$allocator@U_Container_proxy@std@@@std@@@std@@SAXAEAV?$allocator@U_Container_proxy@std@@@1@QEAU_Container_proxy@1@$$QEAU31@@Z 0000000140000000     config.obj
 0005:fffad000       $pdata$?_Myproxy@?$_String_alloc@U?$_String_base_types@DV?$allocator@D@std@@@std@@@std@@QEAAAEAPEAU_Container_proxy@2@XZ 0000000140000000     game-object.obj
 0003:fffbe000       $unwind$??$forward@U_Container_proxy@std@@@std@@YA$$QEAU_Container_proxy@0@AEAU10@@Z 0000000140000000     game-object.obj
 0005:fffad000       $pdata$??$_Getvals@_W@?$time_get@DV?$istreambuf_iterator@DU?$char_traits@D@std@@@std@@@std@@IEAAX_WAEBV_Locinfo@1@@Z 0000000140000000     tank.obj
 0005:fffad000       $pdata$??$_Unfancy@U_Container_proxy@std@@@std@@YAPEAU_Container_proxy@0@PEAU10@@Z 0000000140000000     config.obj
 0003:fffbe000       $unwind$?_Myproxy@?$_String_alloc@U?$_String_base_types@DV?$allocator@D@std@@@std@@@std@@QEAAAEAPEAU_Container_proxy@2@XZ 0000000140000000     game-object.obj
 0005:fffad000       $pdata$??$_Allocate_manually_vector_aligned@U_Default_allocate_traits@std@@@std@@YAPEAX_K@Z 0000000140000000     game-object.obj
 0000:fffa2000       .debug$S                   0000000140000000     sfml-graphics-d:sfml-graphics-d-2.dll
 0003:fffbe000       $unwind$??$_Allocate_manually_vector_aligned@U_Default_allocate_traits@std@@@std@@YAPEAX_K@Z 0000000140000000     game-object.obj
 0003:fffbe000       $unwind$??$_Unfancy@U_Container_proxy@std@@@std@@YAPEAU_Container_proxy@0@PEAU10@@Z 0000000140000000     config.obj
 0003:fffbe000       $unwind$??$_Getvals@_W@?$time_get@DV?$istreambuf_iterator@DU?$char_traits@D@std@@@std@@@std@@IEAAX_WAEBV_Locinfo@1@@Z 0000000140000000     tank.obj
 0005:fffad000       $pdata$??$_Maklocstr@D@std@@YAPEADPEBDPEADAEBU_Cvtvec@@@Z 0000000140000000     game-object.obj
 0005:fffad000       $pdata$??$_Getvals@_W@?$time_get@_WV?$istreambuf_iterator@_WU?$char_traits@_W@std@@@std@@@std@@IEAAX_WAEBV_Locinfo@1@@Z 0000000140000000     config.obj
 0003:fffbe000       $unwind$??$_Maklocstr@D@std@@YAPEADPEBDPEADAEBU_Cvtvec@@@Z 0000000140000000     game-object.obj
 0005:fffad000       $pdata$??$_Deallocate_plain@V?$allocator@U_Container_proxy@std@@@std@@$0A@@std@@YAXAEAV?$allocator@U_Container_proxy@std@@@0@QEAU_Container_proxy@0@@Z 0000000140000000     config.obj
 0005:fffad000       $pdata$??$_Get_size_of_n@$0BA@@std@@YA_K_K@Z 0000000140000000     game-object.obj
 0003:fffbe000       $unwind$??$_Deallocate_plain@V?$allocator@U_Container_proxy@std@@@std@@$0A@@std@@YAXAEAV?$allocator@U_Container_proxy@std@@@0@QEAU_Container_proxy@0@@Z 0000000140000000     config.obj
 0005:fffad000       $pdata$?_Free_proxy@?$_String_alloc@U?$_String_base_types@DV?$allocator@D@std@@@std@@@std@@QEAAXXZ 0000000140000000     game-object.obj
 0003:fffbe000       $unwind$??$_Get_size_of_n@$0BA@@std@@YA_K_K@Z 0000000140000000     game-object.obj
 0005:fffad000       $pdata$?_Maklocwcs@std@@YAPEA_WPEB_W@Z 0000000140000000     tank.obj
 0003:fffbe000       $unwind$??$_Getvals@_W@?$time_get@_WV?$istreambuf_iterator@_WU?$char_traits@_W@std@@@std@@@std@@IEAAX_WAEBV_Locinfo@1@@Z 0000000140000000     config.obj
 0003:fffbe000       $unwind$?_Free_proxy@?$_String_alloc@U?$_String_base_types@DV?$allocator@D@std@@@std@@@std@@QEAAXXZ 0000000140000000     game-object.obj
 0005:fffad000       $pdata$??$?0D@?$allocator@U_Container_proxy@std@@@std@@QEAA@AEBV?$allocator@D@1@@Z 0000000140000000     game-object.obj
 0003:fffbe000       $unwind$?_Maklocwcs@std@@YAPEA_WPEB_W@Z 0000000140000000     tank.obj
 0005:fffad000       $pdata$??$destroy@U_Container_proxy@std@@@?$_Default_allocator_traits@V?$allocator@U_Container_proxy@std@@@std@@@std@@SAXAEAV?$allocator@U_Container_proxy@std@@@1@QEAU_Container_proxy@1@@Z 0000000140000000     config.obj
 0003:fffbe000       $unwind$?_Maklocwcs@std@@YAPEA_WPEB_W@Z 0000000140000000     container.obj
 0003:fffbe000       $unwind$??$?0D@?$allocator@U_Container_proxy@std@@@std@@QEAA@AEBV?$allocator@D@1@@Z 0000000140000000     game-object.obj
 0005:fffad000       $pdata$??$_Maklocstr@_W@std@@YAPEA_WPEBDPEA_WAEBU_Cvtvec@@@Z 0000000140000000     tank.obj
 0003:fffbe000       $unwind$??$destroy@U_Container_proxy@std@@@?$_Default_allocator_traits@V?$allocator@U_Container_proxy@std@@@std@@@std@@SAXAEAV?$allocator@U_Container_proxy@std@@@1@QEAU_Container_proxy@1@@Z 0000000140000000     config.obj
 0005:fffad000       $pdata$?_Maklocwcs@std@@YAPEA_WPEB_W@Z 0000000140000000     container.obj
 0005:fffad000       $pdata$??$construct@U_Container_proxy@std@@U12@@?$_Default_allocator_traits@V?$allocator@U_Container_proxy@std@@@std@@@std@@SAXAEAV?$allocator@U_Container_proxy@std@@@1@QEAU_Container_proxy@1@$$QEAU31@@Z 0000000140000000     game-object.obj
 0005:fffad000       $pdata$?deallocate@?$_Default_allocator_traits@V?$allocator@U_Container_proxy@std@@@std@@@std@@SAXAEAV?$allocator@U_Container_proxy@std@@@2@QEAU_Container_proxy@2@_K@Z 0000000140000000     config.obj
 0003:fffbe000       $unwind$??$construct@U_Container_proxy@std@@U12@@?$_Default_allocator_traits@V?$allocator@U_Container_proxy@std@@@std@@@std@@SAXAEAV?$allocator@U_Container_proxy@std@@@1@QEAU_Container_proxy@1@$$QEAU31@@Z 0000000140000000     game-object.obj
 0005:fffad000       $pdata$??$_Getvals@_W@?$time_get@DV?$istreambuf_iterator@DU?$char_traits@D@std@@@std@@@std@@IEAAX_WAEBV_Locinfo@1@@Z 0000000140000000     config.obj
 0003:fffbe000       $unwind$??$_Maklocstr@_W@std@@YAPEA_WPEBDPEA_WAEBU_Cvtvec@@@Z 0000000140000000     tank.obj
 0005:fffad000       $pdata$??$_Unfancy@U_Container_proxy@std@@@std@@YAPEAU_Container_proxy@0@PEAU10@@Z 0000000140000000     game-object.obj
 0005:fffad000       $pdata$??$_Getvals@_W@?$time_get@_WV?$istreambuf_iterator@_WU?$char_traits@_W@std@@@std@@@std@@IEAAX_WAEBV_Locinfo@1@@Z 0000000140000000     widget.obj
 0003:fffbe000       $unwind$??$_Unfancy@U_Container_proxy@std@@@std@@YAPEAU_Container_proxy@0@PEAU10@@Z 0000000140000000     game-object.obj
 0003:fffbe000       $unwind$??$_Getvals@_W@?$time_get@_WV?$istreambuf_iterator@_WU?$char_traits@_W@std@@@std@@@std@@IEAAX_WAEBV_Locinfo@1@@Z 0000000140000000     widget.obj
 0003:fffbe000       ?_Free_proxy@?$_String_alloc@U?$_String_base_types@DV?$allocator@D@std@@@std@@@std@@QEAAXXZ$rtcName$0 0000000140000000     game-object.obj
 0005:fffad000       $pdata$??$_Deallocate_plain@V?$allocator@U_Container_proxy@std@@@std@@$0A@@std@@YAXAEAV?$allocator@U_Container_proxy@std@@@0@QEAU_Container_proxy@0@@Z 0000000140000000     game-object.obj
 0003:fffbe000       $unwind$?_Calculate_growth@?$basic_string@DU?$char_traits@D@std@@V?$allocator@D@2@@std@@QEBA_K_K@Z 0000000140000000     config.obj
 0005:fffad000       $pdata$??$_Getvals@_W@?$time_get@DV?$istreambuf_iterator@DU?$char_traits@D@std@@@std@@@std@@IEAAX_WAEBV_Locinfo@1@@Z 0000000140000000     widget.obj
 0005:fffad000       $pdata$?_Alloc_proxy@?$_String_alloc@U?$_String_base_types@DV?$allocator@D@std@@@std@@@std@@QEAAXXZ 0000000140000000     game-object.obj
 0003:fffbe000       $unwind$??$_Deallocate_plain@V?$allocator@U_Container_proxy@std@@@std@@$0A@@std@@YAXAEAV?$allocator@U_Container_proxy@std@@@0@QEAU_Container_proxy@0@@Z 0000000140000000     game-object.obj
 0003:fffbe000       $unwind$?_Alloc_proxy@?$_String_alloc@U?$_String_base_types@DV?$allocator@D@std@@@std@@@std@@QEAAXXZ 0000000140000000     game-object.obj
 0003:fffbe000       $unwind$??$_Getvals@_W@?$time_get@DV?$istreambuf_iterator@DU?$char_traits@D@std@@@std@@@std@@IEAAX_WAEBV_Locinfo@1@@Z 0000000140000000     widget.obj
 0003:fffbe000       $unwind$??$_Getvals@_W@?$time_get@DV?$istreambuf_iterator@DU?$char_traits@D@std@@@std@@@std@@IEAAX_WAEBV_Locinfo@1@@Z 0000000140000000     container.obj
 0005:fffad000       $pdata$??$destroy@U_Container_proxy@std@@@?$_Default_allocator_traits@V?$allocator@U_Container_proxy@std@@@std@@@std@@SAXAEAV?$allocator@U_Container_proxy@std@@@1@QEAU_Container_proxy@1@@Z 0000000140000000     game-object.obj
 0005:fffad000       $pdata$??$_Getvals@_W@?$time_get@DV?$istreambuf_iterator@DU?$char_traits@D@std@@@std@@@std@@IEAAX_WAEBV_Locinfo@1@@Z 0000000140000000     container.obj
 0005:fffad000       $pdata$?_Maklocwcs@std@@YAPEA_WPEB_W@Z 0000000140000000     widget.obj
 0003:fffbe000       ?_Alloc_proxy@?$_String_alloc@U?$_String_base_types@DV?$allocator@D@std@@@std@@@std@@QEAAXXZ$rtcName$0 0000000140000000     game-object.obj
 0003:fffbe000       $unwind$??$destroy@U_Container_proxy@std@@@?$_Default_allocator_traits@V?$allocator@U_Container_proxy@std@@@std@@@std@@SAXAEAV?$allocator@U_Container_proxy@std@@@1@QEAU_Container_proxy@1@@Z 0000000140000000     game-object.obj
 0003:fffbe000       ??$_Maklocstr@_W@std@@YAPEA_WPEBDPEA_WAEBU_Cvtvec@@@Z$rtcName$0 0000000140000000     tank.obj
 0003:fffbe000       $unwind$?_Maklocwcs@std@@YAPEA_WPEB_W@Z 0000000140000000     widget.obj
 0003:fffbe000       $ip2state$??1?$_String_alloc@U?$_String_base_types@DV?$allocator@D@std@@@std@@@std@@QEAA@XZ 0000000140000000     game-object.obj
 0005:fffad000       $pdata$?deallocate@?$_Default_allocator_traits@V?$allocator@U_Container_proxy@std@@@std@@@std@@SAXAEAV?$allocator@U_Container_proxy@std@@@2@QEAU_Container_proxy@2@_K@Z 0000000140000000     game-object.obj
 0005:fffad000       $pdata$wmemcpy             0000000140000000     tank.obj
 0003:fffbe000       $unwind$?deallocate@?$_Default_allocator_traits@V?$allocator@U_Container_proxy@std@@@std@@@std@@SAXAEAV?$allocator@U_Container_proxy@std@@@2@QEAU_Container_proxy@2@_K@Z 0000000140000000     game-object.obj
 0003:fffbe000       $cppxdata$??1?$_String_alloc@U?$_String_base_types@DV?$allocator@D@std@@@std@@@std@@QEAA@XZ 0000000140000000     game-object.obj
 0005:fffad000       $pdata$?allocate@?$allocator@U_Container_proxy@std@@@std@@QEAAPEAU_Container_proxy@2@_K@Z 0000000140000000     game-object.obj
 0005:fffad000       $pdata$??1?$_String_alloc@U?$_String_base_types@DV?$allocator@D@std@@@std@@@std@@QEAA@XZ 0000000140000000     game-object.obj
 0005:fffad000       $pdata$??$_Maklocstr@_W@std@@YAPEA_WPEBDPEA_WAEBU_Cvtvec@@@Z 0000000140000000     widget.obj
 0003:fffbe000       $unwind$??1?$_String_alloc@U?$_String_base_types@DV?$allocator@D@std@@@std@@@std@@QEAA@XZ 0000000140000000     game-object.obj
 0003:fffbe000       $unwind$?allocate@?$allocator@U_Container_proxy@std@@@std@@QEAAPEAU_Container_proxy@2@_K@Z 0000000140000000     game-object.obj
 0005:fffad000       $pdata$??$_Deallocate@$0BA@$0A@@std@@YAXPEAX_K@Z 0000000140000000     game-object.obj
 0003:fffbe000       $unwind$??$_Deallocate@$0BA@$0A@@std@@YAXPEAX_K@Z 0000000140000000     game-object.obj
 0005:fffad000       $pdata$?dtor$0@?0???0?$_String_alloc@U?$_String_base_types@DV?$allocator@D@std@@@std@@@std@@QEAA@XZ@4HA 0000000140000000     game-object.obj
 0003:fffbe000       $unwind$??$_Maklocstr@_W@std@@YAPEA_WPEBDPEA_WAEBU_Cvtvec@@@Z 0000000140000000     widget.obj
 0003:fffbe000       $unwind$?dtor$0@?0???0?$_String_alloc@U?$_String_base_types@DV?$allocator@D@std@@@std@@@std@@QEAA@XZ@4HA 0000000140000000     game-object.obj
 0005:fffad000       $pdata$??$_Allocate@$0BA@U_Default_allocate_traits@std@@$0A@@std@@YAPEAX_K@Z 0000000140000000     game-object.obj
 0003:fffbe000       $unwind$?deallocate@?$_Default_allocator_traits@V?$allocator@U_Container_proxy@std@@@std@@@std@@SAXAEAV?$allocator@U_Container_proxy@std@@@2@QEAU_Container_proxy@2@_K@Z 0000000140000000     config.obj
 0003:fffbe000       $unwind$??$_Allocate@$0BA@U_Default_allocate_traits@std@@$0A@@std@@YAPEAX_K@Z 0000000140000000     game-object.obj
 0003:fffbe000       $unwind$wmemcpy            0000000140000000     tank.obj
 0005:fffad000       $pdata$??$addressof@V?$_String_val@U?$_Simple_types@D@std@@@std@@@std@@YAPEAV?$_String_val@U?$_Simple_types@D@std@@@0@AEAV10@@Z 0000000140000000     game-object.obj
 0003:fffbe000       $unwind$??$addressof@V?$_String_val@U?$_Simple_types@D@std@@@std@@@std@@YAPEAV?$_String_val@U?$_Simple_types@D@std@@@0@AEAV10@@Z 0000000140000000     game-object.obj
 0003:fffbe000       $unwind$??$_Getvals@_W@?$time_get@DV?$istreambuf_iterator@DU?$char_traits@D@std@@@std@@@std@@IEAAX_WAEBV_Locinfo@1@@Z 0000000140000000     config.obj
 0003:fffbe000       $ip2state$??0?$_String_alloc@U?$_String_base_types@DV?$allocator@D@std@@@std@@@std@@QEAA@XZ 0000000140000000     game-object.obj
 0003:fffbe000       ??$_Maklocstr@_W@std@@YAPEA_WPEBDPEA_WAEBU_Cvtvec@@@Z$rtcName$0 0000000140000000     window-game.obj
 0005:fffad000       $pdata$?__empty_global_delete@@YAXPEAX_K@Z 0000000140000000     tank.obj
 0005:fffad000       $pdata$?initialize_environment@__scrt_narrow_environment_policy@@SAHXZ 0000000140000000     MSVCRTD:exe_winmain.obj
 0003:fffbe000       $stateUnwindMap$??0?$_String_alloc@U?$_String_base_types@DV?$allocator@D@std@@@std@@@std@@QEAA@XZ 0000000140000000     game-object.obj
 0003:fffbe000       $unwind$?initialize_environment@__scrt_narrow_environment_policy@@SAHXZ 0000000140000000     MSVCRTD:exe_winmain.obj
 0003:fffbe000       $unwind$?__empty_global_delete@@YAXPEAX_K@Z 0000000140000000     tank.obj
 0005:fffad000       $pdata$?configure_argv@__scrt_narrow_argv_policy@@SAHXZ 0000000140000000     MSVCRTD:exe_winmain.obj
 0003:fffbe000       $cppxdata$??0?$_String_alloc@U?$_String_base_types@DV?$allocator@D@std@@@std@@@std@@QEAA@XZ 0000000140000000     game-object.obj
 0000:fffa5000       __guard_fids__CRT_RTC_INIT 0000000140000000     MSVCRTD:_init_.obj
 0005:fffad000       $pdata$?__empty_global_delete@@YAXPEAX@Z 0000000140000000     tank.obj
 0003:fffbe000       $unwind$??$_Maklocstr@_W@std@@YAPEA_WPEBDPEA_WAEBU_Cvtvec@@@Z 0000000140000000     window-game.obj
 0005:fffad000       $pdata$??0?$_String_alloc@U?$_String_base_types@DV?$allocator@D@std@@@std@@@std@@QEAA@XZ 0000000140000000     game-object.obj
 0005:fffad000       $pdata$??$_Maklocstr@_W@std@@YAPEA_WPEBDPEA_WAEBU_Cvtvec@@@Z 0000000140000000     window-game.obj
 0003:fffbe000       $unwind$?__empty_global_delete@@YAXPEAX@Z 0000000140000000     tank.obj
 0003:fffbe000       $unwind$?_Maklocwcs@std@@YAPEA_WPEB_W@Z 0000000140000000     window-game.obj
 0003:fffbe000       $unwind$??0?$_String_alloc@U?$_String_base_types@DV?$allocator@D@std@@@std@@@std@@QEAA@XZ 0000000140000000     game-object.obj
 0005:fffad000       $pdata$?_Maklocwcs@std@@YAPEA_WPEB_W@Z 0000000140000000     window-game.obj
 0003:fffbe000       $unwind$??$_Min_value@_K@std@@YAAEB_KAEB_K0@Z 0000000140000000     config.obj
 0003:fffbe000       $unwind$??$_Getvals@_W@?$time_get@DV?$istreambuf_iterator@DU?$char_traits@D@std@@@std@@@std@@IEAAX_WAEBV_Locinfo@1@@Z 0000000140000000     window-game.obj
 0005:fffad000       $pdata$??1?$_String_val@U?$_Simple_types@D@std@@@std@@QEAA@XZ 0000000140000000     game-object.obj
 0005:fffad000       $pdata$??$_Getvals@_W@?$time_get@DV?$istreambuf_iterator@DU?$char_traits@D@std@@@std@@@std@@IEAAX_WAEBV_Locinfo@1@@Z 0000000140000000     window-game.obj
 0005:fffad000       $pdata$??$_Min_value@_K@std@@YAAEB_KAEB_K0@Z 0000000140000000     config.obj
 0003:fffbe000       $unwind$??$_Getvals@_W@?$time_get@_WV?$istreambuf_iterator@_WU?$char_traits@_W@std@@@std@@@std@@IEAAX_WAEBV_Locinfo@1@@Z 0000000140000000     window-game.obj
 0003:fffbe000       $unwind$??1?$_String_val@U?$_Simple_types@D@std@@@std@@QEAA@XZ 0000000140000000     game-object.obj
 0005:fffad000       $pdata$??$_Getvals@_W@?$time_get@_WV?$istreambuf_iterator@_WU?$char_traits@_W@std@@@std@@@std@@IEAAX_WAEBV_Locinfo@1@@Z 0000000140000000     window-game.obj
 0003:fffbe000       $unwind$??$_Unfancy@D@std@@YAPEADPEAD@Z 0000000140000000     config.obj
 0003:fffbe000       $unwind$??0?$Vector2@M@sf@@QEAA@MM@Z 0000000140000000     window-game.obj
 0005:fffad000       $pdata$??1_Bxty@?$_String_val@U?$_Simple_types@D@std@@@std@@QEAA@XZ 0000000140000000     game-object.obj
 0005:fffad000       $pdata$??0?$Vector2@M@sf@@QEAA@MM@Z 0000000140000000     window-game.obj
 0005:fffad000       $pdata$??$_Maklocstr@D@std@@YAPEADPEBDPEADAEBU_Cvtvec@@@Z 0000000140000000     player.obj
 0003:fffbe000       $unwind$?configure_argv@__scrt_narrow_argv_policy@@SAHXZ 0000000140000000     MSVCRTD:exe_winmain.obj
 0003:fffbe000       $unwind$??1_Bxty@?$_String_val@U?$_Simple_types@D@std@@@std@@QEAA@XZ 0000000140000000     game-object.obj
 0000:fffa5000       __guard_fids__CRT_RTC_INITW 0000000140000000     MSVCRTD:_init_.obj
 0003:fffbe000       $unwind$??$_Maklocstr@D@std@@YAPEADPEBDPEADAEBU_Cvtvec@@@Z 0000000140000000     player.obj
 0000:fffa5000       __guard_fids__             0000000140000000     MSVCRTD:exe_winmain.obj
 0005:fffad000       $pdata$??0_Bxty@?$_String_val@U?$_Simple_types@D@std@@@std@@QEAA@XZ 0000000140000000     game-object.obj
 0000:fffa5000       __guard_fids__             0000000140000000     MSVCRTD:std_type_info_static.obj
 0000:fffa2000       .debug$S                   0000000140000000     sfml-system-d:sfml-system-d-2.dll
 0000:fffa2000       .debug$S                   0000000140000000     kernel32:KERNEL32.dll
 0000:fffa2000       .debug$S                   0000000140000000     kernel32:KERNEL32.dll
 0000:fffa2000       .debug$S                   0000000140000000     kernel32:KERNEL32.dll
 0000:fffa2000       .debug$S                   0000000140000000     kernel32:KERNEL32.dll
 0003:fffbe000       $unwind$??0_Bxty@?$_String_val@U?$_Simple_types@D@std@@@std@@QEAA@XZ 0000000140000000     game-object.obj
 0000:fffa2000       .debug$S                   0000000140000000     kernel32:KERNEL32.dll
 0000:fffa2000       .debug$S                   0000000140000000     kernel32:KERNEL32.dll
 0000:fffa2000       .debug$S                   0000000140000000     kernel32:KERNEL32.dll
 0000:fffa2000       .debug$S                   0000000140000000     sfml-graphics-d:sfml-graphics-d-2.dll
 0000:fffa2000       .debug$S                   0000000140000000     sfml-graphics-d:sfml-graphics-d-2.dll
 0003:fffbe000       $unwind$??$_Maklocstr@D@std@@YAPEADPEBDPEADAEBU_Cvtvec@@@Z 0000000140000000     window-game.obj
 0005:fffad000       $pdata$?__empty_global_delete@@YAXPEAX_K@Z 0000000140000000     container.obj
 0005:fffad000       $pdata$??$_Maklocstr@D@std@@YAPEADPEBDPEADAEBU_Cvtvec@@@Z 0000000140000000     window-game.obj
 0000:fffa2000       .debug$S                   0000000140000000     sfml-system-d:sfml-system-d-2.dll
 0000:fffa2000       .debug$S                   0000000140000000     sfml-graphics-d:sfml-graphics-d-2.dll
 0000:fffa2000       .debug$S                   0000000140000000     sfml-system-d:sfml-system-d-2.dll
 0000:fffa2000       .debug$S                   0000000140000000     sfml-graphics-d:sfml-graphics-d-2.dll
 0005:fffad000       $pdata$??0?$Vector2@M@sf@@QEAA@MM@Z 0000000140000000     player.obj
 0000:fffa2000       .debug$S                   0000000140000000     sfml-graphics-d:sfml-graphics-d-2.dll
 0003:fffbe000       $unwind$??0?$Vector2@M@sf@@QEAA@MM@Z 0000000140000000     player.obj
 0000:fffa2000       .debug$S                   0000000140000000     sfml-graphics-d:sfml-graphics-d-2.dll
 0005:fffad000       $pdata$??$_Getvals@_W@?$time_get@_WV?$istreambuf_iterator@_WU?$char_traits@_W@std@@@std@@@std@@IEAAX_WAEBV_Locinfo@1@@Z 0000000140000000     player.obj
 0000:fffa2000       .debug$S                   0000000140000000     kernel32:KERNEL32.dll
 0003:fffbe000       $unwind$??$_Getvals@_W@?$time_get@_WV?$istreambuf_iterator@_WU?$char_traits@_W@std@@@std@@@std@@IEAAX_WAEBV_Locinfo@1@@Z 0000000140000000     player.obj
 0000:fffa2000       .debug$S                   0000000140000000     kernel32:KERNEL32.dll
 0005:fffad000       $pdata$??$_Getvals@_W@?$time_get@DV?$istreambuf_iterator@DU?$char_traits@D@std@@@std@@@std@@IEAAX_WAEBV_Locinfo@1@@Z 0000000140000000     player.obj
 0000:fffa2000       .debug$S                   0000000140000000     kernel32:KERNEL32.dll
 0003:fffbe000       $unwind$??$_Getvals@_W@?$time_get@DV?$istreambuf_iterator@DU?$char_traits@D@std@@@std@@@std@@IEAAX_WAEBV_Locinfo@1@@Z 0000000140000000     player.obj
 0003:fffbe000       $unwind$?__empty_global_delete@@YAXPEAX@Z 0000000140000000     window-editor.obj
 0005:fffad000       $pdata$?_Maklocwcs@std@@YAPEA_WPEB_W@Z 0000000140000000     player.obj
 0005:fffad000       $pdata$?__empty_global_delete@@YAXPEAX@Z 0000000140000000     window-editor.obj
 0003:fffbe000       $unwind$?_Maklocwcs@std@@YAPEA_WPEB_W@Z 0000000140000000     player.obj
 0003:fffbe000       $unwind$?__empty_global_delete@@YAXPEAX_K@Z 0000000140000000     window-editor.obj
 0005:fffad000       $pdata$??$_Maklocstr@_W@std@@YAPEA_WPEBDPEA_WAEBU_Cvtvec@@@Z 0000000140000000     player.obj
 0005:fffad000       $pdata$?__empty_global_delete@@YAXPEAX_K@Z 0000000140000000     window-editor.obj
 0003:fffbe000       $unwind$??$_Maklocstr@_W@std@@YAPEA_WPEBDPEA_WAEBU_Cvtvec@@@Z 0000000140000000     player.obj
 0003:fffbe000       $unwind$wmemcpy            0000000140000000     window-editor.obj
 0003:fffbe000       $unwind$?allocate@?$allocator@U_Container_proxy@std@@@std@@QEAAPEAU_Container_proxy@2@_K@Z 0000000140000000     config.obj
 0005:fffad000       $pdata$wmemcpy             0000000140000000     window-editor.obj
 0003:fffbe000       ??$_Maklocstr@_W@std@@YAPEA_WPEBDPEA_WAEBU_Cvtvec@@@Z$rtcName$0 0000000140000000     window-editor.obj
 0000:fffa2000       .debug$S                   0000000140000000     kernel32:KERNEL32.dll
 0005:fffad000       $pdata$?dtor$0@?0???0?$basic_string@DU?$char_traits@D@std@@V?$allocator@D@2@@std@@QEAA@QEBD@Z@4HA 0000000140000000     config.obj
 0005:fffad000       $pdata$??$_Unfancy@D@std@@YAPEADPEAD@Z 0000000140000000     config.obj
 0000:fffa2000       .debug$S                   0000000140000000     kernel32:KERNEL32.dll
 0003:fffbe000       ?_Calculate_growth@?$basic_string@DU?$char_traits@D@std@@V?$allocator@D@2@@std@@QEBA_K_K@Z$rtcName$0 0000000140000000     config.obj
 0000:fffa2000       .debug$S                   0000000140000000     kernel32:KERNEL32.dll
 0003:fffbe000       $unwind$??$_Maklocstr@_W@std@@YAPEA_WPEBDPEA_WAEBU_Cvtvec@@@Z 0000000140000000     window-editor.obj
 0005:fffad000       $pdata$??$_Maklocstr@_W@std@@YAPEA_WPEBDPEA_WAEBU_Cvtvec@@@Z 0000000140000000     window-editor.obj
 0003:fffbe000       $unwind$?_Maklocwcs@std@@YAPEA_WPEB_W@Z 0000000140000000     window-editor.obj
 0003:fffbe000       ??$_Maklocstr@_W@std@@YAPEA_WPEBDPEA_WAEBU_Cvtvec@@@Z$rtcName$0 0000000140000000     player.obj
 0005:fffad000       $pdata$?_Maklocwcs@std@@YAPEA_WPEB_W@Z 0000000140000000     window-editor.obj
 0003:fffbe000       $unwind$??$_Getvals@_W@?$time_get@DV?$istreambuf_iterator@DU?$char_traits@D@std@@@std@@@std@@IEAAX_WAEBV_Locinfo@1@@Z 0000000140000000     window-editor.obj
 0005:fffad000       $pdata$??$_Getvals@_W@?$time_get@DV?$istreambuf_iterator@DU?$char_traits@D@std@@@std@@@std@@IEAAX_WAEBV_Locinfo@1@@Z 0000000140000000     window-editor.obj
 0003:fffbe000       $unwind$??$_Getvals@_W@?$time_get@_WV?$istreambuf_iterator@_WU?$char_traits@_W@std@@@std@@@std@@IEAAX_WAEBV_Locinfo@1@@Z 0000000140000000     window-editor.obj
 0005:fffad000       $pdata$??$_Getvals@_W@?$time_get@_WV?$istreambuf_iterator@_WU?$char_traits@_W@std@@@std@@@std@@IEAAX_WAEBV_Locinfo@1@@Z 0000000140000000     window-editor.obj
 0003:fffbe000       $unwind$??0?$Vector2@M@sf@@QEAA@MM@Z 0000000140000000     window-editor.obj
 0005:fffad000       $pdata$wmemcpy             0000000140000000     player.obj
 0005:fffad000       $pdata$??0?$Vector2@M@sf@@QEAA@MM@Z 0000000140000000     window-editor.obj
 0003:fffbe000       $unwind$wmemcpy            0000000140000000     player.obj
 0000:fffa2000       .debug$S                   0000000140000000     kernel32:KERNEL32.dll
 0005:fffad000       $pdata$?__empty_global_delete@@YAXPEAX_K@Z 0000000140000000     player.obj
 0000:fffa2000       .debug$S                   0000000140000000     kernel32:KERNEL32.dll
 0003:fffbe000       $unwind$?__empty_global_delete@@YAXPEAX_K@Z 0000000140000000     player.obj
 0000:fffa2000       .debug$S                   0000000140000000     kernel32:KERNEL32.dll
 0005:fffad000       $pdata$?__empty_global_delete@@YAXPEAX@Z 0000000140000000     player.obj
 0000:fffa2000       .debug$S                   0000000140000000     kernel32:KERNEL32.dll
 0003:fffbe000       $unwind$?__empty_global_delete@@YAXPEAX@Z 0000000140000000     player.obj
 0000:fffa2000       .debug$S                   0000000140000000     kernel32:KERNEL32.dll
 0005:fffad000       $pdata$?max_size@?$basic_string@DU?$char_traits@D@std@@V?$allocator@D@2@@std@@QEBA_KXZ 0000000140000000     config.obj
 0000:fffa2000       .debug$S                   0000000140000000     kernel32:KERNEL32.dll
 0000:fffa2000       .debug$S                   0000000140000000     kernel32:KERNEL32.dll
 0000:fffa2000       .debug$S                   0000000140000000     kernel32:KERNEL32.dll
 0000:fffa2000       .debug$S                   0000000140000000     kernel32:KERNEL32.dll
 0000:fffa2000       .debug$S                   0000000140000000     sfml-window-d:sfml-window-d-2.dll
 0003:fffbe000       $unwind$??$forward@AEBQEAD@std@@YAAEBQEADAEBQEAD@Z 0000000140000000     config.obj
 0003:fffbe000       $unwind$?max_size@?$basic_string@DU?$char_traits@D@std@@V?$allocator@D@2@@std@@QEBA_KXZ 0000000140000000     config.obj
 0005:fffad000       $pdata$??$forward@AEBQEAD@std@@YAAEBQEADAEBQEAD@Z 0000000140000000     config.obj
 0005:fffad000       $pdata$?assign@?$char_traits@D@std@@SAXAEADAEBD@Z 0000000140000000     config.obj
 0003:fffbe000       $unwind$??$_Allocate_manually_vector_aligned@U_Default_allocate_traits@std@@@std@@YAPEAX_K@Z 0000000140000000     config.obj
 0000:fffa2000       .debug$S                   0000000140000000     ucrtd:ucrtbased.dll
 0000:fffa2000       .debug$S                   0000000140000000     kernel32:KERNEL32.dll
 0005:fffad000       $pdata$??$_Maklocstr@D@std@@YAPEADPEBDPEADAEBU_Cvtvec@@@Z 0000000140000000     widget-game.obj
 0000:fffa2000       .debug$S                   0000000140000000     kernel32:KERNEL32.dll
 0005:fffad000       $pdata$?_Allocate@_Default_allocate_traits@std@@SAPEAX_K@Z 0000000140000000     config.obj
 0000:fffa2000       .debug$S                   0000000140000000     kernel32:KERNEL32.dll
 0003:fffbe000       $unwind$??$_Maklocstr@D@std@@YAPEADPEBDPEADAEBU_Cvtvec@@@Z 0000000140000000     widget-game.obj
 0000:fffa2000       .debug$S                   0000000140000000     ucrtd:ucrtbased.dll
 0000:fffa2000       .debug$S                   0000000140000000     ucrtd:ucrtbased.dll
 0000:fffa2000       .debug$S                   0000000140000000     ucrtd:ucrtbased.dll
 0005:fffad000       $pdata$??$_Maklocstr@D@std@@YAPEADPEBDPEADAEBU_Cvtvec@@@Z 0000000140000000     menu-window.obj
 0000:fffa2000       .debug$S                   0000000140000000     ucrtd:ucrtbased.dll
 0003:fffbe000       $unwind$??$_Maklocstr@D@std@@YAPEADPEBDPEADAEBU_Cvtvec@@@Z 0000000140000000     window-editor.obj
 0003:fffbe000       $cppxdata$??1?$basic_string@DU?$char_traits@D@std@@V?$allocator@D@2@@std@@QEAA@XZ 0000000140000000     config.obj
 0005:fffad000       $pdata$??$_Maklocstr@D@std@@YAPEADPEBDPEADAEBU_Cvtvec@@@Z 0000000140000000     window-editor.obj
 0003:fffbe000       $unwind$??$_Maklocstr@D@std@@YAPEADPEBDPEADAEBU_Cvtvec@@@Z 0000000140000000     menu-window.obj
 0000:fffa2000       .debug$S                   0000000140000000     ucrtd:ucrtbased.dll
 0000:fffa5000       __guard_fids_?pre_c_initialization@@YAHXZ 0000000140000000     MSVCRTD:exe_winmain.obj
 0003:fffbe000       $unwind$?_Adjust_manually_vector_aligned@std@@YAXAEAPEAXAEA_K@Z 0000000140000000     config.obj
 0000:fffa2000       .debug$S                   0000000140000000     ucrtd:ucrtbased.dll
 0000:fffa2000       .debug$S                   0000000140000000     ucrtd:ucrtbased.dll
 0005:fffad000       $pdata$??$_Allocate_manually_vector_aligned@U_Default_allocate_traits@std@@@std@@YAPEAX_K@Z 0000000140000000     config.obj
 0000:fffa2000       .debug$S                   0000000140000000     ucrtd:ucrtbased.dll
 0000:fffa2000       .debug$S                   0000000140000000     ucrtd:ucrtbased.dll
 0000:fffa2000       .debug$S                   0000000140000000     ucrtd:ucrtbased.dll
 0000:fffa2000       .debug$S                   0000000140000000     ucrtd:ucrtbased.dll
 0000:fffa2000       .debug$S                   0000000140000000     ucrtd:ucrtbased.dll
 0000:fffa2000       .debug$S                   0000000140000000     ucrtd:ucrtbased.dll
 0000:fffa2000       .debug$S                   0000000140000000     ucrtd:ucrtbased.dll
 0000:fffa2000       .debug$S                   0000000140000000     ucrtd:ucrtbased.dll
 0000:fffa2000       .debug$S                   0000000140000000     ucrtd:ucrtbased.dll
 0003:fffbe000       $ip2state$??1?$basic_string@DU?$char_traits@D@std@@V?$allocator@D@2@@std@@QEAA@XZ 0000000140000000     config.obj
 0000:fffa2000       .debug$S                   0000000140000000     ucrtd:ucrtbased.dll
 0000:fffa2000       .debug$S                   0000000140000000     ucrtd:ucrtbased.dll
 0000:fffa2000       .debug$S                   0000000140000000     ucrtd:ucrtbased.dll
 0000:fffa2000       .debug$S                   0000000140000000     ucrtd:ucrtbased.dll
 0000:fffa2000       .debug$S                   0000000140000000     ucrtd:ucrtbased.dll
 0003:fffbe000       $unwind$??$forward@U_Container_proxy@std@@@std@@YA$$QEAU_Container_proxy@0@AEAU10@@Z 0000000140000000     config.obj
 0000:fffa2000       .debug$S                   0000000140000000     ucrtd:ucrtbased.dll
 0000:fffa2000       .debug$S                   0000000140000000     ucrtd:ucrtbased.dll
 0005:fffad000       $pdata$??1?$_String_val@U?$_Simple_types@D@std@@@std@@QEAA@XZ 0000000140000000     config.obj
 0000:fffa2000       .debug$S                   0000000140000000     ucrtd:ucrtbased.dll
 0003:fffbe000       $unwind$??$_Maklocstr@_W@std@@YAPEA_WPEBDPEA_WAEBU_Cvtvec@@@Z 0000000140000000     container-moving.obj
 0000:fffa2000       .debug$S                   0000000140000000     ucrtd:ucrtbased.dll
 0005:fffad000       $pdata$??$_Deallocate@$0BA@$0A@@std@@YAXPEAX_K@Z 0000000140000000     config.obj
 0000:fffa2000       .debug$S                   0000000140000000     ucrtd:ucrtbased.dll
 0000:fffa2000       .debug$S                   0000000140000000     ucrtd:ucrtbased.dll
 0000:fffa2000       .debug$S                   0000000140000000     ucrtd:ucrtbased.dll
 0000:fffa2000       .debug$S                   0000000140000000     ucrtd:ucrtbased.dll
 0003:fffbe000       ?max_size@?$basic_string@DU?$char_traits@D@std@@V?$allocator@D@2@@std@@QEBA_KXZ$rtcName$0 0000000140000000     config.obj
 0000:fffa2000       .debug$S                   0000000140000000     ucrtd:ucrtbased.dll
 0005:fffad000       $pdata$??$forward@U_Container_proxy@std@@@std@@YA$$QEAU_Container_proxy@0@AEAU10@@Z 0000000140000000     config.obj
 0000:fffa2000       .debug$S                   0000000140000000     ucrtd:ucrtbased.dll
 0000:fffa2000       .debug$S                   0000000140000000     ucrtd:ucrtbased.dll
 0003:fffbe000       $ip2state$?end@?$_Tree@V?$_Tmap_traits@W4Object_Type@@PEBVGameObject@@U?$less@W4Object_Type@@@std@@V?$allocator@U?$pair@$$CBW4Object_Type@@PEBVGameObject@@@std@@@4@$0A@@std@@@std@@QEAA?AV?$_Tree_iterator@V?$_Tree_val@U?$_Tree_simple_types@U?$pair@$$CBW4Object_Type@@PEBVGameObject@@@std@@@std@@@std@@@2@XZ 0000000140000000     engine.obj
 0003:fffbe000       $cppxdata$?end@?$_Tree@V?$_Tmap_traits@W4Object_Type@@PEBVGameObject@@U?$less@W4Object_Type@@@std@@V?$allocator@U?$pair@$$CBW4Object_Type@@PEBVGameObject@@@std@@@4@$0A@@std@@@std@@QEAA?AV?$_Tree_iterator@V?$_Tree_val@U?$_Tree_simple_types@U?$pair@$$CBW4Object_Type@@PEBVGameObject@@@std@@@std@@@std@@@2@XZ 0000000140000000     engine.obj
 0005:fffad000       $pdata$?end@?$_Tree@V?$_Tmap_traits@W4Object_Type@@PEBVGameObject@@U?$less@W4Object_Type@@@std@@V?$allocator@U?$pair@$$CBW4Object_Type@@PEBVGameObject@@@std@@@4@$0A@@std@@@std@@QEAA?AV?$_Tree_iterator@V?$_Tree_val@U?$_Tree_simple_types@U?$pair@$$CBW4Object_Type@@PEBVGameObject@@@std@@@std@@@std@@@2@XZ 0000000140000000     engine.obj
 0003:fffbe000       $unwind$?end@?$_Tree@V?$_Tmap_traits@W4Object_Type@@PEBVGameObject@@U?$less@W4Object_Type@@@std@@V?$allocator@U?$pair@$$CBW4Object_Type@@PEBVGameObject@@@std@@@4@$0A@@std@@@std@@QEAA?AV?$_Tree_iterator@V?$_Tree_val@U?$_Tree_simple_types@U?$pair@$$CBW4Object_Type@@PEBVGameObject@@@std@@@std@@@std@@@2@XZ 0000000140000000     engine.obj
 0003:fffbe000       $ip2state$?begin@?$_Tree@V?$_Tmap_traits@W4Object_Type@@PEBVGameObject@@U?$less@W4Object_Type@@@std@@V?$allocator@U?$pair@$$CBW4Object_Type@@PEBVGameObject@@@std@@@4@$0A@@std@@@std@@QEAA?AV?$_Tree_iterator@V?$_Tree_val@U?$_Tree_simple_types@U?$pair@$$CBW4Object_Type@@PEBVGameObject@@@std@@@std@@@std@@@2@XZ 0000000140000000     engine.obj
 0003:fffbe000       $cppxdata$?begin@?$_Tree@V?$_Tmap_traits@W4Object_Type@@PEBVGameObject@@U?$less@W4Object_Type@@@std@@V?$allocator@U?$pair@$$CBW4Object_Type@@PEBVGameObject@@@std@@@4@$0A@@std@@@std@@QEAA?AV?$_Tree_iterator@V?$_Tree_val@U?$_Tree_simple_types@U?$pair@$$CBW4Object_Type@@PEBVGameObject@@@std@@@std@@@std@@@2@XZ 0000000140000000     engine.obj
 0005:fffad000       $pdata$?begin@?$_Tree@V?$_Tmap_traits@W4Object_Type@@PEBVGameObject@@U?$less@W4Object_Type@@@std@@V?$allocator@U?$pair@$$CBW4Object_Type@@PEBVGameObject@@@std@@@4@$0A@@std@@@std@@QEAA?AV?$_Tree_iterator@V?$_Tree_val@U?$_Tree_simple_types@U?$pair@$$CBW4Object_Type@@PEBVGameObject@@@std@@@std@@@std@@@2@XZ 0000000140000000     engine.obj
 0003:fffbe000       $unwind$?begin@?$_Tree@V?$_Tmap_traits@W4Object_Type@@PEBVGameObject@@U?$less@W4Object_Type@@@std@@V?$allocator@U?$pair@$$CBW4Object_Type@@PEBVGameObject@@@std@@@4@$0A@@std@@@std@@QEAA?AV?$_Tree_iterator@V?$_Tree_val@U?$_Tree_simple_types@U?$pair@$$CBW4Object_Type@@PEBVGameObject@@@std@@@std@@@std@@@2@XZ 0000000140000000     engine.obj
 0000:fffa2000       .debug$S                   0000000140000000     ucrtd:ucrtbased.dll
 0005:fffad000       $pdata$??$forward@PEAVButton@@@std@@YA$$QEAPEAVButton@@AEAPEAV1@@Z 0000000140000000     menu-window.obj
 0000:fffa2000       .debug$S                   0000000140000000     sfml-graphics-d:sfml-graphics-d-2.dll
 0005:fffad000       $pdata$wmemcpy             0000000140000000     window-game.obj
 0005:fffad000       $pdata$?_Maklocwcs@std@@YAPEA_WPEB_W@Z 0000000140000000     config.obj
 0003:fffbe000       $unwind$??$forward@PEAVButton@@@std@@YA$$QEAPEAVButton@@AEAPEAV1@@Z 0000000140000000     menu-window.obj
 0005:fffad000       $pdata$?_Get_second@?$_Compressed_pair@U?$less@W4Object_Type@@@std@@V?$_Compressed_pair@V?$allocator@U?$_Tree_node@U?$pair@$$CBW4Object_Type@@PEBVGameObject@@@std@@PEAX@std@@@std@@V?$_Tree_val@U?$_Tree_simple_types@U?$pair@$$CBW4Object_Type@@PEBVGameObject@@@std@@@std@@@2@$00@2@$00@std@@QEBAAEBV?$_Compressed_pair@V?$allocator@U?$_Tree_node@U?$pair@$$CBW4Object_Type@@PEBVGameObject@@@std@@PEAX@std@@@std@@V?$_Tree_val@U?$_Tree_simple_types@U?$pair@$$CBW4Object_Type@@PEBVGameObject@@@std@@@std@@@2@$00@2@XZ 0000000140000000     engine.obj
 0003:fffbe000       $unwind$?_Get_second@?$_Compressed_pair@U?$less@W4Object_Type@@@std@@V?$_Compressed_pair@V?$allocator@U?$_Tree_node@U?$pair@$$CBW4Object_Type@@PEBVGameObject@@@std@@PEAX@std@@@std@@V?$_Tree_val@U?$_Tree_simple_types@U?$pair@$$CBW4Object_Type@@PEBVGameObject@@@std@@@std@@@2@$00@2@$00@std@@QEBAAEBV?$_Compressed_pair@V?$allocator@U?$_Tree_node@U?$pair@$$CBW4Object_Type@@PEBVGameObject@@@std@@PEAX@std@@@std@@V?$_Tree_val@U?$_Tree_simple_types@U?$pair@$$CBW4Object_Type@@PEBVGameObject@@@std@@@std@@@2@$00@2@XZ 0000000140000000     engine.obj
 0005:fffad000       $pdata$?_Get_second@?$_Compressed_pair@U?$less@W4Object_Type@@@std@@V?$_Compressed_pair@V?$allocator@U?$_Tree_node@U?$pair@$$CBW4Object_Type@@PEBVGameObject@@@std@@PEAX@std@@@std@@V?$_Tree_val@U?$_Tree_simple_types@U?$pair@$$CBW4Object_Type@@PEBVGameObject@@@std@@@std@@@2@$00@2@$00@std@@QEAAAEAV?$_Compressed_pair@V?$allocator@U?$_Tree_node@U?$pair@$$CBW4Object_Type@@PEBVGameObject@@@std@@PEAX@std@@@std@@V?$_Tree_val@U?$_Tree_simple_types@U?$pair@$$CBW4Object_Type@@PEBVGameObject@@@std@@@std@@@2@$00@2@XZ 0000000140000000     engine.obj
 0003:fffbe000       $unwind$?_Get_second@?$_Compressed_pair@U?$less@W4Object_Type@@@std@@V?$_Compressed_pair@V?$allocator@U?$_Tree_node@U?$pair@$$CBW4Object_Type@@PEBVGameObject@@@std@@PEAX@std@@@std@@V?$_Tree_val@U?$_Tree_simple_types@U?$pair@$$CBW4Object_Type@@PEBVGameObject@@@std@@@std@@@2@$00@2@$00@std@@QEAAAEAV?$_Compressed_pair@V?$allocator@U?$_Tree_node@U?$pair@$$CBW4Object_Type@@PEBVGameObject@@@std@@PEAX@std@@@std@@V?$_Tree_val@U?$_Tree_simple_types@U?$pair@$$CBW4Object_Type@@PEBVGameObject@@@std@@@std@@@2@$00@2@XZ 0000000140000000     engine.obj
 0005:fffad000       $pdata$?_Get_second@?$_Compressed_pair@V?$allocator@U?$_Tree_node@U?$pair@$$CBW4Object_Type@@PEBVGameObject@@@std@@PEAX@std@@@std@@V?$_Tree_val@U?$_Tree_simple_types@U?$pair@$$CBW4Object_Type@@PEBVGameObject@@@std@@@std@@@2@$00@std@@QEBAAEBV?$_Tree_val@U?$_Tree_simple_types@U?$pair@$$CBW4Object_Type@@PEBVGameObject@@@std@@@std@@@2@XZ 0000000140000000     engine.obj
 0003:fffbe000       $unwind$?_Get_second@?$_Compressed_pair@V?$allocator@U?$_Tree_node@U?$pair@$$CBW4Object_Type@@PEBVGameObject@@@std@@PEAX@std@@@std@@V?$_Tree_val@U?$_Tree_simple_types@U?$pair@$$CBW4Object_Type@@PEBVGameObject@@@std@@@std@@@2@$00@std@@QEBAAEBV?$_Tree_val@U?$_Tree_simple_types@U?$pair@$$CBW4Object_Type@@PEBVGameObject@@@std@@@std@@@2@XZ 0000000140000000     engine.obj
 0005:fffad000       $pdata$?_Get_second@?$_Compressed_pair@V?$allocator@U?$_Tree_node@U?$pair@$$CBW4Object_Type@@PEBVGameObject@@@std@@PEAX@std@@@std@@V?$_Tree_val@U?$_Tree_simple_types@U?$pair@$$CBW4Object_Type@@PEBVGameObject@@@std@@@std@@@2@$00@std@@QEAAAEAV?$_Tree_val@U?$_Tree_simple_types@U?$pair@$$CBW4Object_Type@@PEBVGameObject@@@std@@@std@@@2@XZ 0000000140000000     engine.obj
 0003:fffbe000       $unwind$?_Get_second@?$_Compressed_pair@V?$allocator@U?$_Tree_node@U?$pair@$$CBW4Object_Type@@PEBVGameObject@@@std@@PEAX@std@@@std@@V?$_Tree_val@U?$_Tree_simple_types@U?$pair@$$CBW4Object_Type@@PEBVGameObject@@@std@@@std@@@2@$00@std@@QEAAAEAV?$_Tree_val@U?$_Tree_simple_types@U?$pair@$$CBW4Object_Type@@PEBVGameObject@@@std@@@std@@@2@XZ 0000000140000000     engine.obj
 0005:fffad000       $pdata$?_Get_first@?$_Compressed_pair@V?$allocator@U?$_Tree_node@U?$pair@$$CBW4Object_Type@@PEBVGameObject@@@std@@PEAX@std@@@std@@V?$_Tree_val@U?$_Tree_simple_types@U?$pair@$$CBW4Object_Type@@PEBVGameObject@@@std@@@std@@@2@$00@std@@QEAAAEAV?$allocator@U?$_Tree_node@U?$pair@$$CBW4Object_Type@@PEBVGameObject@@@std@@PEAX@std@@@2@XZ 0000000140000000     engine.obj
 0003:fffbe000       $unwind$?_Get_first@?$_Compressed_pair@V?$allocator@U?$_Tree_node@U?$pair@$$CBW4Object_Type@@PEBVGameObject@@@std@@PEAX@std@@@std@@V?$_Tree_val@U?$_Tree_simple_types@U?$pair@$$CBW4Object_Type@@PEBVGameObject@@@std@@@std@@@2@$00@std@@QEAAAEAV?$allocator@U?$_Tree_node@U?$pair@$$CBW4Object_Type@@PEBVGameObject@@@std@@PEAX@std@@@2@XZ 0000000140000000     engine.obj
 0003:fffbe000       $unwind$??1?$_String_val@U?$_Simple_types@D@std@@@std@@QEAA@XZ 0000000140000000     config.obj
 0003:fffbe000       $unwind$??$addressof@V?$_String_val@U?$_Simple_types@D@std@@@std@@@std@@YAPEAV?$_String_val@U?$_Simple_types@D@std@@@0@AEAV10@@Z 0000000140000000     config.obj
 0000:fffa2000       .debug$S                   0000000140000000     ucrtd:ucrtbased.dll
 0003:fffbe000       $unwind$?move@?$char_traits@D@std@@SAPEADQEADQEBD_K@Z 0000000140000000     config.obj
 0000:fffa2000       .debug$S                   0000000140000000     ucrtd:ucrtbased.dll
 0003:fffbe000       $unwind$?_Maklocwcs@std@@YAPEA_WPEB_W@Z 0000000140000000     config.obj
 0005:fffad000       $pdata$?copy@?$char_traits@D@std@@SAPEADQEADQEBD_K@Z 0000000140000000     config.obj
 0005:fffad000       $pdata$?_Rrotate@?$_Tree_val@U?$_Tree_simple_types@U?$pair@$$CBW4Object_Type@@PEBVGameObject@@@std@@@std@@@std@@QEAAXPEAU?$_Tree_node@U?$pair@$$CBW4Object_Type@@PEBVGameObject@@@std@@PEAX@2@@Z 0000000140000000     engine.obj
 0003:fffbe000       $unwind$?_Rrotate@?$_Tree_val@U?$_Tree_simple_types@U?$pair@$$CBW4Object_Type@@PEBVGameObject@@@std@@@std@@@std@@QEAAXPEAU?$_Tree_node@U?$pair@$$CBW4Object_Type@@PEBVGameObject@@@std@@PEAX@2@@Z 0000000140000000     engine.obj
 0005:fffad000       $pdata$?_Lrotate@?$_Tree_val@U?$_Tree_simple_types@U?$pair@$$CBW4Object_Type@@PEBVGameObject@@@std@@@std@@@std@@QEAAXPEAU?$_Tree_node@U?$pair@$$CBW4Object_Type@@PEBVGameObject@@@std@@PEAX@2@@Z 0000000140000000     engine.obj
 0003:fffbe000       $unwind$?_Lrotate@?$_Tree_val@U?$_Tree_simple_types@U?$pair@$$CBW4Object_Type@@PEBVGameObject@@@std@@@std@@@std@@QEAAXPEAU?$_Tree_node@U?$pair@$$CBW4Object_Type@@PEBVGameObject@@@std@@PEAX@2@@Z 0000000140000000     engine.obj
 0005:fffad000       $pdata$?_Rmost@?$_Tree_val@U?$_Tree_simple_types@U?$pair@$$CBW4Object_Type@@PEBVGameObject@@@std@@@std@@@std@@QEBAAEAPEAU?$_Tree_node@U?$pair@$$CBW4Object_Type@@PEBVGameObject@@@std@@PEAX@2@XZ 0000000140000000     engine.obj
 0003:fffbe000       $unwind$?_Rmost@?$_Tree_val@U?$_Tree_simple_types@U?$pair@$$CBW4Object_Type@@PEBVGameObject@@@std@@@std@@@std@@QEBAAEAPEAU?$_Tree_node@U?$pair@$$CBW4Object_Type@@PEBVGameObject@@@std@@PEAX@2@XZ 0000000140000000     engine.obj
 0005:fffad000       $pdata$?_Lmost@?$_Tree_val@U?$_Tree_simple_types@U?$pair@$$CBW4Object_Type@@PEBVGameObject@@@std@@@std@@@std@@QEBAAEAPEAU?$_Tree_node@U?$pair@$$CBW4Object_Type@@PEBVGameObject@@@std@@PEAX@2@XZ 0000000140000000     engine.obj
 0003:fffbe000       $unwind$?_Lmost@?$_Tree_val@U?$_Tree_simple_types@U?$pair@$$CBW4Object_Type@@PEBVGameObject@@@std@@@std@@@std@@QEBAAEAPEAU?$_Tree_node@U?$pair@$$CBW4Object_Type@@PEBVGameObject@@@std@@PEAX@2@XZ 0000000140000000     engine.obj
 0005:fffad000       $pdata$?_Root@?$_Tree_val@U?$_Tree_simple_types@U?$pair@$$CBW4Object_Type@@PEBVGameObject@@@std@@@std@@@std@@QEBAAEAPEAU?$_Tree_node@U?$pair@$$CBW4Object_Type@@PEBVGameObject@@@std@@PEAX@2@XZ 0000000140000000     engine.obj
 0003:fffbe000       $unwind$?_Root@?$_Tree_val@U?$_Tree_simple_types@U?$pair@$$CBW4Object_Type@@PEBVGameObject@@@std@@@std@@@std@@QEBAAEAPEAU?$_Tree_node@U?$pair@$$CBW4Object_Type@@PEBVGameObject@@@std@@PEAX@2@XZ 0000000140000000     engine.obj
 0005:fffad000       $pdata$?_Min@?$_Tree_val@U?$_Tree_simple_types@U?$pair@$$CBW4Object_Type@@PEBVGameObject@@@std@@@std@@@std@@SAPEAU?$_Tree_node@U?$pair@$$CBW4Object_Type@@PEBVGameObject@@@std@@PEAX@2@PEAU32@@Z 0000000140000000     engine.obj
 0003:fffbe000       $unwind$?_Min@?$_Tree_val@U?$_Tree_simple_types@U?$pair@$$CBW4Object_Type@@PEBVGameObject@@@std@@@std@@@std@@SAPEAU?$_Tree_node@U?$pair@$$CBW4Object_Type@@PEBVGameObject@@@std@@PEAX@2@PEAU32@@Z 0000000140000000     engine.obj
 0005:fffad000       $pdata$?_Max@?$_Tree_val@U?$_Tree_simple_types@U?$pair@$$CBW4Object_Type@@PEBVGameObject@@@std@@@std@@@std@@SAPEAU?$_Tree_node@U?$pair@$$CBW4Object_Type@@PEBVGameObject@@@std@@PEAX@2@PEAU32@@Z 0000000140000000     engine.obj
 0003:fffbe000       $unwind$?_Max@?$_Tree_val@U?$_Tree_simple_types@U?$pair@$$CBW4Object_Type@@PEBVGameObject@@@std@@@std@@@std@@SAPEAU?$_Tree_node@U?$pair@$$CBW4Object_Type@@PEBVGameObject@@@std@@PEAX@2@PEAU32@@Z 0000000140000000     engine.obj
 0005:fffad000       $pdata$??$_Maklocstr@_W@std@@YAPEA_WPEBDPEA_WAEBU_Cvtvec@@@Z 0000000140000000     container-moving.obj
 0000:fffa2000       .debug$S                   0000000140000000     ucrtd:ucrtbased.dll
 0005:fffad000       $pdata$?_Get_data@?$_Tree_comp_alloc@V?$_Tmap_traits@W4Object_Type@@PEBVGameObject@@U?$less@W4Object_Type@@@std@@V?$allocator@U?$pair@$$CBW4Object_Type@@PEBVGameObject@@@std@@@4@$0A@@std@@@std@@QEBAAEBV?$_Tree_val@U?$_Tree_simple_types@U?$pair@$$CBW4Object_Type@@PEBVGameObject@@@std@@@std@@@2@XZ 0000000140000000     engine.obj
 0003:fffbe000       $unwind$?_Get_data@?$_Tree_comp_alloc@V?$_Tmap_traits@W4Object_Type@@PEBVGameObject@@U?$less@W4Object_Type@@@std@@V?$allocator@U?$pair@$$CBW4Object_Type@@PEBVGameObject@@@std@@@4@$0A@@std@@@std@@QEBAAEBV?$_Tree_val@U?$_Tree_simple_types@U?$pair@$$CBW4Object_Type@@PEBVGameObject@@@std@@@std@@@2@XZ 0000000140000000     engine.obj
 0005:fffad000       $pdata$?_Get_data@?$_Tree_comp_alloc@V?$_Tmap_traits@W4Object_Type@@PEBVGameObject@@U?$less@W4Object_Type@@@std@@V?$allocator@U?$pair@$$CBW4Object_Type@@PEBVGameObject@@@std@@@4@$0A@@std@@@std@@QEAAAEAV?$_Tree_val@U?$_Tree_simple_types@U?$pair@$$CBW4Object_Type@@PEBVGameObject@@@std@@@std@@@2@XZ 0000000140000000     engine.obj
 0003:fffbe000       $unwind$?_Get_data@?$_Tree_comp_alloc@V?$_Tmap_traits@W4Object_Type@@PEBVGameObject@@U?$less@W4Object_Type@@@std@@V?$allocator@U?$pair@$$CBW4Object_Type@@PEBVGameObject@@@std@@@4@$0A@@std@@@std@@QEAAAEAV?$_Tree_val@U?$_Tree_simple_types@U?$pair@$$CBW4Object_Type@@PEBVGameObject@@@std@@@std@@@2@XZ 0000000140000000     engine.obj
 0005:fffad000       $pdata$?_Getal@?$_Tree_comp_alloc@V?$_Tmap_traits@W4Object_Type@@PEBVGameObject@@U?$less@W4Object_Type@@@std@@V?$allocator@U?$pair@$$CBW4Object_Type@@PEBVGameObject@@@std@@@4@$0A@@std@@@std@@QEAAAEAV?$allocator@U?$_Tree_node@U?$pair@$$CBW4Object_Type@@PEBVGameObject@@@std@@PEAX@std@@@2@XZ 0000000140000000     engine.obj
 0003:fffbe000       $unwind$?_Getal@?$_Tree_comp_alloc@V?$_Tmap_traits@W4Object_Type@@PEBVGameObject@@U?$less@W4Object_Type@@@std@@V?$allocator@U?$pair@$$CBW4Object_Type@@PEBVGameObject@@@std@@@4@$0A@@std@@@std@@QEAAAEAV?$allocator@U?$_Tree_node@U?$pair@$$CBW4Object_Type@@PEBVGameObject@@@std@@PEAX@std@@@2@XZ 0000000140000000     engine.obj
 0005:fffad000       $pdata$??$_Maklocstr@_W@std@@YAPEA_WPEBDPEA_WAEBU_Cvtvec@@@Z 0000000140000000     config.obj
 0003:fffbe000       $unwind$?copy@?$char_traits@D@std@@SAPEADQEADQEBD_K@Z 0000000140000000     config.obj
 0003:fffbe000       $unwind$?_Maklocwcs@std@@YAPEA_WPEB_W@Z 0000000140000000     container-moving.obj
 0000:fffa2000       .debug$S                   0000000140000000     ucrtd:ucrtbased.dll
 0005:fffad000       $pdata$?length@?$char_traits@D@std@@SA_KQEBD@Z 0000000140000000     config.obj
 0000:fffa2000       .debug$S                   0000000140000000     msvcprtd:MSVCP140D.dll
 0003:fffbe000       $unwind$?length@?$char_traits@D@std@@SA_KQEBD@Z 0000000140000000     config.obj
 0000:fffa2000       .debug$S                   0000000140000000     ucrtd:ucrtbased.dll
 0000:fffa2000       .debug$S                   0000000140000000     ucrtd:ucrtbased.dll
 0003:fffbe000       $unwind$??$_Maklocstr@_W@std@@YAPEA_WPEBDPEA_WAEBU_Cvtvec@@@Z 0000000140000000     config.obj
 0003:fffbe000       $unwind$wmemcpy            0000000140000000     window-game.obj
 0000:fffa5000       __guard_fids__             0000000140000000     MSVCRTD:throw_bad_alloc.obj
 0005:fffad000       $pdata$?__empty_global_delete@@YAXPEAX_K@Z 0000000140000000     window-game.obj
 0003:fffbe000       $unwind$?dtor$0@?0???0?$basic_string@DU?$char_traits@D@std@@V?$allocator@D@2@@std@@QEAA@QEBD@Z@4HA 0000000140000000     config.obj
 0005:fffad000       $pdata$?_Maklocwcs@std@@YAPEA_WPEB_W@Z 0000000140000000     container-moving.obj
 0003:fffbe000       $unwind$?__empty_global_delete@@YAXPEAX_K@Z 0000000140000000     window-game.obj
 0005:fffad000       $pdata$??0?$Vector2@M@sf@@QEAA@MM@Z 0000000140000000     widget-game.obj
 0005:fffad000       $pdata$wmemcpy             0000000140000000     config.obj
 0005:fffad000       $pdata$??1_Bxty@?$_String_val@U?$_Simple_types@D@std@@@std@@QEAA@XZ 0000000140000000     config.obj
 0000:fffa2000       .debug$S                   0000000140000000     ucrtd:ucrtbased.dll
 0003:fffbe000       $unwind$??0?$Vector2@M@sf@@QEAA@MM@Z 0000000140000000     widget-game.obj
 0003:fffbe000       $unwind$wmemcpy            0000000140000000     config.obj
 0005:fffad000       $pdata$?__empty_global_delete@@YAXPEAX@Z 0000000140000000     window-game.obj
 0000:fffa5000       __guard_fids__             0000000140000000     MSVCRTD:throw_bad_alloc.obj
 0005:fffad000       $pdata$??2@YAPEAX_KPEAX@Z  0000000140000000     config.obj
 0003:fffbe000       $unwind$??$_Getvals@_W@?$time_get@DV?$istreambuf_iterator@DU?$char_traits@D@std@@@std@@@std@@IEAAX_WAEBV_Locinfo@1@@Z 0000000140000000     container-moving.obj
 0000:fffa5000       __guard_fids__             0000000140000000     MSVCRTD:throw_bad_alloc.obj
 0003:fffbe000       $unwind$??2@YAPEAX_KPEAX@Z 0000000140000000     config.obj
 0000:fffa2000       .debug$S                   0000000140000000     ucrtd:ucrtbased.dll
 0005:fffad000       $pdata$?move@?$char_traits@D@std@@SAPEADQEADQEBD_K@Z 0000000140000000     config.obj
 0000:fffa2000       .debug$S                   0000000140000000     ucrtd:ucrtbased.dll
 0003:fffbe000       $unwind$?__empty_global_delete@@YAXPEAX@Z 0000000140000000     window-game.obj
 0005:fffad000       $pdata$??$_Getvals@_W@?$time_get@DV?$istreambuf_iterator@DU?$char_traits@D@std@@@std@@@std@@IEAAX_WAEBV_Locinfo@1@@Z 0000000140000000     container-moving.obj
 0003:fffbe000       $unwind$?assign@?$char_traits@D@std@@SAXAEADAEBD@Z 0000000140000000     config.obj
 0003:fffbe000       $unwind$??$_Getvals@_W@?$time_get@_WV?$istreambuf_iterator@_WU?$char_traits@_W@std@@@std@@@std@@IEAAX_WAEBV_Locinfo@1@@Z 0000000140000000     container-moving.obj
 0000:fffa2000       .debug$S                   0000000140000000     msvcprtd:MSVCP140D.dll
 0000:fffa2000       .debug$S                   0000000140000000     ucrtd:ucrtbased.dll
 0000:fffa2000       .debug$S                   0000000140000000     msvcprtd:MSVCP140D.dll
 0000:fffa2000       .debug$S                   0000000140000000     ucrtd:ucrtbased.dll
 0000:fffa2000       .debug$S                   0000000140000000     msvcprtd:MSVCP140D.dll
 0000:fffa2000       .debug$S                   0000000140000000     ucrtd:ucrtbased.dll
 0003:fffbe000       $unwind$??1_Bxty@?$_String_val@U?$_Simple_types@D@std@@@std@@QEAA@XZ 0000000140000000     config.obj
 0000:fffa2000       .debug$S                   0000000140000000     msvcprtd:MSVCP140D.dll
 0005:fffad000       $pdata$??$_Getvals@_W@?$time_get@_WV?$istreambuf_iterator@_WU?$char_traits@_W@std@@@std@@@std@@IEAAX_WAEBV_Locinfo@1@@Z 0000000140000000     container-moving.obj
 0005:fffad000       $pdata$?__empty_global_delete@@YAXPEAX_K@Z 0000000140000000     config.obj
 0005:fffad000       $pdata$?deallocate@?$_Default_allocator_traits@V?$allocator@U?$_Tree_node@U?$pair@$$CBW4Object_Type@@PEBVGameObject@@@std@@PEAX@std@@@std@@@std@@SAXAEAV?$allocator@U?$_Tree_node@U?$pair@$$CBW4Object_Type@@PEBVGameObject@@@std@@PEAX@std@@@2@QEAU?$_Tree_node@U?$pair@$$CBW4Object_Type@@PEBVGameObject@@@std@@PEAX@2@_K@Z 0000000140000000     engine.obj
 0003:fffbe000       $unwind$?deallocate@?$_Default_allocator_traits@V?$allocator@U?$_Tree_node@U?$pair@$$CBW4Object_Type@@PEBVGameObject@@@std@@PEAX@std@@@std@@@std@@SAXAEAV?$allocator@U?$_Tree_node@U?$pair@$$CBW4Object_Type@@PEBVGameObject@@@std@@PEAX@std@@@2@QEAU?$_Tree_node@U?$pair@$$CBW4Object_Type@@PEBVGameObject@@@std@@PEAX@2@_K@Z 0000000140000000     engine.obj
 0005:fffad000       $pdata$?allocate@?$allocator@U?$_Tree_node@U?$pair@$$CBW4Object_Type@@PEBVGameObject@@@std@@PEAX@std@@@std@@QEAAPEAU?$_Tree_node@U?$pair@$$CBW4Object_Type@@PEBVGameObject@@@std@@PEAX@2@_K@Z 0000000140000000     engine.obj
 0003:fffbe000       $unwind$?allocate@?$allocator@U?$_Tree_node@U?$pair@$$CBW4Object_Type@@PEBVGameObject@@@std@@PEAX@std@@@std@@QEAAPEAU?$_Tree_node@U?$pair@$$CBW4Object_Type@@PEBVGameObject@@@std@@PEAX@2@_K@Z 0000000140000000     engine.obj
 0005:fffad000       $pdata$?deallocate@?$allocator@U?$_Tree_node@U?$pair@$$CBW4Object_Type@@PEBVGameObject@@@std@@PEAX@std@@@std@@QEAAXQEAU?$_Tree_node@U?$pair@$$CBW4Object_Type@@PEBVGameObject@@@std@@PEAX@2@_K@Z 0000000140000000     engine.obj
 0003:fffbe000       $unwind$?deallocate@?$allocator@U?$_Tree_node@U?$pair@$$CBW4Object_Type@@PEBVGameObject@@@std@@PEAX@std@@@std@@QEAAXQEAU?$_Tree_node@U?$pair@$$CBW4Object_Type@@PEBVGameObject@@@std@@PEAX@2@_K@Z 0000000140000000     engine.obj
 0003:fffbe000       $unwind$??0?$Vector2@M@sf@@QEAA@MM@Z 0000000140000000     container-moving.obj
 0003:fffbe000       $unwind$?__empty_global_delete@@YAXPEAX_K@Z 0000000140000000     config.obj
 0005:fffad000       $pdata$??$_Getvals@_W@?$time_get@_WV?$istreambuf_iterator@_WU?$char_traits@_W@std@@@std@@@std@@IEAAX_WAEBV_Locinfo@1@@Z 0000000140000000     widget-game.obj
 0000:fffa2000       .debug$S                   0000000140000000     ucrtd:ucrtbased.dll
 0005:fffad000       $pdata$??0?$Vector2@M@sf@@QEAA@MM@Z 0000000140000000     engine.obj
 0003:fffbe000       $unwind$??0?$Vector2@M@sf@@QEAA@MM@Z 0000000140000000     engine.obj
 0005:fffad000       $pdata$??0?$Vector2@M@sf@@QEAA@MM@Z 0000000140000000     container-moving.obj
 0005:fffad000       $pdata$?_Getspace@?$_Func_class@XPEAVButton@@@std@@AEBAPEBXXZ 0000000140000000     menu-window.obj
 0005:fffad000       $pdata$??$_Getvals@_W@?$time_get@_WV?$istreambuf_iterator@_WU?$char_traits@_W@std@@@std@@@std@@IEAAX_WAEBV_Locinfo@1@@Z 0000000140000000     engine.obj
 0003:fffbe000       $unwind$??$_Getvals@_W@?$time_get@_WV?$istreambuf_iterator@_WU?$char_traits@_W@std@@@std@@@std@@IEAAX_WAEBV_Locinfo@1@@Z 0000000140000000     engine.obj
 0005:fffad000       $pdata$??$_Getvals@_W@?$time_get@DV?$istreambuf_iterator@DU?$char_traits@D@std@@@std@@@std@@IEAAX_WAEBV_Locinfo@1@@Z 0000000140000000     engine.obj
 0003:fffbe000       $unwind$??$_Getvals@_W@?$time_get@DV?$istreambuf_iterator@DU?$char_traits@D@std@@@std@@@std@@IEAAX_WAEBV_Locinfo@1@@Z 0000000140000000     engine.obj
 0005:fffad000       $pdata$?_Maklocwcs@std@@YAPEA_WPEB_W@Z 0000000140000000     engine.obj
 0003:fffbe000       $unwind$?_Maklocwcs@std@@YAPEA_WPEB_W@Z 0000000140000000     engine.obj
 0005:fffad000       $pdata$??$_Maklocstr@_W@std@@YAPEA_WPEBDPEA_WAEBU_Cvtvec@@@Z 0000000140000000     engine.obj
 0003:fffbe000       $unwind$??$_Maklocstr@_W@std@@YAPEA_WPEBDPEA_WAEBU_Cvtvec@@@Z 0000000140000000     engine.obj
 0005:fffad000       $pdata$??$destroy@PEAD@?$_Default_allocator_traits@V?$allocator@D@std@@@std@@SAXAEAV?$allocator@D@1@QEAPEAD@Z 0000000140000000     game-object.obj
 0003:fffbe000       ??$_Maklocstr@_W@std@@YAPEA_WPEBDPEA_WAEBU_Cvtvec@@@Z$rtcName$0 0000000140000000     widget.obj
 0003:fffbe000       $unwind$??$destroy@PEAD@?$_Default_allocator_traits@V?$allocator@D@std@@@std@@SAXAEAV?$allocator@D@1@QEAPEAD@Z 0000000140000000     game-object.obj
 0005:fffad000       $pdata$wmemcpy             0000000140000000     widget.obj
 0003:fffbe000       ??$_Maklocstr@_W@std@@YAPEA_WPEBDPEA_WAEBU_Cvtvec@@@Z$rtcName$0 0000000140000000     engine.obj
 0003:fffbe000       $unwind$?_Getspace@?$_Func_class@XPEAVButton@@@std@@AEBAPEBXXZ 0000000140000000     menu-window.obj
 0005:fffad000       $pdata$?_Getspace@?$_Func_class@XPEAVButton@@@std@@AEAAPEAXXZ 0000000140000000     menu-window.obj
 0005:fffad000       $pdata$??0_Bxty@?$_String_val@U?$_Simple_types@D@std@@@std@@QEAA@XZ 0000000140000000     config.obj
 0005:fffad000       $pdata$??$_Maklocstr@D@std@@YAPEADPEBDPEADAEBU_Cvtvec@@@Z 0000000140000000     window.obj
 0003:fffbe000       $unwind$?_Getspace@?$_Func_class@XPEAVButton@@@std@@AEAAPEAXXZ 0000000140000000     menu-window.obj
 0003:fffbe000       $unwind$??$_Maklocstr@D@std@@YAPEADPEBDPEADAEBU_Cvtvec@@@Z 0000000140000000     window.obj
 0005:fffad000       $pdata$?_Adjust_manually_vector_aligned@std@@YAXAEAPEAXAEA_K@Z 0000000140000000     config.obj
 0005:fffad000       $pdata$?_Set@?$_Func_class@XPEAVButton@@@std@@AEAAXPEAV?$_Func_base@XPEAVButton@@@2@@Z 0000000140000000     menu-window.obj
 0005:fffad000       $pdata$?_Adjust_manually_vector_aligned@std@@YAXAEAPEAXAEA_K@Z 0000000140000000     engine.obj
 0003:fffbe000       $unwind$?_Adjust_manually_vector_aligned@std@@YAXAEAPEAXAEA_K@Z 0000000140000000     engine.obj
 0005:fffad000       $pdata$?_Allocate@_Default_allocate_traits@std@@SAPEAX_K@Z 0000000140000000     engine.obj
 0003:fffbe000       $unwind$?_Allocate@_Default_allocate_traits@std@@SAPEAX_K@Z 0000000140000000     engine.obj
 0005:fffad000       $pdata$?max@?$numeric_limits@_J@std@@SA_JXZ 0000000140000000     engine.obj
 0003:fffbe000       $unwind$?max@?$numeric_limits@_J@std@@SA_JXZ 0000000140000000     engine.obj
 0003:fffbe000       $ip2state$?_Orphan_me@_Iterator_base12@std@@QEAAXXZ 0000000140000000     engine.obj
 0003:fffbe000       $cppxdata$?_Orphan_me@_Iterator_base12@std@@QEAAXXZ 0000000140000000     engine.obj
 0005:fffad000       $pdata$?_Orphan_me@_Iterator_base12@std@@QEAAXXZ 0000000140000000     engine.obj
 0003:fffbe000       $unwind$?_Orphan_me@_Iterator_base12@std@@QEAAXXZ 0000000140000000     engine.obj
 0003:fffbe000       $unwind$??$_Convert_size@_K@std@@YA_K_K@Z 0000000140000000     config.obj
 0003:fffbe000       $unwind$?_Set@?$_Func_class@XPEAVButton@@@std@@AEAAXPEAV?$_Func_base@XPEAVButton@@@2@@Z 0000000140000000     menu-window.obj
 0005:fffad000       $pdata$?_Getcont@_Iterator_base12@std@@QEBAPEBU_Container_base12@2@XZ 0000000140000000     engine.obj
 0003:fffbe000       $unwind$?_Getcont@_Iterator_base12@std@@QEBAPEBU_Container_base12@2@XZ 0000000140000000     engine.obj
 0003:fffbe000       $unwind$??$_Getvals@_W@?$time_get@_WV?$istreambuf_iterator@_WU?$char_traits@_W@std@@@std@@@std@@IEAAX_WAEBV_Locinfo@1@@Z 0000000140000000     widget-game.obj
 0005:fffad000       $pdata$?_Getimpl@?$_Func_class@XPEAVButton@@@std@@AEBAPEAV?$_Func_base@XPEAVButton@@@2@XZ 0000000140000000     menu-window.obj
 0003:fffbe000       $ip2state$?_Adopt@_Iterator_base12@std@@QEAAXPEBU_Container_base12@2@@Z 0000000140000000     engine.obj
 0005:fffad000       $pdata$??$addressof@PEAD@std@@YAPEAPEADAEAPEAD@Z 0000000140000000     game-object.obj
 0005:fffad000       $pdata$?_Adopt@_Iterator_base12@std@@QEAAXPEBU_Container_base12@2@@Z 0000000140000000     engine.obj
 0003:fffbe000       $unwind$?_Adopt@_Iterator_base12@std@@QEAAXPEBU_Container_base12@2@@Z 0000000140000000     engine.obj
 0003:fffbe000       $unwind$wmemcpy            0000000140000000     widget.obj
 0003:fffbe000       $unwind$??$addressof@PEAD@std@@YAPEAPEADAEAPEAD@Z 0000000140000000     game-object.obj
 0005:fffad000       $pdata$?__empty_global_delete@@YAXPEAX_K@Z 0000000140000000     widget.obj
 0003:fffbe000       ?_Adopt@_Iterator_base12@std@@QEAAXPEBU_Container_base12@2@@Z$rtcName$0 0000000140000000     engine.obj
 0003:fffbe000       $ip2state$??1_Iterator_base12@std@@QEAA@XZ 0000000140000000     engine.obj
 0005:fffad000       $pdata$??$?0$$V@?$_Compressed_pair@V?$allocator@D@std@@V?$_String_val@U?$_Simple_types@D@std@@@2@$00@std@@QEAA@U_Zero_then_variadic_args_t@1@@Z 0000000140000000     game-object.obj
 0005:fffad000       $pdata$??1_Iterator_base12@std@@QEAA@XZ 0000000140000000     engine.obj
 0003:fffbe000       $unwind$??1_Iterator_base12@std@@QEAA@XZ 0000000140000000     engine.obj
 0003:fffbe000       $unwind$?__empty_global_delete@@YAXPEAX_K@Z 0000000140000000     widget.obj
 0003:fffbe000       $unwind$??$?0$$V@?$_Compressed_pair@V?$allocator@D@std@@V?$_String_val@U?$_Simple_types@D@std@@@2@$00@std@@QEAA@U_Zero_then_variadic_args_t@1@@Z 0000000140000000     game-object.obj
 0003:fffbe000       ??1_Iterator_base12@std@@QEAA@XZ$rtcName$0 0000000140000000     engine.obj
 0003:fffbe000       $ip2state$??4_Iterator_base12@std@@QEAAAEAU01@AEBU01@@Z 0000000140000000     engine.obj
 0005:fffad000       $pdata$?__empty_global_delete@@YAXPEAX@Z 0000000140000000     widget.obj
 0005:fffad000       $pdata$??4_Iterator_base12@std@@QEAAAEAU01@AEBU01@@Z 0000000140000000     engine.obj
 0003:fffbe000       $unwind$??4_Iterator_base12@std@@QEAAAEAU01@AEBU01@@Z 0000000140000000     engine.obj
 0005:fffad000       $pdata$wmemcpy             0000000140000000     container-moving.obj
 0003:fffbe000       $unwind$?__empty_global_delete@@YAXPEAX@Z 0000000140000000     widget.obj
 0003:fffbe000       ??4_Iterator_base12@std@@QEAAAEAU01@AEBU01@@Z$rtcName$0 0000000140000000     engine.obj
 0005:fffad000       $pdata$??0_Iterator_base12@std@@QEAA@AEBU01@@Z 0000000140000000     engine.obj
 0003:fffbe000       $unwind$??0_Iterator_base12@std@@QEAA@AEBU01@@Z 0000000140000000     engine.obj
 0005:fffad000       $pdata$??0_Iterator_base12@std@@QEAA@XZ 0000000140000000     engine.obj
 0003:fffbe000       $unwind$??0_Iterator_base12@std@@QEAA@XZ 0000000140000000     engine.obj
 0003:fffbe000       $ip2state$?_Orphan_all@_Container_base12@std@@QEAAXXZ 0000000140000000     engine.obj
 0000:fffa2000       .debug$S                   0000000140000000     ucrtd:ucrtbased.dll
 0005:fffad000       $pdata$?_Orphan_all@_Container_base12@std@@QEAAXXZ 0000000140000000     engine.obj
 0003:fffbe000       $unwind$?_Orphan_all@_Container_base12@std@@QEAAXXZ 0000000140000000     engine.obj
 0005:fffad000       $pdata$?allocate@?$allocator@U_Container_proxy@std@@@std@@QEAAPEAU_Container_proxy@2@_K@Z 0000000140000000     config.obj
 0003:fffbe000       ??$_Maklocstr@_W@std@@YAPEA_WPEBDPEA_WAEBU_Cvtvec@@@Z$rtcName$0 0000000140000000     container-moving.obj
 0003:fffbe000       ?_Orphan_all@_Container_base12@std@@QEAAXXZ$rtcName$0 0000000140000000     engine.obj
 0005:fffad000       $pdata$??$_Convert_size@_K@std@@YA_K_K@Z 0000000140000000     config.obj
 0003:fffbe000       $unwind$?_Getimpl@?$_Func_class@XPEAVButton@@@std@@AEBAPEAV?$_Func_base@XPEAVButton@@@2@XZ 0000000140000000     menu-window.obj
 0005:fffad000       $pdata$??0_Container_base12@std@@QEAA@XZ 0000000140000000     engine.obj
 0003:fffbe000       $unwind$??0_Container_base12@std@@QEAA@XZ 0000000140000000     engine.obj
 0005:fffad000       $pdata$??0_Container_proxy@std@@QEAA@XZ 0000000140000000     engine.obj
 0003:fffbe000       $unwind$??0_Container_proxy@std@@QEAA@XZ 0000000140000000     engine.obj
 0005:fffad000       $pdata$wmemcpy             0000000140000000     engine.obj
 0003:fffbe000       $unwind$wmemcpy            0000000140000000     engine.obj
 0005:fffad000       $pdata$??2@YAPEAX_KPEAX@Z  0000000140000000     engine.obj
 0003:fffbe000       $unwind$??2@YAPEAX_KPEAX@Z 0000000140000000     engine.obj
 0005:fffad000       $pdata$?__empty_global_delete@@YAXPEAX_K@Z 0000000140000000     engine.obj
 0003:fffbe000       $unwind$?__empty_global_delete@@YAXPEAX_K@Z 0000000140000000     engine.obj
 0005:fffad000       $pdata$?__empty_global_delete@@YAXPEAX@Z 0000000140000000     engine.obj
 0003:fffbe000       $unwind$?__empty_global_delete@@YAXPEAX@Z 0000000140000000     engine.obj
 0005:fffad000       $pdata$?_Local@?$_Func_class@XPEAVButton@@@std@@AEBA_NXZ 0000000140000000     menu-window.obj
 0003:fffbe000       $unwind$?_Local@?$_Func_class@XPEAVButton@@@std@@AEBA_NXZ 0000000140000000     menu-window.obj
 0000:fffa2000       .debug$S                   0000000140000000     vcruntimed:VCRUNTIME140D.dll
 0005:fffad000       $pdata$?_Tidy@?$_Func_class@XPEAVButton@@@std@@IEAAXXZ 0000000140000000     menu-window.obj
 0003:fffbe000       $unwind$?_Tidy@?$_Func_class@XPEAVButton@@@std@@IEAAXXZ 0000000140000000     menu-window.obj
 0005:fffad000       $pdata$?_Empty@?$_Func_class@XPEAVButton@@@std@@IEBA_NXZ 0000000140000000     menu-window.obj
 0003:fffbe000       $unwind$?_Empty@?$_Func_class@XPEAVButton@@@std@@IEBA_NXZ 0000000140000000     menu-window.obj
 0000:fffa2000       .debug$S                   0000000140000000     vcruntimed:VCRUNTIME140D.dll
 0005:fffad000       $pdata$??1?$_Func_class@XPEAVButton@@@std@@QEAA@XZ 0000000140000000     menu-window.obj
 0000:fffa2000       .debug$S                   0000000140000000     vcruntimed:VCRUNTIME140D.dll
 0003:fffbe000       $unwind$??1?$_Func_class@XPEAVButton@@@std@@QEAA@XZ 0000000140000000     menu-window.obj
 0000:fffa2000       .debug$S                   0000000140000000     vcruntimed:VCRUNTIME140D.dll
 0005:fffad000       $pdata$??0?$_Func_class@XPEAVButton@@@std@@QEAA@XZ 0000000140000000     menu-window.obj
 0000:fffa2000       .debug$S                   0000000140000000     vcruntimed:VCRUNTIME140D.dll
 0003:fffbe000       $unwind$??0?$_Func_class@XPEAVButton@@@std@@QEAA@XZ 0000000140000000     menu-window.obj
 0005:fffad000       $pdata$??0?$Vector2@M@sf@@QEAA@MM@Z 0000000140000000     menu-window.obj
 0003:fffbe000       $unwind$??0?$Vector2@M@sf@@QEAA@MM@Z 0000000140000000     menu-window.obj
 0005:fffad000       $pdata$??0?$Vector2@M@sf@@QEAA@XZ 0000000140000000     menu-window.obj
 0000:fffa2000       .debug$S                   0000000140000000     vcruntimed:VCRUNTIME140D.dll
 0003:fffbe000       $unwind$??0?$Vector2@M@sf@@QEAA@XZ 0000000140000000     menu-window.obj
 0005:fffad000       $pdata$??$_Getvals@_W@?$time_get@_WV?$istreambuf_iterator@_WU?$char_traits@_W@std@@@std@@@std@@IEAAX_WAEBV_Locinfo@1@@Z 0000000140000000     menu-window.obj
 0003:fffbe000       $unwind$??$_Getvals@_W@?$time_get@_WV?$istreambuf_iterator@_WU?$char_traits@_W@std@@@std@@@std@@IEAAX_WAEBV_Locinfo@1@@Z 0000000140000000     menu-window.obj
 0005:fffad000       $pdata$??$_Getvals@_W@?$time_get@DV?$istreambuf_iterator@DU?$char_traits@D@std@@@std@@@std@@IEAAX_WAEBV_Locinfo@1@@Z 0000000140000000     menu-window.obj
 0003:fffbe000       $unwind$??$_Getvals@_W@?$time_get@DV?$istreambuf_iterator@DU?$char_traits@D@std@@@std@@@std@@IEAAX_WAEBV_Locinfo@1@@Z 0000000140000000     menu-window.obj
 0005:fffad000       $pdata$?_Maklocwcs@std@@YAPEA_WPEB_W@Z 0000000140000000     menu-window.obj
 0005:fffad000       $pdata$??$_Getvals@_W@?$time_get@_WV?$istreambuf_iterator@_WU?$char_traits@_W@std@@@std@@@std@@IEAAX_WAEBV_Locinfo@1@@Z 0000000140000000     window.obj
 0003:fffbe000       $unwind$?_Maklocwcs@std@@YAPEA_WPEB_W@Z 0000000140000000     menu-window.obj
 0003:fffbe000       $unwind$??$_Getvals@_W@?$time_get@_WV?$istreambuf_iterator@_WU?$char_traits@_W@std@@@std@@@std@@IEAAX_WAEBV_Locinfo@1@@Z 0000000140000000     window.obj
 0000:fffa2000       .debug$S                   0000000140000000     sfml-graphics-d:sfml-graphics-d-2.dll
 0005:fffad000       $pdata$?_Large_string_engaged@?$_String_val@U?$_Simple_types@D@std@@@std@@QEBA_NXZ 0000000140000000     game-object.obj
 0003:fffbe000       $unwind$?assign@?$basic_string@DU?$char_traits@D@std@@V?$allocator@D@2@@std@@QEAAAEAV12@QEBD_K@Z 0000000140000000     config.obj
 0005:fffad000       $pdata$??$_Maklocstr@_W@std@@YAPEA_WPEBDPEA_WAEBU_Cvtvec@@@Z 0000000140000000     menu-window.obj
 0005:fffad000       $pdata$??$addressof@V?$_String_val@U?$_Simple_types@D@std@@@std@@@std@@YAPEAV?$_String_val@U?$_Simple_types@D@std@@@0@AEAV10@@Z 0000000140000000     config.obj
 0003:fffbe004       ??$_Maklocstr@_W@std@@YAPEA_WPEBDPEA_WAEBU_Cvtvec@@@Z$rtcName$1 0000000140000004     widget-templates.obj
 0003:fffbe004       ??$_Maklocstr@_W@std@@YAPEA_WPEBDPEA_WAEBU_Cvtvec@@@Z$rtcName$1 0000000140000004     widget.obj
 0000:fffa5004       __guard_fids__             0000000140000004     MSVCRTD:exe_winmain.obj
 0003:fffbe004       ??$_Maklocstr@_W@std@@YAPEA_WPEBDPEA_WAEBU_Cvtvec@@@Z$rtcName$1 0000000140000004     game-object.obj
 0003:fffbe004       ??$_Maklocstr@_W@std@@YAPEA_WPEBDPEA_WAEBU_Cvtvec@@@Z$rtcName$1 0000000140000004     container.obj
 0003:fffbe004       ??$_Maklocstr@_W@std@@YAPEA_WPEBDPEA_WAEBU_Cvtvec@@@Z$rtcName$1 0000000140000004     container-moving.obj
 0003:fffbe004       ??$_Maklocstr@_W@std@@YAPEA_WPEBDPEA_WAEBU_Cvtvec@@@Z$rtcName$1 0000000140000004     window.obj
 0003:fffbe004       ??$_Maklocstr@_W@std@@YAPEA_WPEBDPEA_WAEBU_Cvtvec@@@Z$rtcName$1 0000000140000004     player.obj
 0003:fffbe004       ??$_Maklocstr@_W@std@@YAPEA_WPEBDPEA_WAEBU_Cvtvec@@@Z$rtcName$1 0000000140000004     widget-game.obj
 0003:fffbe004       ??$_Maklocstr@_W@std@@YAPEA_WPEBDPEA_WAEBU_Cvtvec@@@Z$rtcName$1 0000000140000004     tank.obj
 0003:fffbe004       ??$_Maklocstr@_W@std@@YAPEA_WPEBDPEA_WAEBU_Cvtvec@@@Z$rtcName$1 0000000140000004     config.obj
 0003:fffbe004       ??$_Maklocstr@_W@std@@YAPEA_WPEBDPEA_WAEBU_Cvtvec@@@Z$rtcName$1 0000000140000004     menu-window.obj
 0003:fffbe004       ??$_Maklocstr@_W@std@@YAPEA_WPEBDPEA_WAEBU_Cvtvec@@@Z$rtcName$1 0000000140000004     engine.obj
 0003:fffbe004       ??$_Maklocstr@_W@std@@YAPEA_WPEBDPEA_WAEBU_Cvtvec@@@Z$rtcName$1 0000000140000004     window-editor.obj
 0003:fffbe004       ??$_Maklocstr@_W@std@@YAPEA_WPEBDPEA_WAEBU_Cvtvec@@@Z$rtcName$1 0000000140000004     wall.obj
 0003:fffbe004       ??$_Maklocstr@_W@std@@YAPEA_WPEBDPEA_WAEBU_Cvtvec@@@Z$rtcName$1 0000000140000004     main.obj
 0003:fffbe004       ??$_Maklocstr@_W@std@@YAPEA_WPEBDPEA_WAEBU_Cvtvec@@@Z$rtcName$1 0000000140000004     window-game.obj
 0003:fffbe004       ??$_Maklocstr@_W@std@@YAPEA_WPEBDPEA_WAEBU_Cvtvec@@@Z$rtcName$1 0000000140000004     object.obj
 0003:fffbe008       ?_Adopt@_Iterator_base12@std@@QEAAXPEBU_Container_base12@2@@Z$rtcName$1 0000000140000008     engine.obj
 0000:fffa5008       __guard_fids__             0000000140000008     MSVCRTD:exe_winmain.obj
 0003:fffbe00c       ??$_Maklocstr@_W@std@@YAPEA_WPEBDPEA_WAEBU_Cvtvec@@@Z$rtcName$2 000000014000000c     window.obj
 0003:fffbe00c       ??$_Maklocstr@_W@std@@YAPEA_WPEBDPEA_WAEBU_Cvtvec@@@Z$rtcName$2 000000014000000c     container-moving.obj
 0003:fffbe00c       ??$_Maklocstr@_W@std@@YAPEA_WPEBDPEA_WAEBU_Cvtvec@@@Z$rtcName$2 000000014000000c     object.obj
 0003:fffbe00c       ??$_Maklocstr@_W@std@@YAPEA_WPEBDPEA_WAEBU_Cvtvec@@@Z$rtcName$2 000000014000000c     engine.obj
 0003:fffbe00c       ??$_Maklocstr@_W@std@@YAPEA_WPEBDPEA_WAEBU_Cvtvec@@@Z$rtcName$2 000000014000000c     player.obj
 0003:fffbe00c       ??$_Maklocstr@_W@std@@YAPEA_WPEBDPEA_WAEBU_Cvtvec@@@Z$rtcName$2 000000014000000c     config.obj
 0003:fffbe00c       ??$_Maklocstr@_W@std@@YAPEA_WPEBDPEA_WAEBU_Cvtvec@@@Z$rtcName$2 000000014000000c     window-game.obj
 0003:fffbe00c       ??$_Maklocstr@_W@std@@YAPEA_WPEBDPEA_WAEBU_Cvtvec@@@Z$rtcName$2 000000014000000c     wall.obj
 0003:fffbe00c       ??$_Maklocstr@_W@std@@YAPEA_WPEBDPEA_WAEBU_Cvtvec@@@Z$rtcName$2 000000014000000c     widget-templates.obj
 0003:fffbe00c       ??$_Maklocstr@_W@std@@YAPEA_WPEBDPEA_WAEBU_Cvtvec@@@Z$rtcName$2 000000014000000c     widget-game.obj
 0003:fffbe00c       ??$_Maklocstr@_W@std@@YAPEA_WPEBDPEA_WAEBU_Cvtvec@@@Z$rtcName$2 000000014000000c     container.obj
 0003:fffbe00c       ??$_Maklocstr@_W@std@@YAPEA_WPEBDPEA_WAEBU_Cvtvec@@@Z$rtcName$2 000000014000000c     menu-window.obj
 0003:fffbe00c       ??$_Maklocstr@_W@std@@YAPEA_WPEBDPEA_WAEBU_Cvtvec@@@Z$rtcName$2 000000014000000c     widget.obj
 0003:fffbe00c       ??$_Maklocstr@_W@std@@YAPEA_WPEBDPEA_WAEBU_Cvtvec@@@Z$rtcName$2 000000014000000c     game-object.obj
 0003:fffbe00c       ??$_Maklocstr@_W@std@@YAPEA_WPEBDPEA_WAEBU_Cvtvec@@@Z$rtcName$2 000000014000000c     main.obj
 0003:fffbe00c       ??$_Maklocstr@_W@std@@YAPEA_WPEBDPEA_WAEBU_Cvtvec@@@Z$rtcName$2 000000014000000c     tank.obj
 0003:fffbe00c       ??$_Maklocstr@_W@std@@YAPEA_WPEBDPEA_WAEBU_Cvtvec@@@Z$rtcName$2 000000014000000c     window-editor.obj
 0003:fffbe010       ?_Adopt@_Iterator_base12@std@@QEAAXPEBU_Container_base12@2@@Z$rtcVarDesc 0000000140000010     engine.obj
 0003:fffbe010       ?_Orphan_all@_Container_base12@std@@QEAAXXZ$rtcVarDesc 0000000140000010     config.obj
 0003:fffbe010       ??1_Iterator_base12@std@@QEAA@XZ$rtcVarDesc 0000000140000010     engine.obj
 0003:fffbe010       ?max_size@?$basic_string@DU?$char_traits@D@std@@V?$allocator@D@2@@std@@QEBA_KXZ$rtcVarDesc 0000000140000010     config.obj
 0003:fffbe010       ??4_Iterator_base12@std@@QEAAAEAU01@AEBU01@@Z$rtcVarDesc 0000000140000010     engine.obj
 0003:fffbe010       printf$rtcVarDesc          0000000140000010     game-object.obj
 0003:fffbe010       ?_Orphan_all@_Container_base12@std@@QEAAXXZ$rtcVarDesc 0000000140000010     engine.obj
 0003:fffbe010       ?_Orphan_all@_Container_base12@std@@QEAAXXZ$rtcVarDesc 0000000140000010     object.obj
 0003:fffbe010       ??$_Freenode0@V?$allocator@U?$_Tree_node@U?$pair@$$CBW4Object_Type@@PEBVGameObject@@@std@@PEAX@std@@@std@@@?$_Tree_node@U?$pair@$$CBW4Object_Type@@PEBVGameObject@@@std@@PEAX@std@@SAXAEAV?$allocator@U?$_Tree_node@U?$pair@$$CBW4Object_Type@@PEBVGameObject@@@std@@PEAX@std@@@1@PEAU01@@Z$rtcVarDesc 0000000140000010     engine.obj
 0003:fffbe010       ?_Calculate_growth@?$basic_string@DU?$char_traits@D@std@@V?$allocator@D@2@@std@@QEBA_K_K@Z$rtcVarDesc 0000000140000010     config.obj
 0003:fffbe010       ?max_size@?$basic_string@DU?$char_traits@D@std@@V?$allocator@D@2@@std@@QEBA_KXZ$rtcVarDesc 0000000140000010     object.obj
 0003:fffbe010       ?_Calculate_growth@?$basic_string@DU?$char_traits@D@std@@V?$allocator@D@2@@std@@QEBA_K_K@Z$rtcVarDesc 0000000140000010     object.obj
 0003:fffbe010       ?_Orphan_all@_Container_base12@std@@QEAAXXZ$rtcVarDesc 0000000140000010     game-object.obj
 0003:fffbe020       ?_Alloc_proxy@?$_String_alloc@U?$_String_base_types@DV?$allocator@D@std@@@std@@@std@@QEAAXXZ$rtcVarDesc 0000000140000020     config.obj
 0003:fffbe020       ??$_Maklocstr@_W@std@@YAPEA_WPEBDPEA_WAEBU_Cvtvec@@@Z$rtcVarDesc 0000000140000020     object.obj
 0003:fffbe020       ??$_Maklocstr@_W@std@@YAPEA_WPEBDPEA_WAEBU_Cvtvec@@@Z$rtcVarDesc 0000000140000020     wall.obj
 0003:fffbe020       ??$_Maklocstr@_W@std@@YAPEA_WPEBDPEA_WAEBU_Cvtvec@@@Z$rtcVarDesc 0000000140000020     widget-game.obj
 0003:fffbe020       ??$_Maklocstr@_W@std@@YAPEA_WPEBDPEA_WAEBU_Cvtvec@@@Z$rtcVarDesc 0000000140000020     window.obj
 0003:fffbe020       ??$_Maklocstr@_W@std@@YAPEA_WPEBDPEA_WAEBU_Cvtvec@@@Z$rtcVarDesc 0000000140000020     container.obj
 0003:fffbe020       ??$_Maklocstr@_W@std@@YAPEA_WPEBDPEA_WAEBU_Cvtvec@@@Z$rtcVarDesc 0000000140000020     widget-templates.obj
 0003:fffbe020       ?_Free_proxy@?$_String_alloc@U?$_String_base_types@DV?$allocator@D@std@@@std@@@std@@QEAAXXZ$rtcVarDesc 0000000140000020     object.obj
 0003:fffbe020       ??$_Maklocstr@_W@std@@YAPEA_WPEBDPEA_WAEBU_Cvtvec@@@Z$rtcVarDesc 0000000140000020     game-object.obj
 0003:fffbe020       ?_Alloc_proxy@?$_String_alloc@U?$_String_base_types@DV?$allocator@D@std@@@std@@@std@@QEAAXXZ$rtcVarDesc 0000000140000020     object.obj
 0003:fffbe020       ??$_Maklocstr@_W@std@@YAPEA_WPEBDPEA_WAEBU_Cvtvec@@@Z$rtcVarDesc 0000000140000020     config.obj
 0003:fffbe020       ??$_Maklocstr@_W@std@@YAPEA_WPEBDPEA_WAEBU_Cvtvec@@@Z$rtcVarDesc 0000000140000020     tank.obj
 0003:fffbe020       ?_Free_proxy@?$_String_alloc@U?$_String_base_types@DV?$allocator@D@std@@@std@@@std@@QEAAXXZ$rtcVarDesc 0000000140000020     game-object.obj
 0003:fffbe020       ??$_Maklocstr@_W@std@@YAPEA_WPEBDPEA_WAEBU_Cvtvec@@@Z$rtcVarDesc 0000000140000020     menu-window.obj
 0003:fffbe020       ??$_Maklocstr@_W@std@@YAPEA_WPEBDPEA_WAEBU_Cvtvec@@@Z$rtcVarDesc 0000000140000020     main.obj
 0003:fffbe020       ?_Alloc_proxy@?$_String_alloc@U?$_String_base_types@DV?$allocator@D@std@@@std@@@std@@QEAAXXZ$rtcVarDesc 0000000140000020     game-object.obj
 0003:fffbe020       ??$_Maklocstr@_W@std@@YAPEA_WPEBDPEA_WAEBU_Cvtvec@@@Z$rtcVarDesc 0000000140000020     player.obj
 0003:fffbe020       ??$_Maklocstr@_W@std@@YAPEA_WPEBDPEA_WAEBU_Cvtvec@@@Z$rtcVarDesc 0000000140000020     container-moving.obj
 0003:fffbe020       ??$_Maklocstr@_W@std@@YAPEA_WPEBDPEA_WAEBU_Cvtvec@@@Z$rtcVarDesc 0000000140000020     window-editor.obj
 0003:fffbe020       ??$_Maklocstr@_W@std@@YAPEA_WPEBDPEA_WAEBU_Cvtvec@@@Z$rtcVarDesc 0000000140000020     widget.obj
 0003:fffbe020       ?_Free_proxy@?$_String_alloc@U?$_String_base_types@DV?$allocator@D@std@@@std@@@std@@QEAAXXZ$rtcVarDesc 0000000140000020     config.obj
 0003:fffbe020       ??$_Maklocstr@_W@std@@YAPEA_WPEBDPEA_WAEBU_Cvtvec@@@Z$rtcVarDesc 0000000140000020     window-game.obj
 0003:fffbe020       ??$_Maklocstr@_W@std@@YAPEA_WPEBDPEA_WAEBU_Cvtvec@@@Z$rtcVarDesc 0000000140000020     engine.obj
 0003:fffbe050       ?_Calculate_growth@?$basic_string@DU?$char_traits@D@std@@V?$allocator@D@2@@std@@QEBA_K_K@Z$rtcFrameData 0000000140000050     object.obj
 0003:fffbe050       ?_Orphan_all@_Container_base12@std@@QEAAXXZ$rtcFrameData 0000000140000050     config.obj
 0003:fffbe050       ??4_Iterator_base12@std@@QEAAAEAU01@AEBU01@@Z$rtcFrameData 0000000140000050     engine.obj
 0003:fffbe050       ?_Orphan_all@_Container_base12@std@@QEAAXXZ$rtcFrameData 0000000140000050     engine.obj
 0003:fffbe050       printf$rtcFrameData        0000000140000050     game-object.obj
 0003:fffbe050       ??1_Iterator_base12@std@@QEAA@XZ$rtcFrameData 0000000140000050     engine.obj
 0003:fffbe050       ?_Orphan_all@_Container_base12@std@@QEAAXXZ$rtcFrameData 0000000140000050     game-object.obj
 0003:fffbe050       ??$_Freenode0@V?$allocator@U?$_Tree_node@U?$pair@$$CBW4Object_Type@@PEBVGameObject@@@std@@PEAX@std@@@std@@@?$_Tree_node@U?$pair@$$CBW4Object_Type@@PEBVGameObject@@@std@@PEAX@std@@SAXAEAV?$allocator@U?$_Tree_node@U?$pair@$$CBW4Object_Type@@PEBVGameObject@@@std@@PEAX@std@@@1@PEAU01@@Z$rtcFrameData 0000000140000050     engine.obj
 0003:fffbe050       ?max_size@?$basic_string@DU?$char_traits@D@std@@V?$allocator@D@2@@std@@QEBA_KXZ$rtcFrameData 0000000140000050     config.obj
 0003:fffbe050       ?_Calculate_growth@?$basic_string@DU?$char_traits@D@std@@V?$allocator@D@2@@std@@QEBA_K_K@Z$rtcFrameData 0000000140000050     config.obj
 0003:fffbe050       ?_Orphan_all@_Container_base12@std@@QEAAXXZ$rtcFrameData 0000000140000050     object.obj
 0003:fffbe050       ?max_size@?$basic_string@DU?$char_traits@D@std@@V?$allocator@D@2@@std@@QEBA_KXZ$rtcFrameData 0000000140000050     object.obj
 0003:fffbe060       $cppxdata$?_Orphan_all@_Container_base12@std@@QEAAXXZ 0000000140000060     config.obj
 0003:fffbe060       ?_Free_proxy@?$_String_alloc@U?$_String_base_types@DV?$allocator@D@std@@@std@@@std@@QEAAXXZ$rtcFrameData 0000000140000060     game-object.obj
 0003:fffbe060       ?_Alloc_proxy@?$_String_alloc@U?$_String_base_types@DV?$allocator@D@std@@@std@@@std@@QEAAXXZ$rtcFrameData 0000000140000060     game-object.obj
 0003:fffbe060       $cppxdata$??$_Freenode0@V?$allocator@U?$_Tree_node@U?$pair@$$CBW4Object_Type@@PEBVGameObject@@@std@@PEAX@std@@@std@@@?$_Tree_node@U?$pair@$$CBW4Object_Type@@PEBVGameObject@@@std@@PEAX@std@@SAXAEAV?$allocator@U?$_Tree_node@U?$pair@$$CBW4Object_Type@@PEBVGameObject@@@std@@PEAX@std@@@1@PEAU01@@Z 0000000140000060     engine.obj
 0003:fffbe060       $cppxdata$??1_Iterator_base12@std@@QEAA@XZ 0000000140000060     engine.obj
 0003:fffbe060       $cppxdata$?_Orphan_all@_Container_base12@std@@QEAAXXZ 0000000140000060     engine.obj
 0003:fffbe060       $cppxdata$??4_Iterator_base12@std@@QEAAAEAU01@AEBU01@@Z 0000000140000060     engine.obj
 0003:fffbe060       ?_Free_proxy@?$_String_alloc@U?$_String_base_types@DV?$allocator@D@std@@@std@@@std@@QEAAXXZ$rtcFrameData 0000000140000060     config.obj
 0003:fffbe060       $cppxdata$?_Orphan_all@_Container_base12@std@@QEAAXXZ 0000000140000060     object.obj
 0003:fffbe060       ?_Alloc_proxy@?$_String_alloc@U?$_String_base_types@DV?$allocator@D@std@@@std@@@std@@QEAAXXZ$rtcFrameData 0000000140000060     object.obj
 0003:fffbe060       ?_Free_proxy@?$_String_alloc@U?$_String_base_types@DV?$allocator@D@std@@@std@@@std@@QEAAXXZ$rtcFrameData 0000000140000060     object.obj
 0003:fffbe060       ?_Alloc_proxy@?$_String_alloc@U?$_String_base_types@DV?$allocator@D@std@@@std@@@std@@QEAAXXZ$rtcFrameData 0000000140000060     config.obj
 0003:fffbe060       $cppxdata$?_Orphan_all@_Container_base12@std@@QEAAXXZ 0000000140000060     game-object.obj
 0003:fffbe090       ?_Adopt@_Iterator_base12@std@@QEAAXPEBU_Container_base12@2@@Z$rtcFrameData 0000000140000090     engine.obj
 0003:fffbe0a0       $cppxdata$?_Adopt@_Iterator_base12@std@@QEAAXPEBU_Container_base12@2@@Z 00000001400000a0     engine.obj
 0003:fffbe0e0       ??$_Maklocstr@_W@std@@YAPEA_WPEBDPEA_WAEBU_Cvtvec@@@Z$rtcFrameData 00000001400000e0     object.obj
 0003:fffbe0e0       ??$_Maklocstr@_W@std@@YAPEA_WPEBDPEA_WAEBU_Cvtvec@@@Z$rtcFrameData 00000001400000e0     menu-window.obj
 0003:fffbe0e0       ??$_Maklocstr@_W@std@@YAPEA_WPEBDPEA_WAEBU_Cvtvec@@@Z$rtcFrameData 00000001400000e0     engine.obj
 0003:fffbe0e0       ??$_Maklocstr@_W@std@@YAPEA_WPEBDPEA_WAEBU_Cvtvec@@@Z$rtcFrameData 00000001400000e0     window-game.obj
 0003:fffbe0e0       ??$_Maklocstr@_W@std@@YAPEA_WPEBDPEA_WAEBU_Cvtvec@@@Z$rtcFrameData 00000001400000e0     main.obj
 0003:fffbe0e0       ??$_Maklocstr@_W@std@@YAPEA_WPEBDPEA_WAEBU_Cvtvec@@@Z$rtcFrameData 00000001400000e0     tank.obj
 0003:fffbe0e0       ??$_Maklocstr@_W@std@@YAPEA_WPEBDPEA_WAEBU_Cvtvec@@@Z$rtcFrameData 00000001400000e0     wall.obj
 0003:fffbe0e0       ??$_Maklocstr@_W@std@@YAPEA_WPEBDPEA_WAEBU_Cvtvec@@@Z$rtcFrameData 00000001400000e0     game-object.obj
 0003:fffbe0e0       ??$_Maklocstr@_W@std@@YAPEA_WPEBDPEA_WAEBU_Cvtvec@@@Z$rtcFrameData 00000001400000e0     config.obj
 0003:fffbe0e0       ??$_Maklocstr@_W@std@@YAPEA_WPEBDPEA_WAEBU_Cvtvec@@@Z$rtcFrameData 00000001400000e0     container-moving.obj
 0003:fffbe0e0       ??$_Maklocstr@_W@std@@YAPEA_WPEBDPEA_WAEBU_Cvtvec@@@Z$rtcFrameData 00000001400000e0     widget-game.obj
 0003:fffbe0e0       ??$_Maklocstr@_W@std@@YAPEA_WPEBDPEA_WAEBU_Cvtvec@@@Z$rtcFrameData 00000001400000e0     widget-templates.obj
 0003:fffbe0e0       ??$_Maklocstr@_W@std@@YAPEA_WPEBDPEA_WAEBU_Cvtvec@@@Z$rtcFrameData 00000001400000e0     window-editor.obj
 0003:fffbe0e0       ??$_Maklocstr@_W@std@@YAPEA_WPEBDPEA_WAEBU_Cvtvec@@@Z$rtcFrameData 00000001400000e0     widget.obj
 0003:fffbe0e0       ??$_Maklocstr@_W@std@@YAPEA_WPEBDPEA_WAEBU_Cvtvec@@@Z$rtcFrameData 00000001400000e0     container.obj
 0003:fffbe0e0       ??$_Maklocstr@_W@std@@YAPEA_WPEBDPEA_WAEBU_Cvtvec@@@Z$rtcFrameData 00000001400000e0     window.obj
 0003:fffbe0e0       ??$_Maklocstr@_W@std@@YAPEA_WPEBDPEA_WAEBU_Cvtvec@@@Z$rtcFrameData 00000001400000e0     player.obj
 0002:00002340       ??__Efont@@YAXXZ           0000000140016340 f   button.obj
 0002:00004ab0       ??$_Reallocate_for@V<lambda_66f57f934f28d61049862f64df852ff0>@@PEBD@?$basic_string@DU?$char_traits@D@std@@V?$allocator@D@2@@std@@QEAAAEAV01@_KV<lambda_66f57f934f28d61049862f64df852ff0>@@PEBD@Z 0000000140018ab0 f   button.obj
 0002:00005f70       ??R<lambda_66f57f934f28d61049862f64df852ff0>@@QEBAXQEAD_KQEBD@Z 0000000140019f70 f   button.obj
 0002:0000bbe0       ??$_Reallocate_for@V<lambda_66f57f934f28d61049862f64df852ff0>@@PEBD@?$basic_string@DU?$char_traits@D@std@@V?$allocator@D@2@@std@@QEAAAEAV01@_KV<lambda_66f57f934f28d61049862f64df852ff0>@@PEBD@Z 000000014001fbe0 f   config.obj
 0002:0000e3b0       ??R<lambda_66f57f934f28d61049862f64df852ff0>@@QEBAXQEAD_KQEBD@Z 00000001400223b0 f   config.obj
 0002:0001caf0       ??$?0AEBV<lambda_312b3f49165ee8dbe2e5837b3ce31c90>@@X@?$_Func_impl_no_alloc@V<lambda_312b3f49165ee8dbe2e5837b3ce31c90>@@XPEAVButton@@@std@@QEAA@AEBV<lambda_312b3f49165ee8dbe2e5837b3ce31c90>@@@Z 0000000140030af0 f   menu-window.obj
 0002:0001cb90       ??$?0AEBV<lambda_5f2a59844b8069354d5a17d44e450129>@@X@?$_Func_impl_no_alloc@V<lambda_5f2a59844b8069354d5a17d44e450129>@@XPEAVButton@@@std@@QEAA@AEBV<lambda_5f2a59844b8069354d5a17d44e450129>@@@Z 0000000140030b90 f   menu-window.obj
 0002:0001cc30       ??$?0AEBV<lambda_668a1179af56ef880bbabaf92a5d9839>@@X@?$_Func_impl_no_alloc@V<lambda_668a1179af56ef880bbabaf92a5d9839>@@XPEAVButton@@@std@@QEAA@AEBV<lambda_668a1179af56ef880bbabaf92a5d9839>@@@Z 0000000140030c30 f   menu-window.obj
 0002:0001ccd0       ??$?0V<lambda_312b3f49165ee8dbe2e5837b3ce31c90>@@X@?$_Func_impl_no_alloc@V<lambda_312b3f49165ee8dbe2e5837b3ce31c90>@@XPEAVButton@@@std@@QEAA@$$QEAV<lambda_312b3f49165ee8dbe2e5837b3ce31c90>@@@Z 0000000140030cd0 f   menu-window.obj
 0002:0001cd70       ??$?0V<lambda_312b3f49165ee8dbe2e5837b3ce31c90>@@X@?$function@$$A6AXPEAVButton@@@Z@std@@QEAA@V<lambda_312b3f49165ee8dbe2e5837b3ce31c90>@@@Z 0000000140030d70 f   menu-window.obj
 0002:0001ce10       ??$?0V<lambda_5f2a59844b8069354d5a17d44e450129>@@X@?$_Func_impl_no_alloc@V<lambda_5f2a59844b8069354d5a17d44e450129>@@XPEAVButton@@@std@@QEAA@$$QEAV<lambda_5f2a59844b8069354d5a17d44e450129>@@@Z 0000000140030e10 f   menu-window.obj
 0002:0001ceb0       ??$?0V<lambda_5f2a59844b8069354d5a17d44e450129>@@X@?$function@$$A6AXPEAVButton@@@Z@std@@QEAA@V<lambda_5f2a59844b8069354d5a17d44e450129>@@@Z 0000000140030eb0 f   menu-window.obj
 0002:0001cf50       ??$?0V<lambda_668a1179af56ef880bbabaf92a5d9839>@@X@?$_Func_impl_no_alloc@V<lambda_668a1179af56ef880bbabaf92a5d9839>@@XPEAVButton@@@std@@QEAA@$$QEAV<lambda_668a1179af56ef880bbabaf92a5d9839>@@@Z 0000000140030f50 f   menu-window.obj
 0002:0001cff0       ??$?0V<lambda_668a1179af56ef880bbabaf92a5d9839>@@X@?$function@$$A6AXPEAVButton@@@Z@std@@QEAA@V<lambda_668a1179af56ef880bbabaf92a5d9839>@@@Z 0000000140030ff0 f   menu-window.obj
 0002:0001d090       ??$_Call@AEAV<lambda_312b3f49165ee8dbe2e5837b3ce31c90>@@PEAVButton@@@?$_Invoker_ret@X$00@std@@SAXAEAV<lambda_312b3f49165ee8dbe2e5837b3ce31c90>@@$$QEAPEAVButton@@@Z 0000000140031090 f   menu-window.obj
 0002:0001d120       ??$_Call@AEAV<lambda_312b3f49165ee8dbe2e5837b3ce31c90>@@PEAVButton@@@_Invoker_functor@std@@SAXAEAV<lambda_312b3f49165ee8dbe2e5837b3ce31c90>@@$$QEAPEAVButton@@@Z 0000000140031120 f   menu-window.obj
 0002:0001d1b0       ??$_Call@AEAV<lambda_5f2a59844b8069354d5a17d44e450129>@@PEAVButton@@@?$_Invoker_ret@X$00@std@@SAXAEAV<lambda_5f2a59844b8069354d5a17d44e450129>@@$$QEAPEAVButton@@@Z 00000001400311b0 f   menu-window.obj
 0002:0001d240       ??$_Call@AEAV<lambda_5f2a59844b8069354d5a17d44e450129>@@PEAVButton@@@_Invoker_functor@std@@SAXAEAV<lambda_5f2a59844b8069354d5a17d44e450129>@@$$QEAPEAVButton@@@Z 0000000140031240 f   menu-window.obj
 0002:0001d2d0       ??$_Call@AEAV<lambda_668a1179af56ef880bbabaf92a5d9839>@@PEAVButton@@@?$_Invoker_ret@X$00@std@@SAXAEAV<lambda_668a1179af56ef880bbabaf92a5d9839>@@$$QEAPEAVButton@@@Z 00000001400312d0 f   menu-window.obj
 0002:0001d360       ??$_Call@AEAV<lambda_668a1179af56ef880bbabaf92a5d9839>@@PEAVButton@@@_Invoker_functor@std@@SAXAEAV<lambda_668a1179af56ef880bbabaf92a5d9839>@@$$QEAPEAVButton@@@Z 0000000140031360 f   menu-window.obj
 0002:0001d480       ??$_Reset@V<lambda_312b3f49165ee8dbe2e5837b3ce31c90>@@@?$_Func_class@XPEAVButton@@@std@@IEAAX$$QEAV<lambda_312b3f49165ee8dbe2e5837b3ce31c90>@@@Z 0000000140031480 f   menu-window.obj
 0002:0001d510       ??$_Reset@V<lambda_5f2a59844b8069354d5a17d44e450129>@@@?$_Func_class@XPEAVButton@@@std@@IEAAX$$QEAV<lambda_5f2a59844b8069354d5a17d44e450129>@@@Z 0000000140031510 f   menu-window.obj
 0002:0001d5a0       ??$_Reset@V<lambda_668a1179af56ef880bbabaf92a5d9839>@@@?$_Func_class@XPEAVButton@@@std@@IEAAX$$QEAV<lambda_668a1179af56ef880bbabaf92a5d9839>@@@Z 00000001400315a0 f   menu-window.obj
 0002:0001d630       ??$_Reset_impl@V?$_Func_impl_no_alloc@V<lambda_312b3f49165ee8dbe2e5837b3ce31c90>@@XPEAVButton@@@std@@V<lambda_312b3f49165ee8dbe2e5837b3ce31c90>@@@?$_Func_class@XPEAVButton@@@std@@IEAAX$$QEAV<lambda_312b3f49165ee8dbe2e5837b3ce31c90>@@U?$integral_constant@_N$0A@@1@@Z 0000000140031630 f   menu-window.obj
 0002:0001d6e0       ??$_Reset_impl@V?$_Func_impl_no_alloc@V<lambda_5f2a59844b8069354d5a17d44e450129>@@XPEAVButton@@@std@@V<lambda_5f2a59844b8069354d5a17d44e450129>@@@?$_Func_class@XPEAVButton@@@std@@IEAAX$$QEAV<lambda_5f2a59844b8069354d5a17d44e450129>@@U?$integral_constant@_N$0A@@1@@Z 00000001400316e0 f   menu-window.obj
 0002:0001d790       ??$_Reset_impl@V?$_Func_impl_no_alloc@V<lambda_668a1179af56ef880bbabaf92a5d9839>@@XPEAVButton@@@std@@V<lambda_668a1179af56ef880bbabaf92a5d9839>@@@?$_Func_class@XPEAVButton@@@std@@IEAAX$$QEAV<lambda_668a1179af56ef880bbabaf92a5d9839>@@U?$integral_constant@_N$0A@@1@@Z 0000000140031790 f   menu-window.obj
 0002:0001d840       ??$_Test_callable@V<lambda_312b3f49165ee8dbe2e5837b3ce31c90>@@@std@@YA_NAEBV<lambda_312b3f49165ee8dbe2e5837b3ce31c90>@@@Z 0000000140031840 f   menu-window.obj
 0002:0001d8b0       ??$_Test_callable@V<lambda_312b3f49165ee8dbe2e5837b3ce31c90>@@@std@@YA_NAEBV<lambda_312b3f49165ee8dbe2e5837b3ce31c90>@@U?$integral_constant@_N$0A@@0@@Z 00000001400318b0 f   menu-window.obj
 0002:0001d900       ??$_Test_callable@V<lambda_5f2a59844b8069354d5a17d44e450129>@@@std@@YA_NAEBV<lambda_5f2a59844b8069354d5a17d44e450129>@@@Z 0000000140031900 f   menu-window.obj
 0002:0001d970       ??$_Test_callable@V<lambda_5f2a59844b8069354d5a17d44e450129>@@@std@@YA_NAEBV<lambda_5f2a59844b8069354d5a17d44e450129>@@U?$integral_constant@_N$0A@@0@@Z 0000000140031970 f   menu-window.obj
 0002:0001d9c0       ??$_Test_callable@V<lambda_668a1179af56ef880bbabaf92a5d9839>@@@std@@YA_NAEBV<lambda_668a1179af56ef880bbabaf92a5d9839>@@@Z 00000001400319c0 f   menu-window.obj
 0002:0001da30       ??$_Test_callable@V<lambda_668a1179af56ef880bbabaf92a5d9839>@@@std@@YA_NAEBV<lambda_668a1179af56ef880bbabaf92a5d9839>@@U?$integral_constant@_N$0A@@0@@Z 0000000140031a30 f   menu-window.obj
 0002:0001da80       ??$addressof@$$CBV<lambda_312b3f49165ee8dbe2e5837b3ce31c90>@@@std@@YAPEBV<lambda_312b3f49165ee8dbe2e5837b3ce31c90>@@AEBV1@@Z 0000000140031a80 f   menu-window.obj
 0002:0001dad0       ??$addressof@$$CBV<lambda_5f2a59844b8069354d5a17d44e450129>@@@std@@YAPEBV<lambda_5f2a59844b8069354d5a17d44e450129>@@AEBV1@@Z 0000000140031ad0 f   menu-window.obj
 0002:0001db20       ??$addressof@$$CBV<lambda_668a1179af56ef880bbabaf92a5d9839>@@@std@@YAPEBV<lambda_668a1179af56ef880bbabaf92a5d9839>@@AEBV1@@Z 0000000140031b20 f   menu-window.obj
 0002:0001db70       ??$forward@AEAV<lambda_312b3f49165ee8dbe2e5837b3ce31c90>@@@std@@YAAEAV<lambda_312b3f49165ee8dbe2e5837b3ce31c90>@@AEAV1@@Z 0000000140031b70 f   menu-window.obj
 0002:0001dbc0       ??$forward@AEAV<lambda_5f2a59844b8069354d5a17d44e450129>@@@std@@YAAEAV<lambda_5f2a59844b8069354d5a17d44e450129>@@AEAV1@@Z 0000000140031bc0 f   menu-window.obj
 0002:0001dc10       ??$forward@AEAV<lambda_668a1179af56ef880bbabaf92a5d9839>@@@std@@YAAEAV<lambda_668a1179af56ef880bbabaf92a5d9839>@@AEAV1@@Z 0000000140031c10 f   menu-window.obj
 0002:0001dc60       ??$forward@AEBV<lambda_312b3f49165ee8dbe2e5837b3ce31c90>@@@std@@YAAEBV<lambda_312b3f49165ee8dbe2e5837b3ce31c90>@@AEBV1@@Z 0000000140031c60 f   menu-window.obj
 0002:0001dcb0       ??$forward@AEBV<lambda_5f2a59844b8069354d5a17d44e450129>@@@std@@YAAEBV<lambda_5f2a59844b8069354d5a17d44e450129>@@AEBV1@@Z 0000000140031cb0 f   menu-window.obj
 0002:0001dd00       ??$forward@AEBV<lambda_668a1179af56ef880bbabaf92a5d9839>@@@std@@YAAEBV<lambda_668a1179af56ef880bbabaf92a5d9839>@@AEBV1@@Z 0000000140031d00 f   menu-window.obj
 0002:0001dd50       ??$forward@V<lambda_312b3f49165ee8dbe2e5837b3ce31c90>@@@std@@YA$$QEAV<lambda_312b3f49165ee8dbe2e5837b3ce31c90>@@AEAV1@@Z 0000000140031d50 f   menu-window.obj
 0002:0001dda0       ??$forward@V<lambda_5f2a59844b8069354d5a17d44e450129>@@@std@@YA$$QEAV<lambda_5f2a59844b8069354d5a17d44e450129>@@AEAV1@@Z 0000000140031da0 f   menu-window.obj
 0002:0001ddf0       ??$forward@V<lambda_668a1179af56ef880bbabaf92a5d9839>@@@std@@YA$$QEAV<lambda_668a1179af56ef880bbabaf92a5d9839>@@AEAV1@@Z 0000000140031df0 f   menu-window.obj
 0002:0001de40       ??$invoke@AEAV<lambda_312b3f49165ee8dbe2e5837b3ce31c90>@@PEAVButton@@@std@@YAXAEAV<lambda_312b3f49165ee8dbe2e5837b3ce31c90>@@$$QEAPEAVButton@@@Z 0000000140031e40 f   menu-window.obj
 0002:0001ded0       ??$invoke@AEAV<lambda_5f2a59844b8069354d5a17d44e450129>@@PEAVButton@@@std@@YAXAEAV<lambda_5f2a59844b8069354d5a17d44e450129>@@$$QEAPEAVButton@@@Z 0000000140031ed0 f   menu-window.obj
 0002:0001df60       ??$invoke@AEAV<lambda_668a1179af56ef880bbabaf92a5d9839>@@PEAVButton@@@std@@YAXAEAV<lambda_668a1179af56ef880bbabaf92a5d9839>@@$$QEAPEAVButton@@@Z 0000000140031f60 f   menu-window.obj
 0002:0001dff0       ??$move@AEAV<lambda_312b3f49165ee8dbe2e5837b3ce31c90>@@@std@@YA$$QEAV<lambda_312b3f49165ee8dbe2e5837b3ce31c90>@@AEAV1@@Z 0000000140031ff0 f   menu-window.obj
 0002:0001e040       ??$move@AEAV<lambda_5f2a59844b8069354d5a17d44e450129>@@@std@@YA$$QEAV<lambda_5f2a59844b8069354d5a17d44e450129>@@AEAV1@@Z 0000000140032040 f   menu-window.obj
 0002:0001e090       ??$move@AEAV<lambda_668a1179af56ef880bbabaf92a5d9839>@@@std@@YA$$QEAV<lambda_668a1179af56ef880bbabaf92a5d9839>@@AEAV1@@Z 0000000140032090 f   menu-window.obj
 0002:0001e0e0       ??0<lambda_312b3f49165ee8dbe2e5837b3ce31c90>@@QEAA@QEAVMenuWindow@@@Z 00000001400320e0 f   menu-window.obj
 0002:0001e150       ??0<lambda_5f2a59844b8069354d5a17d44e450129>@@QEAA@QEAVMenuWindow@@@Z 0000000140032150 f   menu-window.obj
 0002:0001e1c0       ??0<lambda_668a1179af56ef880bbabaf92a5d9839>@@QEAA@QEAVMenuWindow@@@Z 00000001400321c0 f   menu-window.obj
 0002:0001ea30       ??R<lambda_312b3f49165ee8dbe2e5837b3ce31c90>@@QEBAXPEAVButton@@@Z 0000000140032a30 f   menu-window.obj
 0002:0001eaa0       ??R<lambda_5f2a59844b8069354d5a17d44e450129>@@QEBAXPEAVButton@@@Z 0000000140032aa0 f   menu-window.obj
 0002:0001eb10       ??R<lambda_668a1179af56ef880bbabaf92a5d9839>@@QEBAXPEAVButton@@@Z 0000000140032b10 f   menu-window.obj
 0002:0001ec10       ?_Clone@?$_Func_impl_no_alloc@V<lambda_312b3f49165ee8dbe2e5837b3ce31c90>@@XPEAVButton@@@std@@AEBAPEAV?$_Func_base@XPEAVButton@@@2@PEAXU?$integral_constant@_N$0A@@2@@Z 0000000140032c10 f   menu-window.obj
 0002:0001eca0       ?_Clone@?$_Func_impl_no_alloc@V<lambda_5f2a59844b8069354d5a17d44e450129>@@XPEAVButton@@@std@@AEBAPEAV?$_Func_base@XPEAVButton@@@2@PEAXU?$integral_constant@_N$0A@@2@@Z 0000000140032ca0 f   menu-window.obj
 0002:0001ed30       ?_Clone@?$_Func_impl_no_alloc@V<lambda_668a1179af56ef880bbabaf92a5d9839>@@XPEAVButton@@@std@@AEBAPEAV?$_Func_base@XPEAVButton@@@2@PEAXU?$integral_constant@_N$0A@@2@@Z 0000000140032d30 f   menu-window.obj
 0002:0001edc0       ?_Copy@?$_Func_impl_no_alloc@V<lambda_312b3f49165ee8dbe2e5837b3ce31c90>@@XPEAVButton@@@std@@EEBAPEAV?$_Func_base@XPEAVButton@@@2@PEAX@Z 0000000140032dc0 f   menu-window.obj
 0002:0001ee30       ?_Copy@?$_Func_impl_no_alloc@V<lambda_5f2a59844b8069354d5a17d44e450129>@@XPEAVButton@@@std@@EEBAPEAV?$_Func_base@XPEAVButton@@@2@PEAX@Z 0000000140032e30 f   menu-window.obj
 0002:0001eea0       ?_Copy@?$_Func_impl_no_alloc@V<lambda_668a1179af56ef880bbabaf92a5d9839>@@XPEAVButton@@@std@@EEBAPEAV?$_Func_base@XPEAVButton@@@2@PEAX@Z 0000000140032ea0 f   menu-window.obj
 0002:0001ef10       ?_Delete_this@?$_Func_impl_no_alloc@V<lambda_312b3f49165ee8dbe2e5837b3ce31c90>@@XPEAVButton@@@std@@EEAAX_N@Z 0000000140032f10 f   menu-window.obj
 0002:0001ef90       ?_Delete_this@?$_Func_impl_no_alloc@V<lambda_5f2a59844b8069354d5a17d44e450129>@@XPEAVButton@@@std@@EEAAX_N@Z 0000000140032f90 f   menu-window.obj
 0002:0001f010       ?_Delete_this@?$_Func_impl_no_alloc@V<lambda_668a1179af56ef880bbabaf92a5d9839>@@XPEAVButton@@@std@@EEAAX_N@Z 0000000140033010 f   menu-window.obj
 0002:0001f090       ?_Do_call@?$_Func_impl_no_alloc@V<lambda_312b3f49165ee8dbe2e5837b3ce31c90>@@XPEAVButton@@@std@@EEAAX$$QEAPEAVButton@@@Z 0000000140033090 f   menu-window.obj
 0002:0001f100       ?_Do_call@?$_Func_impl_no_alloc@V<lambda_5f2a59844b8069354d5a17d44e450129>@@XPEAVButton@@@std@@EEAAX$$QEAPEAVButton@@@Z 0000000140033100 f   menu-window.obj
 0002:0001f170       ?_Do_call@?$_Func_impl_no_alloc@V<lambda_668a1179af56ef880bbabaf92a5d9839>@@XPEAVButton@@@std@@EEAAX$$QEAPEAVButton@@@Z 0000000140033170 f   menu-window.obj
 0002:0001f1e0       ?_Get@?$_Func_impl_no_alloc@V<lambda_312b3f49165ee8dbe2e5837b3ce31c90>@@XPEAVButton@@@std@@EEBAPEBXXZ 00000001400331e0 f   menu-window.obj
 0002:0001f240       ?_Get@?$_Func_impl_no_alloc@V<lambda_5f2a59844b8069354d5a17d44e450129>@@XPEAVButton@@@std@@EEBAPEBXXZ 0000000140033240 f   menu-window.obj
 0002:0001f2a0       ?_Get@?$_Func_impl_no_alloc@V<lambda_668a1179af56ef880bbabaf92a5d9839>@@XPEAVButton@@@std@@EEBAPEBXXZ 00000001400332a0 f   menu-window.obj
 0002:0001f300       ?_Move@?$_Func_impl_no_alloc@V<lambda_312b3f49165ee8dbe2e5837b3ce31c90>@@XPEAVButton@@@std@@EEAAPEAV?$_Func_base@XPEAVButton@@@2@PEAX@Z 0000000140033300 f   menu-window.obj
 0002:0001f390       ?_Move@?$_Func_impl_no_alloc@V<lambda_5f2a59844b8069354d5a17d44e450129>@@XPEAVButton@@@std@@EEAAPEAV?$_Func_base@XPEAVButton@@@2@PEAX@Z 0000000140033390 f   menu-window.obj
 0002:0001f420       ?_Move@?$_Func_impl_no_alloc@V<lambda_668a1179af56ef880bbabaf92a5d9839>@@XPEAVButton@@@std@@EEAAPEAV?$_Func_base@XPEAVButton@@@2@PEAX@Z 0000000140033420 f   menu-window.obj
 0002:0001f4b0       ?_Target_type@?$_Func_impl_no_alloc@V<lambda_312b3f49165ee8dbe2e5837b3ce31c90>@@XPEAVButton@@@std@@EEBAAEBVtype_info@@XZ 00000001400334b0 f   menu-window.obj
 0002:0001f500       ?_Target_type@?$_Func_impl_no_alloc@V<lambda_5f2a59844b8069354d5a17d44e450129>@@XPEAVButton@@@std@@EEBAAEBVtype_info@@XZ 0000000140033500 f   menu-window.obj
 0002:0001f550       ?_Target_type@?$_Func_impl_no_alloc@V<lambda_668a1179af56ef880bbabaf92a5d9839>@@XPEAVButton@@@std@@EEBAAEBVtype_info@@XZ 0000000140033550 f   menu-window.obj
 0002:0001f810       ??$_Reallocate_for@V<lambda_66f57f934f28d61049862f64df852ff0>@@PEBD@?$basic_string@DU?$char_traits@D@std@@V?$allocator@D@2@@std@@QEAAAEAV01@_KV<lambda_66f57f934f28d61049862f64df852ff0>@@PEBD@Z 0000000140033810 f   object.obj
 0002:00020020       ??R<lambda_66f57f934f28d61049862f64df852ff0>@@QEBAXQEAD_KQEBD@Z 0000000140034020 f   object.obj
 0002:00022950       ?<lambda_invoker_cdecl>@<lambda_d959d1f5d5308bc9905e6be0a7d8cebe>@@CAPEAVWidget@@PEAV2@@Z 0000000140036950 f   window-editor.obj
 0002:00022bd0       ??B<lambda_d959d1f5d5308bc9905e6be0a7d8cebe>@@QEBAP6APEAVWidget@@PEAV1@@ZXZ 0000000140036bd0 f   window-editor.obj
 0002:00022c20       ??R<lambda_d959d1f5d5308bc9905e6be0a7d8cebe>@@QEBAPEAVWidget@@PEAV1@@Z 0000000140036c20 f   window-editor.obj
 0002:00023000       ?find_pe_section@@YAPEAU_IMAGE_SECTION_HEADER@@QEAE_K@Z 0000000140037000 f   MSVCRTD:utility.obj
 0002:00023120       ?is_potentially_valid_image_base@@YA_NQEAX@Z 0000000140037120 f   MSVCRTD:utility.obj
 0002:00023db0       $$000000                   0000000140037db0     MSVCRTD:_amdsecgs_.obj
 0002:00023e80       ?DebuggerProbe@@YA_NK@Z    0000000140037e80 f   MSVCRTD:_error_.obj
 0002:00023ed0       ?DebuggerRuntime@@YA_NKHPEAXPEB_W@Z 0000000140037ed0 f   MSVCRTD:_error_.obj
 0002:00024260       ?_getMemBlockDataString@@YAXPEAD0PEBD_K@Z 0000000140038260 f   MSVCRTD:_error_.obj
 0002:00024340       ?_strlen_priv@@YA_KPEBD@Z  0000000140038340 f   MSVCRTD:_error_.obj
 0002:00024360       ?failwithmessage@@YAXPEAXHHPEBD@Z 0000000140038360 f   MSVCRTD:_error_.obj
 0002:00024660       ?notify_debugger@@YAXAEBUtagEXCEPTION_VISUALCPP_DEBUG_INFO@@@Z 0000000140038660 f   MSVCRTD:_error_.obj
 0002:00024840       ?pre_c_initialization@@YAHXZ 0000000140038840 f   MSVCRTD:exe_winmain.obj
 0002:00024910       ?post_pgo_initialization@@YAHXZ 0000000140038910 f   MSVCRTD:exe_winmain.obj
 0002:00024930       ?pre_cpp_initialization@@YAXXZ 0000000140038930 f   MSVCRTD:exe_winmain.obj
 0002:00024950       ?__scrt_common_main@@YAHXZ 0000000140038950 f   MSVCRTD:exe_winmain.obj
 0002:00024970       ?__scrt_common_main_seh@@YAHXZ 0000000140038970 f   MSVCRTD:exe_winmain.obj
 0002:00024b70       ?invoke_main@@YAHXZ        0000000140038b70 f   MSVCRTD:exe_winmain.obj
 0002:00025ec0       capture_current_context    0000000140039ec0 f   MSVCRTD:gs_report.obj
 0002:00025f80       capture_previous_context   0000000140039f80 f   MSVCRTD:gs_report.obj
 0002:00026060       ?GetPdbDll@@YAPEAUHINSTANCE__@@XZ 000000014003a060 f   MSVCRTD:_pdblkup_.obj
 0002:00026200       ?GetPdbDllFromInstallPath@@YAPEAUHINSTANCE__@@XZ 000000014003a200 f   MSVCRTD:_pdblkup_.obj
 0002:00026560       ?GetPdbDllPathFromFilePath@@YAHPEB_WPEA_W_K@Z 000000014003a560 f   MSVCRTD:_pdblkup_.obj
 0002:00026b70       __get_entropy              000000014003ab70 f   MSVCRTD:gs_support.obj
 0002:000289e0       $$000000                   000000014003c9e0     MSVCRTD:_guard_dispatch_.obj
 0002:00029a00       ?dtor$0@?0???0?$_String_alloc@U?$_String_base_types@DV?$allocator@D@std@@@std@@@std@@QEAA@XZ@4HA 000000014003da00 f   button.obj
 0002:00029a30       ?dtor$0@?0???0?$basic_string@DU?$char_traits@D@std@@V?$allocator@D@2@@std@@QEAA@QEBD@Z@4HA 000000014003da30 f   button.obj
 0002:00029a60       ?dtor$0@?0???0?$function@$$A6AXPEAVButton@@@Z@std@@QEAA@AEBV01@@Z@4HA 000000014003da60 f   button.obj
 0002:00029a90       ?dtor$0@?0???0Button@@QEAA@AEBV?$Vector2@M@sf@@0@Z@4HA 000000014003da90 f   button.obj
 0002:00029ac0       ?dtor$1@?0???0Button@@QEAA@AEBV?$Vector2@M@sf@@0@Z@4HA 000000014003dac0 f   button.obj
 0002:00029b00       ?dtor$2@?0???0Button@@QEAA@AEBV?$Vector2@M@sf@@0@Z@4HA 000000014003db00 f   button.obj
 0002:00029b40       ?dtor$3@?0???0Button@@QEAA@AEBV?$Vector2@M@sf@@0@Z@4HA 000000014003db40 f   button.obj
 0002:00029b70       ?dtor$0@?0??SetOnClickedListener@Button@@QEAAXV?$function@$$A6AXPEAVButton@@@Z@std@@@Z@4HA 000000014003db70 f   button.obj
 0002:00029ba0       ?dtor$0@?0??SetText@Button@@QEAAXPEB_W@Z@4HA 000000014003dba0 f   button.obj
 0002:00029be0       ?dtor$0@?0???$?0AEBV?$allocator@D@std@@X@?$_String_alloc@U?$_String_base_types@DV?$allocator@D@std@@@std@@@std@@QEAA@AEBV?$allocator@D@1@@Z@4HA 000000014003dbe0 f   config.obj
 0002:00029c10       ?catch$0@?0???$_Buynode@AEBUpiecewise_construct_t@std@@V?$tuple@$$QEAW4Object_Type@@@2@V?$tuple@$$V@2@@?$_Tree_comp_alloc@V?$_Tmap_traits@W4Object_Type@@PEBVGameObject@@U?$less@W4Object_Type@@@std@@V?$allocator@U?$pair@$$CBW4Object_Type@@PEBVGameObject@@@std@@@4@$0A@@std@@@std@@QEAAPEAU?$_Tree_node@U?$pair@$$CBW4Object_Type@@PEBVGameObject@@@std@@PEAX@1@AEBUpiecewise_construct_t@1@$$QEAV?$tuple@$$QEAW4Object_Type@@@1@$$QEAV?$tuple@$$V@1@@Z@4HA 000000014003dc10 f   config.obj
 0002:00029c24       __catch$??$_Buynode@AEBUpiecewise_construct_t@std@@V?$tuple@$$QEAW4Object_Type@@@2@V?$tuple@$$V@2@@?$_Tree_comp_alloc@V?$_Tmap_traits@W4Object_Type@@PEBVGameObject@@U?$less@W4Object_Type@@@std@@V?$allocator@U?$pair@$$CBW4Object_Type@@PEBVGameObject@@@std@@@4@$0A@@std@@@std@@QEAAPEAU?$_Tree_node@U?$pair@$$CBW4Object_Type@@PEBVGameObject@@@std@@PEAX@1@AEBUpiecewise_construct_t@1@$$QEAV?$tuple@$$QEAW4Object_Type@@@1@$$QEAV?$tuple@$$V@1@@Z$0 000000014003dc24 f   config.obj
 0002:00029c60       ?catch$10@?0???$_Insert_hint@AEAU?$pair@$$CBW4Object_Type@@PEBVGameObject@@@std@@PEAU?$_Tree_node@U?$pair@$$CBW4Object_Type@@PEBVGameObject@@@std@@PEAX@2@@?$_Tree@V?$_Tmap_traits@W4Object_Type@@PEBVGameObject@@U?$less@W4Object_Type@@@std@@V?$allocator@U?$pair@$$CBW4Object_Type@@PEBVGameObject@@@std@@@4@$0A@@std@@@std@@IEAA?AV?$_Tree_iterator@V?$_Tree_val@U?$_Tree_simple_types@U?$pair@$$CBW4Object_Type@@PEBVGameObject@@@std@@@std@@@std@@@1@V?$_Tree_const_iterator@V?$_Tree_val@U?$_Tree_simple_types@U?$pair@$$CBW4Object_Type@@PEBVGameObject@@@std@@@std@@@std@@@1@AEAU?$pair@$$CBW4Object_Type@@PEBVGameObject@@@1@PEAU?$_Tree_node@U?$pair@$$CBW4Object_Type@@PEBVGameObject@@@std@@PEAX@1@@Z@4HA 000000014003dc60 f   config.obj
 0002:00029c74       __catch$??$_Insert_hint@AEAU?$pair@$$CBW4Object_Type@@PEBVGameObject@@@std@@PEAU?$_Tree_node@U?$pair@$$CBW4Object_Type@@PEBVGameObject@@@std@@PEAX@2@@?$_Tree@V?$_Tmap_traits@W4Object_Type@@PEBVGameObject@@U?$less@W4Object_Type@@@std@@V?$allocator@U?$pair@$$CBW4Object_Type@@PEBVGameObject@@@std@@@4@$0A@@std@@@std@@IEAA?AV?$_Tree_iterator@V?$_Tree_val@U?$_Tree_simple_types@U?$pair@$$CBW4Object_Type@@PEBVGameObject@@@std@@@std@@@std@@@1@V?$_Tree_const_iterator@V?$_Tree_val@U?$_Tree_simple_types@U?$pair@$$CBW4Object_Type@@PEBVGameObject@@@std@@@std@@@std@@@1@AEAU?$pair@$$CBW4Object_Type@@PEBVGameObject@@@1@PEAU?$_Tree_node@U?$pair@$$CBW4Object_Type@@PEBVGameObject@@@std@@PEAX@1@@Z$0 000000014003dc74 f   config.obj
 0002:00029cb0       ?dtor$0@?0???$_Insert_hint@AEAU?$pair@$$CBW4Object_Type@@PEBVGameObject@@@std@@PEAU?$_Tree_node@U?$pair@$$CBW4Object_Type@@PEBVGameObject@@@std@@PEAX@2@@?$_Tree@V?$_Tmap_traits@W4Object_Type@@PEBVGameObject@@U?$less@W4Object_Type@@@std@@V?$allocator@U?$pair@$$CBW4Object_Type@@PEBVGameObject@@@std@@@4@$0A@@std@@@std@@IEAA?AV?$_Tree_iterator@V?$_Tree_val@U?$_Tree_simple_types@U?$pair@$$CBW4Object_Type@@PEBVGameObject@@@std@@@std@@@std@@@1@V?$_Tree_const_iterator@V?$_Tree_val@U?$_Tree_simple_types@U?$pair@$$CBW4Object_Type@@PEBVGameObject@@@std@@@std@@@std@@@1@AEAU?$pair@$$CBW4Object_Type@@PEBVGameObject@@@1@PEAU?$_Tree_node@U?$pair@$$CBW4Object_Type@@PEBVGameObject@@@std@@PEAX@1@@Z@4HA 000000014003dcb0 f   config.obj
 0002:00029ce0       ?dtor$1@?0???$_Insert_hint@AEAU?$pair@$$CBW4Object_Type@@PEBVGameObject@@@std@@PEAU?$_Tree_node@U?$pair@$$CBW4Object_Type@@PEBVGameObject@@@std@@PEAX@2@@?$_Tree@V?$_Tmap_traits@W4Object_Type@@PEBVGameObject@@U?$less@W4Object_Type@@@std@@V?$allocator@U?$pair@$$CBW4Object_Type@@PEBVGameObject@@@std@@@4@$0A@@std@@@std@@IEAA?AV?$_Tree_iterator@V?$_Tree_val@U?$_Tree_simple_types@U?$pair@$$CBW4Object_Type@@PEBVGameObject@@@std@@@std@@@std@@@1@V?$_Tree_const_iterator@V?$_Tree_val@U?$_Tree_simple_types@U?$pair@$$CBW4Object_Type@@PEBVGameObject@@@std@@@std@@@std@@@1@AEAU?$pair@$$CBW4Object_Type@@PEBVGameObject@@@1@PEAU?$_Tree_node@U?$pair@$$CBW4Object_Type@@PEBVGameObject@@@std@@PEAX@1@@Z@4HA 000000014003dce0 f   config.obj
 0002:00029d10       ?dtor$3@?0???$_Insert_hint@AEAU?$pair@$$CBW4Object_Type@@PEBVGameObject@@@std@@PEAU?$_Tree_node@U?$pair@$$CBW4Object_Type@@PEBVGameObject@@@std@@PEAX@2@@?$_Tree@V?$_Tmap_traits@W4Object_Type@@PEBVGameObject@@U?$less@W4Object_Type@@@std@@V?$allocator@U?$pair@$$CBW4Object_Type@@PEBVGameObject@@@std@@@4@$0A@@std@@@std@@IEAA?AV?$_Tree_iterator@V?$_Tree_val@U?$_Tree_simple_types@U?$pair@$$CBW4Object_Type@@PEBVGameObject@@@std@@@std@@@std@@@1@V?$_Tree_const_iterator@V?$_Tree_val@U?$_Tree_simple_types@U?$pair@$$CBW4Object_Type@@PEBVGameObject@@@std@@@std@@@std@@@1@AEAU?$pair@$$CBW4Object_Type@@PEBVGameObject@@@1@PEAU?$_Tree_node@U?$pair@$$CBW4Object_Type@@PEBVGameObject@@@std@@PEAX@1@@Z@4HA 000000014003dd10 f   config.obj
 0002:00029d40       ?dtor$4@?0???$_Insert_hint@AEAU?$pair@$$CBW4Object_Type@@PEBVGameObject@@@std@@PEAU?$_Tree_node@U?$pair@$$CBW4Object_Type@@PEBVGameObject@@@std@@PEAX@2@@?$_Tree@V?$_Tmap_traits@W4Object_Type@@PEBVGameObject@@U?$less@W4Object_Type@@@std@@V?$allocator@U?$pair@$$CBW4Object_Type@@PEBVGameObject@@@std@@@4@$0A@@std@@@std@@IEAA?AV?$_Tree_iterator@V?$_Tree_val@U?$_Tree_simple_types@U?$pair@$$CBW4Object_Type@@PEBVGameObject@@@std@@@std@@@std@@@1@V?$_Tree_const_iterator@V?$_Tree_val@U?$_Tree_simple_types@U?$pair@$$CBW4Object_Type@@PEBVGameObject@@@std@@@std@@@std@@@1@AEAU?$pair@$$CBW4Object_Type@@PEBVGameObject@@@1@PEAU?$_Tree_node@U?$pair@$$CBW4Object_Type@@PEBVGameObject@@@std@@PEAX@1@@Z@4HA 000000014003dd40 f   config.obj
 0002:00029d70       ?dtor$5@?0???$_Insert_hint@AEAU?$pair@$$CBW4Object_Type@@PEBVGameObject@@@std@@PEAU?$_Tree_node@U?$pair@$$CBW4Object_Type@@PEBVGameObject@@@std@@PEAX@2@@?$_Tree@V?$_Tmap_traits@W4Object_Type@@PEBVGameObject@@U?$less@W4Object_Type@@@std@@V?$allocator@U?$pair@$$CBW4Object_Type@@PEBVGameObject@@@std@@@4@$0A@@std@@@std@@IEAA?AV?$_Tree_iterator@V?$_Tree_val@U?$_Tree_simple_types@U?$pair@$$CBW4Object_Type@@PEBVGameObject@@@std@@@std@@@std@@@1@V?$_Tree_const_iterator@V?$_Tree_val@U?$_Tree_simple_types@U?$pair@$$CBW4Object_Type@@PEBVGameObject@@@std@@@std@@@std@@@1@AEAU?$pair@$$CBW4Object_Type@@PEBVGameObject@@@1@PEAU?$_Tree_node@U?$pair@$$CBW4Object_Type@@PEBVGameObject@@@std@@PEAX@1@@Z@4HA 000000014003dd70 f   config.obj
 0002:00029dc0       ?dtor$6@?0???$_Insert_hint@AEAU?$pair@$$CBW4Object_Type@@PEBVGameObject@@@std@@PEAU?$_Tree_node@U?$pair@$$CBW4Object_Type@@PEBVGameObject@@@std@@PEAX@2@@?$_Tree@V?$_Tmap_traits@W4Object_Type@@PEBVGameObject@@U?$less@W4Object_Type@@@std@@V?$allocator@U?$pair@$$CBW4Object_Type@@PEBVGameObject@@@std@@@4@$0A@@std@@@std@@IEAA?AV?$_Tree_iterator@V?$_Tree_val@U?$_Tree_simple_types@U?$pair@$$CBW4Object_Type@@PEBVGameObject@@@std@@@std@@@std@@@1@V?$_Tree_const_iterator@V?$_Tree_val@U?$_Tree_simple_types@U?$pair@$$CBW4Object_Type@@PEBVGameObject@@@std@@@std@@@std@@@1@AEAU?$pair@$$CBW4Object_Type@@PEBVGameObject@@@1@PEAU?$_Tree_node@U?$pair@$$CBW4Object_Type@@PEBVGameObject@@@std@@PEAX@1@@Z@4HA 000000014003ddc0 f   config.obj
 0002:00029df0       ?dtor$7@?0???$_Insert_hint@AEAU?$pair@$$CBW4Object_Type@@PEBVGameObject@@@std@@PEAU?$_Tree_node@U?$pair@$$CBW4Object_Type@@PEBVGameObject@@@std@@PEAX@2@@?$_Tree@V?$_Tmap_traits@W4Object_Type@@PEBVGameObject@@U?$less@W4Object_Type@@@std@@V?$allocator@U?$pair@$$CBW4Object_Type@@PEBVGameObject@@@std@@@4@$0A@@std@@@std@@IEAA?AV?$_Tree_iterator@V?$_Tree_val@U?$_Tree_simple_types@U?$pair@$$CBW4Object_Type@@PEBVGameObject@@@std@@@std@@@std@@@1@V?$_Tree_const_iterator@V?$_Tree_val@U?$_Tree_simple_types@U?$pair@$$CBW4Object_Type@@PEBVGameObject@@@std@@@std@@@std@@@1@AEAU?$pair@$$CBW4Object_Type@@PEBVGameObject@@@1@PEAU?$_Tree_node@U?$pair@$$CBW4Object_Type@@PEBVGameObject@@@std@@PEAX@1@@Z@4HA 000000014003ddf0 f   config.obj
 0002:00029e20       ?dtor$8@?0???$_Insert_hint@AEAU?$pair@$$CBW4Object_Type@@PEBVGameObject@@@std@@PEAU?$_Tree_node@U?$pair@$$CBW4Object_Type@@PEBVGameObject@@@std@@PEAX@2@@?$_Tree@V?$_Tmap_traits@W4Object_Type@@PEBVGameObject@@U?$less@W4Object_Type@@@std@@V?$allocator@U?$pair@$$CBW4Object_Type@@PEBVGameObject@@@std@@@4@$0A@@std@@@std@@IEAA?AV?$_Tree_iterator@V?$_Tree_val@U?$_Tree_simple_types@U?$pair@$$CBW4Object_Type@@PEBVGameObject@@@std@@@std@@@std@@@1@V?$_Tree_const_iterator@V?$_Tree_val@U?$_Tree_simple_types@U?$pair@$$CBW4Object_Type@@PEBVGameObject@@@std@@@std@@@std@@@1@AEAU?$pair@$$CBW4Object_Type@@PEBVGameObject@@@1@PEAU?$_Tree_node@U?$pair@$$CBW4Object_Type@@PEBVGameObject@@@std@@PEAX@1@@Z@4HA 000000014003de20 f   config.obj
 0002:00029e70       ?catch$6@?0???$_Insert_nohint@AEAU?$pair@$$CBW4Object_Type@@PEBVGameObject@@@std@@PEAU?$_Tree_node@U?$pair@$$CBW4Object_Type@@PEBVGameObject@@@std@@PEAX@2@@?$_Tree@V?$_Tmap_traits@W4Object_Type@@PEBVGameObject@@U?$less@W4Object_Type@@@std@@V?$allocator@U?$pair@$$CBW4Object_Type@@PEBVGameObject@@@std@@@4@$0A@@std@@@std@@IEAA?AU?$pair@V?$_Tree_iterator@V?$_Tree_val@U?$_Tree_simple_types@U?$pair@$$CBW4Object_Type@@PEBVGameObject@@@std@@@std@@@std@@@std@@_N@1@_NAEAU?$pair@$$CBW4Object_Type@@PEBVGameObject@@@1@PEAU?$_Tree_node@U?$pair@$$CBW4Object_Type@@PEBVGameObject@@@std@@PEAX@1@@Z@4HA 000000014003de70 f   config.obj
 0002:00029e84       __catch$??$_Insert_nohint@AEAU?$pair@$$CBW4Object_Type@@PEBVGameObject@@@std@@PEAU?$_Tree_node@U?$pair@$$CBW4Object_Type@@PEBVGameObject@@@std@@PEAX@2@@?$_Tree@V?$_Tmap_traits@W4Object_Type@@PEBVGameObject@@U?$less@W4Object_Type@@@std@@V?$allocator@U?$pair@$$CBW4Object_Type@@PEBVGameObject@@@std@@@4@$0A@@std@@@std@@IEAA?AU?$pair@V?$_Tree_iterator@V?$_Tree_val@U?$_Tree_simple_types@U?$pair@$$CBW4Object_Type@@PEBVGameObject@@@std@@@std@@@std@@@std@@_N@1@_NAEAU?$pair@$$CBW4Object_Type@@PEBVGameObject@@@1@PEAU?$_Tree_node@U?$pair@$$CBW4Object_Type@@PEBVGameObject@@@std@@PEAX@1@@Z$0 000000014003de84 f   config.obj
 0002:00029ec0       ?dtor$2@?0???$_Insert_nohint@AEAU?$pair@$$CBW4Object_Type@@PEBVGameObject@@@std@@PEAU?$_Tree_node@U?$pair@$$CBW4Object_Type@@PEBVGameObject@@@std@@PEAX@2@@?$_Tree@V?$_Tmap_traits@W4Object_Type@@PEBVGameObject@@U?$less@W4Object_Type@@@std@@V?$allocator@U?$pair@$$CBW4Object_Type@@PEBVGameObject@@@std@@@4@$0A@@std@@@std@@IEAA?AU?$pair@V?$_Tree_iterator@V?$_Tree_val@U?$_Tree_simple_types@U?$pair@$$CBW4Object_Type@@PEBVGameObject@@@std@@@std@@@std@@@std@@_N@1@_NAEAU?$pair@$$CBW4Object_Type@@PEBVGameObject@@@1@PEAU?$_Tree_node@U?$pair@$$CBW4Object_Type@@PEBVGameObject@@@std@@PEAX@1@@Z@4HA 000000014003dec0 f   config.obj
 0002:00029ef0       ?dtor$3@?0???$_Insert_nohint@AEAU?$pair@$$CBW4Object_Type@@PEBVGameObject@@@std@@PEAU?$_Tree_node@U?$pair@$$CBW4Object_Type@@PEBVGameObject@@@std@@PEAX@2@@?$_Tree@V?$_Tmap_traits@W4Object_Type@@PEBVGameObject@@U?$less@W4Object_Type@@@std@@V?$allocator@U?$pair@$$CBW4Object_Type@@PEBVGameObject@@@std@@@4@$0A@@std@@@std@@IEAA?AU?$pair@V?$_Tree_iterator@V?$_Tree_val@U?$_Tree_simple_types@U?$pair@$$CBW4Object_Type@@PEBVGameObject@@@std@@@std@@@std@@@std@@_N@1@_NAEAU?$pair@$$CBW4Object_Type@@PEBVGameObject@@@1@PEAU?$_Tree_node@U?$pair@$$CBW4Object_Type@@PEBVGameObject@@@std@@PEAX@1@@Z@4HA 000000014003def0 f   config.obj
 0002:00029f20       ?dtor$0@?0???$_Try_emplace@W4Object_Type@@$$V@?$map@W4Object_Type@@PEBVGameObject@@U?$less@W4Object_Type@@@std@@V?$allocator@U?$pair@$$CBW4Object_Type@@PEBVGameObject@@@std@@@4@@std@@QEAA?AU?$pair@V?$_Tree_iterator@V?$_Tree_val@U?$_Tree_simple_types@U?$pair@$$CBW4Object_Type@@PEBVGameObject@@@std@@@std@@@std@@@std@@_N@1@$$QEAW4Object_Type@@@Z@4HA 000000014003df20 f   config.obj
 0002:00029f50       ?dtor$1@?0???$_Try_emplace@W4Object_Type@@$$V@?$map@W4Object_Type@@PEBVGameObject@@U?$less@W4Object_Type@@@std@@V?$allocator@U?$pair@$$CBW4Object_Type@@PEBVGameObject@@@std@@@4@@std@@QEAA?AU?$pair@V?$_Tree_iterator@V?$_Tree_val@U?$_Tree_simple_types@U?$pair@$$CBW4Object_Type@@PEBVGameObject@@@std@@@std@@@std@@@std@@_N@1@$$QEAW4Object_Type@@@Z@4HA 000000014003df50 f   config.obj
 0002:00029fa0       ?dtor$0@?0???$emplace_hint@AEBUpiecewise_construct_t@std@@V?$tuple@$$QEAW4Object_Type@@@2@V?$tuple@$$V@2@@?$_Tree@V?$_Tmap_traits@W4Object_Type@@PEBVGameObject@@U?$less@W4Object_Type@@@std@@V?$allocator@U?$pair@$$CBW4Object_Type@@PEBVGameObject@@@std@@@4@$0A@@std@@@std@@QEAA?AV?$_Tree_iterator@V?$_Tree_val@U?$_Tree_simple_types@U?$pair@$$CBW4Object_Type@@PEBVGameObject@@@std@@@std@@@std@@@1@V?$_Tree_const_iterator@V?$_Tree_val@U?$_Tree_simple_types@U?$pair@$$CBW4Object_Type@@PEBVGameObject@@@std@@@std@@@std@@@1@AEBUpiecewise_construct_t@1@$$QEAV?$tuple@$$QEAW4Object_Type@@@1@$$QEAV?$tuple@$$V@1@@Z@4HA 000000014003dfa0 f   config.obj
 0002:00029fd0       ?dtor$0@?0???0?$basic_string@DU?$char_traits@D@std@@V?$allocator@D@2@@std@@QEAA@AEBV01@_K1AEBV?$allocator@D@1@@Z@4HA 000000014003dfd0 f   config.obj
 0002:0002a000       ?dtor$0@?0???A?$map@W4Object_Type@@PEBVGameObject@@U?$less@W4Object_Type@@@std@@V?$allocator@U?$pair@$$CBW4Object_Type@@PEBVGameObject@@@std@@@4@@std@@QEAAAEAPEBVGameObject@@$$QEAW4Object_Type@@@Z@4HA 000000014003e000 f   config.obj
 0002:0002a030       ?dtor$0@?0??Create_Object@ConfigManager@@QEBAPEAVGameObject@@W4Object_Type@@@Z@4HA 000000014003e030 f   config.obj
 0002:0002a060       ?dtor$1@?0??Create_Object@ConfigManager@@QEBAPEAVGameObject@@W4Object_Type@@@Z@4HA 000000014003e060 f   config.obj
 0002:0002a090       ?dtor$0@?0??Read@Config_Parser@@YAPEBDPEBDAEAH@Z@4HA 000000014003e090 f   config.obj
 0002:0002a0c0       ?dtor$1@?0??Read@Config_Parser@@YAPEBDPEBDAEAH@Z@4HA 000000014003e0c0 f   config.obj
 0002:0002a0f0       ?dtor$0@?0??Read@Config_Parser@@YAPEBDPEBDAEAM@Z@4HA 000000014003e0f0 f   config.obj
 0002:0002a120       ?dtor$1@?0??Read@Config_Parser@@YAPEBDPEBDAEAM@Z@4HA 000000014003e120 f   config.obj
 0002:0002a150       ?dtor$0@?0??Read@Config_Parser@@YAPEBDPEBDAEAV?$basic_string@DU?$char_traits@D@std@@V?$allocator@D@2@@std@@@Z@4HA 000000014003e150 f   config.obj
 0002:0002a180       ?catch$0@?0??_Buynode0@?$_Tree_comp_alloc@V?$_Tmap_traits@W4Object_Type@@PEBVGameObject@@U?$less@W4Object_Type@@@std@@V?$allocator@U?$pair@$$CBW4Object_Type@@PEBVGameObject@@@std@@@4@$0A@@std@@@std@@QEAAPEAU?$_Tree_node@U?$pair@$$CBW4Object_Type@@PEBVGameObject@@@std@@PEAX@2@XZ@4HA 000000014003e180 f   config.obj
 0002:0002a194       __catch$?_Buynode0@?$_Tree_comp_alloc@V?$_Tmap_traits@W4Object_Type@@PEBVGameObject@@U?$less@W4Object_Type@@@std@@V?$allocator@U?$pair@$$CBW4Object_Type@@PEBVGameObject@@@std@@@4@$0A@@std@@@std@@QEAAPEAU?$_Tree_node@U?$pair@$$CBW4Object_Type@@PEBVGameObject@@@std@@PEAX@2@XZ$0 000000014003e194 f   config.obj
 0002:0002a1d0       ?dtor$0@?0??find@?$_Tree@V?$_Tmap_traits@W4Object_Type@@PEBVGameObject@@U?$less@W4Object_Type@@@std@@V?$allocator@U?$pair@$$CBW4Object_Type@@PEBVGameObject@@@std@@@4@$0A@@std@@@std@@QEBA?AV?$_Tree_const_iterator@V?$_Tree_val@U?$_Tree_simple_types@U?$pair@$$CBW4Object_Type@@PEBVGameObject@@@std@@@std@@@std@@@2@AEBW4Object_Type@@@Z@4HA 000000014003e1d0 f   config.obj
 0002:0002a200       ?dtor$1@?0??find@?$_Tree@V?$_Tmap_traits@W4Object_Type@@PEBVGameObject@@U?$less@W4Object_Type@@@std@@V?$allocator@U?$pair@$$CBW4Object_Type@@PEBVGameObject@@@std@@@4@$0A@@std@@@std@@QEBA?AV?$_Tree_const_iterator@V?$_Tree_val@U?$_Tree_simple_types@U?$pair@$$CBW4Object_Type@@PEBVGameObject@@@std@@@std@@@std@@@2@AEBW4Object_Type@@@Z@4HA 000000014003e200 f   config.obj
 0002:0002a250       ?catch$0@?0???$_Emplace_reallocate@AEBQEAV?$Container@VWidget@@@@@?$vector@PEAV?$Container@VWidget@@@@V?$allocator@PEAV?$Container@VWidget@@@@@std@@@std@@QEAAPEAPEAV?$Container@VWidget@@@@QEAPEAV2@AEBQEAV2@@Z@4HA 000000014003e250 f   engine.obj
 0002:0002a264       __catch$??$_Emplace_reallocate@AEBQEAV?$Container@VWidget@@@@@?$vector@PEAV?$Container@VWidget@@@@V?$allocator@PEAV?$Container@VWidget@@@@@std@@@std@@QEAAPEAPEAV?$Container@VWidget@@@@QEAPEAV2@AEBQEAV2@@Z$0 000000014003e264 f   engine.obj
 0002:0002a2d0       ?catch$0@?0???$_Emplace_reallocate@AEBQEAVObject@@@?$vector@PEAVObject@@V?$allocator@PEAVObject@@@std@@@std@@QEAAPEAPEAVObject@@QEAPEAV2@AEBQEAV2@@Z@4HA 000000014003e2d0 f   engine.obj
 0002:0002a2e4       __catch$??$_Emplace_reallocate@AEBQEAVObject@@@?$vector@PEAVObject@@V?$allocator@PEAVObject@@@std@@@std@@QEAAPEAPEAVObject@@QEAPEAV2@AEBQEAV2@@Z$0 000000014003e2e4 f   engine.obj
 0002:0002a350       ?dtor$0@?0???0Engine@@QEAA@XZ@4HA 000000014003e350 f   engine.obj
 0002:0002a390       ?dtor$1@?0???0Engine@@QEAA@XZ@4HA 000000014003e390 f   engine.obj
 0002:0002a3d0       ?dtor$2@?0???0Engine@@QEAA@XZ@4HA 000000014003e3d0 f   engine.obj
 0002:0002a410       ?dtor$3@?0???0Engine@@QEAA@XZ@4HA 000000014003e410 f   engine.obj
 0002:0002a450       ?dtor$4@?0???0Engine@@QEAA@XZ@4HA 000000014003e450 f   engine.obj
 0002:0002a4a0       ?dtor$5@?0???0Engine@@QEAA@XZ@4HA 000000014003e4a0 f   engine.obj
 0002:0002a4f0       ?dtor$0@?0???E?$_Tree_const_iterator@V?$_Tree_val@U?$_Tree_simple_types@U?$pair@$$CBW4Object_Type@@PEBVGameObject@@@std@@@std@@@std@@@std@@QEAA?AV01@H@Z@4HA 000000014003e4f0 f   engine.obj
 0002:0002a520       ?dtor$0@?0??Execute@Engine@@QEAAXXZ@4HA 000000014003e520 f   engine.obj
 0002:0002a560       ?catch$0@?0??_Buyheadnode@?$_Tree_comp_alloc@V?$_Tmap_traits@W4Object_Type@@PEBVGameObject@@U?$less@W4Object_Type@@@std@@V?$allocator@U?$pair@$$CBW4Object_Type@@PEBVGameObject@@@std@@@4@$0A@@std@@@std@@QEAAPEAU?$_Tree_node@U?$pair@$$CBW4Object_Type@@PEBVGameObject@@@std@@PEAX@2@XZ@4HA 000000014003e560 f   engine.obj
 0002:0002a574       __catch$?_Buyheadnode@?$_Tree_comp_alloc@V?$_Tmap_traits@W4Object_Type@@PEBVGameObject@@U?$less@W4Object_Type@@@std@@V?$allocator@U?$pair@$$CBW4Object_Type@@PEBVGameObject@@@std@@@4@$0A@@std@@@std@@QEAAPEAU?$_Tree_node@U?$pair@$$CBW4Object_Type@@PEBVGameObject@@@std@@PEAX@2@XZ$0 000000014003e574 f   engine.obj
 0002:0002a5b0       ?catch$0@?0??_Construct@?$_Tree_comp_alloc@V?$_Tmap_traits@W4Object_Type@@PEBVGameObject@@U?$less@W4Object_Type@@@std@@V?$allocator@U?$pair@$$CBW4Object_Type@@PEBVGameObject@@@std@@@4@$0A@@std@@@std@@QEAAXXZ@4HA 000000014003e5b0 f   engine.obj
 0002:0002a5c4       __catch$?_Construct@?$_Tree_comp_alloc@V?$_Tmap_traits@W4Object_Type@@PEBVGameObject@@U?$less@W4Object_Type@@@std@@V?$allocator@U?$pair@$$CBW4Object_Type@@PEBVGameObject@@@std@@@4@$0A@@std@@@std@@QEAAXXZ$0 000000014003e5c4 f   engine.obj
 0002:0002a610       ?dtor$0@?0??_Extract@?$_Tree_val@U?$_Tree_simple_types@U?$pair@$$CBW4Object_Type@@PEBVGameObject@@@std@@@std@@@std@@QEAAPEAU?$_Tree_node@U?$pair@$$CBW4Object_Type@@PEBVGameObject@@@std@@PEAX@2@V?$_Tree_const_iterator@V?$_Tree_val@U?$_Tree_simple_types@U?$pair@$$CBW4Object_Type@@PEBVGameObject@@@std@@@std@@@std@@@2@@Z@4HA 000000014003e610 f   engine.obj
 0002:0002a640       ?dtor$0@?0??_Orphan_ptr@?$_Tree@V?$_Tmap_traits@W4Object_Type@@PEBVGameObject@@U?$less@W4Object_Type@@@std@@V?$allocator@U?$pair@$$CBW4Object_Type@@PEBVGameObject@@@std@@@4@$0A@@std@@@std@@IEAAXPEAU?$_Tree_node@U?$pair@$$CBW4Object_Type@@PEBVGameObject@@@std@@PEAX@2@@Z@4HA 000000014003e640 f   engine.obj
 0002:0002a670       ?dtor$0@?0??_Orphan_range@?$vector@PEAV?$Container@VWidget@@@@V?$allocator@PEAV?$Container@VWidget@@@@@std@@@std@@AEBAXPEAPEAV?$Container@VWidget@@@@0@Z@4HA 000000014003e670 f   engine.obj
 0002:0002a6a0       ?dtor$0@?0??_Orphan_range@?$vector@PEAVObject@@V?$allocator@PEAVObject@@@std@@@std@@AEBAXPEAPEAVObject@@0@Z@4HA 000000014003e6a0 f   engine.obj
 0002:0002a6d0       ?dtor$0@?0??_Tidy@?$_Tree@V?$_Tmap_traits@W4Object_Type@@PEBVGameObject@@U?$less@W4Object_Type@@@std@@V?$allocator@U?$pair@$$CBW4Object_Type@@PEBVGameObject@@@std@@@4@$0A@@std@@@std@@IEAAXXZ@4HA 000000014003e6d0 f   engine.obj
 0002:0002a700       ?dtor$2@?0??_Tidy@?$_Tree@V?$_Tmap_traits@W4Object_Type@@PEBVGameObject@@U?$less@W4Object_Type@@@std@@V?$allocator@U?$pair@$$CBW4Object_Type@@PEBVGameObject@@@std@@@4@$0A@@std@@@std@@IEAAXXZ@4HA 000000014003e700 f   engine.obj
 0002:0002a730       ?dtor$0@?0??erase@?$_Tree@V?$_Tmap_traits@W4Object_Type@@PEBVGameObject@@U?$less@W4Object_Type@@@std@@V?$allocator@U?$pair@$$CBW4Object_Type@@PEBVGameObject@@@std@@@4@$0A@@std@@@std@@QEAA?AV?$_Tree_iterator@V?$_Tree_val@U?$_Tree_simple_types@U?$pair@$$CBW4Object_Type@@PEBVGameObject@@@std@@@std@@@std@@@2@V?$_Tree_const_iterator@V?$_Tree_val@U?$_Tree_simple_types@U?$pair@$$CBW4Object_Type@@PEBVGameObject@@@std@@@std@@@std@@@2@0@Z@4HA 000000014003e730 f   engine.obj
 0002:0002a760       ?dtor$1@?0??erase@?$_Tree@V?$_Tmap_traits@W4Object_Type@@PEBVGameObject@@U?$less@W4Object_Type@@@std@@V?$allocator@U?$pair@$$CBW4Object_Type@@PEBVGameObject@@@std@@@4@$0A@@std@@@std@@QEAA?AV?$_Tree_iterator@V?$_Tree_val@U?$_Tree_simple_types@U?$pair@$$CBW4Object_Type@@PEBVGameObject@@@std@@@std@@@std@@@2@V?$_Tree_const_iterator@V?$_Tree_val@U?$_Tree_simple_types@U?$pair@$$CBW4Object_Type@@PEBVGameObject@@@std@@@std@@@std@@@2@0@Z@4HA 000000014003e760 f   engine.obj
 0002:0002a790       ?dtor$2@?0??erase@?$_Tree@V?$_Tmap_traits@W4Object_Type@@PEBVGameObject@@U?$less@W4Object_Type@@@std@@V?$allocator@U?$pair@$$CBW4Object_Type@@PEBVGameObject@@@std@@@4@$0A@@std@@@std@@QEAA?AV?$_Tree_iterator@V?$_Tree_val@U?$_Tree_simple_types@U?$pair@$$CBW4Object_Type@@PEBVGameObject@@@std@@@std@@@std@@@2@V?$_Tree_const_iterator@V?$_Tree_val@U?$_Tree_simple_types@U?$pair@$$CBW4Object_Type@@PEBVGameObject@@@std@@@std@@@std@@@2@0@Z@4HA 000000014003e790 f   engine.obj
 0002:0002a7e0       ?dtor$3@?0??erase@?$_Tree@V?$_Tmap_traits@W4Object_Type@@PEBVGameObject@@U?$less@W4Object_Type@@@std@@V?$allocator@U?$pair@$$CBW4Object_Type@@PEBVGameObject@@@std@@@4@$0A@@std@@@std@@QEAA?AV?$_Tree_iterator@V?$_Tree_val@U?$_Tree_simple_types@U?$pair@$$CBW4Object_Type@@PEBVGameObject@@@std@@@std@@@std@@@2@V?$_Tree_const_iterator@V?$_Tree_val@U?$_Tree_simple_types@U?$pair@$$CBW4Object_Type@@PEBVGameObject@@@std@@@std@@@std@@@2@0@Z@4HA 000000014003e7e0 f   engine.obj
 0002:0002a830       ?dtor$0@?0??erase@?$_Tree@V?$_Tmap_traits@W4Object_Type@@PEBVGameObject@@U?$less@W4Object_Type@@@std@@V?$allocator@U?$pair@$$CBW4Object_Type@@PEBVGameObject@@@std@@@4@$0A@@std@@@std@@QEAA?AV?$_Tree_iterator@V?$_Tree_val@U?$_Tree_simple_types@U?$pair@$$CBW4Object_Type@@PEBVGameObject@@@std@@@std@@@std@@@2@V?$_Tree_const_iterator@V?$_Tree_val@U?$_Tree_simple_types@U?$pair@$$CBW4Object_Type@@PEBVGameObject@@@std@@@std@@@std@@@2@@Z@4HA 000000014003e830 f   engine.obj
 0002:0002a860       ?dtor$1@?0??erase@?$_Tree@V?$_Tmap_traits@W4Object_Type@@PEBVGameObject@@U?$less@W4Object_Type@@@std@@V?$allocator@U?$pair@$$CBW4Object_Type@@PEBVGameObject@@@std@@@4@$0A@@std@@@std@@QEAA?AV?$_Tree_iterator@V?$_Tree_val@U?$_Tree_simple_types@U?$pair@$$CBW4Object_Type@@PEBVGameObject@@@std@@@std@@@std@@@2@V?$_Tree_const_iterator@V?$_Tree_val@U?$_Tree_simple_types@U?$pair@$$CBW4Object_Type@@PEBVGameObject@@@std@@@std@@@std@@@2@@Z@4HA 000000014003e860 f   engine.obj
 0002:0002a890       WinMain$dtor$0             000000014003e890 f   main.obj
 0002:0002a8c0       ?dtor$0@?0???0?$ContainerMoving@VWidget@@@@QEAA@AEBV?$Vector2@M@sf@@0@Z@4HA 000000014003e8c0 f   container-moving.obj
 0002:0002a8f0       ?dtor$0@?0???0GameObject@@QEAA@PEBD@Z@4HA 000000014003e8f0 f   game-object.obj
 0002:0002a920       ?dtor$1@?0???0GameObject@@QEAA@PEBD@Z@4HA 000000014003e920 f   game-object.obj
 0002:0002a960       ?dtor$2@?0???0GameObject@@QEAA@PEBD@Z@4HA 000000014003e960 f   game-object.obj
 0002:0002a990       ?dtor$0@?0???0GameObject@@QEAA@PEBV0@@Z@4HA 000000014003e990 f   game-object.obj
 0002:0002a9c0       ?dtor$1@?0???0GameObject@@QEAA@PEBV0@@Z@4HA 000000014003e9c0 f   game-object.obj
 0002:0002aa00       ?dtor$0@?0??Create@GameObject@@SAPEBV1@PEBD@Z@4HA 000000014003ea00 f   game-object.obj
 0002:0002aa30       ?catch$2@?0??CreateImpl@GameObject@@CAPEAV1@W4Object_Type@@PEBD@Z@4HA 000000014003ea30 f   game-object.obj
 0002:0002aa44       __catch$?CreateImpl@GameObject@@CAPEAV1@W4Object_Type@@PEBD@Z$0 000000014003ea44 f   game-object.obj
 0002:0002aa70       ?dtor$0@?0??CreateImpl@GameObject@@CAPEAV1@W4Object_Type@@PEBD@Z@4HA 000000014003ea70 f   game-object.obj
 0002:0002aab0       ?dtor$1@?0??CreateImpl@GameObject@@CAPEAV1@W4Object_Type@@PEBD@Z@4HA 000000014003eab0 f   game-object.obj
 0002:0002aaf0       ?dtor$0@?0???$?0V<lambda_312b3f49165ee8dbe2e5837b3ce31c90>@@X@?$function@$$A6AXPEAVButton@@@Z@std@@QEAA@V<lambda_312b3f49165ee8dbe2e5837b3ce31c90>@@@Z@4HA 000000014003eaf0 f   menu-window.obj
 0002:0002ab20       ?dtor$0@?0???$?0V<lambda_5f2a59844b8069354d5a17d44e450129>@@X@?$function@$$A6AXPEAVButton@@@Z@std@@QEAA@V<lambda_5f2a59844b8069354d5a17d44e450129>@@@Z@4HA 000000014003eb20 f   menu-window.obj
 0002:0002ab50       ?dtor$0@?0???$?0V<lambda_668a1179af56ef880bbabaf92a5d9839>@@X@?$function@$$A6AXPEAVButton@@@Z@std@@QEAA@V<lambda_668a1179af56ef880bbabaf92a5d9839>@@@Z@4HA 000000014003eb50 f   menu-window.obj
 0002:0002ab80       ?dtor$0@?0???0MenuWindow@@QEAA@PEAVEngine@@AEBV?$Vector2@M@sf@@1@Z@4HA 000000014003eb80 f   menu-window.obj
 0002:0002abb0       ?dtor$1@?0???0MenuWindow@@QEAA@PEAVEngine@@AEBV?$Vector2@M@sf@@1@Z@4HA 000000014003ebb0 f   menu-window.obj
 0002:0002abf0       ?dtor$3@?0???0MenuWindow@@QEAA@PEAVEngine@@AEBV?$Vector2@M@sf@@1@Z@4HA 000000014003ebf0 f   menu-window.obj
 0002:0002ac30       ?dtor$5@?0???0MenuWindow@@QEAA@PEAVEngine@@AEBV?$Vector2@M@sf@@1@Z@4HA 000000014003ec30 f   menu-window.obj
 0002:0002ac70       ?dtor$0@?0??onStartClicked@MenuWindow@@AEAAXPEAVButton@@@Z@4HA 000000014003ec70 f   menu-window.obj
 0002:0002acb0       ?dtor$0@?0???0Object@@QEAA@AEBV?$Vector2@M@sf@@0@Z@4HA 000000014003ecb0 f   object.obj
 0002:0002acf0       ?dtor$1@?0???0Object@@QEAA@AEBV?$Vector2@M@sf@@0@Z@4HA 000000014003ecf0 f   object.obj
 0002:0002ad30       ?dtor$0@?0???0Object@@QEAA@PEBD@Z@4HA 000000014003ed30 f   object.obj
 0002:0002ad70       ?dtor$1@?0???0Object@@QEAA@PEBD@Z@4HA 000000014003ed70 f   object.obj
 0002:0002adb0       ?dtor$0@?0???0Object@@QEAA@PEBV0@@Z@4HA 000000014003edb0 f   object.obj
 0002:0002adf0       ?dtor$1@?0???0Object@@QEAA@PEBV0@@Z@4HA 000000014003edf0 f   object.obj
 0002:0002ae30       ?dtor$0@?0??SetTexture@Object@@QEAA_NPEBD@Z@4HA 000000014003ee30 f   object.obj
 0002:0002ae60       ?dtor$0@?0??Clone@Tank@@UEBAPEAVGameObject@@XZ@4HA 000000014003ee60 f   tank.obj
 0002:0002aea0       ?dtor$0@?0??Clone@Wall@@UEBAPEAVGameObject@@XZ@4HA 000000014003eea0 f   wall.obj
 0002:0002aee0       ?dtor$0@?0???0WidgetGame@@QEAA@PEAVEngine@@AEBV?$Vector2@M@sf@@1@Z@4HA 000000014003eee0 f   widget-game.obj
 0002:0002af10       ?dtor$1@?0???0WidgetGame@@QEAA@PEAVEngine@@AEBV?$Vector2@M@sf@@1@Z@4HA 000000014003ef10 f   widget-game.obj
 0002:0002af50       ?dtor$0@?0???0WindowGame@@QEAA@PEAVEngine@@AEBV?$Vector2@M@sf@@1@Z@4HA 000000014003ef50 f   window-game.obj
 0002:0002af80       ?dtor$1@?0???0WindowGame@@QEAA@PEAVEngine@@AEBV?$Vector2@M@sf@@1@Z@4HA 000000014003ef80 f   window-game.obj
 0002:0002afc0       ?dtor$0@?0???0WindowEditor@@QEAA@PEAVEngine@@AEBV?$Vector2@M@sf@@1@Z@4HA 000000014003efc0 f   window-editor.obj
 0002:0002aff0       ?dtor$1@?0???0WindowEditor@@QEAA@PEAVEngine@@AEBV?$Vector2@M@sf@@1@Z@4HA 000000014003eff0 f   window-editor.obj
 0002:0002b030       __scrt_is_nonwritable_in_current_image$filt$0 000000014003f030 f   MSVCRTD:utility.obj
 0002:0002b080       ?filt$0@?0??notify_debugger@@YAXAEBUtagEXCEPTION_VISUALCPP_DEBUG_INFO@@@Z@4HA 000000014003f080 f   MSVCRTD:_error_.obj
 0002:0002b0b0       ?filt$0@?0??__scrt_common_main_seh@@YAHXZ@4HA 000000014003f0b0 f   MSVCRTD:exe_winmain.obj
 0002:0002c180       ??__Ffont@@YAXXZ           0000000140040180 f   button.obj
 0003:00000110       ?pre_cpp_initializer@@3P6AXXZEA 0000000140042110     MSVCRTD:exe_winmain.obj
 0003:00000220       ?font$initializer$@@3P6AXXZEA 0000000140042220     button.obj
 0003:00000550       ?pre_c_initializer@@3P6AHXZEA 0000000140042550     MSVCRTD:exe_winmain.obj
 0003:00000660       ?post_pgo_initializer@@3P6AHXZEA 0000000140042660     MSVCRTD:exe_winmain.obj
 0003:00000cc0       ?_Orphan_all@_Container_base12@std@@QEAAXXZ$rtcName$0 0000000140042cc0     button.obj
 0003:00000cd0       ?_Orphan_all@_Container_base12@std@@QEAAXXZ$rtcVarDesc 0000000140042cd0     button.obj
 0003:00000d10       ?_Orphan_all@_Container_base12@std@@QEAAXXZ$rtcFrameData 0000000140042d10     button.obj
 0003:00000d20       $cppxdata$?_Orphan_all@_Container_base12@std@@QEAAXXZ 0000000140042d20     button.obj
 0003:00000d68       $cppxdata$??0?$_String_alloc@U?$_String_base_types@DV?$allocator@D@std@@@std@@@std@@QEAA@XZ 0000000140042d68     button.obj
 0003:00000d98       $cppxdata$??1?$_String_alloc@U?$_String_base_types@DV?$allocator@D@std@@@std@@@std@@QEAA@XZ 0000000140042d98     button.obj
 0003:00000dd0       ?_Alloc_proxy@?$_String_alloc@U?$_String_base_types@DV?$allocator@D@std@@@std@@@std@@QEAAXXZ$rtcName$0 0000000140042dd0     button.obj
 0003:00000df0       ?_Alloc_proxy@?$_String_alloc@U?$_String_base_types@DV?$allocator@D@std@@@std@@@std@@QEAAXXZ$rtcVarDesc 0000000140042df0     button.obj
 0003:00000e30       ?_Alloc_proxy@?$_String_alloc@U?$_String_base_types@DV?$allocator@D@std@@@std@@@std@@QEAAXXZ$rtcFrameData 0000000140042e30     button.obj
 0003:00000e60       ?_Free_proxy@?$_String_alloc@U?$_String_base_types@DV?$allocator@D@std@@@std@@@std@@QEAAXXZ$rtcName$0 0000000140042e60     button.obj
 0003:00000e80       ?_Free_proxy@?$_String_alloc@U?$_String_base_types@DV?$allocator@D@std@@@std@@@std@@QEAAXXZ$rtcVarDesc 0000000140042e80     button.obj
 0003:00000ec0       ?_Free_proxy@?$_String_alloc@U?$_String_base_types@DV?$allocator@D@std@@@std@@@std@@QEAAXXZ$rtcFrameData 0000000140042ec0     button.obj
 0003:00000ee8       $cppxdata$??0?$basic_string@DU?$char_traits@D@std@@V?$allocator@D@2@@std@@QEAA@QEBD@Z 0000000140042ee8     button.obj
 0003:00000f18       $cppxdata$??1?$basic_string@DU?$char_traits@D@std@@V?$allocator@D@2@@std@@QEAA@XZ 0000000140042f18     button.obj
 0003:00000f50       ?max_size@?$basic_string@DU?$char_traits@D@std@@V?$allocator@D@2@@std@@QEBA_KXZ$rtcName$0 0000000140042f50     button.obj
 0003:00000f60       ?max_size@?$basic_string@DU?$char_traits@D@std@@V?$allocator@D@2@@std@@QEBA_KXZ$rtcVarDesc 0000000140042f60     button.obj
 0003:00000fa0       ?max_size@?$basic_string@DU?$char_traits@D@std@@V?$allocator@D@2@@std@@QEBA_KXZ$rtcFrameData 0000000140042fa0     button.obj
 0003:00000fd0       ?_Calculate_growth@?$basic_string@DU?$char_traits@D@std@@V?$allocator@D@2@@std@@QEBA_K_K@Z$rtcName$0 0000000140042fd0     button.obj
 0003:00000fe0       ?_Calculate_growth@?$basic_string@DU?$char_traits@D@std@@V?$allocator@D@2@@std@@QEBA_K_K@Z$rtcVarDesc 0000000140042fe0     button.obj
 0003:00001020       ?_Calculate_growth@?$basic_string@DU?$char_traits@D@std@@V?$allocator@D@2@@std@@QEBA_K_K@Z$rtcFrameData 0000000140043020     button.obj
 0003:00001050       ??$_Maklocstr@_W@std@@YAPEA_WPEBDPEA_WAEBU_Cvtvec@@@Z$rtcName$0 0000000140043050     button.obj
 0003:00001054       ??$_Maklocstr@_W@std@@YAPEA_WPEBDPEA_WAEBU_Cvtvec@@@Z$rtcName$1 0000000140043054     button.obj
 0003:0000105c       ??$_Maklocstr@_W@std@@YAPEA_WPEBDPEA_WAEBU_Cvtvec@@@Z$rtcName$2 000000014004305c     button.obj
 0003:00001070       ??$_Maklocstr@_W@std@@YAPEA_WPEBDPEA_WAEBU_Cvtvec@@@Z$rtcVarDesc 0000000140043070     button.obj
 0003:00001130       ??$_Maklocstr@_W@std@@YAPEA_WPEBDPEA_WAEBU_Cvtvec@@@Z$rtcFrameData 0000000140043130     button.obj
 0003:00001170       $cppxdata$??1?$_String_alloc@U?$_String_base_types@_WV?$allocator@_W@std@@@std@@@std@@QEAA@XZ 0000000140043170     button.obj
 0003:000011a0       ?_Free_proxy@?$_String_alloc@U?$_String_base_types@_WV?$allocator@_W@std@@@std@@@std@@QEAAXXZ$rtcName$0 00000001400431a0     button.obj
 0003:000011c0       ?_Free_proxy@?$_String_alloc@U?$_String_base_types@_WV?$allocator@_W@std@@@std@@@std@@QEAAXXZ$rtcVarDesc 00000001400431c0     button.obj
 0003:00001200       ?_Free_proxy@?$_String_alloc@U?$_String_base_types@_WV?$allocator@_W@std@@@std@@@std@@QEAAXXZ$rtcFrameData 0000000140043200     button.obj
 0003:00001228       $cppxdata$??1?$basic_string@_WU?$char_traits@_W@std@@V?$allocator@_W@2@@std@@QEAA@XZ 0000000140043228     button.obj
 0003:00001258       $cppxdata$?c_str@?$basic_string@_WU?$char_traits@_W@std@@V?$allocator@_W@2@@std@@QEBAPEB_WXZ 0000000140043258     button.obj
 0003:00001288       $cppxdata$??0Button@@QEAA@AEBV?$Vector2@M@sf@@0@Z 0000000140043288     button.obj
 0003:000012b8       $cppxdata$?SetText@Button@@QEAAXPEB_W@Z 00000001400432b8     button.obj
 0003:000012e8       $cppxdata$?SetOnClickedListener@Button@@QEAAXV?$function@$$A6AXPEAVButton@@@Z@std@@@Z 00000001400432e8     button.obj
 0003:00001320       ?_Swap@?$_Func_class@XPEAVButton@@@std@@IEAAXAEAV12@@Z$rtcName$0 0000000140043320     button.obj
 0003:00001330       ?_Swap@?$_Func_class@XPEAVButton@@@std@@IEAAXAEAV12@@Z$rtcVarDesc 0000000140043330     button.obj
 0003:00001370       ?_Swap@?$_Func_class@XPEAVButton@@@std@@IEAAXAEAV12@@Z$rtcFrameData 0000000140043370     button.obj
 0003:00001380       $cppxdata$?_Swap@?$_Func_class@XPEAVButton@@@std@@IEAAXAEAV12@@Z 0000000140043380     button.obj
 0003:000013c8       $cppxdata$??0?$function@$$A6AXPEAVButton@@@Z@std@@QEAA@AEBV01@@Z 00000001400433c8     button.obj
 0003:00001400       ??$_Reallocate_for@V<lambda_66f57f934f28d61049862f64df852ff0>@@PEBD@?$basic_string@DU?$char_traits@D@std@@V?$allocator@D@2@@std@@QEAAAEAV01@_KV<lambda_66f57f934f28d61049862f64df852ff0>@@PEBD@Z$rtcName$0 0000000140043400     button.obj
 0003:00001410       ??$_Reallocate_for@V<lambda_66f57f934f28d61049862f64df852ff0>@@PEBD@?$basic_string@DU?$char_traits@D@std@@V?$allocator@D@2@@std@@QEAAAEAV01@_KV<lambda_66f57f934f28d61049862f64df852ff0>@@PEBD@Z$rtcVarDesc 0000000140043410     button.obj
 0003:00001450       ??$_Reallocate_for@V<lambda_66f57f934f28d61049862f64df852ff0>@@PEBD@?$basic_string@DU?$char_traits@D@std@@V?$allocator@D@2@@std@@QEAAAEAV01@_KV<lambda_66f57f934f28d61049862f64df852ff0>@@PEBD@Z$rtcFrameData 0000000140043450     button.obj
 0003:000018c4       ?piecewise_construct@std@@3Upiecewise_construct_t@1@B 00000001400438c4     config.obj
 0003:000018d0       printf$rtcName$0           00000001400438d0     config.obj
 0003:000018e0       printf$rtcVarDesc          00000001400438e0     config.obj
 0003:00001920       printf$rtcFrameData        0000000140043920     config.obj
 0003:00001950       ?_Swap_all@_Container_base12@std@@QEAAXAEAU12@@Z$rtcName$0 0000000140043950     config.obj
 0003:00001960       ?_Swap_all@_Container_base12@std@@QEAAXAEAU12@@Z$rtcVarDesc 0000000140043960     config.obj
 0003:000019a0       ?_Swap_all@_Container_base12@std@@QEAAXAEAU12@@Z$rtcFrameData 00000001400439a0     config.obj
 0003:000019b0       $cppxdata$?_Swap_all@_Container_base12@std@@QEAAXAEAU12@@Z 00000001400439b0     config.obj
 0003:00001a00       ??4_Iterator_base12@std@@QEAAAEAU01@AEBU01@@Z$rtcName$0 0000000140043a00     config.obj
 0003:00001a10       ??4_Iterator_base12@std@@QEAAAEAU01@AEBU01@@Z$rtcVarDesc 0000000140043a10     config.obj
 0003:00001a50       ??4_Iterator_base12@std@@QEAAAEAU01@AEBU01@@Z$rtcFrameData 0000000140043a50     config.obj
 0003:00001a60       $cppxdata$??4_Iterator_base12@std@@QEAAAEAU01@AEBU01@@Z 0000000140043a60     config.obj
 0003:00001ab0       ??1_Iterator_base12@std@@QEAA@XZ$rtcName$0 0000000140043ab0     config.obj
 0003:00001ac0       ??1_Iterator_base12@std@@QEAA@XZ$rtcVarDesc 0000000140043ac0     config.obj
 0003:00001b00       ??1_Iterator_base12@std@@QEAA@XZ$rtcFrameData 0000000140043b00     config.obj
 0003:00001b10       $cppxdata$??1_Iterator_base12@std@@QEAA@XZ 0000000140043b10     config.obj
 0003:00001b60       ?_Adopt@_Iterator_base12@std@@QEAAXPEBU_Container_base12@2@@Z$rtcName$0 0000000140043b60     config.obj
 0003:00001b68       ?_Adopt@_Iterator_base12@std@@QEAAXPEBU_Container_base12@2@@Z$rtcName$1 0000000140043b68     config.obj
 0003:00001b70       ?_Adopt@_Iterator_base12@std@@QEAAXPEBU_Container_base12@2@@Z$rtcVarDesc 0000000140043b70     config.obj
 0003:00001bf0       ?_Adopt@_Iterator_base12@std@@QEAAXPEBU_Container_base12@2@@Z$rtcFrameData 0000000140043bf0     config.obj
 0003:00001c00       $cppxdata$?_Adopt@_Iterator_base12@std@@QEAAXPEBU_Container_base12@2@@Z 0000000140043c00     config.obj
 0003:00001c50       $cppxdata$?_Orphan_me@_Iterator_base12@std@@QEAAXXZ 0000000140043c50     config.obj
 0003:00001c80       $cppxdata$??0?$basic_string@DU?$char_traits@D@std@@V?$allocator@D@2@@std@@QEAA@AEBV01@_K1AEBV?$allocator@D@1@@Z 0000000140043c80     config.obj
 0003:00001cb0       $cppxdata$??4?$basic_string@DU?$char_traits@D@std@@V?$allocator@D@2@@std@@QEAAAEAV01@$$QEAV01@@Z 0000000140043cb0     config.obj
 0003:00001ce0       $cppxdata$?_Assign_rv_contents_with_alloc_always_equal@?$basic_string@DU?$char_traits@D@std@@V?$allocator@D@2@@std@@QEAAX$$QEAV12@U?$integral_constant@_N$00@2@@Z 0000000140043ce0     config.obj
 0003:00001d10       $cppxdata$?c_str@?$basic_string@DU?$char_traits@D@std@@V?$allocator@D@2@@std@@QEBAPEBDXZ 0000000140043d10     config.obj
 0003:00001d40       ?stoi@std@@YAHAEBV?$basic_string@DU?$char_traits@D@std@@V?$allocator@D@2@@1@PEA_KH@Z$rtcName$0 0000000140043d40     config.obj
 0003:00001d50       ?stoi@std@@YAHAEBV?$basic_string@DU?$char_traits@D@std@@V?$allocator@D@2@@1@PEA_KH@Z$rtcVarDesc 0000000140043d50     config.obj
 0003:00001d90       ?stoi@std@@YAHAEBV?$basic_string@DU?$char_traits@D@std@@V?$allocator@D@2@@1@PEA_KH@Z$rtcFrameData 0000000140043d90     config.obj
 0003:00001dc0       ?stof@std@@YAMAEBV?$basic_string@DU?$char_traits@D@std@@V?$allocator@D@2@@1@PEA_K@Z$rtcName$0 0000000140043dc0     config.obj
 0003:00001dd0       ?stof@std@@YAMAEBV?$basic_string@DU?$char_traits@D@std@@V?$allocator@D@2@@1@PEA_K@Z$rtcVarDesc 0000000140043dd0     config.obj
 0003:00001e10       ?stof@std@@YAMAEBV?$basic_string@DU?$char_traits@D@std@@V?$allocator@D@2@@1@PEA_K@Z$rtcFrameData 0000000140043e10     config.obj
 0003:00001e38       $cppxdata$?Read@Config_Parser@@YAPEBDPEBDAEAV?$basic_string@DU?$char_traits@D@std@@V?$allocator@D@2@@std@@@Z 0000000140043e38     config.obj
 0003:00001e68       $cppxdata$?Read@Config_Parser@@YAPEBDPEBDAEAH@Z 0000000140043e68     config.obj
 0003:00001e98       $cppxdata$?Read@Config_Parser@@YAPEBDPEBDAEAM@Z 0000000140043e98     config.obj
 0003:00001ed0       ?Load@ConfigManager@@QEAA_NPEBD@Z$rtcName$0 0000000140043ed0     config.obj
 0003:00001ee0       ?Load@ConfigManager@@QEAA_NPEBD@Z$rtcVarDesc 0000000140043ee0     config.obj
 0003:00001f20       ?Load@ConfigManager@@QEAA_NPEBD@Z$rtcFrameData 0000000140043f20     config.obj
 0003:00001f50       ?Create_Object@ConfigManager@@QEBAPEAVGameObject@@W4Object_Type@@@Z$rtcName$0 0000000140043f50     config.obj
 0003:00001f60       ?Create_Object@ConfigManager@@QEBAPEAVGameObject@@W4Object_Type@@@Z$rtcVarDesc 0000000140043f60     config.obj
 0003:00001fa0       ?Create_Object@ConfigManager@@QEBAPEAVGameObject@@W4Object_Type@@@Z$rtcFrameData 0000000140043fa0     config.obj
 0003:00001fb0       $cppxdata$?Create_Object@ConfigManager@@QEBAPEAVGameObject@@W4Object_Type@@@Z 0000000140043fb0     config.obj
 0003:00001ff8       $cppxdata$?_Buynode0@?$_Tree_comp_alloc@V?$_Tmap_traits@W4Object_Type@@PEBVGameObject@@U?$less@W4Object_Type@@@std@@V?$allocator@U?$pair@$$CBW4Object_Type@@PEBVGameObject@@@std@@@4@$0A@@std@@@std@@QEAAPEAU?$_Tree_node@U?$pair@$$CBW4Object_Type@@PEBVGameObject@@@std@@PEAX@2@XZ 0000000140043ff8     config.obj
 0003:00002028       $cppxdata$?begin@?$_Tree@V?$_Tmap_traits@W4Object_Type@@PEBVGameObject@@U?$less@W4Object_Type@@@std@@V?$allocator@U?$pair@$$CBW4Object_Type@@PEBVGameObject@@@std@@@4@$0A@@std@@@std@@QEAA?AV?$_Tree_iterator@V?$_Tree_val@U?$_Tree_simple_types@U?$pair@$$CBW4Object_Type@@PEBVGameObject@@@std@@@std@@@std@@@2@XZ 0000000140044028     config.obj
 0003:00002058       $cppxdata$?end@?$_Tree@V?$_Tmap_traits@W4Object_Type@@PEBVGameObject@@U?$less@W4Object_Type@@@std@@V?$allocator@U?$pair@$$CBW4Object_Type@@PEBVGameObject@@@std@@@4@$0A@@std@@@std@@QEAA?AV?$_Tree_iterator@V?$_Tree_val@U?$_Tree_simple_types@U?$pair@$$CBW4Object_Type@@PEBVGameObject@@@std@@@std@@@std@@@2@XZ 0000000140044058     config.obj
 0003:00002088       $cppxdata$?end@?$_Tree@V?$_Tmap_traits@W4Object_Type@@PEBVGameObject@@U?$less@W4Object_Type@@@std@@V?$allocator@U?$pair@$$CBW4Object_Type@@PEBVGameObject@@@std@@@4@$0A@@std@@@std@@QEBA?AV?$_Tree_const_iterator@V?$_Tree_val@U?$_Tree_simple_types@U?$pair@$$CBW4Object_Type@@PEBVGameObject@@@std@@@std@@@std@@@2@XZ 0000000140044088     config.obj
 0003:000020c0       ?find@?$_Tree@V?$_Tmap_traits@W4Object_Type@@PEBVGameObject@@U?$less@W4Object_Type@@@std@@V?$allocator@U?$pair@$$CBW4Object_Type@@PEBVGameObject@@@std@@@4@$0A@@std@@@std@@QEBA?AV?$_Tree_const_iterator@V?$_Tree_val@U?$_Tree_simple_types@U?$pair@$$CBW4Object_Type@@PEBVGameObject@@@std@@@std@@@std@@@2@AEBW4Object_Type@@@Z$rtcName$0 00000001400440c0     config.obj
 0003:000020d0       ?find@?$_Tree@V?$_Tmap_traits@W4Object_Type@@PEBVGameObject@@U?$less@W4Object_Type@@@std@@V?$allocator@U?$pair@$$CBW4Object_Type@@PEBVGameObject@@@std@@@4@$0A@@std@@@std@@QEBA?AV?$_Tree_const_iterator@V?$_Tree_val@U?$_Tree_simple_types@U?$pair@$$CBW4Object_Type@@PEBVGameObject@@@std@@@std@@@std@@@2@AEBW4Object_Type@@@Z$rtcVarDesc 00000001400440d0     config.obj
 0003:00002110       ?find@?$_Tree@V?$_Tmap_traits@W4Object_Type@@PEBVGameObject@@U?$less@W4Object_Type@@@std@@V?$allocator@U?$pair@$$CBW4Object_Type@@PEBVGameObject@@@std@@@4@$0A@@std@@@std@@QEBA?AV?$_Tree_const_iterator@V?$_Tree_val@U?$_Tree_simple_types@U?$pair@$$CBW4Object_Type@@PEBVGameObject@@@std@@@std@@@std@@@2@AEBW4Object_Type@@@Z$rtcFrameData 0000000140044110     config.obj
 0003:00002120       $cppxdata$?find@?$_Tree@V?$_Tmap_traits@W4Object_Type@@PEBVGameObject@@U?$less@W4Object_Type@@@std@@V?$allocator@U?$pair@$$CBW4Object_Type@@PEBVGameObject@@@std@@@4@$0A@@std@@@std@@QEBA?AV?$_Tree_const_iterator@V?$_Tree_val@U?$_Tree_simple_types@U?$pair@$$CBW4Object_Type@@PEBVGameObject@@@std@@@std@@@std@@@2@AEBW4Object_Type@@@Z 0000000140044120     config.obj
 0003:00002168       $cppxdata$??A?$map@W4Object_Type@@PEBVGameObject@@U?$less@W4Object_Type@@@std@@V?$allocator@U?$pair@$$CBW4Object_Type@@PEBVGameObject@@@std@@@4@@std@@QEAAAEAPEBVGameObject@@$$QEAW4Object_Type@@@Z 0000000140044168     config.obj
 0003:00002198       $cppxdata$??$?0AEBV?$allocator@D@std@@X@?$_String_alloc@U?$_String_base_types@DV?$allocator@D@std@@@std@@@std@@QEAA@AEBV?$allocator@D@1@@Z 0000000140044198     config.obj
 0003:000021d0       ??$_Pocma@V?$allocator@D@std@@@std@@YAXAEAV?$allocator@D@0@0@Z$rtcName$0 00000001400441d0     config.obj
 0003:000021e0       ??$_Pocma@V?$allocator@D@std@@@std@@YAXAEAV?$allocator@D@0@0@Z$rtcVarDesc 00000001400441e0     config.obj
 0003:00002220       ??$_Pocma@V?$allocator@D@std@@@std@@YAXAEAV?$allocator@D@0@0@Z$rtcFrameData 0000000140044220     config.obj
 0003:00002250       ??$_Reallocate_for@V<lambda_66f57f934f28d61049862f64df852ff0>@@PEBD@?$basic_string@DU?$char_traits@D@std@@V?$allocator@D@2@@std@@QEAAAEAV01@_KV<lambda_66f57f934f28d61049862f64df852ff0>@@PEBD@Z$rtcName$0 0000000140044250     config.obj
 0003:00002260       ??$_Reallocate_for@V<lambda_66f57f934f28d61049862f64df852ff0>@@PEBD@?$basic_string@DU?$char_traits@D@std@@V?$allocator@D@2@@std@@QEAAAEAV01@_KV<lambda_66f57f934f28d61049862f64df852ff0>@@PEBD@Z$rtcVarDesc 0000000140044260     config.obj
 0003:000022a0       ??$_Reallocate_for@V<lambda_66f57f934f28d61049862f64df852ff0>@@PEBD@?$basic_string@DU?$char_traits@D@std@@V?$allocator@D@2@@std@@QEAAAEAV01@_KV<lambda_66f57f934f28d61049862f64df852ff0>@@PEBD@Z$rtcFrameData 00000001400442a0     config.obj
 0003:000022d0       ??$_Try_emplace@W4Object_Type@@$$V@?$map@W4Object_Type@@PEBVGameObject@@U?$less@W4Object_Type@@@std@@V?$allocator@U?$pair@$$CBW4Object_Type@@PEBVGameObject@@@std@@@4@@std@@QEAA?AU?$pair@V?$_Tree_iterator@V?$_Tree_val@U?$_Tree_simple_types@U?$pair@$$CBW4Object_Type@@PEBVGameObject@@@std@@@std@@@std@@@std@@_N@1@$$QEAW4Object_Type@@@Z$rtcName$0 00000001400442d0     config.obj
 0003:000022e0       ??$_Try_emplace@W4Object_Type@@$$V@?$map@W4Object_Type@@PEBVGameObject@@U?$less@W4Object_Type@@@std@@V?$allocator@U?$pair@$$CBW4Object_Type@@PEBVGameObject@@@std@@@4@@std@@QEAA?AU?$pair@V?$_Tree_iterator@V?$_Tree_val@U?$_Tree_simple_types@U?$pair@$$CBW4Object_Type@@PEBVGameObject@@@std@@@std@@@std@@@std@@_N@1@$$QEAW4Object_Type@@@Z$rtcVarDesc 00000001400442e0     config.obj
 0003:00002320       ??$_Try_emplace@W4Object_Type@@$$V@?$map@W4Object_Type@@PEBVGameObject@@U?$less@W4Object_Type@@@std@@V?$allocator@U?$pair@$$CBW4Object_Type@@PEBVGameObject@@@std@@@4@@std@@QEAA?AU?$pair@V?$_Tree_iterator@V?$_Tree_val@U?$_Tree_simple_types@U?$pair@$$CBW4Object_Type@@PEBVGameObject@@@std@@@std@@@std@@@std@@_N@1@$$QEAW4Object_Type@@@Z$rtcFrameData 0000000140044320     config.obj
 0003:00002330       $cppxdata$??$_Try_emplace@W4Object_Type@@$$V@?$map@W4Object_Type@@PEBVGameObject@@U?$less@W4Object_Type@@@std@@V?$allocator@U?$pair@$$CBW4Object_Type@@PEBVGameObject@@@std@@@4@@std@@QEAA?AU?$pair@V?$_Tree_iterator@V?$_Tree_val@U?$_Tree_simple_types@U?$pair@$$CBW4Object_Type@@PEBVGameObject@@@std@@@std@@@std@@@std@@_N@1@$$QEAW4Object_Type@@@Z 0000000140044330     config.obj
 0003:00002378       $cppxdata$??$forward_as_tuple@W4Object_Type@@@std@@YA?AV?$tuple@$$QEAW4Object_Type@@@0@$$QEAW4Object_Type@@@Z 0000000140044378     config.obj
 0003:000023a8       $cppxdata$??$emplace_hint@AEBUpiecewise_construct_t@std@@V?$tuple@$$QEAW4Object_Type@@@2@V?$tuple@$$V@2@@?$_Tree@V?$_Tmap_traits@W4Object_Type@@PEBVGameObject@@U?$less@W4Object_Type@@@std@@V?$allocator@U?$pair@$$CBW4Object_Type@@PEBVGameObject@@@std@@@4@$0A@@std@@@std@@QEAA?AV?$_Tree_iterator@V?$_Tree_val@U?$_Tree_simple_types@U?$pair@$$CBW4Object_Type@@PEBVGameObject@@@std@@@std@@@std@@@1@V?$_Tree_const_iterator@V?$_Tree_val@U?$_Tree_simple_types@U?$pair@$$CBW4Object_Type@@PEBVGameObject@@@std@@@std@@@std@@@1@AEBUpiecewise_construct_t@1@$$QEAV?$tuple@$$QEAW4Object_Type@@@1@$$QEAV?$tuple@$$V@1@@Z 00000001400443a8     config.obj
 0003:000023d8       $cppxdata$??$_Buynode@AEBUpiecewise_construct_t@std@@V?$tuple@$$QEAW4Object_Type@@@2@V?$tuple@$$V@2@@?$_Tree_comp_alloc@V?$_Tmap_traits@W4Object_Type@@PEBVGameObject@@U?$less@W4Object_Type@@@std@@V?$allocator@U?$pair@$$CBW4Object_Type@@PEBVGameObject@@@std@@@4@$0A@@std@@@std@@QEAAPEAU?$_Tree_node@U?$pair@$$CBW4Object_Type@@PEBVGameObject@@@std@@PEAX@1@AEBUpiecewise_construct_t@1@$$QEAV?$tuple@$$QEAW4Object_Type@@@1@$$QEAV?$tuple@$$V@1@@Z 00000001400443d8     config.obj
 0003:00002410       ??$_Insert_hint@AEAU?$pair@$$CBW4Object_Type@@PEBVGameObject@@@std@@PEAU?$_Tree_node@U?$pair@$$CBW4Object_Type@@PEBVGameObject@@@std@@PEAX@2@@?$_Tree@V?$_Tmap_traits@W4Object_Type@@PEBVGameObject@@U?$less@W4Object_Type@@@std@@V?$allocator@U?$pair@$$CBW4Object_Type@@PEBVGameObject@@@std@@@4@$0A@@std@@@std@@IEAA?AV?$_Tree_iterator@V?$_Tree_val@U?$_Tree_simple_types@U?$pair@$$CBW4Object_Type@@PEBVGameObject@@@std@@@std@@@std@@@1@V?$_Tree_const_iterator@V?$_Tree_val@U?$_Tree_simple_types@U?$pair@$$CBW4Object_Type@@PEBVGameObject@@@std@@@std@@@std@@@1@AEAU?$pair@$$CBW4Object_Type@@PEBVGameObject@@@1@PEAU?$_Tree_node@U?$pair@$$CBW4Object_Type@@PEBVGameObject@@@std@@PEAX@1@@Z$rtcName$0 0000000140044410     config.obj
 0003:00002420       ??$_Insert_hint@AEAU?$pair@$$CBW4Object_Type@@PEBVGameObject@@@std@@PEAU?$_Tree_node@U?$pair@$$CBW4Object_Type@@PEBVGameObject@@@std@@PEAX@2@@?$_Tree@V?$_Tmap_traits@W4Object_Type@@PEBVGameObject@@U?$less@W4Object_Type@@@std@@V?$allocator@U?$pair@$$CBW4Object_Type@@PEBVGameObject@@@std@@@4@$0A@@std@@@std@@IEAA?AV?$_Tree_iterator@V?$_Tree_val@U?$_Tree_simple_types@U?$pair@$$CBW4Object_Type@@PEBVGameObject@@@std@@@std@@@std@@@1@V?$_Tree_const_iterator@V?$_Tree_val@U?$_Tree_simple_types@U?$pair@$$CBW4Object_Type@@PEBVGameObject@@@std@@@std@@@std@@@1@AEAU?$pair@$$CBW4Object_Type@@PEBVGameObject@@@1@PEAU?$_Tree_node@U?$pair@$$CBW4Object_Type@@PEBVGameObject@@@std@@PEAX@1@@Z$rtcVarDesc 0000000140044420     config.obj
 0003:00002460       ??$_Insert_hint@AEAU?$pair@$$CBW4Object_Type@@PEBVGameObject@@@std@@PEAU?$_Tree_node@U?$pair@$$CBW4Object_Type@@PEBVGameObject@@@std@@PEAX@2@@?$_Tree@V?$_Tmap_traits@W4Object_Type@@PEBVGameObject@@U?$less@W4Object_Type@@@std@@V?$allocator@U?$pair@$$CBW4Object_Type@@PEBVGameObject@@@std@@@4@$0A@@std@@@std@@IEAA?AV?$_Tree_iterator@V?$_Tree_val@U?$_Tree_simple_types@U?$pair@$$CBW4Object_Type@@PEBVGameObject@@@std@@@std@@@std@@@1@V?$_Tree_const_iterator@V?$_Tree_val@U?$_Tree_simple_types@U?$pair@$$CBW4Object_Type@@PEBVGameObject@@@std@@@std@@@std@@@1@AEAU?$pair@$$CBW4Object_Type@@PEBVGameObject@@@1@PEAU?$_Tree_node@U?$pair@$$CBW4Object_Type@@PEBVGameObject@@@std@@PEAX@1@@Z$rtcFrameData 0000000140044460     config.obj
 0003:00002470       $cppxdata$??$_Insert_hint@AEAU?$pair@$$CBW4Object_Type@@PEBVGameObject@@@std@@PEAU?$_Tree_node@U?$pair@$$CBW4Object_Type@@PEBVGameObject@@@std@@PEAX@2@@?$_Tree@V?$_Tmap_traits@W4Object_Type@@PEBVGameObject@@U?$less@W4Object_Type@@@std@@V?$allocator@U?$pair@$$CBW4Object_Type@@PEBVGameObject@@@std@@@4@$0A@@std@@@std@@IEAA?AV?$_Tree_iterator@V?$_Tree_val@U?$_Tree_simple_types@U?$pair@$$CBW4Object_Type@@PEBVGameObject@@@std@@@std@@@std@@@1@V?$_Tree_const_iterator@V?$_Tree_val@U?$_Tree_simple_types@U?$pair@$$CBW4Object_Type@@PEBVGameObject@@@std@@@std@@@std@@@1@AEAU?$pair@$$CBW4Object_Type@@PEBVGameObject@@@1@PEAU?$_Tree_node@U?$pair@$$CBW4Object_Type@@PEBVGameObject@@@std@@PEAX@1@@Z 0000000140044470     config.obj
 0003:000024c0       ??$_Insert_nohint@AEAU?$pair@$$CBW4Object_Type@@PEBVGameObject@@@std@@PEAU?$_Tree_node@U?$pair@$$CBW4Object_Type@@PEBVGameObject@@@std@@PEAX@2@@?$_Tree@V?$_Tmap_traits@W4Object_Type@@PEBVGameObject@@U?$less@W4Object_Type@@@std@@V?$allocator@U?$pair@$$CBW4Object_Type@@PEBVGameObject@@@std@@@4@$0A@@std@@@std@@IEAA?AU?$pair@V?$_Tree_iterator@V?$_Tree_val@U?$_Tree_simple_types@U?$pair@$$CBW4Object_Type@@PEBVGameObject@@@std@@@std@@@std@@@std@@_N@1@_NAEAU?$pair@$$CBW4Object_Type@@PEBVGameObject@@@1@PEAU?$_Tree_node@U?$pair@$$CBW4Object_Type@@PEBVGameObject@@@std@@PEAX@1@@Z$rtcName$0 00000001400444c0     config.obj
 0003:000024d0       ??$_Insert_nohint@AEAU?$pair@$$CBW4Object_Type@@PEBVGameObject@@@std@@PEAU?$_Tree_node@U?$pair@$$CBW4Object_Type@@PEBVGameObject@@@std@@PEAX@2@@?$_Tree@V?$_Tmap_traits@W4Object_Type@@PEBVGameObject@@U?$less@W4Object_Type@@@std@@V?$allocator@U?$pair@$$CBW4Object_Type@@PEBVGameObject@@@std@@@4@$0A@@std@@@std@@IEAA?AU?$pair@V?$_Tree_iterator@V?$_Tree_val@U?$_Tree_simple_types@U?$pair@$$CBW4Object_Type@@PEBVGameObject@@@std@@@std@@@std@@@std@@_N@1@_NAEAU?$pair@$$CBW4Object_Type@@PEBVGameObject@@@1@PEAU?$_Tree_node@U?$pair@$$CBW4Object_Type@@PEBVGameObject@@@std@@PEAX@1@@Z$rtcVarDesc 00000001400444d0     config.obj
 0003:00002510       ??$_Insert_nohint@AEAU?$pair@$$CBW4Object_Type@@PEBVGameObject@@@std@@PEAU?$_Tree_node@U?$pair@$$CBW4Object_Type@@PEBVGameObject@@@std@@PEAX@2@@?$_Tree@V?$_Tmap_traits@W4Object_Type@@PEBVGameObject@@U?$less@W4Object_Type@@@std@@V?$allocator@U?$pair@$$CBW4Object_Type@@PEBVGameObject@@@std@@@4@$0A@@std@@@std@@IEAA?AU?$pair@V?$_Tree_iterator@V?$_Tree_val@U?$_Tree_simple_types@U?$pair@$$CBW4Object_Type@@PEBVGameObject@@@std@@@std@@@std@@@std@@_N@1@_NAEAU?$pair@$$CBW4Object_Type@@PEBVGameObject@@@1@PEAU?$_Tree_node@U?$pair@$$CBW4Object_Type@@PEBVGameObject@@@std@@PEAX@1@@Z$rtcFrameData 0000000140044510     config.obj
 0003:00002520       $cppxdata$??$_Insert_nohint@AEAU?$pair@$$CBW4Object_Type@@PEBVGameObject@@@std@@PEAU?$_Tree_node@U?$pair@$$CBW4Object_Type@@PEBVGameObject@@@std@@PEAX@2@@?$_Tree@V?$_Tmap_traits@W4Object_Type@@PEBVGameObject@@U?$less@W4Object_Type@@@std@@V?$allocator@U?$pair@$$CBW4Object_Type@@PEBVGameObject@@@std@@@4@$0A@@std@@@std@@IEAA?AU?$pair@V?$_Tree_iterator@V?$_Tree_val@U?$_Tree_simple_types@U?$pair@$$CBW4Object_Type@@PEBVGameObject@@@std@@@std@@@std@@@std@@_N@1@_NAEAU?$pair@$$CBW4Object_Type@@PEBVGameObject@@@1@PEAU?$_Tree_node@U?$pair@$$CBW4Object_Type@@PEBVGameObject@@@std@@PEAX@1@@Z 0000000140044520     config.obj
 0003:00002570       ??$_Freenode0@V?$allocator@U?$_Tree_node@U?$pair@$$CBW4Object_Type@@PEBVGameObject@@@std@@PEAX@std@@@std@@@?$_Tree_node@U?$pair@$$CBW4Object_Type@@PEBVGameObject@@@std@@PEAX@std@@SAXAEAV?$allocator@U?$_Tree_node@U?$pair@$$CBW4Object_Type@@PEBVGameObject@@@std@@PEAX@std@@@1@PEAU01@@Z$rtcName$0 0000000140044570     config.obj
 0003:00002580       ??$_Freenode0@V?$allocator@U?$_Tree_node@U?$pair@$$CBW4Object_Type@@PEBVGameObject@@@std@@PEAX@std@@@std@@@?$_Tree_node@U?$pair@$$CBW4Object_Type@@PEBVGameObject@@@std@@PEAX@std@@SAXAEAV?$allocator@U?$_Tree_node@U?$pair@$$CBW4Object_Type@@PEBVGameObject@@@std@@PEAX@std@@@1@PEAU01@@Z$rtcVarDesc 0000000140044580     config.obj
 0003:000025c0       ??$_Freenode0@V?$allocator@U?$_Tree_node@U?$pair@$$CBW4Object_Type@@PEBVGameObject@@@std@@PEAX@std@@@std@@@?$_Tree_node@U?$pair@$$CBW4Object_Type@@PEBVGameObject@@@std@@PEAX@std@@SAXAEAV?$allocator@U?$_Tree_node@U?$pair@$$CBW4Object_Type@@PEBVGameObject@@@std@@PEAX@std@@@1@PEAU01@@Z$rtcFrameData 00000001400445c0     config.obj
 0003:000025d0       $cppxdata$??$_Freenode0@V?$allocator@U?$_Tree_node@U?$pair@$$CBW4Object_Type@@PEBVGameObject@@@std@@PEAX@std@@@std@@@?$_Tree_node@U?$pair@$$CBW4Object_Type@@PEBVGameObject@@@std@@PEAX@std@@SAXAEAV?$allocator@U?$_Tree_node@U?$pair@$$CBW4Object_Type@@PEBVGameObject@@@std@@PEAX@std@@@1@PEAU01@@Z 00000001400445d0     config.obj
 0003:00003840       $cppxdata$??0locale@std@@QEAA@XZ 0000000140045840     engine.obj
 0003:00003870       $cppxdata$??1locale@std@@QEAA@XZ 0000000140045870     engine.obj
 0003:000038a0       $cppxdata$?_Construct@?$_Tree_comp_alloc@V?$_Tmap_traits@W4Object_Type@@PEBVGameObject@@U?$less@W4Object_Type@@@std@@V?$allocator@U?$pair@$$CBW4Object_Type@@PEBVGameObject@@@std@@@4@$0A@@std@@@std@@QEAAXXZ 00000001400458a0     engine.obj
 0003:000038d0       $cppxdata$??1?$_Tree_comp_alloc@V?$_Tmap_traits@W4Object_Type@@PEBVGameObject@@U?$less@W4Object_Type@@@std@@V?$allocator@U?$pair@$$CBW4Object_Type@@PEBVGameObject@@@std@@@4@$0A@@std@@@std@@QEAA@XZ 00000001400458d0     engine.obj
 0003:00003900       ?_Alloc_proxy@?$_Tree_comp_alloc@V?$_Tmap_traits@W4Object_Type@@PEBVGameObject@@U?$less@W4Object_Type@@@std@@V?$allocator@U?$pair@$$CBW4Object_Type@@PEBVGameObject@@@std@@@4@$0A@@std@@@std@@QEAAXXZ$rtcName$0 0000000140045900     engine.obj
 0003:00003920       ?_Alloc_proxy@?$_Tree_comp_alloc@V?$_Tmap_traits@W4Object_Type@@PEBVGameObject@@U?$less@W4Object_Type@@@std@@V?$allocator@U?$pair@$$CBW4Object_Type@@PEBVGameObject@@@std@@@4@$0A@@std@@@std@@QEAAXXZ$rtcVarDesc 0000000140045920     engine.obj
 0003:00003960       ?_Alloc_proxy@?$_Tree_comp_alloc@V?$_Tmap_traits@W4Object_Type@@PEBVGameObject@@U?$less@W4Object_Type@@@std@@V?$allocator@U?$pair@$$CBW4Object_Type@@PEBVGameObject@@@std@@@4@$0A@@std@@@std@@QEAAXXZ$rtcFrameData 0000000140045960     engine.obj
 0003:00003990       ?_Free_proxy@?$_Tree_comp_alloc@V?$_Tmap_traits@W4Object_Type@@PEBVGameObject@@U?$less@W4Object_Type@@@std@@V?$allocator@U?$pair@$$CBW4Object_Type@@PEBVGameObject@@@std@@@4@$0A@@std@@@std@@QEAAXXZ$rtcName$0 0000000140045990     engine.obj
 0003:000039b0       ?_Free_proxy@?$_Tree_comp_alloc@V?$_Tmap_traits@W4Object_Type@@PEBVGameObject@@U?$less@W4Object_Type@@@std@@V?$allocator@U?$pair@$$CBW4Object_Type@@PEBVGameObject@@@std@@@4@$0A@@std@@@std@@QEAAXXZ$rtcVarDesc 00000001400459b0     engine.obj
 0003:000039f0       ?_Free_proxy@?$_Tree_comp_alloc@V?$_Tmap_traits@W4Object_Type@@PEBVGameObject@@U?$less@W4Object_Type@@@std@@V?$allocator@U?$pair@$$CBW4Object_Type@@PEBVGameObject@@@std@@@4@$0A@@std@@@std@@QEAAXXZ$rtcFrameData 00000001400459f0     engine.obj
 0003:00003a20       ?_Buyheadnode@?$_Tree_comp_alloc@V?$_Tmap_traits@W4Object_Type@@PEBVGameObject@@U?$less@W4Object_Type@@@std@@V?$allocator@U?$pair@$$CBW4Object_Type@@PEBVGameObject@@@std@@@4@$0A@@std@@@std@@QEAAPEAU?$_Tree_node@U?$pair@$$CBW4Object_Type@@PEBVGameObject@@@std@@PEAX@2@XZ$rtcName$0 0000000140045a20     engine.obj
 0003:00003a30       ?_Buyheadnode@?$_Tree_comp_alloc@V?$_Tmap_traits@W4Object_Type@@PEBVGameObject@@U?$less@W4Object_Type@@@std@@V?$allocator@U?$pair@$$CBW4Object_Type@@PEBVGameObject@@@std@@@4@$0A@@std@@@std@@QEAAPEAU?$_Tree_node@U?$pair@$$CBW4Object_Type@@PEBVGameObject@@@std@@PEAX@2@XZ$rtcVarDesc 0000000140045a30     engine.obj
 0003:00003a70       ?_Buyheadnode@?$_Tree_comp_alloc@V?$_Tmap_traits@W4Object_Type@@PEBVGameObject@@U?$less@W4Object_Type@@@std@@V?$allocator@U?$pair@$$CBW4Object_Type@@PEBVGameObject@@@std@@@4@$0A@@std@@@std@@QEAAPEAU?$_Tree_node@U?$pair@$$CBW4Object_Type@@PEBVGameObject@@@std@@PEAX@2@XZ$rtcFrameData 0000000140045a70     engine.obj
 0003:00003a80       $cppxdata$?_Buyheadnode@?$_Tree_comp_alloc@V?$_Tmap_traits@W4Object_Type@@PEBVGameObject@@U?$less@W4Object_Type@@@std@@V?$allocator@U?$pair@$$CBW4Object_Type@@PEBVGameObject@@@std@@@4@$0A@@std@@@std@@QEAAPEAU?$_Tree_node@U?$pair@$$CBW4Object_Type@@PEBVGameObject@@@std@@PEAX@2@XZ 0000000140045a80     engine.obj
 0003:00003ac8       $cppxdata$?_Extract@?$_Tree_val@U?$_Tree_simple_types@U?$pair@$$CBW4Object_Type@@PEBVGameObject@@@std@@@std@@@std@@QEAAPEAU?$_Tree_node@U?$pair@$$CBW4Object_Type@@PEBVGameObject@@@std@@PEAX@2@V?$_Tree_const_iterator@V?$_Tree_val@U?$_Tree_simple_types@U?$pair@$$CBW4Object_Type@@PEBVGameObject@@@std@@@std@@@std@@@2@@Z 0000000140045ac8     engine.obj
 0003:00003af8       $cppxdata$??1?$_Tree@V?$_Tmap_traits@W4Object_Type@@PEBVGameObject@@U?$less@W4Object_Type@@@std@@V?$allocator@U?$pair@$$CBW4Object_Type@@PEBVGameObject@@@std@@@4@$0A@@std@@@std@@QEAA@XZ 0000000140045af8     engine.obj
 0003:00003b30       ?erase@?$_Tree@V?$_Tmap_traits@W4Object_Type@@PEBVGameObject@@U?$less@W4Object_Type@@@std@@V?$allocator@U?$pair@$$CBW4Object_Type@@PEBVGameObject@@@std@@@4@$0A@@std@@@std@@QEAA?AV?$_Tree_iterator@V?$_Tree_val@U?$_Tree_simple_types@U?$pair@$$CBW4Object_Type@@PEBVGameObject@@@std@@@std@@@std@@@2@V?$_Tree_const_iterator@V?$_Tree_val@U?$_Tree_simple_types@U?$pair@$$CBW4Object_Type@@PEBVGameObject@@@std@@@std@@@std@@@2@@Z$rtcName$0 0000000140045b30     engine.obj
 0003:00003b40       ?erase@?$_Tree@V?$_Tmap_traits@W4Object_Type@@PEBVGameObject@@U?$less@W4Object_Type@@@std@@V?$allocator@U?$pair@$$CBW4Object_Type@@PEBVGameObject@@@std@@@4@$0A@@std@@@std@@QEAA?AV?$_Tree_iterator@V?$_Tree_val@U?$_Tree_simple_types@U?$pair@$$CBW4Object_Type@@PEBVGameObject@@@std@@@std@@@std@@@2@V?$_Tree_const_iterator@V?$_Tree_val@U?$_Tree_simple_types@U?$pair@$$CBW4Object_Type@@PEBVGameObject@@@std@@@std@@@std@@@2@@Z$rtcVarDesc 0000000140045b40     engine.obj
 0003:00003b80       ?erase@?$_Tree@V?$_Tmap_traits@W4Object_Type@@PEBVGameObject@@U?$less@W4Object_Type@@@std@@V?$allocator@U?$pair@$$CBW4Object_Type@@PEBVGameObject@@@std@@@4@$0A@@std@@@std@@QEAA?AV?$_Tree_iterator@V?$_Tree_val@U?$_Tree_simple_types@U?$pair@$$CBW4Object_Type@@PEBVGameObject@@@std@@@std@@@std@@@2@V?$_Tree_const_iterator@V?$_Tree_val@U?$_Tree_simple_types@U?$pair@$$CBW4Object_Type@@PEBVGameObject@@@std@@@std@@@std@@@2@@Z$rtcFrameData 0000000140045b80     engine.obj
 0003:00003b90       $cppxdata$?erase@?$_Tree@V?$_Tmap_traits@W4Object_Type@@PEBVGameObject@@U?$less@W4Object_Type@@@std@@V?$allocator@U?$pair@$$CBW4Object_Type@@PEBVGameObject@@@std@@@4@$0A@@std@@@std@@QEAA?AV?$_Tree_iterator@V?$_Tree_val@U?$_Tree_simple_types@U?$pair@$$CBW4Object_Type@@PEBVGameObject@@@std@@@std@@@std@@@2@V?$_Tree_const_iterator@V?$_Tree_val@U?$_Tree_simple_types@U?$pair@$$CBW4Object_Type@@PEBVGameObject@@@std@@@std@@@std@@@2@@Z 0000000140045b90     engine.obj
 0003:00003bd8       $cppxdata$?erase@?$_Tree@V?$_Tmap_traits@W4Object_Type@@PEBVGameObject@@U?$less@W4Object_Type@@@std@@V?$allocator@U?$pair@$$CBW4Object_Type@@PEBVGameObject@@@std@@@4@$0A@@std@@@std@@QEAA?AV?$_Tree_iterator@V?$_Tree_val@U?$_Tree_simple_types@U?$pair@$$CBW4Object_Type@@PEBVGameObject@@@std@@@std@@@std@@@2@V?$_Tree_const_iterator@V?$_Tree_val@U?$_Tree_simple_types@U?$pair@$$CBW4Object_Type@@PEBVGameObject@@@std@@@std@@@std@@@2@0@Z 0000000140045bd8     engine.obj
 0003:00003c08       $cppxdata$?clear@?$_Tree@V?$_Tmap_traits@W4Object_Type@@PEBVGameObject@@U?$less@W4Object_Type@@@std@@V?$allocator@U?$pair@$$CBW4Object_Type@@PEBVGameObject@@@std@@@4@$0A@@std@@@std@@QEAAXXZ 0000000140045c08     engine.obj
 0003:00003c40       ?_Orphan_ptr@?$_Tree@V?$_Tmap_traits@W4Object_Type@@PEBVGameObject@@U?$less@W4Object_Type@@@std@@V?$allocator@U?$pair@$$CBW4Object_Type@@PEBVGameObject@@@std@@@4@$0A@@std@@@std@@IEAAXPEAU?$_Tree_node@U?$pair@$$CBW4Object_Type@@PEBVGameObject@@@std@@PEAX@2@@Z$rtcName$0 0000000140045c40     engine.obj
 0003:00003c50       ?_Orphan_ptr@?$_Tree@V?$_Tmap_traits@W4Object_Type@@PEBVGameObject@@U?$less@W4Object_Type@@@std@@V?$allocator@U?$pair@$$CBW4Object_Type@@PEBVGameObject@@@std@@@4@$0A@@std@@@std@@IEAAXPEAU?$_Tree_node@U?$pair@$$CBW4Object_Type@@PEBVGameObject@@@std@@PEAX@2@@Z$rtcVarDesc 0000000140045c50     engine.obj
 0003:00003c90       ?_Orphan_ptr@?$_Tree@V?$_Tmap_traits@W4Object_Type@@PEBVGameObject@@U?$less@W4Object_Type@@@std@@V?$allocator@U?$pair@$$CBW4Object_Type@@PEBVGameObject@@@std@@@4@$0A@@std@@@std@@IEAAXPEAU?$_Tree_node@U?$pair@$$CBW4Object_Type@@PEBVGameObject@@@std@@PEAX@2@@Z$rtcFrameData 0000000140045c90     engine.obj
 0003:00003ca0       $cppxdata$?_Orphan_ptr@?$_Tree@V?$_Tmap_traits@W4Object_Type@@PEBVGameObject@@U?$less@W4Object_Type@@@std@@V?$allocator@U?$pair@$$CBW4Object_Type@@PEBVGameObject@@@std@@@4@$0A@@std@@@std@@IEAAXPEAU?$_Tree_node@U?$pair@$$CBW4Object_Type@@PEBVGameObject@@@std@@PEAX@2@@Z 0000000140045ca0     engine.obj
 0003:00003ce8       $cppxdata$?_Tidy@?$_Tree@V?$_Tmap_traits@W4Object_Type@@PEBVGameObject@@U?$less@W4Object_Type@@@std@@V?$allocator@U?$pair@$$CBW4Object_Type@@PEBVGameObject@@@std@@@4@$0A@@std@@@std@@IEAAXXZ 0000000140045ce8     engine.obj
 0003:00003d18       $cppxdata$??0Engine@@QEAA@XZ 0000000140045d18     engine.obj
 0003:00003d50       ?Execute@Engine@@QEAAXXZ$rtcName$0 0000000140045d50     engine.obj
 0003:00003d58       ?Execute@Engine@@QEAAXXZ$rtcName$1 0000000140045d58     engine.obj
 0003:00003d64       ?Execute@Engine@@QEAAXXZ$rtcName$2 0000000140045d64     engine.obj
 0003:00003d70       ?Execute@Engine@@QEAAXXZ$rtcVarDesc 0000000140045d70     engine.obj
 0003:00003e30       ?Execute@Engine@@QEAAXXZ$rtcFrameData 0000000140045e30     engine.obj
 0003:00003e40       $cppxdata$?Execute@Engine@@QEAAXXZ 0000000140045e40     engine.obj
 0003:00003f00       ?HandleEvents@Engine@@QEAAXXZ$rtcName$0 0000000140045f00     engine.obj
 0003:00003f10       ?HandleEvents@Engine@@QEAAXXZ$rtcVarDesc 0000000140045f10     engine.obj
 0003:00003f50       ?HandleEvents@Engine@@QEAAXXZ$rtcFrameData 0000000140045f50     engine.obj
 0003:00003f78       $cppxdata$??1?$_Vector_alloc@U?$_Vec_base_types@PEAV?$Container@VWidget@@@@V?$allocator@PEAV?$Container@VWidget@@@@@std@@@std@@@std@@QEAA@XZ 0000000140045f78     engine.obj
 0003:00003fb0       ?_Alloc_proxy@?$_Vector_alloc@U?$_Vec_base_types@PEAV?$Container@VWidget@@@@V?$allocator@PEAV?$Container@VWidget@@@@@std@@@std@@@std@@QEAAXXZ$rtcName$0 0000000140045fb0     engine.obj
 0003:00003fd0       ?_Alloc_proxy@?$_Vector_alloc@U?$_Vec_base_types@PEAV?$Container@VWidget@@@@V?$allocator@PEAV?$Container@VWidget@@@@@std@@@std@@@std@@QEAAXXZ$rtcVarDesc 0000000140045fd0     engine.obj
 0003:00004010       ?_Alloc_proxy@?$_Vector_alloc@U?$_Vec_base_types@PEAV?$Container@VWidget@@@@V?$allocator@PEAV?$Container@VWidget@@@@@std@@@std@@@std@@QEAAXXZ$rtcFrameData 0000000140046010     engine.obj
 0003:00004040       ?_Free_proxy@?$_Vector_alloc@U?$_Vec_base_types@PEAV?$Container@VWidget@@@@V?$allocator@PEAV?$Container@VWidget@@@@@std@@@std@@@std@@QEAAXXZ$rtcName$0 0000000140046040     engine.obj
 0003:00004060       ?_Free_proxy@?$_Vector_alloc@U?$_Vec_base_types@PEAV?$Container@VWidget@@@@V?$allocator@PEAV?$Container@VWidget@@@@@std@@@std@@@std@@QEAAXXZ$rtcVarDesc 0000000140046060     engine.obj
 0003:000040a0       ?_Free_proxy@?$_Vector_alloc@U?$_Vec_base_types@PEAV?$Container@VWidget@@@@V?$allocator@PEAV?$Container@VWidget@@@@@std@@@std@@@std@@QEAAXXZ$rtcFrameData 00000001400460a0     engine.obj
 0003:000040c8       $cppxdata$??0?$vector@PEAV?$Container@VWidget@@@@V?$allocator@PEAV?$Container@VWidget@@@@@std@@@std@@QEAA@XZ 00000001400460c8     engine.obj
 0003:000040f8       $cppxdata$??1?$vector@PEAV?$Container@VWidget@@@@V?$allocator@PEAV?$Container@VWidget@@@@@std@@@std@@QEAA@XZ 00000001400460f8     engine.obj
 0003:00004128       $cppxdata$?clear@?$vector@PEAV?$Container@VWidget@@@@V?$allocator@PEAV?$Container@VWidget@@@@@std@@@std@@QEAAXXZ 0000000140046128     engine.obj
 0003:00004160       ?_Orphan_range@?$vector@PEAV?$Container@VWidget@@@@V?$allocator@PEAV?$Container@VWidget@@@@@std@@@std@@AEBAXPEAPEAV?$Container@VWidget@@@@0@Z$rtcName$0 0000000140046160     engine.obj
 0003:00004170       ?_Orphan_range@?$vector@PEAV?$Container@VWidget@@@@V?$allocator@PEAV?$Container@VWidget@@@@@std@@@std@@AEBAXPEAPEAV?$Container@VWidget@@@@0@Z$rtcVarDesc 0000000140046170     engine.obj
 0003:000041b0       ?_Orphan_range@?$vector@PEAV?$Container@VWidget@@@@V?$allocator@PEAV?$Container@VWidget@@@@@std@@@std@@AEBAXPEAPEAV?$Container@VWidget@@@@0@Z$rtcFrameData 00000001400461b0     engine.obj
 0003:000041c0       $cppxdata$?_Orphan_range@?$vector@PEAV?$Container@VWidget@@@@V?$allocator@PEAV?$Container@VWidget@@@@@std@@@std@@AEBAXPEAPEAV?$Container@VWidget@@@@0@Z 00000001400461c0     engine.obj
 0003:00004208       $cppxdata$??1?$_Vector_alloc@U?$_Vec_base_types@PEAVObject@@V?$allocator@PEAVObject@@@std@@@std@@@std@@QEAA@XZ 0000000140046208     engine.obj
 0003:00004240       ?_Alloc_proxy@?$_Vector_alloc@U?$_Vec_base_types@PEAVObject@@V?$allocator@PEAVObject@@@std@@@std@@@std@@QEAAXXZ$rtcName$0 0000000140046240     engine.obj
 0003:00004260       ?_Alloc_proxy@?$_Vector_alloc@U?$_Vec_base_types@PEAVObject@@V?$allocator@PEAVObject@@@std@@@std@@@std@@QEAAXXZ$rtcVarDesc 0000000140046260     engine.obj
 0003:000042a0       ?_Alloc_proxy@?$_Vector_alloc@U?$_Vec_base_types@PEAVObject@@V?$allocator@PEAVObject@@@std@@@std@@@std@@QEAAXXZ$rtcFrameData 00000001400462a0     engine.obj
 0003:000042d0       ?_Free_proxy@?$_Vector_alloc@U?$_Vec_base_types@PEAVObject@@V?$allocator@PEAVObject@@@std@@@std@@@std@@QEAAXXZ$rtcName$0 00000001400462d0     engine.obj
 0003:000042f0       ?_Free_proxy@?$_Vector_alloc@U?$_Vec_base_types@PEAVObject@@V?$allocator@PEAVObject@@@std@@@std@@@std@@QEAAXXZ$rtcVarDesc 00000001400462f0     engine.obj
 0003:00004330       ?_Free_proxy@?$_Vector_alloc@U?$_Vec_base_types@PEAVObject@@V?$allocator@PEAVObject@@@std@@@std@@@std@@QEAAXXZ$rtcFrameData 0000000140046330     engine.obj
 0003:00004358       $cppxdata$??0?$vector@PEAVObject@@V?$allocator@PEAVObject@@@std@@@std@@QEAA@XZ 0000000140046358     engine.obj
 0003:00004388       $cppxdata$??1?$vector@PEAVObject@@V?$allocator@PEAVObject@@@std@@@std@@QEAA@XZ 0000000140046388     engine.obj
 0003:000043b8       $cppxdata$?clear@?$vector@PEAVObject@@V?$allocator@PEAVObject@@@std@@@std@@QEAAXXZ 00000001400463b8     engine.obj
 0003:000043f0       ?_Orphan_range@?$vector@PEAVObject@@V?$allocator@PEAVObject@@@std@@@std@@AEBAXPEAPEAVObject@@0@Z$rtcName$0 00000001400463f0     engine.obj
 0003:00004400       ?_Orphan_range@?$vector@PEAVObject@@V?$allocator@PEAVObject@@@std@@@std@@AEBAXPEAPEAVObject@@0@Z$rtcVarDesc 0000000140046400     engine.obj
 0003:00004440       ?_Orphan_range@?$vector@PEAVObject@@V?$allocator@PEAVObject@@@std@@@std@@AEBAXPEAPEAVObject@@0@Z$rtcFrameData 0000000140046440     engine.obj
 0003:00004450       $cppxdata$?_Orphan_range@?$vector@PEAVObject@@V?$allocator@PEAVObject@@@std@@@std@@AEBAXPEAPEAVObject@@0@Z 0000000140046450     engine.obj
 0003:00004498       $cppxdata$??$_Emplace_reallocate@AEBQEAVObject@@@?$vector@PEAVObject@@V?$allocator@PEAVObject@@@std@@@std@@QEAAPEAPEAVObject@@QEAPEAV2@AEBQEAV2@@Z 0000000140046498     engine.obj
 0003:000044c8       $cppxdata$??$_Emplace_reallocate@AEBQEAV?$Container@VWidget@@@@@?$vector@PEAV?$Container@VWidget@@@@V?$allocator@PEAV?$Container@VWidget@@@@@std@@@std@@QEAAPEAPEAV?$Container@VWidget@@@@QEAPEAV2@AEBQEAV2@@Z 00000001400464c8     engine.obj
 0003:00004500       ??E?$_Tree_const_iterator@V?$_Tree_val@U?$_Tree_simple_types@U?$pair@$$CBW4Object_Type@@PEBVGameObject@@@std@@@std@@@std@@@std@@QEAA?AV01@H@Z$rtcName$0 0000000140046500     engine.obj
 0003:00004510       ??E?$_Tree_const_iterator@V?$_Tree_val@U?$_Tree_simple_types@U?$pair@$$CBW4Object_Type@@PEBVGameObject@@@std@@@std@@@std@@@std@@QEAA?AV01@H@Z$rtcVarDesc 0000000140046510     engine.obj
 0003:00004550       ??E?$_Tree_const_iterator@V?$_Tree_val@U?$_Tree_simple_types@U?$pair@$$CBW4Object_Type@@PEBVGameObject@@@std@@@std@@@std@@@std@@QEAA?AV01@H@Z$rtcFrameData 0000000140046550     engine.obj
 0003:00004560       $cppxdata$??E?$_Tree_const_iterator@V?$_Tree_val@U?$_Tree_simple_types@U?$pair@$$CBW4Object_Type@@PEBVGameObject@@@std@@@std@@@std@@@std@@QEAA?AV01@H@Z 0000000140046560     engine.obj
 0003:000045b0       ??$swap@DX@std@@YAXAEAD0@Z$rtcName$0 00000001400465b0     engine.obj
 0003:000045c0       ??$swap@DX@std@@YAXAEAD0@Z$rtcVarDesc 00000001400465c0     engine.obj
 0003:00004600       ??$swap@DX@std@@YAXAEAD0@Z$rtcFrameData 0000000140046600     engine.obj
 0003:00004630       ??$_Uninitialized_move@PEAPEAVObject@@PEAPEAV1@V?$allocator@PEAVObject@@@std@@@std@@YAPEAPEAVObject@@QEAPEAV1@0PEAPEAV1@AEAV?$allocator@PEAVObject@@@0@@Z$rtcName$0 0000000140046630     engine.obj
 0003:00004638       ??$_Uninitialized_move@PEAPEAVObject@@PEAPEAV1@V?$allocator@PEAVObject@@@std@@@std@@YAPEAPEAVObject@@QEAPEAV1@0PEAPEAV1@AEAV?$allocator@PEAVObject@@@0@@Z$rtcName$1 0000000140046638     engine.obj
 0003:00004640       ??$_Uninitialized_move@PEAPEAVObject@@PEAPEAV1@V?$allocator@PEAVObject@@@std@@@std@@YAPEAPEAVObject@@QEAPEAV1@0PEAPEAV1@AEAV?$allocator@PEAVObject@@@0@@Z$rtcVarDesc 0000000140046640     engine.obj
 0003:000046c0       ??$_Uninitialized_move@PEAPEAVObject@@PEAPEAV1@V?$allocator@PEAVObject@@@std@@@std@@YAPEAPEAVObject@@QEAPEAV1@0PEAPEAV1@AEAV?$allocator@PEAVObject@@@0@@Z$rtcFrameData 00000001400466c0     engine.obj
 0003:000046f0       ??$_Uninitialized_move@PEAPEAV?$Container@VWidget@@@@PEAPEAV1@V?$allocator@PEAV?$Container@VWidget@@@@@std@@@std@@YAPEAPEAV?$Container@VWidget@@@@QEAPEAV1@0PEAPEAV1@AEAV?$allocator@PEAV?$Container@VWidget@@@@@0@@Z$rtcName$0 00000001400466f0     engine.obj
 0003:000046f8       ??$_Uninitialized_move@PEAPEAV?$Container@VWidget@@@@PEAPEAV1@V?$allocator@PEAV?$Container@VWidget@@@@@std@@@std@@YAPEAPEAV?$Container@VWidget@@@@QEAPEAV1@0PEAPEAV1@AEAV?$allocator@PEAV?$Container@VWidget@@@@@0@@Z$rtcName$1 00000001400466f8     engine.obj
 0003:00004700       ??$_Uninitialized_move@PEAPEAV?$Container@VWidget@@@@PEAPEAV1@V?$allocator@PEAV?$Container@VWidget@@@@@std@@@std@@YAPEAPEAV?$Container@VWidget@@@@QEAPEAV1@0PEAPEAV1@AEAV?$allocator@PEAV?$Container@VWidget@@@@@0@@Z$rtcVarDesc 0000000140046700     engine.obj
 0003:00004780       ??$_Uninitialized_move@PEAPEAV?$Container@VWidget@@@@PEAPEAV1@V?$allocator@PEAV?$Container@VWidget@@@@@std@@@std@@YAPEAPEAV?$Container@VWidget@@@@QEAPEAV1@0PEAPEAV1@AEAV?$allocator@PEAV?$Container@VWidget@@@@@0@@Z$rtcFrameData 0000000140046780     engine.obj
 0003:00004fa0       WinMain$rtcName$0          0000000140046fa0     main.obj
 0003:00004fb0       WinMain$rtcVarDesc         0000000140046fb0     main.obj
 0003:00004ff0       WinMain$rtcFrameData       0000000140046ff0     main.obj
 0003:00005000       $cppxdata$WinMain          0000000140047000     main.obj
 0003:00005048       $cppxdata$??0?$ContainerMoving@VWidget@@@@QEAA@AEBV?$Vector2@M@sf@@0@Z 0000000140047048     container-moving.obj
 0003:00005080       ?HandleEvent@?$ContainerMoving@VWidget@@@@UEAAXAEBVEvent@sf@@@Z$rtcName$0 0000000140047080     container-moving.obj
 0003:00005084       ?HandleEvent@?$ContainerMoving@VWidget@@@@UEAAXAEBVEvent@sf@@@Z$rtcName$1 0000000140047084     container-moving.obj
 0003:00005088       ?HandleEvent@?$ContainerMoving@VWidget@@@@UEAAXAEBVEvent@sf@@@Z$rtcName$2 0000000140047088     container-moving.obj
 0003:0000508c       ?HandleEvent@?$ContainerMoving@VWidget@@@@UEAAXAEBVEvent@sf@@@Z$rtcName$3 000000014004708c     container-moving.obj
 0003:00005090       ?HandleEvent@?$ContainerMoving@VWidget@@@@UEAAXAEBVEvent@sf@@@Z$rtcVarDesc 0000000140047090     container-moving.obj
 0003:00005190       ?HandleEvent@?$ContainerMoving@VWidget@@@@UEAAXAEBVEvent@sf@@@Z$rtcFrameData 0000000140047190     container-moving.obj
 0003:00005220       $cppxdata$??0?$basic_string@DU?$char_traits@D@std@@V?$allocator@D@2@@std@@QEAA@XZ 0000000140047220     game-object.obj
 0003:00005250       ??0GameObject@@QEAA@PEBD@Z$rtcName$0 0000000140047250     game-object.obj
 0003:00005258       ??0GameObject@@QEAA@PEBD@Z$rtcName$1 0000000140047258     game-object.obj
 0003:00005260       ??0GameObject@@QEAA@PEBD@Z$rtcName$2 0000000140047260     game-object.obj
 0003:00005268       ??0GameObject@@QEAA@PEBD@Z$rtcName$3 0000000140047268     game-object.obj
 0003:00005270       ??0GameObject@@QEAA@PEBD@Z$rtcName$4 0000000140047270     game-object.obj
 0003:00005280       ??0GameObject@@QEAA@PEBD@Z$rtcVarDesc 0000000140047280     game-object.obj
 0003:000053c0       ??0GameObject@@QEAA@PEBD@Z$rtcFrameData 00000001400473c0     game-object.obj
 0003:000053d0       $cppxdata$??0GameObject@@QEAA@PEBD@Z 00000001400473d0     game-object.obj
 0003:00005450       $cppxdata$??0GameObject@@QEAA@PEBV0@@Z 0000000140047450     game-object.obj
 0003:00005480       ?Create@GameObject@@SAPEBV1@PEBD@Z$rtcName$0 0000000140047480     game-object.obj
 0003:00005488       ?Create@GameObject@@SAPEBV1@PEBD@Z$rtcName$1 0000000140047488     game-object.obj
 0003:00005490       ?Create@GameObject@@SAPEBV1@PEBD@Z$rtcVarDesc 0000000140047490     game-object.obj
 0003:00005510       ?Create@GameObject@@SAPEBV1@PEBD@Z$rtcFrameData 0000000140047510     game-object.obj
 0003:00005520       $cppxdata$?Create@GameObject@@SAPEBV1@PEBD@Z 0000000140047520     game-object.obj
 0003:00005570       ?CreateImpl@GameObject@@CAPEAV1@W4Object_Type@@PEBD@Z$rtcName$0 0000000140047570     game-object.obj
 0003:00005578       $cppxdata$?CreateImpl@GameObject@@CAPEAV1@W4Object_Type@@PEBD@Z 0000000140047578     game-object.obj
 0003:000056a0       $cppxdata$??0MenuWindow@@QEAA@PEAVEngine@@AEBV?$Vector2@M@sf@@1@Z 00000001400476a0     menu-window.obj
 0003:000056d0       $cppxdata$?onStartClicked@MenuWindow@@AEAAXPEAVButton@@@Z 00000001400476d0     menu-window.obj
 0003:00005700       $cppxdata$??$?0V<lambda_668a1179af56ef880bbabaf92a5d9839>@@X@?$function@$$A6AXPEAVButton@@@Z@std@@QEAA@V<lambda_668a1179af56ef880bbabaf92a5d9839>@@@Z 0000000140047700     menu-window.obj
 0003:00005730       $cppxdata$??$?0V<lambda_312b3f49165ee8dbe2e5837b3ce31c90>@@X@?$function@$$A6AXPEAVButton@@@Z@std@@QEAA@V<lambda_312b3f49165ee8dbe2e5837b3ce31c90>@@@Z 0000000140047730     menu-window.obj
 0003:00005760       $cppxdata$??$?0V<lambda_5f2a59844b8069354d5a17d44e450129>@@X@?$function@$$A6AXPEAVButton@@@Z@std@@QEAA@V<lambda_5f2a59844b8069354d5a17d44e450129>@@@Z 0000000140047760     menu-window.obj
 0003:00005790       ??$_Test_callable@V<lambda_668a1179af56ef880bbabaf92a5d9839>@@@std@@YA_NAEBV<lambda_668a1179af56ef880bbabaf92a5d9839>@@@Z$rtcName$0 0000000140047790     menu-window.obj
 0003:000057a0       ??$_Test_callable@V<lambda_668a1179af56ef880bbabaf92a5d9839>@@@std@@YA_NAEBV<lambda_668a1179af56ef880bbabaf92a5d9839>@@@Z$rtcVarDesc 00000001400477a0     menu-window.obj
 0003:000057e0       ??$_Test_callable@V<lambda_668a1179af56ef880bbabaf92a5d9839>@@@std@@YA_NAEBV<lambda_668a1179af56ef880bbabaf92a5d9839>@@@Z$rtcFrameData 00000001400477e0     menu-window.obj
 0003:00005808       $cppxdata$?_Delete_this@?$_Func_impl_no_alloc@V<lambda_668a1179af56ef880bbabaf92a5d9839>@@XPEAVButton@@@std@@EEAAX_N@Z 0000000140047808     menu-window.obj
 0003:00005840       ??$_Test_callable@V<lambda_312b3f49165ee8dbe2e5837b3ce31c90>@@@std@@YA_NAEBV<lambda_312b3f49165ee8dbe2e5837b3ce31c90>@@@Z$rtcName$0 0000000140047840     menu-window.obj
 0003:00005850       ??$_Test_callable@V<lambda_312b3f49165ee8dbe2e5837b3ce31c90>@@@std@@YA_NAEBV<lambda_312b3f49165ee8dbe2e5837b3ce31c90>@@@Z$rtcVarDesc 0000000140047850     menu-window.obj
 0003:00005890       ??$_Test_callable@V<lambda_312b3f49165ee8dbe2e5837b3ce31c90>@@@std@@YA_NAEBV<lambda_312b3f49165ee8dbe2e5837b3ce31c90>@@@Z$rtcFrameData 0000000140047890     menu-window.obj
 0003:000058b8       $cppxdata$?_Delete_this@?$_Func_impl_no_alloc@V<lambda_312b3f49165ee8dbe2e5837b3ce31c90>@@XPEAVButton@@@std@@EEAAX_N@Z 00000001400478b8     menu-window.obj
 0003:000058f0       ??$_Test_callable@V<lambda_5f2a59844b8069354d5a17d44e450129>@@@std@@YA_NAEBV<lambda_5f2a59844b8069354d5a17d44e450129>@@@Z$rtcName$0 00000001400478f0     menu-window.obj
 0003:00005900       ??$_Test_callable@V<lambda_5f2a59844b8069354d5a17d44e450129>@@@std@@YA_NAEBV<lambda_5f2a59844b8069354d5a17d44e450129>@@@Z$rtcVarDesc 0000000140047900     menu-window.obj
 0003:00005940       ??$_Test_callable@V<lambda_5f2a59844b8069354d5a17d44e450129>@@@std@@YA_NAEBV<lambda_5f2a59844b8069354d5a17d44e450129>@@@Z$rtcFrameData 0000000140047940     menu-window.obj
 0003:00005968       $cppxdata$?_Delete_this@?$_Func_impl_no_alloc@V<lambda_5f2a59844b8069354d5a17d44e450129>@@XPEAVButton@@@std@@EEAAX_N@Z 0000000140047968     menu-window.obj
 0003:00005a18       ??_7?$_Func_impl_no_alloc@V<lambda_668a1179af56ef880bbabaf92a5d9839>@@XPEAVButton@@@std@@6B@ 0000000140047a18     menu-window.obj
 0003:00005a60       ??_7?$_Func_impl_no_alloc@V<lambda_312b3f49165ee8dbe2e5837b3ce31c90>@@XPEAVButton@@@std@@6B@ 0000000140047a60     menu-window.obj
 0003:00005aa8       ??_7?$_Func_impl_no_alloc@V<lambda_5f2a59844b8069354d5a17d44e450129>@@XPEAVButton@@@std@@6B@ 0000000140047aa8     menu-window.obj
 0003:00005af0       $cppxdata$??0Object@@QEAA@PEBD@Z 0000000140047af0     object.obj
 0003:00005b20       $cppxdata$??0Object@@QEAA@AEBV?$Vector2@M@sf@@0@Z 0000000140047b20     object.obj
 0003:00005b50       $cppxdata$??0Object@@QEAA@PEBV0@@Z 0000000140047b50     object.obj
 0003:00005b80       $cppxdata$?SetTexture@Object@@QEAA_NPEBD@Z 0000000140047b80     object.obj
 0003:00005bb0       ?GetAbsolutePos@Object@@QEBA?AV?$Vector2@M@sf@@XZ$rtcName$0 0000000140047bb0     object.obj
 0003:00005bc0       ?GetAbsolutePos@Object@@QEBA?AV?$Vector2@M@sf@@XZ$rtcVarDesc 0000000140047bc0     object.obj
 0003:00005c00       ?GetAbsolutePos@Object@@QEBA?AV?$Vector2@M@sf@@XZ$rtcFrameData 0000000140047c00     object.obj
 0003:00005c30       ?CheckIntersect@Object@@QEBA_NAEBV?$Vector2@M@sf@@@Z$rtcName$0 0000000140047c30     object.obj
 0003:00005c34       ?CheckIntersect@Object@@QEBA_NAEBV?$Vector2@M@sf@@@Z$rtcName$1 0000000140047c34     object.obj
 0003:00005c40       ?CheckIntersect@Object@@QEBA_NAEBV?$Vector2@M@sf@@@Z$rtcVarDesc 0000000140047c40     object.obj
 0003:00005cc0       ?CheckIntersect@Object@@QEBA_NAEBV?$Vector2@M@sf@@@Z$rtcFrameData 0000000140047cc0     object.obj
 0003:00005cf0       ??$_Reallocate_for@V<lambda_66f57f934f28d61049862f64df852ff0>@@PEBD@?$basic_string@DU?$char_traits@D@std@@V?$allocator@D@2@@std@@QEAAAEAV01@_KV<lambda_66f57f934f28d61049862f64df852ff0>@@PEBD@Z$rtcName$0 0000000140047cf0     object.obj
 0003:00005d00       ??$_Reallocate_for@V<lambda_66f57f934f28d61049862f64df852ff0>@@PEBD@?$basic_string@DU?$char_traits@D@std@@V?$allocator@D@2@@std@@QEAAAEAV01@_KV<lambda_66f57f934f28d61049862f64df852ff0>@@PEBD@Z$rtcVarDesc 0000000140047d00     object.obj
 0003:00005d40       ??$_Reallocate_for@V<lambda_66f57f934f28d61049862f64df852ff0>@@PEBD@?$basic_string@DU?$char_traits@D@std@@V?$allocator@D@2@@std@@QEAAAEAV01@_KV<lambda_66f57f934f28d61049862f64df852ff0>@@PEBD@Z$rtcFrameData 0000000140047d40     object.obj
 0003:00005e20       $cppxdata$?Clone@Tank@@UEBAPEAVGameObject@@XZ 0000000140047e20     tank.obj
 0003:00005e98       $cppxdata$?Clone@Wall@@UEBAPEAVGameObject@@XZ 0000000140047e98     wall.obj
 0003:00005f10       $cppxdata$??0WidgetGame@@QEAA@PEAVEngine@@AEBV?$Vector2@M@sf@@1@Z 0000000140047f10     widget-game.obj
 0003:00005f80       ?Draw@Widget@@UEAAXPEAVRenderWindow@sf@@@Z$rtcName$0 0000000140047f80     widget.obj
 0003:00005f8c       ?Draw@Widget@@UEAAXPEAVRenderWindow@sf@@@Z$rtcName$1 0000000140047f8c     widget.obj
 0003:00005fa0       ?Draw@Widget@@UEAAXPEAVRenderWindow@sf@@@Z$rtcVarDesc 0000000140047fa0     widget.obj
 0003:00006020       ?Draw@Widget@@UEAAXPEAVRenderWindow@sf@@@Z$rtcFrameData 0000000140048020     widget.obj
 0003:00006118       $cppxdata$??0WindowGame@@QEAA@PEAVEngine@@AEBV?$Vector2@M@sf@@1@Z 0000000140048118     window-game.obj
 0003:00006190       $cppxdata$??0WindowEditor@@QEAA@PEAVEngine@@AEBV?$Vector2@M@sf@@1@Z 0000000140048190     window-editor.obj
 0003:00006218       ?_RTC_ErrorMessages@@3QBQEBDB 0000000140048218     MSVCRTD:_error_.obj
 0003:00006248       ?_RTC_NoFalsePositives@@3QBHB 0000000140048248     MSVCRTD:_error_.obj
 0003:00006260       ?stack_premsg@@3QBDB       0000000140048260     MSVCRTD:_error_.obj
 0003:00006280       ?stack_postmsg@@3QBDB      0000000140048280     MSVCRTD:_error_.obj
 0003:00006298       ?uninit_premsg@@3QBDB      0000000140048298     MSVCRTD:_error_.obj
 0003:000062a8       ?uninit_postmsg@@3QBDB     00000001400482a8     MSVCRTD:_error_.obj
 0003:000069d8       ?_RTC_errlist@@3QBQEBDB    00000001400489d8     MSVCRTD:_userapi_.obj
 0003:00006ae0       GS_ExceptionPointers       0000000140048ae0     MSVCRTD:gs_report.obj
 0003:00006af8       ?mspdbName@@3QB_WB         0000000140048af8     MSVCRTD:_pdblkup_.obj
 0003:00006b28       ?debugCrtFileName@@3QB_WB  0000000140048b28     MSVCRTD:_pdblkup_.obj
 0003:00006cc0       ?dllExt@?1??GetPdbDllPathFromFilePath@@YAHPEB_WPEA_W_K@Z@4QB_WB 0000000140048cc0     MSVCRTD:_pdblkup_.obj
 0003:00006cd0       ?mspdbFilename@?1??GetPdbDllPathFromFilePath@@YAHPEB_WPEA_W_K@Z@4QB_WB 0000000140048cd0     MSVCRTD:_pdblkup_.obj
 0003:000079b8       ??_R4?$_Func_impl_no_alloc@V<lambda_668a1179af56ef880bbabaf92a5d9839>@@XPEAVButton@@@std@@6B@ 00000001400499b8     menu-window.obj
 0003:000079e8       ??_R3?$_Func_impl_no_alloc@V<lambda_668a1179af56ef880bbabaf92a5d9839>@@XPEAVButton@@@std@@8 00000001400499e8     menu-window.obj
 0003:00007a00       ??_R2?$_Func_impl_no_alloc@V<lambda_668a1179af56ef880bbabaf92a5d9839>@@XPEAVButton@@@std@@8 0000000140049a00     menu-window.obj
 0003:00007a18       ??_R1A@?0A@EA@?$_Func_impl_no_alloc@V<lambda_668a1179af56ef880bbabaf92a5d9839>@@XPEAVButton@@@std@@8 0000000140049a18     menu-window.obj
 0003:00007a48       ??_R4?$_Func_impl_no_alloc@V<lambda_312b3f49165ee8dbe2e5837b3ce31c90>@@XPEAVButton@@@std@@6B@ 0000000140049a48     menu-window.obj
 0003:00007a78       ??_R3?$_Func_impl_no_alloc@V<lambda_312b3f49165ee8dbe2e5837b3ce31c90>@@XPEAVButton@@@std@@8 0000000140049a78     menu-window.obj
 0003:00007a90       ??_R2?$_Func_impl_no_alloc@V<lambda_312b3f49165ee8dbe2e5837b3ce31c90>@@XPEAVButton@@@std@@8 0000000140049a90     menu-window.obj
 0003:00007aa8       ??_R1A@?0A@EA@?$_Func_impl_no_alloc@V<lambda_312b3f49165ee8dbe2e5837b3ce31c90>@@XPEAVButton@@@std@@8 0000000140049aa8     menu-window.obj
 0003:00007ad8       ??_R4?$_Func_impl_no_alloc@V<lambda_5f2a59844b8069354d5a17d44e450129>@@XPEAVButton@@@std@@6B@ 0000000140049ad8     menu-window.obj
 0003:00007b08       ??_R3?$_Func_impl_no_alloc@V<lambda_5f2a59844b8069354d5a17d44e450129>@@XPEAVButton@@@std@@8 0000000140049b08     menu-window.obj
 0003:00007b20       ??_R2?$_Func_impl_no_alloc@V<lambda_5f2a59844b8069354d5a17d44e450129>@@XPEAVButton@@@std@@8 0000000140049b20     menu-window.obj
 0003:00007b38       ??_R1A@?0A@EA@?$_Func_impl_no_alloc@V<lambda_5f2a59844b8069354d5a17d44e450129>@@XPEAVButton@@@std@@8 0000000140049b38     menu-window.obj
 0003:000085f0       _RTC_InitBase.rtc$IMZ      000000014004a5f0     button.obj
 0003:00008600       _RTC_InitBase.rtc$IMZ      000000014004a600     config.obj
 0003:00008610       _RTC_InitBase.rtc$IMZ      000000014004a610     container.obj
 0003:00008620       _RTC_InitBase.rtc$IMZ      000000014004a620     engine.obj
 0003:00008630       _RTC_InitBase.rtc$IMZ      000000014004a630     main.obj
 0003:00008640       _RTC_InitBase.rtc$IMZ      000000014004a640     container-moving.obj
 0003:00008650       _RTC_InitBase.rtc$IMZ      000000014004a650     game-object.obj
 0003:00008660       _RTC_InitBase.rtc$IMZ      000000014004a660     menu-window.obj
 0003:00008670       _RTC_InitBase.rtc$IMZ      000000014004a670     missile.obj
 0003:00008680       _RTC_InitBase.rtc$IMZ      000000014004a680     object.obj
 0003:00008690       _RTC_InitBase.rtc$IMZ      000000014004a690     player.obj
 0003:000086a0       _RTC_InitBase.rtc$IMZ      000000014004a6a0     tank.obj
 0003:000086b0       _RTC_InitBase.rtc$IMZ      000000014004a6b0     wall.obj
 0003:000086c0       _RTC_InitBase.rtc$IMZ      000000014004a6c0     widget-game.obj
 0003:000086d0       _RTC_InitBase.rtc$IMZ      000000014004a6d0     widget.obj
 0003:000086e0       _RTC_InitBase.rtc$IMZ      000000014004a6e0     widget-templates.obj
 0003:000086f0       _RTC_InitBase.rtc$IMZ      000000014004a6f0     window.obj
 0003:00008700       _RTC_InitBase.rtc$IMZ      000000014004a700     window-game.obj
 0003:00008710       _RTC_InitBase.rtc$IMZ      000000014004a710     window-editor.obj
 0003:00008a60       _RTC_Shutdown.rtc$TMZ      000000014004aa60     button.obj
 0003:00008a70       _RTC_Shutdown.rtc$TMZ      000000014004aa70     config.obj
 0003:00008a80       _RTC_Shutdown.rtc$TMZ      000000014004aa80     container.obj
 0003:00008a90       _RTC_Shutdown.rtc$TMZ      000000014004aa90     engine.obj
 0003:00008aa0       _RTC_Shutdown.rtc$TMZ      000000014004aaa0     main.obj
 0003:00008ab0       _RTC_Shutdown.rtc$TMZ      000000014004aab0     container-moving.obj
 0003:00008ac0       _RTC_Shutdown.rtc$TMZ      000000014004aac0     game-object.obj
 0003:00008ad0       _RTC_Shutdown.rtc$TMZ      000000014004aad0     menu-window.obj
 0003:00008ae0       _RTC_Shutdown.rtc$TMZ      000000014004aae0     missile.obj
 0003:00008af0       _RTC_Shutdown.rtc$TMZ      000000014004aaf0     object.obj
 0003:00008b00       _RTC_Shutdown.rtc$TMZ      000000014004ab00     player.obj
 0003:00008b10       _RTC_Shutdown.rtc$TMZ      000000014004ab10     tank.obj
 0003:00008b20       _RTC_Shutdown.rtc$TMZ      000000014004ab20     wall.obj
 0003:00008b30       _RTC_Shutdown.rtc$TMZ      000000014004ab30     widget-game.obj
 0003:00008b40       _RTC_Shutdown.rtc$TMZ      000000014004ab40     widget.obj
 0003:00008b50       _RTC_Shutdown.rtc$TMZ      000000014004ab50     widget-templates.obj
 0003:00008b60       _RTC_Shutdown.rtc$TMZ      000000014004ab60     window.obj
 0003:00008b70       _RTC_Shutdown.rtc$TMZ      000000014004ab70     window-game.obj
 0003:00008b80       _RTC_Shutdown.rtc$TMZ      000000014004ab80     window-editor.obj
 0003:00008dc0       $unwind$?__empty_global_delete@@YAXPEAX@Z 000000014004adc0     button.obj
 0003:00008dd4       $unwind$?__empty_global_delete@@YAXPEAX_K@Z 000000014004add4     button.obj
 0003:00008de8       $unwind$wmemcpy            000000014004ade8     button.obj
 0003:00008dfc       $unwind$?max@?$numeric_limits@_J@std@@SA_JXZ 000000014004adfc     button.obj
 0003:00008e10       $unwind$??2@YAPEAX_KPEAX@Z 000000014004ae10     button.obj
 0003:00008e24       $unwind$?assign@?$_WChar_traits@_W@std@@SAXAEA_WAEB_W@Z 000000014004ae24     button.obj
 0003:00008e38       $unwind$?length@?$char_traits@D@std@@SA_KQEBD@Z 000000014004ae38     button.obj
 0003:00008e4c       $unwind$?copy@?$char_traits@D@std@@SAPEADQEADQEBD_K@Z 000000014004ae4c     button.obj
 0003:00008e60       $unwind$?move@?$char_traits@D@std@@SAPEADQEADQEBD_K@Z 000000014004ae60     button.obj
 0003:00008e74       $unwind$?assign@?$char_traits@D@std@@SAXAEADAEBD@Z 000000014004ae74     button.obj
 0003:00008e88       $unwind$??0_Container_proxy@std@@QEAA@XZ 000000014004ae88     button.obj
 0003:00008e9c       $unwind$??0_Container_base12@std@@QEAA@XZ 000000014004ae9c     button.obj
 0003:00008eb0       $unwind$?_Orphan_all@_Container_base12@std@@QEAAXXZ 000000014004aeb0     button.obj
 0003:00008ed0       $ip2state$?_Orphan_all@_Container_base12@std@@QEAAXXZ 000000014004aed0     button.obj
 0003:00008ed8       $unwind$??$_Get_size_of_n@$00@std@@YA_K_K@Z 000000014004aed8     button.obj
 0003:00008eec       $unwind$?_Allocate@_Default_allocate_traits@std@@SAPEAX_K@Z 000000014004aeec     button.obj
 0003:00008f00       $unwind$?_Adjust_manually_vector_aligned@std@@YAXAEAPEAXAEA_K@Z 000000014004af00     button.obj
 0003:00008f14       $unwind$??$_Convert_size@_K@std@@YA_K_K@Z 000000014004af14     button.obj
 0003:00008f28       $unwind$??0?$allocator@D@std@@QEAA@XZ 000000014004af28     button.obj
 0003:00008f3c       $unwind$?deallocate@?$allocator@D@std@@QEAAXQEAD_K@Z 000000014004af3c     button.obj
 0003:00008f50       $unwind$?allocate@?$allocator@D@std@@QEAAPEAD_K@Z 000000014004af50     button.obj
 0003:00008f64       $unwind$?max_size@?$_Default_allocator_traits@V?$allocator@D@std@@@std@@SA_KAEBV?$allocator@D@2@@Z 000000014004af64     button.obj
 0003:00008f78       $unwind$??0?$_String_val@U?$_Simple_types@D@std@@@std@@QEAA@XZ 000000014004af78     button.obj
 0003:00008f8c       $unwind$?_Myptr@?$_String_val@U?$_Simple_types@D@std@@@std@@QEAAPEADXZ 000000014004af8c     button.obj
 0003:00008fa0       $unwind$?_Large_string_engaged@?$_String_val@U?$_Simple_types@D@std@@@std@@QEBA_NXZ 000000014004afa0     button.obj
 0003:00008fb4       $unwind$??0_Bxty@?$_String_val@U?$_Simple_types@D@std@@@std@@QEAA@XZ 000000014004afb4     button.obj
 0003:00008fc8       $unwind$??1_Bxty@?$_String_val@U?$_Simple_types@D@std@@@std@@QEAA@XZ 000000014004afc8     button.obj
 0003:00008fdc       $unwind$??1?$_String_val@U?$_Simple_types@D@std@@@std@@QEAA@XZ 000000014004afdc     button.obj
 0003:00008ff0       $unwind$??0?$_String_alloc@U?$_String_base_types@DV?$allocator@D@std@@@std@@@std@@QEAA@XZ 000000014004aff0     button.obj
 0003:0000900c       $stateUnwindMap$??0?$_String_alloc@U?$_String_base_types@DV?$allocator@D@std@@@std@@@std@@QEAA@XZ 000000014004b00c     button.obj
 0003:00009018       $ip2state$??0?$_String_alloc@U?$_String_base_types@DV?$allocator@D@std@@@std@@@std@@QEAA@XZ 000000014004b018     button.obj
 0003:00009034       $unwind$?dtor$0@?0???0?$_String_alloc@U?$_String_base_types@DV?$allocator@D@std@@@std@@@std@@QEAA@XZ@4HA 000000014004b034     button.obj
 0003:00009044       $unwind$??1?$_String_alloc@U?$_String_base_types@DV?$allocator@D@std@@@std@@@std@@QEAA@XZ 000000014004b044     button.obj
 0003:00009060       $ip2state$??1?$_String_alloc@U?$_String_base_types@DV?$allocator@D@std@@@std@@@std@@QEAA@XZ 000000014004b060     button.obj
 0003:00009068       $unwind$?_Alloc_proxy@?$_String_alloc@U?$_String_base_types@DV?$allocator@D@std@@@std@@@std@@QEAAXXZ 000000014004b068     button.obj
 0003:0000907c       $unwind$?_Free_proxy@?$_String_alloc@U?$_String_base_types@DV?$allocator@D@std@@@std@@@std@@QEAAXXZ 000000014004b07c     button.obj
 0003:00009090       $unwind$?_Myproxy@?$_String_alloc@U?$_String_base_types@DV?$allocator@D@std@@@std@@@std@@QEAAAEAPEAU_Container_proxy@2@XZ 000000014004b090     button.obj
 0003:000090a4       $unwind$?_Orphan_all@?$_String_alloc@U?$_String_base_types@DV?$allocator@D@std@@@std@@@std@@QEAAXXZ 000000014004b0a4     button.obj
 0003:000090b8       $unwind$?_Getal@?$_String_alloc@U?$_String_base_types@DV?$allocator@D@std@@@std@@@std@@QEAAAEAV?$allocator@D@2@XZ 000000014004b0b8     button.obj
 0003:000090cc       $unwind$?_Getal@?$_String_alloc@U?$_String_base_types@DV?$allocator@D@std@@@std@@@std@@QEBAAEBV?$allocator@D@2@XZ 000000014004b0cc     button.obj
 0003:000090e0       $unwind$?_Get_data@?$_String_alloc@U?$_String_base_types@DV?$allocator@D@std@@@std@@@std@@QEAAAEAV?$_String_val@U?$_Simple_types@D@std@@@2@XZ 000000014004b0e0     button.obj
 0003:000090f4       $unwind$?_Get_data@?$_String_alloc@U?$_String_base_types@DV?$allocator@D@std@@@std@@@std@@QEBAAEBV?$_String_val@U?$_Simple_types@D@std@@@2@XZ 000000014004b0f4     button.obj
 0003:00009108       $unwind$?_Get_first@?$_Compressed_pair@V?$allocator@D@std@@V?$_String_val@U?$_Simple_types@D@std@@@2@$00@std@@QEAAAEAV?$allocator@D@2@XZ 000000014004b108     button.obj
 0003:0000911c       $unwind$?_Get_first@?$_Compressed_pair@V?$allocator@D@std@@V?$_String_val@U?$_Simple_types@D@std@@@2@$00@std@@QEBAAEBV?$allocator@D@2@XZ 000000014004b11c     button.obj
 0003:00009130       $unwind$?_Get_second@?$_Compressed_pair@V?$allocator@D@std@@V?$_String_val@U?$_Simple_types@D@std@@@2@$00@std@@QEAAAEAV?$_String_val@U?$_Simple_types@D@std@@@2@XZ 000000014004b130     button.obj
 0003:00009144       $unwind$?_Get_second@?$_Compressed_pair@V?$allocator@D@std@@V?$_String_val@U?$_Simple_types@D@std@@@2@$00@std@@QEBAAEBV?$_String_val@U?$_Simple_types@D@std@@@2@XZ 000000014004b144     button.obj
 0003:00009158       $unwind$??1?$_Compressed_pair@V?$allocator@D@std@@V?$_String_val@U?$_Simple_types@D@std@@@2@$00@std@@QEAA@XZ 000000014004b158     button.obj
 0003:0000916c       $unwind$??0?$basic_string@DU?$char_traits@D@std@@V?$allocator@D@2@@std@@QEAA@QEBD@Z 000000014004b16c     button.obj
 0003:00009188       $stateUnwindMap$??0?$basic_string@DU?$char_traits@D@std@@V?$allocator@D@2@@std@@QEAA@QEBD@Z 000000014004b188     button.obj
 0003:00009190       $ip2state$??0?$basic_string@DU?$char_traits@D@std@@V?$allocator@D@2@@std@@QEAA@QEBD@Z 000000014004b190     button.obj
 0003:000091ac       $unwind$?dtor$0@?0???0?$basic_string@DU?$char_traits@D@std@@V?$allocator@D@2@@std@@QEAA@QEBD@Z@4HA 000000014004b1ac     button.obj
 0003:000091bc       $unwind$??1?$basic_string@DU?$char_traits@D@std@@V?$allocator@D@2@@std@@QEAA@XZ 000000014004b1bc     button.obj
 0003:000091d8       $ip2state$??1?$basic_string@DU?$char_traits@D@std@@V?$allocator@D@2@@std@@QEAA@XZ 000000014004b1d8     button.obj
 0003:000091e0       $unwind$?assign@?$basic_string@DU?$char_traits@D@std@@V?$allocator@D@2@@std@@QEAAAEAV12@QEBD_K@Z 000000014004b1e0     button.obj
 0003:000091f4       $unwind$?assign@?$basic_string@DU?$char_traits@D@std@@V?$allocator@D@2@@std@@QEAAAEAV12@QEBD@Z 000000014004b1f4     button.obj
 0003:00009208       $unwind$?max_size@?$basic_string@DU?$char_traits@D@std@@V?$allocator@D@2@@std@@QEBA_KXZ 000000014004b208     button.obj
 0003:0000921c       $unwind$?_Calculate_growth@?$basic_string@DU?$char_traits@D@std@@V?$allocator@D@2@@std@@QEBA_K_K@Z 000000014004b21c     button.obj
 0003:00009230       $unwind$?_Tidy_init@?$basic_string@DU?$char_traits@D@std@@V?$allocator@D@2@@std@@QEAAXXZ 000000014004b230     button.obj
 0003:00009244       $unwind$?_Tidy_deallocate@?$basic_string@DU?$char_traits@D@std@@V?$allocator@D@2@@std@@QEAAXXZ 000000014004b244     button.obj
 0003:00009258       $unwind$?_Xlen@?$basic_string@DU?$char_traits@D@std@@V?$allocator@D@2@@std@@SAXXZ 000000014004b258     button.obj
 0003:0000926c       $unwind$??$_Maklocstr@_W@std@@YAPEA_WPEBDPEA_WAEBU_Cvtvec@@@Z 000000014004b26c     button.obj
 0003:00009280       $unwind$?_Maklocwcs@std@@YAPEA_WPEB_W@Z 000000014004b280     button.obj
 0003:00009294       $unwind$?deallocate@?$allocator@_W@std@@QEAAXQEA_W_K@Z 000000014004b294     button.obj
 0003:000092a8       $unwind$?_Myptr@?$_String_val@U?$_Simple_types@_W@std@@@std@@QEBAPEB_WXZ 000000014004b2a8     button.obj
 0003:000092bc       $unwind$?_Large_string_engaged@?$_String_val@U?$_Simple_types@_W@std@@@std@@QEBA_NXZ 000000014004b2bc     button.obj
 0003:000092d0       $unwind$??1_Bxty@?$_String_val@U?$_Simple_types@_W@std@@@std@@QEAA@XZ 000000014004b2d0     button.obj
 0003:000092e4       $unwind$??1?$_String_val@U?$_Simple_types@_W@std@@@std@@QEAA@XZ 000000014004b2e4     button.obj
 0003:000092f8       $unwind$??1?$_String_alloc@U?$_String_base_types@_WV?$allocator@_W@std@@@std@@@std@@QEAA@XZ 000000014004b2f8     button.obj
 0003:00009318       $ip2state$??1?$_String_alloc@U?$_String_base_types@_WV?$allocator@_W@std@@@std@@@std@@QEAA@XZ 000000014004b318     button.obj
 0003:00009320       $unwind$?_Free_proxy@?$_String_alloc@U?$_String_base_types@_WV?$allocator@_W@std@@@std@@@std@@QEAAXXZ 000000014004b320     button.obj
 0003:00009334       $unwind$?_Myproxy@?$_String_alloc@U?$_String_base_types@_WV?$allocator@_W@std@@@std@@@std@@QEAAAEAPEAU_Container_proxy@2@XZ 000000014004b334     button.obj
 0003:00009348       $unwind$?_Orphan_all@?$_String_alloc@U?$_String_base_types@_WV?$allocator@_W@std@@@std@@@std@@QEAAXXZ 000000014004b348     button.obj
 0003:0000935c       $unwind$?_Getal@?$_String_alloc@U?$_String_base_types@_WV?$allocator@_W@std@@@std@@@std@@QEAAAEAV?$allocator@_W@2@XZ 000000014004b35c     button.obj
 0003:00009370       $unwind$?_Get_data@?$_String_alloc@U?$_String_base_types@_WV?$allocator@_W@std@@@std@@@std@@QEAAAEAV?$_String_val@U?$_Simple_types@_W@std@@@2@XZ 000000014004b370     button.obj
 0003:00009384       $unwind$?_Get_data@?$_String_alloc@U?$_String_base_types@_WV?$allocator@_W@std@@@std@@@std@@QEBAAEBV?$_String_val@U?$_Simple_types@_W@std@@@2@XZ 000000014004b384     button.obj
 0003:00009398       $unwind$?_Get_first@?$_Compressed_pair@V?$allocator@_W@std@@V?$_String_val@U?$_Simple_types@_W@std@@@2@$00@std@@QEAAAEAV?$allocator@_W@2@XZ 000000014004b398     button.obj
 0003:000093ac       $unwind$?_Get_second@?$_Compressed_pair@V?$allocator@_W@std@@V?$_String_val@U?$_Simple_types@_W@std@@@2@$00@std@@QEAAAEAV?$_String_val@U?$_Simple_types@_W@std@@@2@XZ 000000014004b3ac     button.obj
 0003:000093c0       $unwind$?_Get_second@?$_Compressed_pair@V?$allocator@_W@std@@V?$_String_val@U?$_Simple_types@_W@std@@@2@$00@std@@QEBAAEBV?$_String_val@U?$_Simple_types@_W@std@@@2@XZ 000000014004b3c0     button.obj
 0003:000093d4       $unwind$??1?$_Compressed_pair@V?$allocator@_W@std@@V?$_String_val@U?$_Simple_types@_W@std@@@2@$00@std@@QEAA@XZ 000000014004b3d4     button.obj
 0003:000093e8       $unwind$??1?$basic_string@_WU?$char_traits@_W@std@@V?$allocator@_W@2@@std@@QEAA@XZ 000000014004b3e8     button.obj
 0003:00009408       $ip2state$??1?$basic_string@_WU?$char_traits@_W@std@@V?$allocator@_W@2@@std@@QEAA@XZ 000000014004b408     button.obj
 0003:00009410       $unwind$?c_str@?$basic_string@_WU?$char_traits@_W@std@@V?$allocator@_W@2@@std@@QEBAPEB_WXZ 000000014004b410     button.obj
 0003:00009430       $ip2state$?c_str@?$basic_string@_WU?$char_traits@_W@std@@V?$allocator@_W@2@@std@@QEBAPEB_WXZ 000000014004b430     button.obj
 0003:00009438       $unwind$?_Tidy_deallocate@?$basic_string@_WU?$char_traits@_W@std@@V?$allocator@_W@2@@std@@QEAAXXZ 000000014004b438     button.obj
 0003:0000944c       $unwind$??$_Getvals@_W@?$time_get@DV?$istreambuf_iterator@DU?$char_traits@D@std@@@std@@@std@@IEAAX_WAEBV_Locinfo@1@@Z 000000014004b44c     button.obj
 0003:00009468       $unwind$??$_Getvals@_W@?$time_get@_WV?$istreambuf_iterator@_WU?$char_traits@_W@std@@@std@@@std@@IEAAX_WAEBV_Locinfo@1@@Z 000000014004b468     button.obj
 0003:00009484       $unwind$??0?$Vector2@M@sf@@QEAA@MM@Z 000000014004b484     button.obj
 0003:00009498       $unwind$??0Button@@QEAA@AEBV?$Vector2@M@sf@@0@Z 000000014004b498     button.obj
 0003:000094b8       $stateUnwindMap$??0Button@@QEAA@AEBV?$Vector2@M@sf@@0@Z 000000014004b4b8     button.obj
 0003:000094e0       $ip2state$??0Button@@QEAA@AEBV?$Vector2@M@sf@@0@Z 000000014004b4e0     button.obj
 0003:00009520       $unwind$?dtor$0@?0???0Button@@QEAA@AEBV?$Vector2@M@sf@@0@Z@4HA 000000014004b520     button.obj
 0003:00009530       $unwind$?dtor$1@?0???0Button@@QEAA@AEBV?$Vector2@M@sf@@0@Z@4HA 000000014004b530     button.obj
 0003:00009540       $unwind$?dtor$2@?0???0Button@@QEAA@AEBV?$Vector2@M@sf@@0@Z@4HA 000000014004b540     button.obj
 0003:00009550       $unwind$?dtor$3@?0???0Button@@QEAA@AEBV?$Vector2@M@sf@@0@Z@4HA 000000014004b550     button.obj
 0003:00009560       $unwind$??1Button@@UEAA@XZ 000000014004b560     button.obj
 0003:00009574       $unwind$?SetText@Button@@QEAAXPEB_W@Z 000000014004b574     button.obj
 0003:00009594       $stateUnwindMap$?SetText@Button@@QEAAXPEB_W@Z 000000014004b594     button.obj
 0003:000095a0       $ip2state$?SetText@Button@@QEAAXPEB_W@Z 000000014004b5a0     button.obj
 0003:000095bc       $unwind$?dtor$0@?0??SetText@Button@@QEAAXPEB_W@Z@4HA 000000014004b5bc     button.obj
 0003:000095cc       $unwind$?GetText@Button@@QEBAPEB_WXZ 000000014004b5cc     button.obj
 0003:000095e8       $unwind$?SetOnClickedListener@Button@@QEAAXV?$function@$$A6AXPEAVButton@@@Z@std@@@Z 000000014004b5e8     button.obj
 0003:00009604       $stateUnwindMap$?SetOnClickedListener@Button@@QEAAXV?$function@$$A6AXPEAVButton@@@Z@std@@@Z 000000014004b604     button.obj
 0003:00009610       $ip2state$?SetOnClickedListener@Button@@QEAAXV?$function@$$A6AXPEAVButton@@@Z@std@@@Z 000000014004b610     button.obj
 0003:0000962c       $unwind$?dtor$0@?0??SetOnClickedListener@Button@@QEAAXV?$function@$$A6AXPEAVButton@@@Z@std@@@Z@4HA 000000014004b62c     button.obj
 0003:0000963c       $unwind$?Draw@Button@@UEAAXPEAVRenderWindow@sf@@@Z 000000014004b63c     button.obj
 0003:00009650       $unwind$?Update@Button@@UEAAXAEBVTime@sf@@@Z 000000014004b650     button.obj
 0003:00009664       $unwind$?HandleEvent@Button@@UEAAXAEBVEvent@sf@@@Z 000000014004b664     button.obj
 0003:00009678       $unwind$?SetPos@Button@@UEAAXAEBV?$Vector2@M@sf@@@Z 000000014004b678     button.obj
 0003:0000968c       $unwind$?calculatePosText@Button@@AEAAXXZ 000000014004b68c     button.obj
 0003:000096a0       $unwind$??0?$_Func_class@XPEAVButton@@@std@@QEAA@XZ 000000014004b6a0     button.obj
 0003:000096b4       $unwind$??R?$_Func_class@XPEAVButton@@@std@@QEBAXPEAVButton@@@Z 000000014004b6b4     button.obj
 0003:000096c8       $unwind$??1?$_Func_class@XPEAVButton@@@std@@QEAA@XZ 000000014004b6c8     button.obj
 0003:000096dc       $unwind$?_Empty@?$_Func_class@XPEAVButton@@@std@@IEBA_NXZ 000000014004b6dc     button.obj
 0003:000096f0       $unwind$?_Reset_copy@?$_Func_class@XPEAVButton@@@std@@IEAAXAEBV12@@Z 000000014004b6f0     button.obj
 0003:00009704       $unwind$?_Reset_move@?$_Func_class@XPEAVButton@@@std@@IEAAX$$QEAV12@@Z 000000014004b704     button.obj
 0003:00009718       $unwind$?_Tidy@?$_Func_class@XPEAVButton@@@std@@IEAAXXZ 000000014004b718     button.obj
 0003:0000972c       $unwind$?_Swap@?$_Func_class@XPEAVButton@@@std@@IEAAXAEAV12@@Z 000000014004b72c     button.obj
 0003:00009750       $ip2state$?_Swap@?$_Func_class@XPEAVButton@@@std@@IEAAXAEAV12@@Z 000000014004b750     button.obj
 0003:00009758       $unwind$?_Local@?$_Func_class@XPEAVButton@@@std@@AEBA_NXZ 000000014004b758     button.obj
 0003:0000976c       $unwind$?_Getimpl@?$_Func_class@XPEAVButton@@@std@@AEBAPEAV?$_Func_base@XPEAVButton@@@2@XZ 000000014004b76c     button.obj
 0003:00009780       $unwind$?_Set@?$_Func_class@XPEAVButton@@@std@@AEAAXPEAV?$_Func_base@XPEAVButton@@@2@@Z 000000014004b780     button.obj
 0003:00009794       $unwind$?_Getspace@?$_Func_class@XPEAVButton@@@std@@AEAAPEAXXZ 000000014004b794     button.obj
 0003:000097a8       $unwind$?_Getspace@?$_Func_class@XPEAVButton@@@std@@AEBAPEBXXZ 000000014004b7a8     button.obj
 0003:000097bc       $unwind$??0?$function@$$A6AXPEAVButton@@@Z@std@@QEAA@$$T@Z 000000014004b7bc     button.obj
 0003:000097d0       $unwind$??0?$function@$$A6AXPEAVButton@@@Z@std@@QEAA@AEBV01@@Z 000000014004b7d0     button.obj
 0003:000097ec       $stateUnwindMap$??0?$function@$$A6AXPEAVButton@@@Z@std@@QEAA@AEBV01@@Z 000000014004b7ec     button.obj
 0003:000097f8       $ip2state$??0?$function@$$A6AXPEAVButton@@@Z@std@@QEAA@AEBV01@@Z 000000014004b7f8     button.obj
 0003:00009814       $unwind$?dtor$0@?0???0?$function@$$A6AXPEAVButton@@@Z@std@@QEAA@AEBV01@@Z@4HA 000000014004b814     button.obj
 0003:00009824       $unwind$??4?$function@$$A6AXPEAVButton@@@Z@std@@QEAAAEAV01@AEBV01@@Z 000000014004b824     button.obj
 0003:00009840       $unwind$?swap@?$function@$$A6AXPEAVButton@@@Z@std@@QEAAXAEAV12@@Z 000000014004b840     button.obj
 0003:00009854       $unwind$??B?$function@$$A6AXPEAVButton@@@Z@std@@QEBA_NXZ 000000014004b854     button.obj
 0003:00009868       $unwind$??1?$function@$$A6AXPEAVButton@@@Z@std@@QEAA@XZ 000000014004b868     button.obj
 0003:0000987c       $unwind$??_GButton@@UEAAPEAXI@Z 000000014004b87c     button.obj
 0003:00009890       $unwind$??__Efont@@YAXXZ   000000014004b890     button.obj
 0003:000098a4       $unwind$??__Ffont@@YAXXZ   000000014004b8a4     button.obj
 0003:000098b8       $unwind$??$forward@PEAVButton@@@std@@YA$$QEAPEAVButton@@AEAPEAV1@@Z 000000014004b8b8     button.obj
 0003:000098cc       $unwind$??$_Min_value@_K@std@@YAAEB_KAEB_K0@Z 000000014004b8cc     button.obj
 0003:000098e0       $unwind$??$_Unfancy@D@std@@YAPEADPEAD@Z 000000014004b8e0     button.obj
 0003:000098f4       $unwind$??$_Unfancy@_W@std@@YAPEA_WPEA_W@Z 000000014004b8f4     button.obj
 0003:00009908       $unwind$??$?0$$V@?$_Compressed_pair@V?$allocator@D@std@@V?$_String_val@U?$_Simple_types@D@std@@@2@$00@std@@QEAA@U_Zero_then_variadic_args_t@1@@Z 000000014004b908     button.obj
 0003:0000991c       $unwind$??$addressof@PEA_W@std@@YAPEAPEA_WAEAPEA_W@Z 000000014004b91c     button.obj
 0003:00009930       $unwind$??$destroy@PEA_W@?$_Default_allocator_traits@V?$allocator@_W@std@@@std@@SAXAEAV?$allocator@_W@1@QEAPEA_W@Z 000000014004b930     button.obj
 0003:00009944       $unwind$??$addressof@PEAD@std@@YAPEAPEADAEAPEAD@Z 000000014004b944     button.obj
 0003:00009958       $unwind$??$destroy@PEAD@?$_Default_allocator_traits@V?$allocator@D@std@@@std@@SAXAEAV?$allocator@D@1@QEAPEAD@Z 000000014004b958     button.obj
 0003:0000996c       $unwind$??$_Max_value@_K@std@@YAAEB_KAEB_K0@Z 000000014004b96c     button.obj
 0003:00009980       $unwind$??$addressof@V?$_String_val@U?$_Simple_types@D@std@@@std@@@std@@YAPEAV?$_String_val@U?$_Simple_types@D@std@@@0@AEAV10@@Z 000000014004b980     button.obj
 0003:00009994       $unwind$??R<lambda_66f57f934f28d61049862f64df852ff0>@@QEBAXQEAD_KQEBD@Z 000000014004b994     button.obj
 0003:000099a8       $unwind$??$_Reallocate_for@V<lambda_66f57f934f28d61049862f64df852ff0>@@PEBD@?$basic_string@DU?$char_traits@D@std@@V?$allocator@D@2@@std@@QEAAAEAV01@_KV<lambda_66f57f934f28d61049862f64df852ff0>@@PEBD@Z 000000014004b9a8     button.obj
 0003:000099bc       $unwind$??$construct@PEADAEBQEAD@?$_Default_allocator_traits@V?$allocator@D@std@@@std@@SAXAEAV?$allocator@D@1@QEAPEADAEBQEAD@Z 000000014004b9bc     button.obj
 0003:000099d0       $unwind$??$_Allocate@$0BA@U_Default_allocate_traits@std@@$0A@@std@@YAPEAX_K@Z 000000014004b9d0     button.obj
 0003:000099e4       $unwind$??$_Deallocate@$0BA@$0A@@std@@YAXPEAX_K@Z 000000014004b9e4     button.obj
 0003:000099f8       $unwind$??$move@AEAV?$_Func_class@XPEAVButton@@@std@@@std@@YA$$QEAV?$_Func_class@XPEAVButton@@@0@AEAV10@@Z 000000014004b9f8     button.obj
 0003:00009a0c       $unwind$?allocate@?$allocator@U_Container_proxy@std@@@std@@QEAAPEAU_Container_proxy@2@_K@Z 000000014004ba0c     button.obj
 0003:00009a20       $unwind$?deallocate@?$_Default_allocator_traits@V?$allocator@U_Container_proxy@std@@@std@@@std@@SAXAEAV?$allocator@U_Container_proxy@std@@@2@QEAU_Container_proxy@2@_K@Z 000000014004ba20     button.obj
 0003:00009a34       $unwind$??$destroy@U_Container_proxy@std@@@?$_Default_allocator_traits@V?$allocator@U_Container_proxy@std@@@std@@@std@@SAXAEAV?$allocator@U_Container_proxy@std@@@1@QEAU_Container_proxy@1@@Z 000000014004ba34     button.obj
 0003:00009a48       $unwind$??$_Deallocate_plain@V?$allocator@U_Container_proxy@std@@@std@@$0A@@std@@YAXAEAV?$allocator@U_Container_proxy@std@@@0@QEAU_Container_proxy@0@@Z 000000014004ba48     button.obj
 0003:00009a5c       $unwind$??$_Unfancy@U_Container_proxy@std@@@std@@YAPEAU_Container_proxy@0@PEAU10@@Z 000000014004ba5c     button.obj
 0003:00009a70       $unwind$??$construct@U_Container_proxy@std@@U12@@?$_Default_allocator_traits@V?$allocator@U_Container_proxy@std@@@std@@@std@@SAXAEAV?$allocator@U_Container_proxy@std@@@1@QEAU_Container_proxy@1@$$QEAU31@@Z 000000014004ba70     button.obj
 0003:00009a84       $unwind$??$?0_W@?$allocator@U_Container_proxy@std@@@std@@QEAA@AEBV?$allocator@_W@1@@Z 000000014004ba84     button.obj
 0003:00009a98       $unwind$??$?0D@?$allocator@U_Container_proxy@std@@@std@@QEAA@AEBV?$allocator@D@1@@Z 000000014004ba98     button.obj
 0003:00009aac       $unwind$??$_Get_size_of_n@$0BA@@std@@YA_K_K@Z 000000014004baac     button.obj
 0003:00009ac0       $unwind$??$_Maklocstr@D@std@@YAPEADPEBDPEADAEBU_Cvtvec@@@Z 000000014004bac0     button.obj
 0003:00009ad4       $unwind$??$forward@AEBQEAD@std@@YAAEBQEADAEBQEAD@Z 000000014004bad4     button.obj
 0003:00009ae8       $unwind$??$_Allocate_manually_vector_aligned@U_Default_allocate_traits@std@@@std@@YAPEAX_K@Z 000000014004bae8     button.obj
 0003:00009afc       $unwind$??$forward@U_Container_proxy@std@@@std@@YA$$QEAU_Container_proxy@0@AEAU10@@Z 000000014004bafc     button.obj
 0003:00009b10       $unwind$__local_stdio_printf_options 000000014004bb10     config.obj
 0003:00009b24       $unwind$_vfprintf_l        000000014004bb24     config.obj
 0003:00009b38       $unwind$printf             000000014004bb38     config.obj
 0003:00009b4c       $unwind$?_Swap_all@_Container_base12@std@@QEAAXAEAU12@@Z 000000014004bb4c     config.obj
 0003:00009b68       $ip2state$?_Swap_all@_Container_base12@std@@QEAAXAEAU12@@Z 000000014004bb68     config.obj
 0003:00009b70       $unwind$??0_Iterator_base12@std@@QEAA@XZ 000000014004bb70     config.obj
 0003:00009b84       $unwind$??0_Iterator_base12@std@@QEAA@AEBU01@@Z 000000014004bb84     config.obj
 0003:00009b98       $unwind$??4_Iterator_base12@std@@QEAAAEAU01@AEBU01@@Z 000000014004bb98     config.obj
 0003:00009bb8       $ip2state$??4_Iterator_base12@std@@QEAAAEAU01@AEBU01@@Z 000000014004bbb8     config.obj
 0003:00009bc0       $unwind$??1_Iterator_base12@std@@QEAA@XZ 000000014004bbc0     config.obj
 0003:00009be0       $ip2state$??1_Iterator_base12@std@@QEAA@XZ 000000014004bbe0     config.obj
 0003:00009be8       $unwind$?_Adopt@_Iterator_base12@std@@QEAAXPEBU_Container_base12@2@@Z 000000014004bbe8     config.obj
 0003:00009c08       $ip2state$?_Adopt@_Iterator_base12@std@@QEAAXPEBU_Container_base12@2@@Z 000000014004bc08     config.obj
 0003:00009c10       $unwind$?_Getcont@_Iterator_base12@std@@QEBAPEBU_Container_base12@2@XZ 000000014004bc10     config.obj
 0003:00009c24       $unwind$?_Orphan_me@_Iterator_base12@std@@QEAAXXZ 000000014004bc24     config.obj
 0003:00009c40       $ip2state$?_Orphan_me@_Iterator_base12@std@@QEAAXXZ 000000014004bc40     config.obj
 0003:00009c48       $unwind$??0?$tuple@$$V@std@@QEAA@XZ 000000014004bc48     config.obj
 0003:00009c5c       $unwind$??0?$tuple@$$V@std@@QEAA@AEBV01@@Z 000000014004bc5c     config.obj
 0003:00009c70       $unwind$?_Myptr@?$_String_val@U?$_Simple_types@D@std@@@std@@QEBAPEBDXZ 000000014004bc70     config.obj
 0003:00009c84       $unwind$?_Check_offset@?$_String_val@U?$_Simple_types@D@std@@@std@@QEBAX_K@Z 000000014004bc84     config.obj
 0003:00009c98       $unwind$?_Xran@?$_String_val@U?$_Simple_types@D@std@@@std@@SAXXZ 000000014004bc98     config.obj
 0003:00009cac       $unwind$?_Clamp_suffix_size@?$_String_val@U?$_Simple_types@D@std@@@std@@QEBA_K_K0@Z 000000014004bcac     config.obj
 0003:00009cc0       $unwind$?_Move_alloc@?$_String_alloc@U?$_String_base_types@DV?$allocator@D@std@@@std@@@std@@QEAAXAEAV?$allocator@D@2@@Z 000000014004bcc0     config.obj
 0003:00009cd4       $unwind$?_Swap_all@?$_String_alloc@U?$_String_base_types@DV?$allocator@D@std@@@std@@@std@@QEAAXAEAV12@@Z 000000014004bcd4     config.obj
 0003:00009ce8       $unwind$??0?$basic_string@DU?$char_traits@D@std@@V?$allocator@D@2@@std@@QEAA@AEBV01@_K1AEBV?$allocator@D@1@@Z 000000014004bce8     config.obj
 0003:00009d04       $stateUnwindMap$??0?$basic_string@DU?$char_traits@D@std@@V?$allocator@D@2@@std@@QEAA@AEBV01@_K1AEBV?$allocator@D@1@@Z 000000014004bd04     config.obj
 0003:00009d10       $ip2state$??0?$basic_string@DU?$char_traits@D@std@@V?$allocator@D@2@@std@@QEAA@AEBV01@_K1AEBV?$allocator@D@1@@Z 000000014004bd10     config.obj
 0003:00009d2c       $unwind$?dtor$0@?0???0?$basic_string@DU?$char_traits@D@std@@V?$allocator@D@2@@std@@QEAA@AEBV01@_K1AEBV?$allocator@D@1@@Z@4HA 000000014004bd2c     config.obj
 0003:00009d3c       $unwind$??4?$basic_string@DU?$char_traits@D@std@@V?$allocator@D@2@@std@@QEAAAEAV01@$$QEAV01@@Z 000000014004bd3c     config.obj
 0003:00009d58       $ip2state$??4?$basic_string@DU?$char_traits@D@std@@V?$allocator@D@2@@std@@QEAAAEAV01@$$QEAV01@@Z 000000014004bd58     config.obj
 0003:00009d60       $unwind$?_Assign_rv_contents@?$basic_string@DU?$char_traits@D@std@@V?$allocator@D@2@@std@@QEAAX$$QEAV12@U?$integral_constant@_N$00@2@@Z 000000014004bd60     config.obj
 0003:00009d74       $unwind$?_Assign_rv_contents_with_alloc_always_equal@?$basic_string@DU?$char_traits@D@std@@V?$allocator@D@2@@std@@QEAAX$$QEAV12@U?$integral_constant@_N$00@2@@Z 000000014004bd74     config.obj
 0003:00009d90       $ip2state$?_Assign_rv_contents_with_alloc_always_equal@?$basic_string@DU?$char_traits@D@std@@V?$allocator@D@2@@std@@QEAAX$$QEAV12@U?$integral_constant@_N$00@2@@Z 000000014004bd90     config.obj
 0003:00009d98       $unwind$?assign@?$basic_string@DU?$char_traits@D@std@@V?$allocator@D@2@@std@@QEAAAEAV12@AEBV12@_K_K@Z 000000014004bd98     config.obj
 0003:00009dac       $unwind$?c_str@?$basic_string@DU?$char_traits@D@std@@V?$allocator@D@2@@std@@QEBAPEBDXZ 000000014004bdac     config.obj
 0003:00009dc8       $ip2state$?c_str@?$basic_string@DU?$char_traits@D@std@@V?$allocator@D@2@@std@@QEBAPEBDXZ 000000014004bdc8     config.obj
 0003:00009dd0       $unwind$?stoi@std@@YAHAEBV?$basic_string@DU?$char_traits@D@std@@V?$allocator@D@2@@1@PEA_KH@Z 000000014004bdd0     config.obj
 0003:00009de4       $unwind$?stof@std@@YAMAEBV?$basic_string@DU?$char_traits@D@std@@V?$allocator@D@2@@1@PEA_K@Z 000000014004bde4     config.obj
 0003:00009df8       $unwind$?Is_Comment_Line@Config_Parser@@YA_NPEBD@Z 000000014004bdf8     config.obj
 0003:00009e0c       $unwind$?Read@Config_Parser@@YAPEBDPEBDAEAV?$basic_string@DU?$char_traits@D@std@@V?$allocator@D@2@@std@@@Z 000000014004be0c     config.obj
 0003:00009e2c       $stateUnwindMap$?Read@Config_Parser@@YAPEBDPEBDAEAV?$basic_string@DU?$char_traits@D@std@@V?$allocator@D@2@@std@@@Z 000000014004be2c     config.obj
 0003:00009e38       $ip2state$?Read@Config_Parser@@YAPEBDPEBDAEAV?$basic_string@DU?$char_traits@D@std@@V?$allocator@D@2@@std@@@Z 000000014004be38     config.obj
 0003:00009e54       $unwind$?dtor$0@?0??Read@Config_Parser@@YAPEBDPEBDAEAV?$basic_string@DU?$char_traits@D@std@@V?$allocator@D@2@@std@@@Z@4HA 000000014004be54     config.obj
 0003:00009e64       $unwind$?Read@Config_Parser@@YAPEBDPEBDAEAH@Z 000000014004be64     config.obj
 0003:00009e84       $stateUnwindMap$?Read@Config_Parser@@YAPEBDPEBDAEAH@Z 000000014004be84     config.obj
 0003:00009e98       $ip2state$?Read@Config_Parser@@YAPEBDPEBDAEAH@Z 000000014004be98     config.obj
 0003:00009ec4       $unwind$?dtor$0@?0??Read@Config_Parser@@YAPEBDPEBDAEAH@Z@4HA 000000014004bec4     config.obj
 0003:00009ed4       $unwind$?dtor$1@?0??Read@Config_Parser@@YAPEBDPEBDAEAH@Z@4HA 000000014004bed4     config.obj
 0003:00009ee4       $unwind$?Read@Config_Parser@@YAPEBDPEBDAEAM@Z 000000014004bee4     config.obj
 0003:00009f04       $stateUnwindMap$?Read@Config_Parser@@YAPEBDPEBDAEAM@Z 000000014004bf04     config.obj
 0003:00009f18       $ip2state$?Read@Config_Parser@@YAPEBDPEBDAEAM@Z 000000014004bf18     config.obj
 0003:00009f44       $unwind$?dtor$0@?0??Read@Config_Parser@@YAPEBDPEBDAEAM@Z@4HA 000000014004bf44     config.obj
 0003:00009f54       $unwind$?dtor$1@?0??Read@Config_Parser@@YAPEBDPEBDAEAM@Z@4HA 000000014004bf54     config.obj
 0003:00009f64       $unwind$?Load@ConfigManager@@QEAA_NPEBD@Z 000000014004bf64     config.obj
 0003:00009f80       $unwind$?Create_Object@ConfigManager@@QEBAPEAVGameObject@@W4Object_Type@@@Z 000000014004bf80     config.obj
 0003:00009f9c       $stateUnwindMap$?Create_Object@ConfigManager@@QEBAPEAVGameObject@@W4Object_Type@@@Z 000000014004bf9c     config.obj
 0003:00009fb0       $ip2state$?Create_Object@ConfigManager@@QEBAPEAVGameObject@@W4Object_Type@@@Z 000000014004bfb0     config.obj
 0003:00009ff0       $unwind$?dtor$0@?0??Create_Object@ConfigManager@@QEBAPEAVGameObject@@W4Object_Type@@@Z@4HA 000000014004bff0     config.obj
 0003:0000a000       $unwind$?dtor$1@?0??Create_Object@ConfigManager@@QEBAPEAVGameObject@@W4Object_Type@@@Z@4HA 000000014004c000     config.obj
 0003:0000a010       $unwind$?Read_Line@ConfigManager@@AEBA_KPEAU_iobuf@@PEAD_K@Z 000000014004c010     config.obj
 0003:0000a024       $unwind$?deallocate@?$allocator@U?$_Tree_node@U?$pair@$$CBW4Object_Type@@PEBVGameObject@@@std@@PEAX@std@@@std@@QEAAXQEAU?$_Tree_node@U?$pair@$$CBW4Object_Type@@PEBVGameObject@@@std@@PEAX@2@_K@Z 000000014004c024     config.obj
 0003:0000a038       $unwind$?allocate@?$allocator@U?$_Tree_node@U?$pair@$$CBW4Object_Type@@PEBVGameObject@@@std@@PEAX@std@@@std@@QEAAPEAU?$_Tree_node@U?$pair@$$CBW4Object_Type@@PEBVGameObject@@@std@@PEAX@2@_K@Z 000000014004c038     config.obj
 0003:0000a04c       $unwind$?deallocate@?$_Default_allocator_traits@V?$allocator@U?$_Tree_node@U?$pair@$$CBW4Object_Type@@PEBVGameObject@@@std@@PEAX@std@@@std@@@std@@SAXAEAV?$allocator@U?$_Tree_node@U?$pair@$$CBW4Object_Type@@PEBVGameObject@@@std@@PEAX@std@@@2@QEAU?$_Tree_node@U?$pair@$$CBW4Object_Type@@PEBVGameObject@@@std@@PEAX@2@_K@Z 000000014004c04c     config.obj
 0003:0000a060       $unwind$?max_size@?$_Default_allocator_traits@V?$allocator@U?$_Tree_node@U?$pair@$$CBW4Object_Type@@PEBVGameObject@@@std@@PEAX@std@@@std@@@std@@SA_KAEBV?$allocator@U?$_Tree_node@U?$pair@$$CBW4Object_Type@@PEBVGameObject@@@std@@PEAX@std@@@2@@Z 000000014004c060     config.obj
 0003:0000a074       $unwind$?_Buynode0@?$_Tree_comp_alloc@V?$_Tmap_traits@W4Object_Type@@PEBVGameObject@@U?$less@W4Object_Type@@@std@@V?$allocator@U?$pair@$$CBW4Object_Type@@PEBVGameObject@@@std@@@4@$0A@@std@@@std@@QEAAPEAU?$_Tree_node@U?$pair@$$CBW4Object_Type@@PEBVGameObject@@@std@@PEAX@2@XZ 000000014004c074     config.obj
 0003:0000a090       $stateUnwindMap$?_Buynode0@?$_Tree_comp_alloc@V?$_Tmap_traits@W4Object_Type@@PEBVGameObject@@U?$less@W4Object_Type@@@std@@V?$allocator@U?$pair@$$CBW4Object_Type@@PEBVGameObject@@@std@@@4@$0A@@std@@@std@@QEAAPEAU?$_Tree_node@U?$pair@$$CBW4Object_Type@@PEBVGameObject@@@std@@PEAX@2@XZ 000000014004c090     config.obj
 0003:0000a0a4       $tryMap$?_Buynode0@?$_Tree_comp_alloc@V?$_Tmap_traits@W4Object_Type@@PEBVGameObject@@U?$less@W4Object_Type@@@std@@V?$allocator@U?$pair@$$CBW4Object_Type@@PEBVGameObject@@@std@@@4@$0A@@std@@@std@@QEAAPEAU?$_Tree_node@U?$pair@$$CBW4Object_Type@@PEBVGameObject@@@std@@PEAX@2@XZ 000000014004c0a4     config.obj
 0003:0000a0bc       $handlerMap$0$?_Buynode0@?$_Tree_comp_alloc@V?$_Tmap_traits@W4Object_Type@@PEBVGameObject@@U?$less@W4Object_Type@@@std@@V?$allocator@U?$pair@$$CBW4Object_Type@@PEBVGameObject@@@std@@@4@$0A@@std@@@std@@QEAAPEAU?$_Tree_node@U?$pair@$$CBW4Object_Type@@PEBVGameObject@@@std@@PEAX@2@XZ 000000014004c0bc     config.obj
 0003:0000a0d8       $ip2state$?_Buynode0@?$_Tree_comp_alloc@V?$_Tmap_traits@W4Object_Type@@PEBVGameObject@@U?$less@W4Object_Type@@@std@@V?$allocator@U?$pair@$$CBW4Object_Type@@PEBVGameObject@@@std@@@4@$0A@@std@@@std@@QEAAPEAU?$_Tree_node@U?$pair@$$CBW4Object_Type@@PEBVGameObject@@@std@@PEAX@2@XZ 000000014004c0d8     config.obj
 0003:0000a10c       $unwind$?catch$0@?0??_Buynode0@?$_Tree_comp_alloc@V?$_Tmap_traits@W4Object_Type@@PEBVGameObject@@U?$less@W4Object_Type@@@std@@V?$allocator@U?$pair@$$CBW4Object_Type@@PEBVGameObject@@@std@@@4@$0A@@std@@@std@@QEAAPEAU?$_Tree_node@U?$pair@$$CBW4Object_Type@@PEBVGameObject@@@std@@PEAX@2@XZ@4HA 000000014004c10c     config.obj
 0003:0000a124       $unwind$?_Freenode0@?$_Tree_comp_alloc@V?$_Tmap_traits@W4Object_Type@@PEBVGameObject@@U?$less@W4Object_Type@@@std@@V?$allocator@U?$pair@$$CBW4Object_Type@@PEBVGameObject@@@std@@@4@$0A@@std@@@std@@QEAAXPEAU?$_Tree_node@U?$pair@$$CBW4Object_Type@@PEBVGameObject@@@std@@PEAX@2@@Z 000000014004c124     config.obj
 0003:0000a138       $unwind$?_Getcomp@?$_Tree_comp_alloc@V?$_Tmap_traits@W4Object_Type@@PEBVGameObject@@U?$less@W4Object_Type@@@std@@V?$allocator@U?$pair@$$CBW4Object_Type@@PEBVGameObject@@@std@@@4@$0A@@std@@@std@@QEAAAEAU?$less@W4Object_Type@@@2@XZ 000000014004c138     config.obj
 0003:0000a14c       $unwind$?_Getcomp@?$_Tree_comp_alloc@V?$_Tmap_traits@W4Object_Type@@PEBVGameObject@@U?$less@W4Object_Type@@@std@@V?$allocator@U?$pair@$$CBW4Object_Type@@PEBVGameObject@@@std@@@4@$0A@@std@@@std@@QEBAAEBU?$less@W4Object_Type@@@2@XZ 000000014004c14c     config.obj
 0003:0000a160       $unwind$?_Getal@?$_Tree_comp_alloc@V?$_Tmap_traits@W4Object_Type@@PEBVGameObject@@U?$less@W4Object_Type@@@std@@V?$allocator@U?$pair@$$CBW4Object_Type@@PEBVGameObject@@@std@@@4@$0A@@std@@@std@@QEAAAEAV?$allocator@U?$_Tree_node@U?$pair@$$CBW4Object_Type@@PEBVGameObject@@@std@@PEAX@std@@@2@XZ 000000014004c160     config.obj
 0003:0000a174       $unwind$?_Getal@?$_Tree_comp_alloc@V?$_Tmap_traits@W4Object_Type@@PEBVGameObject@@U?$less@W4Object_Type@@@std@@V?$allocator@U?$pair@$$CBW4Object_Type@@PEBVGameObject@@@std@@@4@$0A@@std@@@std@@QEBAAEBV?$allocator@U?$_Tree_node@U?$pair@$$CBW4Object_Type@@PEBVGameObject@@@std@@PEAX@std@@@2@XZ 000000014004c174     config.obj
 0003:0000a188       $unwind$?_Get_data@?$_Tree_comp_alloc@V?$_Tmap_traits@W4Object_Type@@PEBVGameObject@@U?$less@W4Object_Type@@@std@@V?$allocator@U?$pair@$$CBW4Object_Type@@PEBVGameObject@@@std@@@4@$0A@@std@@@std@@QEAAAEAV?$_Tree_val@U?$_Tree_simple_types@U?$pair@$$CBW4Object_Type@@PEBVGameObject@@@std@@@std@@@2@XZ 000000014004c188     config.obj
 0003:0000a19c       $unwind$?_Get_data@?$_Tree_comp_alloc@V?$_Tmap_traits@W4Object_Type@@PEBVGameObject@@U?$less@W4Object_Type@@@std@@V?$allocator@U?$pair@$$CBW4Object_Type@@PEBVGameObject@@@std@@@4@$0A@@std@@@std@@QEBAAEBV?$_Tree_val@U?$_Tree_simple_types@U?$pair@$$CBW4Object_Type@@PEBVGameObject@@@std@@@std@@@2@XZ 000000014004c19c     config.obj
 0003:0000a1b0       $unwind$??R?$less@W4Object_Type@@@std@@QEBA_NAEBW4Object_Type@@0@Z 000000014004c1b0     config.obj
 0003:0000a1c4       $unwind$?_Max@?$_Tree_val@U?$_Tree_simple_types@U?$pair@$$CBW4Object_Type@@PEBVGameObject@@@std@@@std@@@std@@SAPEAU?$_Tree_node@U?$pair@$$CBW4Object_Type@@PEBVGameObject@@@std@@PEAX@2@PEAU32@@Z 000000014004c1c4     config.obj
 0003:0000a1d8       $unwind$?_Min@?$_Tree_val@U?$_Tree_simple_types@U?$pair@$$CBW4Object_Type@@PEBVGameObject@@@std@@@std@@@std@@SAPEAU?$_Tree_node@U?$pair@$$CBW4Object_Type@@PEBVGameObject@@@std@@PEAX@2@PEAU32@@Z 000000014004c1d8     config.obj
 0003:0000a1ec       $unwind$?_Root@?$_Tree_val@U?$_Tree_simple_types@U?$pair@$$CBW4Object_Type@@PEBVGameObject@@@std@@@std@@@std@@QEBAAEAPEAU?$_Tree_node@U?$pair@$$CBW4Object_Type@@PEBVGameObject@@@std@@PEAX@2@XZ 000000014004c1ec     config.obj
 0003:0000a200       $unwind$?_Lmost@?$_Tree_val@U?$_Tree_simple_types@U?$pair@$$CBW4Object_Type@@PEBVGameObject@@@std@@@std@@@std@@QEBAAEAPEAU?$_Tree_node@U?$pair@$$CBW4Object_Type@@PEBVGameObject@@@std@@PEAX@2@XZ 000000014004c200     config.obj
 0003:0000a214       $unwind$?_Rmost@?$_Tree_val@U?$_Tree_simple_types@U?$pair@$$CBW4Object_Type@@PEBVGameObject@@@std@@@std@@@std@@QEBAAEAPEAU?$_Tree_node@U?$pair@$$CBW4Object_Type@@PEBVGameObject@@@std@@PEAX@2@XZ 000000014004c214     config.obj
 0003:0000a228       $unwind$?_Lrotate@?$_Tree_val@U?$_Tree_simple_types@U?$pair@$$CBW4Object_Type@@PEBVGameObject@@@std@@@std@@@std@@QEAAXPEAU?$_Tree_node@U?$pair@$$CBW4Object_Type@@PEBVGameObject@@@std@@PEAX@2@@Z 000000014004c228     config.obj
 0003:0000a23c       $unwind$?_Rrotate@?$_Tree_val@U?$_Tree_simple_types@U?$pair@$$CBW4Object_Type@@PEBVGameObject@@@std@@@std@@@std@@QEAAXPEAU?$_Tree_node@U?$pair@$$CBW4Object_Type@@PEBVGameObject@@@std@@PEAX@2@@Z 000000014004c23c     config.obj
 0003:0000a250       $unwind$?_Get_first@?$_Compressed_pair@V?$allocator@U?$_Tree_node@U?$pair@$$CBW4Object_Type@@PEBVGameObject@@@std@@PEAX@std@@@std@@V?$_Tree_val@U?$_Tree_simple_types@U?$pair@$$CBW4Object_Type@@PEBVGameObject@@@std@@@std@@@2@$00@std@@QEAAAEAV?$allocator@U?$_Tree_node@U?$pair@$$CBW4Object_Type@@PEBVGameObject@@@std@@PEAX@std@@@2@XZ 000000014004c250     config.obj
 0003:0000a264       $unwind$?_Get_first@?$_Compressed_pair@V?$allocator@U?$_Tree_node@U?$pair@$$CBW4Object_Type@@PEBVGameObject@@@std@@PEAX@std@@@std@@V?$_Tree_val@U?$_Tree_simple_types@U?$pair@$$CBW4Object_Type@@PEBVGameObject@@@std@@@std@@@2@$00@std@@QEBAAEBV?$allocator@U?$_Tree_node@U?$pair@$$CBW4Object_Type@@PEBVGameObject@@@std@@PEAX@std@@@2@XZ 000000014004c264     config.obj
 0003:0000a278       $unwind$?_Get_second@?$_Compressed_pair@V?$allocator@U?$_Tree_node@U?$pair@$$CBW4Object_Type@@PEBVGameObject@@@std@@PEAX@std@@@std@@V?$_Tree_val@U?$_Tree_simple_types@U?$pair@$$CBW4Object_Type@@PEBVGameObject@@@std@@@std@@@2@$00@std@@QEAAAEAV?$_Tree_val@U?$_Tree_simple_types@U?$pair@$$CBW4Object_Type@@PEBVGameObject@@@std@@@std@@@2@XZ 000000014004c278     config.obj
 0003:0000a28c       $unwind$?_Get_second@?$_Compressed_pair@V?$allocator@U?$_Tree_node@U?$pair@$$CBW4Object_Type@@PEBVGameObject@@@std@@PEAX@std@@@std@@V?$_Tree_val@U?$_Tree_simple_types@U?$pair@$$CBW4Object_Type@@PEBVGameObject@@@std@@@std@@@2@$00@std@@QEBAAEBV?$_Tree_val@U?$_Tree_simple_types@U?$pair@$$CBW4Object_Type@@PEBVGameObject@@@std@@@std@@@2@XZ 000000014004c28c     config.obj
 0003:0000a2a0       $unwind$?_Get_first@?$_Compressed_pair@U?$less@W4Object_Type@@@std@@V?$_Compressed_pair@V?$allocator@U?$_Tree_node@U?$pair@$$CBW4Object_Type@@PEBVGameObject@@@std@@PEAX@std@@@std@@V?$_Tree_val@U?$_Tree_simple_types@U?$pair@$$CBW4Object_Type@@PEBVGameObject@@@std@@@std@@@2@$00@2@$00@std@@QEAAAEAU?$less@W4Object_Type@@@2@XZ 000000014004c2a0     config.obj
 0003:0000a2b4       $unwind$?_Get_first@?$_Compressed_pair@U?$less@W4Object_Type@@@std@@V?$_Compressed_pair@V?$allocator@U?$_Tree_node@U?$pair@$$CBW4Object_Type@@PEBVGameObject@@@std@@PEAX@std@@@std@@V?$_Tree_val@U?$_Tree_simple_types@U?$pair@$$CBW4Object_Type@@PEBVGameObject@@@std@@@std@@@2@$00@2@$00@std@@QEBAAEBU?$less@W4Object_Type@@@2@XZ 000000014004c2b4     config.obj
 0003:0000a2c8       $unwind$?_Get_second@?$_Compressed_pair@U?$less@W4Object_Type@@@std@@V?$_Compressed_pair@V?$allocator@U?$_Tree_node@U?$pair@$$CBW4Object_Type@@PEBVGameObject@@@std@@PEAX@std@@@std@@V?$_Tree_val@U?$_Tree_simple_types@U?$pair@$$CBW4Object_Type@@PEBVGameObject@@@std@@@std@@@2@$00@2@$00@std@@QEAAAEAV?$_Compressed_pair@V?$allocator@U?$_Tree_node@U?$pair@$$CBW4Object_Type@@PEBVGameObject@@@std@@PEAX@std@@@std@@V?$_Tree_val@U?$_Tree_simple_types@U?$pair@$$CBW4Object_Type@@PEBVGameObject@@@std@@@std@@@2@$00@2@XZ 000000014004c2c8     config.obj
 0003:0000a2dc       $unwind$?_Get_second@?$_Compressed_pair@U?$less@W4Object_Type@@@std@@V?$_Compressed_pair@V?$allocator@U?$_Tree_node@U?$pair@$$CBW4Object_Type@@PEBVGameObject@@@std@@PEAX@std@@@std@@V?$_Tree_val@U?$_Tree_simple_types@U?$pair@$$CBW4Object_Type@@PEBVGameObject@@@std@@@std@@@2@$00@2@$00@std@@QEBAAEBV?$_Compressed_pair@V?$allocator@U?$_Tree_node@U?$pair@$$CBW4Object_Type@@PEBVGameObject@@@std@@PEAX@std@@@std@@V?$_Tree_val@U?$_Tree_simple_types@U?$pair@$$CBW4Object_Type@@PEBVGameObject@@@std@@@std@@@2@$00@2@XZ 000000014004c2dc     config.obj
 0003:0000a2f0       $unwind$?begin@?$_Tree@V?$_Tmap_traits@W4Object_Type@@PEBVGameObject@@U?$less@W4Object_Type@@@std@@V?$allocator@U?$pair@$$CBW4Object_Type@@PEBVGameObject@@@std@@@4@$0A@@std@@@std@@QEAA?AV?$_Tree_iterator@V?$_Tree_val@U?$_Tree_simple_types@U?$pair@$$CBW4Object_Type@@PEBVGameObject@@@std@@@std@@@std@@@2@XZ 000000014004c2f0     config.obj
 0003:0000a310       $ip2state$?begin@?$_Tree@V?$_Tmap_traits@W4Object_Type@@PEBVGameObject@@U?$less@W4Object_Type@@@std@@V?$allocator@U?$pair@$$CBW4Object_Type@@PEBVGameObject@@@std@@@4@$0A@@std@@@std@@QEAA?AV?$_Tree_iterator@V?$_Tree_val@U?$_Tree_simple_types@U?$pair@$$CBW4Object_Type@@PEBVGameObject@@@std@@@std@@@std@@@2@XZ 000000014004c310     config.obj
 0003:0000a318       $unwind$?end@?$_Tree@V?$_Tmap_traits@W4Object_Type@@PEBVGameObject@@U?$less@W4Object_Type@@@std@@V?$allocator@U?$pair@$$CBW4Object_Type@@PEBVGameObject@@@std@@@4@$0A@@std@@@std@@QEAA?AV?$_Tree_iterator@V?$_Tree_val@U?$_Tree_simple_types@U?$pair@$$CBW4Object_Type@@PEBVGameObject@@@std@@@std@@@std@@@2@XZ 000000014004c318     config.obj
 0003:0000a338       $ip2state$?end@?$_Tree@V?$_Tmap_traits@W4Object_Type@@PEBVGameObject@@U?$less@W4Object_Type@@@std@@V?$allocator@U?$pair@$$CBW4Object_Type@@PEBVGameObject@@@std@@@4@$0A@@std@@@std@@QEAA?AV?$_Tree_iterator@V?$_Tree_val@U?$_Tree_simple_types@U?$pair@$$CBW4Object_Type@@PEBVGameObject@@@std@@@std@@@std@@@2@XZ 000000014004c338     config.obj
 0003:0000a340       $unwind$?end@?$_Tree@V?$_Tmap_traits@W4Object_Type@@PEBVGameObject@@U?$less@W4Object_Type@@@std@@V?$allocator@U?$pair@$$CBW4Object_Type@@PEBVGameObject@@@std@@@4@$0A@@std@@@std@@QEBA?AV?$_Tree_const_iterator@V?$_Tree_val@U?$_Tree_simple_types@U?$pair@$$CBW4Object_Type@@PEBVGameObject@@@std@@@std@@@std@@@2@XZ 000000014004c340     config.obj
 0003:0000a360       $ip2state$?end@?$_Tree@V?$_Tmap_traits@W4Object_Type@@PEBVGameObject@@U?$less@W4Object_Type@@@std@@V?$allocator@U?$pair@$$CBW4Object_Type@@PEBVGameObject@@@std@@@4@$0A@@std@@@std@@QEBA?AV?$_Tree_const_iterator@V?$_Tree_val@U?$_Tree_simple_types@U?$pair@$$CBW4Object_Type@@PEBVGameObject@@@std@@@std@@@std@@@2@XZ 000000014004c360     config.obj
 0003:0000a368       $unwind$?size@?$_Tree@V?$_Tmap_traits@W4Object_Type@@PEBVGameObject@@U?$less@W4Object_Type@@@std@@V?$allocator@U?$pair@$$CBW4Object_Type@@PEBVGameObject@@@std@@@4@$0A@@std@@@std@@QEBA_KXZ 000000014004c368     config.obj
 0003:0000a37c       $unwind$?max_size@?$_Tree@V?$_Tmap_traits@W4Object_Type@@PEBVGameObject@@U?$less@W4Object_Type@@@std@@V?$allocator@U?$pair@$$CBW4Object_Type@@PEBVGameObject@@@std@@@4@$0A@@std@@@std@@QEBA_KXZ 000000014004c37c     config.obj
 0003:0000a390       $unwind$?find@?$_Tree@V?$_Tmap_traits@W4Object_Type@@PEBVGameObject@@U?$less@W4Object_Type@@@std@@V?$allocator@U?$pair@$$CBW4Object_Type@@PEBVGameObject@@@std@@@4@$0A@@std@@@std@@QEBA?AV?$_Tree_const_iterator@V?$_Tree_val@U?$_Tree_simple_types@U?$pair@$$CBW4Object_Type@@PEBVGameObject@@@std@@@std@@@std@@@2@AEBW4Object_Type@@@Z 000000014004c390     config.obj
 0003:0000a3ac       $stateUnwindMap$?find@?$_Tree@V?$_Tmap_traits@W4Object_Type@@PEBVGameObject@@U?$less@W4Object_Type@@@std@@V?$allocator@U?$pair@$$CBW4Object_Type@@PEBVGameObject@@@std@@@4@$0A@@std@@@std@@QEBA?AV?$_Tree_const_iterator@V?$_Tree_val@U?$_Tree_simple_types@U?$pair@$$CBW4Object_Type@@PEBVGameObject@@@std@@@std@@@std@@@2@AEBW4Object_Type@@@Z 000000014004c3ac     config.obj
 0003:0000a3c0       $ip2state$?find@?$_Tree@V?$_Tmap_traits@W4Object_Type@@PEBVGameObject@@U?$less@W4Object_Type@@@std@@V?$allocator@U?$pair@$$CBW4Object_Type@@PEBVGameObject@@@std@@@4@$0A@@std@@@std@@QEBA?AV?$_Tree_const_iterator@V?$_Tree_val@U?$_Tree_simple_types@U?$pair@$$CBW4Object_Type@@PEBVGameObject@@@std@@@std@@@std@@@2@AEBW4Object_Type@@@Z 000000014004c3c0     config.obj
 0003:0000a3ec       $unwind$?dtor$0@?0??find@?$_Tree@V?$_Tmap_traits@W4Object_Type@@PEBVGameObject@@U?$less@W4Object_Type@@@std@@V?$allocator@U?$pair@$$CBW4Object_Type@@PEBVGameObject@@@std@@@4@$0A@@std@@@std@@QEBA?AV?$_Tree_const_iterator@V?$_Tree_val@U?$_Tree_simple_types@U?$pair@$$CBW4Object_Type@@PEBVGameObject@@@std@@@std@@@std@@@2@AEBW4Object_Type@@@Z@4HA 000000014004c3ec     config.obj
 0003:0000a3fc       $unwind$?dtor$1@?0??find@?$_Tree@V?$_Tmap_traits@W4Object_Type@@PEBVGameObject@@U?$less@W4Object_Type@@@std@@V?$allocator@U?$pair@$$CBW4Object_Type@@PEBVGameObject@@@std@@@4@$0A@@std@@@std@@QEBA?AV?$_Tree_const_iterator@V?$_Tree_val@U?$_Tree_simple_types@U?$pair@$$CBW4Object_Type@@PEBVGameObject@@@std@@@std@@@std@@@2@AEBW4Object_Type@@@Z@4HA 000000014004c3fc     config.obj
 0003:0000a40c       $unwind$?lower_bound@?$_Tree@V?$_Tmap_traits@W4Object_Type@@PEBVGameObject@@U?$less@W4Object_Type@@@std@@V?$allocator@U?$pair@$$CBW4Object_Type@@PEBVGameObject@@@std@@@4@$0A@@std@@@std@@QEAA?AV?$_Tree_iterator@V?$_Tree_val@U?$_Tree_simple_types@U?$pair@$$CBW4Object_Type@@PEBVGameObject@@@std@@@std@@@std@@@2@AEBW4Object_Type@@@Z 000000014004c40c     config.obj
 0003:0000a420       $unwind$?lower_bound@?$_Tree@V?$_Tmap_traits@W4Object_Type@@PEBVGameObject@@U?$less@W4Object_Type@@@std@@V?$allocator@U?$pair@$$CBW4Object_Type@@PEBVGameObject@@@std@@@4@$0A@@std@@@std@@QEBA?AV?$_Tree_const_iterator@V?$_Tree_val@U?$_Tree_simple_types@U?$pair@$$CBW4Object_Type@@PEBVGameObject@@@std@@@std@@@std@@@2@AEBW4Object_Type@@@Z 000000014004c420     config.obj
 0003:0000a434       $unwind$?_Destroy_if_node@?$_Tree@V?$_Tmap_traits@W4Object_Type@@PEBVGameObject@@U?$less@W4Object_Type@@@std@@V?$allocator@U?$pair@$$CBW4Object_Type@@PEBVGameObject@@@std@@@4@$0A@@std@@@std@@IEAAXPEAU?$_Tree_node@U?$pair@$$CBW4Object_Type@@PEBVGameObject@@@std@@PEAX@2@@Z 000000014004c434     config.obj
 0003:0000a448       $unwind$?_Compare@?$_Tree@V?$_Tmap_traits@W4Object_Type@@PEBVGameObject@@U?$less@W4Object_Type@@@std@@V?$allocator@U?$pair@$$CBW4Object_Type@@PEBVGameObject@@@std@@@4@$0A@@std@@@std@@IEBA_NAEBW4Object_Type@@0@Z 000000014004c448     config.obj
 0003:0000a45c       $unwind$?_Kfn@?$_Tree@V?$_Tmap_traits@W4Object_Type@@PEBVGameObject@@U?$less@W4Object_Type@@@std@@V?$allocator@U?$pair@$$CBW4Object_Type@@PEBVGameObject@@@std@@@4@$0A@@std@@@std@@IEBAAEBW4Object_Type@@AEBU?$pair@$$CBW4Object_Type@@PEBVGameObject@@@2@@Z 000000014004c45c     config.obj
 0003:0000a470       $unwind$?_Key@?$_Tree@V?$_Tmap_traits@W4Object_Type@@PEBVGameObject@@U?$less@W4Object_Type@@@std@@V?$allocator@U?$pair@$$CBW4Object_Type@@PEBVGameObject@@@std@@@4@$0A@@std@@@std@@IEBAAEBW4Object_Type@@PEAU?$_Tree_node@U?$pair@$$CBW4Object_Type@@PEBVGameObject@@@std@@PEAX@2@@Z 000000014004c470     config.obj
 0003:0000a484       $unwind$??A?$map@W4Object_Type@@PEBVGameObject@@U?$less@W4Object_Type@@@std@@V?$allocator@U?$pair@$$CBW4Object_Type@@PEBVGameObject@@@std@@@4@@std@@QEAAAEAPEBVGameObject@@$$QEAW4Object_Type@@@Z 000000014004c484     config.obj
 0003:0000a4a0       $stateUnwindMap$??A?$map@W4Object_Type@@PEBVGameObject@@U?$less@W4Object_Type@@@std@@V?$allocator@U?$pair@$$CBW4Object_Type@@PEBVGameObject@@@std@@@4@@std@@QEAAAEAPEBVGameObject@@$$QEAW4Object_Type@@@Z 000000014004c4a0     config.obj
 0003:0000a4a8       $ip2state$??A?$map@W4Object_Type@@PEBVGameObject@@U?$less@W4Object_Type@@@std@@V?$allocator@U?$pair@$$CBW4Object_Type@@PEBVGameObject@@@std@@@4@@std@@QEAAAEAPEBVGameObject@@$$QEAW4Object_Type@@@Z 000000014004c4a8     config.obj
 0003:0000a4c4       $unwind$?dtor$0@?0???A?$map@W4Object_Type@@PEBVGameObject@@U?$less@W4Object_Type@@@std@@V?$allocator@U?$pair@$$CBW4Object_Type@@PEBVGameObject@@@std@@@4@@std@@QEAAAEAPEBVGameObject@@$$QEAW4Object_Type@@@Z@4HA 000000014004c4c4     config.obj
 0003:0000a4d4       $unwind$?Get_Word_Pos_End@Config_Parser@@YAPEBDPEBD@Z 000000014004c4d4     config.obj
 0003:0000a4e8       $unwind$??0?$_Tree_unchecked_const_iterator@V?$_Tree_val@U?$_Tree_simple_types@U?$pair@$$CBW4Object_Type@@PEBVGameObject@@@std@@@std@@@std@@U_Iterator_base12@2@@std@@QEAA@XZ 000000014004c4e8     config.obj
 0003:0000a4fc       $unwind$??0?$_Tree_unchecked_const_iterator@V?$_Tree_val@U?$_Tree_simple_types@U?$pair@$$CBW4Object_Type@@PEBVGameObject@@@std@@@std@@@std@@U_Iterator_base12@2@@std@@QEAA@PEAU?$_Tree_node@U?$pair@$$CBW4Object_Type@@PEBVGameObject@@@std@@PEAX@1@PEBV?$_Tree_val@U?$_Tree_simple_types@U?$pair@$$CBW4Object_Type@@PEBVGameObject@@@std@@@std@@@1@@Z 000000014004c4fc     config.obj
 0003:0000a510       $unwind$??E?$_Tree_unchecked_const_iterator@V?$_Tree_val@U?$_Tree_simple_types@U?$pair@$$CBW4Object_Type@@PEBVGameObject@@@std@@@std@@@std@@U_Iterator_base12@2@@std@@QEAAAEAV01@XZ 000000014004c510     config.obj
 0003:0000a524       $unwind$??F?$_Tree_unchecked_const_iterator@V?$_Tree_val@U?$_Tree_simple_types@U?$pair@$$CBW4Object_Type@@PEBVGameObject@@@std@@@std@@@std@@U_Iterator_base12@2@@std@@QEAAAEAV01@XZ 000000014004c524     config.obj
 0003:0000a538       $unwind$??1?$_Tree_unchecked_const_iterator@V?$_Tree_val@U?$_Tree_simple_types@U?$pair@$$CBW4Object_Type@@PEBVGameObject@@@std@@@std@@@std@@U_Iterator_base12@2@@std@@QEAA@XZ 000000014004c538     config.obj
 0003:0000a54c       $unwind$??0?$_Tree_unchecked_const_iterator@V?$_Tree_val@U?$_Tree_simple_types@U?$pair@$$CBW4Object_Type@@PEBVGameObject@@@std@@@std@@@std@@U_Iterator_base12@2@@std@@QEAA@AEBV01@@Z 000000014004c54c     config.obj
 0003:0000a560       $unwind$??0?$_Tree_unchecked_const_iterator@V?$_Tree_val@U?$_Tree_simple_types@U?$pair@$$CBW4Object_Type@@PEBVGameObject@@@std@@@std@@@std@@U_Iterator_base12@2@@std@@QEAA@$$QEAV01@@Z 000000014004c560     config.obj
 0003:0000a574       $unwind$??4?$_Tree_unchecked_const_iterator@V?$_Tree_val@U?$_Tree_simple_types@U?$pair@$$CBW4Object_Type@@PEBVGameObject@@@std@@@std@@@std@@U_Iterator_base12@2@@std@@QEAAAEAV01@AEBV01@@Z 000000014004c574     config.obj
 0003:0000a588       $unwind$??0?$_Tree_const_iterator@V?$_Tree_val@U?$_Tree_simple_types@U?$pair@$$CBW4Object_Type@@PEBVGameObject@@@std@@@std@@@std@@@std@@QEAA@XZ 000000014004c588     config.obj
 0003:0000a59c       $unwind$??0?$_Tree_const_iterator@V?$_Tree_val@U?$_Tree_simple_types@U?$pair@$$CBW4Object_Type@@PEBVGameObject@@@std@@@std@@@std@@@std@@QEAA@PEAU?$_Tree_node@U?$pair@$$CBW4Object_Type@@PEBVGameObject@@@std@@PEAX@1@PEBV?$_Tree_val@U?$_Tree_simple_types@U?$pair@$$CBW4Object_Type@@PEBVGameObject@@@std@@@std@@@1@@Z 000000014004c59c     config.obj
 0003:0000a5b0       $unwind$??D?$_Tree_const_iterator@V?$_Tree_val@U?$_Tree_simple_types@U?$pair@$$CBW4Object_Type@@PEBVGameObject@@@std@@@std@@@std@@@std@@QEBAAEBU?$pair@$$CBW4Object_Type@@PEBVGameObject@@@1@XZ 000000014004c5b0     config.obj
 0003:0000a5c4       $unwind$??C?$_Tree_const_iterator@V?$_Tree_val@U?$_Tree_simple_types@U?$pair@$$CBW4Object_Type@@PEBVGameObject@@@std@@@std@@@std@@@std@@QEBAPEBU?$pair@$$CBW4Object_Type@@PEBVGameObject@@@1@XZ 000000014004c5c4     config.obj
 0003:0000a5d8       $unwind$??E?$_Tree_const_iterator@V?$_Tree_val@U?$_Tree_simple_types@U?$pair@$$CBW4Object_Type@@PEBVGameObject@@@std@@@std@@@std@@@std@@QEAAAEAV01@XZ 000000014004c5d8     config.obj
 0003:0000a5ec       $unwind$??F?$_Tree_const_iterator@V?$_Tree_val@U?$_Tree_simple_types@U?$pair@$$CBW4Object_Type@@PEBVGameObject@@@std@@@std@@@std@@@std@@QEAAAEAV01@XZ 000000014004c5ec     config.obj
 0003:0000a600       $unwind$??8?$_Tree_const_iterator@V?$_Tree_val@U?$_Tree_simple_types@U?$pair@$$CBW4Object_Type@@PEBVGameObject@@@std@@@std@@@std@@@std@@QEBA_NAEBV01@@Z 000000014004c600     config.obj
 0003:0000a614       $unwind$??1?$_Tree_const_iterator@V?$_Tree_val@U?$_Tree_simple_types@U?$pair@$$CBW4Object_Type@@PEBVGameObject@@@std@@@std@@@std@@@std@@QEAA@XZ 000000014004c614     config.obj
 0003:0000a628       $unwind$??0?$_Tree_const_iterator@V?$_Tree_val@U?$_Tree_simple_types@U?$pair@$$CBW4Object_Type@@PEBVGameObject@@@std@@@std@@@std@@@std@@QEAA@AEBV01@@Z 000000014004c628     config.obj
 0003:0000a63c       $unwind$??0?$_Tree_const_iterator@V?$_Tree_val@U?$_Tree_simple_types@U?$pair@$$CBW4Object_Type@@PEBVGameObject@@@std@@@std@@@std@@@std@@QEAA@$$QEAV01@@Z 000000014004c63c     config.obj
 0003:0000a650       $unwind$??4?$_Tree_const_iterator@V?$_Tree_val@U?$_Tree_simple_types@U?$pair@$$CBW4Object_Type@@PEBVGameObject@@@std@@@std@@@std@@@std@@QEAAAEAV01@AEBV01@@Z 000000014004c650     config.obj
 0003:0000a664       $unwind$?pointer_to@?$pointer_traits@PEBU?$pair@$$CBW4Object_Type@@PEBVGameObject@@@std@@@std@@SAPEBU?$pair@$$CBW4Object_Type@@PEBVGameObject@@@2@AEBU32@@Z 000000014004c664     config.obj
 0003:0000a678       $unwind$??$_Debug_lt_pred@AEBU?$less@W4Object_Type@@@std@@AEBW4Object_Type@@AEBW43@@std@@YA_NAEBU?$less@W4Object_Type@@@0@AEBW4Object_Type@@1PEB_WI@Z 000000014004c678     config.obj
 0003:0000a68c       $unwind$??$addressof@$$CBV?$_Tree_val@U?$_Tree_simple_types@U?$pair@$$CBW4Object_Type@@PEBVGameObject@@@std@@@std@@@std@@@std@@YAPEBV?$_Tree_val@U?$_Tree_simple_types@U?$pair@$$CBW4Object_Type@@PEBVGameObject@@@std@@@std@@@0@AEBV10@@Z 000000014004c68c     config.obj
 0003:0000a6a0       $unwind$??$move@AEAW4Object_Type@@@std@@YA$$QEAW4Object_Type@@AEAW41@@Z 000000014004c6a0     config.obj
 0003:0000a6b4       $unwind$??$try_emplace@$$V@?$map@W4Object_Type@@PEBVGameObject@@U?$less@W4Object_Type@@@std@@V?$allocator@U?$pair@$$CBW4Object_Type@@PEBVGameObject@@@std@@@4@@std@@QEAA?AU?$pair@V?$_Tree_iterator@V?$_Tree_val@U?$_Tree_simple_types@U?$pair@$$CBW4Object_Type@@PEBVGameObject@@@std@@@std@@@std@@@std@@_N@1@$$QEAW4Object_Type@@@Z 000000014004c6b4     config.obj
 0003:0000a6c8       $unwind$??0?$_Tree_iterator@V?$_Tree_val@U?$_Tree_simple_types@U?$pair@$$CBW4Object_Type@@PEBVGameObject@@@std@@@std@@@std@@@std@@QEAA@PEAU?$_Tree_node@U?$pair@$$CBW4Object_Type@@PEBVGameObject@@@std@@PEAX@1@PEBV?$_Tree_val@U?$_Tree_simple_types@U?$pair@$$CBW4Object_Type@@PEBVGameObject@@@std@@@std@@@1@@Z 000000014004c6c8     config.obj
 0003:0000a6dc       $unwind$??D?$_Tree_iterator@V?$_Tree_val@U?$_Tree_simple_types@U?$pair@$$CBW4Object_Type@@PEBVGameObject@@@std@@@std@@@std@@@std@@QEBAAEAU?$pair@$$CBW4Object_Type@@PEBVGameObject@@@1@XZ 000000014004c6dc     config.obj
 0003:0000a6f0       $unwind$??C?$_Tree_iterator@V?$_Tree_val@U?$_Tree_simple_types@U?$pair@$$CBW4Object_Type@@PEBVGameObject@@@std@@@std@@@std@@@std@@QEBAPEAU?$pair@$$CBW4Object_Type@@PEBVGameObject@@@1@XZ 000000014004c6f0     config.obj
 0003:0000a704       $unwind$??F?$_Tree_iterator@V?$_Tree_val@U?$_Tree_simple_types@U?$pair@$$CBW4Object_Type@@PEBVGameObject@@@std@@@std@@@std@@@std@@QEAAAEAV01@XZ 000000014004c704     config.obj
 0003:0000a718       $unwind$??1?$_Tree_iterator@V?$_Tree_val@U?$_Tree_simple_types@U?$pair@$$CBW4Object_Type@@PEBVGameObject@@@std@@@std@@@std@@@std@@QEAA@XZ 000000014004c718     config.obj
 0003:0000a72c       $unwind$??0?$_Tree_iterator@V?$_Tree_val@U?$_Tree_simple_types@U?$pair@$$CBW4Object_Type@@PEBVGameObject@@@std@@@std@@@std@@@std@@QEAA@AEBV01@@Z 000000014004c72c     config.obj
 0003:0000a740       $unwind$??0?$_Tree_iterator@V?$_Tree_val@U?$_Tree_simple_types@U?$pair@$$CBW4Object_Type@@PEBVGameObject@@@std@@@std@@@std@@@std@@QEAA@$$QEAV01@@Z 000000014004c740     config.obj
 0003:0000a754       $unwind$??1?$pair@V?$_Tree_iterator@V?$_Tree_val@U?$_Tree_simple_types@U?$pair@$$CBW4Object_Type@@PEBVGameObject@@@std@@@std@@@std@@@std@@_N@std@@QEAA@XZ 000000014004c754     config.obj
 0003:0000a768       $unwind$??$addressof@V?$basic_string@DU?$char_traits@D@std@@V?$allocator@D@2@@std@@@std@@YAPEAV?$basic_string@DU?$char_traits@D@std@@V?$allocator@D@2@@0@AEAV10@@Z 000000014004c768     config.obj
 0003:0000a77c       $unwind$??$move@AEAV?$basic_string@DU?$char_traits@D@std@@V?$allocator@D@2@@std@@@std@@YA$$QEAV?$basic_string@DU?$char_traits@D@std@@V?$allocator@D@2@@0@AEAV10@@Z 000000014004c77c     config.obj
 0003:0000a790       $unwind$??$move@AEAV?$allocator@D@std@@@std@@YA$$QEAV?$allocator@D@0@AEAV10@@Z 000000014004c790     config.obj
 0003:0000a7a4       $unwind$??$?0AEBV?$allocator@D@std@@X@?$_String_alloc@U?$_String_base_types@DV?$allocator@D@std@@@std@@@std@@QEAA@AEBV?$allocator@D@1@@Z 000000014004c7a4     config.obj
 0003:0000a7c0       $stateUnwindMap$??$?0AEBV?$allocator@D@std@@X@?$_String_alloc@U?$_String_base_types@DV?$allocator@D@std@@@std@@@std@@QEAA@AEBV?$allocator@D@1@@Z 000000014004c7c0     config.obj
 0003:0000a7c8       $ip2state$??$?0AEBV?$allocator@D@std@@X@?$_String_alloc@U?$_String_base_types@DV?$allocator@D@std@@@std@@@std@@QEAA@AEBV?$allocator@D@1@@Z 000000014004c7c8     config.obj
 0003:0000a7e4       $unwind$?dtor$0@?0???$?0AEBV?$allocator@D@std@@X@?$_String_alloc@U?$_String_base_types@DV?$allocator@D@std@@@std@@@std@@QEAA@AEBV?$allocator@D@1@@Z@4HA 000000014004c7e4     config.obj
 0003:0000a7f4       $unwind$??$addressof@$$CBU?$pair@$$CBW4Object_Type@@PEBVGameObject@@@std@@@std@@YAPEBU?$pair@$$CBW4Object_Type@@PEBVGameObject@@@0@AEBU10@@Z 000000014004c7f4     config.obj
 0003:0000a808       $unwind$?pointer_to@?$pointer_traits@PEAU?$pair@$$CBW4Object_Type@@PEBVGameObject@@@std@@@std@@SAPEAU?$pair@$$CBW4Object_Type@@PEBVGameObject@@@2@AEAU32@@Z 000000014004c808     config.obj
 0003:0000a81c       $unwind$??$_Lbound@W4Object_Type@@@?$_Tree@V?$_Tmap_traits@W4Object_Type@@PEBVGameObject@@U?$less@W4Object_Type@@@std@@V?$allocator@U?$pair@$$CBW4Object_Type@@PEBVGameObject@@@std@@@4@$0A@@std@@@std@@IEBAPEAU?$_Tree_node@U?$pair@$$CBW4Object_Type@@PEBVGameObject@@@std@@PEAX@1@AEBW4Object_Type@@@Z 000000014004c81c     config.obj
 0003:0000a830       $unwind$??$?9DD@std@@YA_NAEBV?$allocator@D@0@0@Z 000000014004c830     config.obj
 0003:0000a844       $unwind$??$_Pocma@V?$allocator@D@std@@@std@@YAXAEAV?$allocator@D@0@0@Z 000000014004c844     config.obj
 0003:0000a858       $unwind$??R<lambda_66f57f934f28d61049862f64df852ff0>@@QEBAXQEAD_KQEBD@Z 000000014004c858     config.obj
 0003:0000a86c       $unwind$??$_Reallocate_for@V<lambda_66f57f934f28d61049862f64df852ff0>@@PEBD@?$basic_string@DU?$char_traits@D@std@@V?$allocator@D@2@@std@@QEAAAEAV01@_KV<lambda_66f57f934f28d61049862f64df852ff0>@@PEBD@Z 000000014004c86c     config.obj
 0003:0000a880       $unwind$??$addressof@U?$pair@$$CBW4Object_Type@@PEBVGameObject@@@std@@@std@@YAPEAU?$pair@$$CBW4Object_Type@@PEBVGameObject@@@0@AEAU10@@Z 000000014004c880     config.obj
 0003:0000a894       $unwind$??$_Kfn@$$CBW4Object_Type@@PEBVGameObject@@@?$_Tmap_traits@W4Object_Type@@PEBVGameObject@@U?$less@W4Object_Type@@@std@@V?$allocator@U?$pair@$$CBW4Object_Type@@PEBVGameObject@@@std@@@4@$0A@@std@@SAAEBW4Object_Type@@AEBU?$pair@$$CBW4Object_Type@@PEBVGameObject@@@1@@Z 000000014004c894     config.obj
 0003:0000a8a8       $unwind$??$_Try_emplace@W4Object_Type@@$$V@?$map@W4Object_Type@@PEBVGameObject@@U?$less@W4Object_Type@@@std@@V?$allocator@U?$pair@$$CBW4Object_Type@@PEBVGameObject@@@std@@@4@@std@@QEAA?AU?$pair@V?$_Tree_iterator@V?$_Tree_val@U?$_Tree_simple_types@U?$pair@$$CBW4Object_Type@@PEBVGameObject@@@std@@@std@@@std@@@std@@_N@1@$$QEAW4Object_Type@@@Z 000000014004c8a8     config.obj
 0003:0000a8c4       $stateUnwindMap$??$_Try_emplace@W4Object_Type@@$$V@?$map@W4Object_Type@@PEBVGameObject@@U?$less@W4Object_Type@@@std@@V?$allocator@U?$pair@$$CBW4Object_Type@@PEBVGameObject@@@std@@@4@@std@@QEAA?AU?$pair@V?$_Tree_iterator@V?$_Tree_val@U?$_Tree_simple_types@U?$pair@$$CBW4Object_Type@@PEBVGameObject@@@std@@@std@@@std@@@std@@_N@1@$$QEAW4Object_Type@@@Z 000000014004c8c4     config.obj
 0003:0000a8d8       $ip2state$??$_Try_emplace@W4Object_Type@@$$V@?$map@W4Object_Type@@PEBVGameObject@@U?$less@W4Object_Type@@@std@@V?$allocator@U?$pair@$$CBW4Object_Type@@PEBVGameObject@@@std@@@4@@std@@QEAA?AU?$pair@V?$_Tree_iterator@V?$_Tree_val@U?$_Tree_simple_types@U?$pair@$$CBW4Object_Type@@PEBVGameObject@@@std@@@std@@@std@@@std@@_N@1@$$QEAW4Object_Type@@@Z 000000014004c8d8     config.obj
 0003:0000a918       $unwind$?dtor$0@?0???$_Try_emplace@W4Object_Type@@$$V@?$map@W4Object_Type@@PEBVGameObject@@U?$less@W4Object_Type@@@std@@V?$allocator@U?$pair@$$CBW4Object_Type@@PEBVGameObject@@@std@@@4@@std@@QEAA?AU?$pair@V?$_Tree_iterator@V?$_Tree_val@U?$_Tree_simple_types@U?$pair@$$CBW4Object_Type@@PEBVGameObject@@@std@@@std@@@std@@@std@@_N@1@$$QEAW4Object_Type@@@Z@4HA 000000014004c918     config.obj
 0003:0000a928       $unwind$?dtor$1@?0???$_Try_emplace@W4Object_Type@@$$V@?$map@W4Object_Type@@PEBVGameObject@@U?$less@W4Object_Type@@@std@@V?$allocator@U?$pair@$$CBW4Object_Type@@PEBVGameObject@@@std@@@4@@std@@QEAA?AU?$pair@V?$_Tree_iterator@V?$_Tree_val@U?$_Tree_simple_types@U?$pair@$$CBW4Object_Type@@PEBVGameObject@@@std@@@std@@@std@@@std@@_N@1@$$QEAW4Object_Type@@@Z@4HA 000000014004c928     config.obj
 0003:0000a938       $unwind$??$forward@AEBV?$allocator@D@std@@@std@@YAAEBV?$allocator@D@0@AEBV10@@Z 000000014004c938     config.obj
 0003:0000a94c       $unwind$??$?0AEBV?$allocator@D@std@@$$V@?$_Compressed_pair@V?$allocator@D@std@@V?$_String_val@U?$_Simple_types@D@std@@@2@$00@std@@QEAA@U_One_then_variadic_args_t@1@AEBV?$allocator@D@1@@Z 000000014004c94c     config.obj
 0003:0000a960       $unwind$??$_Pocma@V?$allocator@D@std@@@std@@YAXAEAV?$allocator@D@0@0U?$integral_constant@_N$00@0@@Z 000000014004c960     config.obj
 0003:0000a974       $unwind$??$_Debug_lt_pred@AEAU?$less@W4Object_Type@@@std@@AEAW4Object_Type@@AEBW43@@std@@YA_NAEAU?$less@W4Object_Type@@@0@AEAW4Object_Type@@AEBW42@PEB_WI@Z 000000014004c974     config.obj
 0003:0000a988       $unwind$??$forward@W4Object_Type@@@std@@YA$$QEAW4Object_Type@@AEAW41@@Z 000000014004c988     config.obj
 0003:0000a99c       $unwind$??$forward_as_tuple@W4Object_Type@@@std@@YA?AV?$tuple@$$QEAW4Object_Type@@@0@$$QEAW4Object_Type@@@Z 000000014004c99c     config.obj
 0003:0000a9b8       $ip2state$??$forward_as_tuple@W4Object_Type@@@std@@YA?AV?$tuple@$$QEAW4Object_Type@@@0@$$QEAW4Object_Type@@@Z 000000014004c9b8     config.obj
 0003:0000a9c0       $unwind$??0?$tuple@$$QEAW4Object_Type@@@std@@QEAA@$$QEAV01@@Z 000000014004c9c0     config.obj
 0003:0000a9d4       $unwind$??$forward_as_tuple@$$V@std@@YA?AV?$tuple@$$V@0@XZ 000000014004c9d4     config.obj
 0003:0000a9e8       $unwind$??$emplace_hint@AEBUpiecewise_construct_t@std@@V?$tuple@$$QEAW4Object_Type@@@2@V?$tuple@$$V@2@@?$_Tree@V?$_Tmap_traits@W4Object_Type@@PEBVGameObject@@U?$less@W4Object_Type@@@std@@V?$allocator@U?$pair@$$CBW4Object_Type@@PEBVGameObject@@@std@@@4@$0A@@std@@@std@@QEAA?AV?$_Tree_iterator@V?$_Tree_val@U?$_Tree_simple_types@U?$pair@$$CBW4Object_Type@@PEBVGameObject@@@std@@@std@@@std@@@1@V?$_Tree_const_iterator@V?$_Tree_val@U?$_Tree_simple_types@U?$pair@$$CBW4Object_Type@@PEBVGameObject@@@std@@@std@@@std@@@1@AEBUpiecewise_construct_t@1@$$QEAV?$tuple@$$QEAW4Object_Type@@@1@$$QEAV?$tuple@$$V@1@@Z 000000014004c9e8     config.obj
 0003:0000aa04       $stateUnwindMap$??$emplace_hint@AEBUpiecewise_construct_t@std@@V?$tuple@$$QEAW4Object_Type@@@2@V?$tuple@$$V@2@@?$_Tree@V?$_Tmap_traits@W4Object_Type@@PEBVGameObject@@U?$less@W4Object_Type@@@std@@V?$allocator@U?$pair@$$CBW4Object_Type@@PEBVGameObject@@@std@@@4@$0A@@std@@@std@@QEAA?AV?$_Tree_iterator@V?$_Tree_val@U?$_Tree_simple_types@U?$pair@$$CBW4Object_Type@@PEBVGameObject@@@std@@@std@@@std@@@1@V?$_Tree_const_iterator@V?$_Tree_val@U?$_Tree_simple_types@U?$pair@$$CBW4Object_Type@@PEBVGameObject@@@std@@@std@@@std@@@1@AEBUpiecewise_construct_t@1@$$QEAV?$tuple@$$QEAW4Object_Type@@@1@$$QEAV?$tuple@$$V@1@@Z 000000014004ca04     config.obj
 0003:0000aa10       $ip2state$??$emplace_hint@AEBUpiecewise_construct_t@std@@V?$tuple@$$QEAW4Object_Type@@@2@V?$tuple@$$V@2@@?$_Tree@V?$_Tmap_traits@W4Object_Type@@PEBVGameObject@@U?$less@W4Object_Type@@@std@@V?$allocator@U?$pair@$$CBW4Object_Type@@PEBVGameObject@@@std@@@4@$0A@@std@@@std@@QEAA?AV?$_Tree_iterator@V?$_Tree_val@U?$_Tree_simple_types@U?$pair@$$CBW4Object_Type@@PEBVGameObject@@@std@@@std@@@std@@@1@V?$_Tree_const_iterator@V?$_Tree_val@U?$_Tree_simple_types@U?$pair@$$CBW4Object_Type@@PEBVGameObject@@@std@@@std@@@std@@@1@AEBUpiecewise_construct_t@1@$$QEAV?$tuple@$$QEAW4Object_Type@@@1@$$QEAV?$tuple@$$V@1@@Z 000000014004ca10     config.obj
 0003:0000aa2c       $unwind$?dtor$0@?0???$emplace_hint@AEBUpiecewise_construct_t@std@@V?$tuple@$$QEAW4Object_Type@@@2@V?$tuple@$$V@2@@?$_Tree@V?$_Tmap_traits@W4Object_Type@@PEBVGameObject@@U?$less@W4Object_Type@@@std@@V?$allocator@U?$pair@$$CBW4Object_Type@@PEBVGameObject@@@std@@@4@$0A@@std@@@std@@QEAA?AV?$_Tree_iterator@V?$_Tree_val@U?$_Tree_simple_types@U?$pair@$$CBW4Object_Type@@PEBVGameObject@@@std@@@std@@@std@@@1@V?$_Tree_const_iterator@V?$_Tree_val@U?$_Tree_simple_types@U?$pair@$$CBW4Object_Type@@PEBVGameObject@@@std@@@std@@@std@@@1@AEBUpiecewise_construct_t@1@$$QEAV?$tuple@$$QEAW4Object_Type@@@1@$$QEAV?$tuple@$$V@1@@Z@4HA 000000014004ca2c     config.obj
 0003:0000aa3c       $unwind$??$?0V?$_Tree_iterator@V?$_Tree_val@U?$_Tree_simple_types@U?$pair@$$CBW4Object_Type@@PEBVGameObject@@@std@@@std@@@std@@@std@@_N$0A@@?$pair@V?$_Tree_iterator@V?$_Tree_val@U?$_Tree_simple_types@U?$pair@$$CBW4Object_Type@@PEBVGameObject@@@std@@@std@@@std@@@std@@_N@std@@QEAA@$$QEAV?$_Tree_iterator@V?$_Tree_val@U?$_Tree_simple_types@U?$pair@$$CBW4Object_Type@@PEBVGameObject@@@std@@@std@@@std@@@1@$$QEA_N@Z 000000014004ca3c     config.obj
 0003:0000aa50       $unwind$??$?0AEAV?$_Tree_iterator@V?$_Tree_val@U?$_Tree_simple_types@U?$pair@$$CBW4Object_Type@@PEBVGameObject@@@std@@@std@@@std@@@std@@_N$0A@@?$pair@V?$_Tree_iterator@V?$_Tree_val@U?$_Tree_simple_types@U?$pair@$$CBW4Object_Type@@PEBVGameObject@@@std@@@std@@@std@@@std@@_N@std@@QEAA@AEAV?$_Tree_iterator@V?$_Tree_val@U?$_Tree_simple_types@U?$pair@$$CBW4Object_Type@@PEBVGameObject@@@std@@@std@@@std@@@1@$$QEA_N@Z 000000014004ca50     config.obj
 0003:0000aa64       $unwind$??$addressof@V?$_Tree_val@U?$_Tree_simple_types@U?$pair@$$CBW4Object_Type@@PEBVGameObject@@@std@@@std@@@std@@@std@@YAPEAV?$_Tree_val@U?$_Tree_simple_types@U?$pair@$$CBW4Object_Type@@PEBVGameObject@@@std@@@std@@@0@AEAV10@@Z 000000014004ca64     config.obj
 0003:0000aa78       $unwind$??$?0W4Object_Type@@$$V$0A@@?$tuple@$$QEAW4Object_Type@@@std@@QEAA@$$QEAW4Object_Type@@@Z 000000014004ca78     config.obj
 0003:0000aa8c       $unwind$??$forward@AEBUpiecewise_construct_t@std@@@std@@YAAEBUpiecewise_construct_t@0@AEBU10@@Z 000000014004ca8c     config.obj
 0003:0000aaa0       $unwind$??$forward@V?$tuple@$$QEAW4Object_Type@@@std@@@std@@YA$$QEAV?$tuple@$$QEAW4Object_Type@@@0@AEAV10@@Z 000000014004caa0     config.obj
 0003:0000aab4       $unwind$??$forward@V?$tuple@$$V@std@@@std@@YA$$QEAV?$tuple@$$V@0@AEAV10@@Z 000000014004cab4     config.obj
 0003:0000aac8       $unwind$??$_Buynode@AEBUpiecewise_construct_t@std@@V?$tuple@$$QEAW4Object_Type@@@2@V?$tuple@$$V@2@@?$_Tree_comp_alloc@V?$_Tmap_traits@W4Object_Type@@PEBVGameObject@@U?$less@W4Object_Type@@@std@@V?$allocator@U?$pair@$$CBW4Object_Type@@PEBVGameObject@@@std@@@4@$0A@@std@@@std@@QEAAPEAU?$_Tree_node@U?$pair@$$CBW4Object_Type@@PEBVGameObject@@@std@@PEAX@1@AEBUpiecewise_construct_t@1@$$QEAV?$tuple@$$QEAW4Object_Type@@@1@$$QEAV?$tuple@$$V@1@@Z 000000014004cac8     config.obj
 0003:0000aae4       $stateUnwindMap$??$_Buynode@AEBUpiecewise_construct_t@std@@V?$tuple@$$QEAW4Object_Type@@@2@V?$tuple@$$V@2@@?$_Tree_comp_alloc@V?$_Tmap_traits@W4Object_Type@@PEBVGameObject@@U?$less@W4Object_Type@@@std@@V?$allocator@U?$pair@$$CBW4Object_Type@@PEBVGameObject@@@std@@@4@$0A@@std@@@std@@QEAAPEAU?$_Tree_node@U?$pair@$$CBW4Object_Type@@PEBVGameObject@@@std@@PEAX@1@AEBUpiecewise_construct_t@1@$$QEAV?$tuple@$$QEAW4Object_Type@@@1@$$QEAV?$tuple@$$V@1@@Z 000000014004cae4     config.obj
 0003:0000aaf8       $tryMap$??$_Buynode@AEBUpiecewise_construct_t@std@@V?$tuple@$$QEAW4Object_Type@@@2@V?$tuple@$$V@2@@?$_Tree_comp_alloc@V?$_Tmap_traits@W4Object_Type@@PEBVGameObject@@U?$less@W4Object_Type@@@std@@V?$allocator@U?$pair@$$CBW4Object_Type@@PEBVGameObject@@@std@@@4@$0A@@std@@@std@@QEAAPEAU?$_Tree_node@U?$pair@$$CBW4Object_Type@@PEBVGameObject@@@std@@PEAX@1@AEBUpiecewise_construct_t@1@$$QEAV?$tuple@$$QEAW4Object_Type@@@1@$$QEAV?$tuple@$$V@1@@Z 000000014004caf8     config.obj
 0003:0000ab10       $handlerMap$0$??$_Buynode@AEBUpiecewise_construct_t@std@@V?$tuple@$$QEAW4Object_Type@@@2@V?$tuple@$$V@2@@?$_Tree_comp_alloc@V?$_Tmap_traits@W4Object_Type@@PEBVGameObject@@U?$less@W4Object_Type@@@std@@V?$allocator@U?$pair@$$CBW4Object_Type@@PEBVGameObject@@@std@@@4@$0A@@std@@@std@@QEAAPEAU?$_Tree_node@U?$pair@$$CBW4Object_Type@@PEBVGameObject@@@std@@PEAX@1@AEBUpiecewise_construct_t@1@$$QEAV?$tuple@$$QEAW4Object_Type@@@1@$$QEAV?$tuple@$$V@1@@Z 000000014004cb10     config.obj
 0003:0000ab28       $ip2state$??$_Buynode@AEBUpiecewise_construct_t@std@@V?$tuple@$$QEAW4Object_Type@@@2@V?$tuple@$$V@2@@?$_Tree_comp_alloc@V?$_Tmap_traits@W4Object_Type@@PEBVGameObject@@U?$less@W4Object_Type@@@std@@V?$allocator@U?$pair@$$CBW4Object_Type@@PEBVGameObject@@@std@@@4@$0A@@std@@@std@@QEAAPEAU?$_Tree_node@U?$pair@$$CBW4Object_Type@@PEBVGameObject@@@std@@PEAX@1@AEBUpiecewise_construct_t@1@$$QEAV?$tuple@$$QEAW4Object_Type@@@1@$$QEAV?$tuple@$$V@1@@Z 000000014004cb28     config.obj
 0003:0000ab5c       $unwind$?catch$0@?0???$_Buynode@AEBUpiecewise_construct_t@std@@V?$tuple@$$QEAW4Object_Type@@@2@V?$tuple@$$V@2@@?$_Tree_comp_alloc@V?$_Tmap_traits@W4Object_Type@@PEBVGameObject@@U?$less@W4Object_Type@@@std@@V?$allocator@U?$pair@$$CBW4Object_Type@@PEBVGameObject@@@std@@@4@$0A@@std@@@std@@QEAAPEAU?$_Tree_node@U?$pair@$$CBW4Object_Type@@PEBVGameObject@@@std@@PEAX@1@AEBUpiecewise_construct_t@1@$$QEAV?$tuple@$$QEAW4Object_Type@@@1@$$QEAV?$tuple@$$V@1@@Z@4HA 000000014004cb5c     config.obj
 0003:0000ab74       $unwind$??$_Insert_hint@AEAU?$pair@$$CBW4Object_Type@@PEBVGameObject@@@std@@PEAU?$_Tree_node@U?$pair@$$CBW4Object_Type@@PEBVGameObject@@@std@@PEAX@2@@?$_Tree@V?$_Tmap_traits@W4Object_Type@@PEBVGameObject@@U?$less@W4Object_Type@@@std@@V?$allocator@U?$pair@$$CBW4Object_Type@@PEBVGameObject@@@std@@@4@$0A@@std@@@std@@IEAA?AV?$_Tree_iterator@V?$_Tree_val@U?$_Tree_simple_types@U?$pair@$$CBW4Object_Type@@PEBVGameObject@@@std@@@std@@@std@@@1@V?$_Tree_const_iterator@V?$_Tree_val@U?$_Tree_simple_types@U?$pair@$$CBW4Object_Type@@PEBVGameObject@@@std@@@std@@@std@@@1@AEAU?$pair@$$CBW4Object_Type@@PEBVGameObject@@@1@PEAU?$_Tree_node@U?$pair@$$CBW4Object_Type@@PEBVGameObject@@@std@@PEAX@1@@Z 000000014004cb74     config.obj
 0003:0000ab90       $stateUnwindMap$??$_Insert_hint@AEAU?$pair@$$CBW4Object_Type@@PEBVGameObject@@@std@@PEAU?$_Tree_node@U?$pair@$$CBW4Object_Type@@PEBVGameObject@@@std@@PEAX@2@@?$_Tree@V?$_Tmap_traits@W4Object_Type@@PEBVGameObject@@U?$less@W4Object_Type@@@std@@V?$allocator@U?$pair@$$CBW4Object_Type@@PEBVGameObject@@@std@@@4@$0A@@std@@@std@@IEAA?AV?$_Tree_iterator@V?$_Tree_val@U?$_Tree_simple_types@U?$pair@$$CBW4Object_Type@@PEBVGameObject@@@std@@@std@@@std@@@1@V?$_Tree_const_iterator@V?$_Tree_val@U?$_Tree_simple_types@U?$pair@$$CBW4Object_Type@@PEBVGameObject@@@std@@@std@@@std@@@1@AEAU?$pair@$$CBW4Object_Type@@PEBVGameObject@@@1@PEAU?$_Tree_node@U?$pair@$$CBW4Object_Type@@PEBVGameObject@@@std@@PEAX@1@@Z 000000014004cb90     config.obj
 0003:0000abe8       $tryMap$??$_Insert_hint@AEAU?$pair@$$CBW4Object_Type@@PEBVGameObject@@@std@@PEAU?$_Tree_node@U?$pair@$$CBW4Object_Type@@PEBVGameObject@@@std@@PEAX@2@@?$_Tree@V?$_Tmap_traits@W4Object_Type@@PEBVGameObject@@U?$less@W4Object_Type@@@std@@V?$allocator@U?$pair@$$CBW4Object_Type@@PEBVGameObject@@@std@@@4@$0A@@std@@@std@@IEAA?AV?$_Tree_iterator@V?$_Tree_val@U?$_Tree_simple_types@U?$pair@$$CBW4Object_Type@@PEBVGameObject@@@std@@@std@@@std@@@1@V?$_Tree_const_iterator@V?$_Tree_val@U?$_Tree_simple_types@U?$pair@$$CBW4Object_Type@@PEBVGameObject@@@std@@@std@@@std@@@1@AEAU?$pair@$$CBW4Object_Type@@PEBVGameObject@@@1@PEAU?$_Tree_node@U?$pair@$$CBW4Object_Type@@PEBVGameObject@@@std@@PEAX@1@@Z 000000014004cbe8     config.obj
 0003:0000ac00       $handlerMap$0$??$_Insert_hint@AEAU?$pair@$$CBW4Object_Type@@PEBVGameObject@@@std@@PEAU?$_Tree_node@U?$pair@$$CBW4Object_Type@@PEBVGameObject@@@std@@PEAX@2@@?$_Tree@V?$_Tmap_traits@W4Object_Type@@PEBVGameObject@@U?$less@W4Object_Type@@@std@@V?$allocator@U?$pair@$$CBW4Object_Type@@PEBVGameObject@@@std@@@4@$0A@@std@@@std@@IEAA?AV?$_Tree_iterator@V?$_Tree_val@U?$_Tree_simple_types@U?$pair@$$CBW4Object_Type@@PEBVGameObject@@@std@@@std@@@std@@@1@V?$_Tree_const_iterator@V?$_Tree_val@U?$_Tree_simple_types@U?$pair@$$CBW4Object_Type@@PEBVGameObject@@@std@@@std@@@std@@@1@AEAU?$pair@$$CBW4Object_Type@@PEBVGameObject@@@1@PEAU?$_Tree_node@U?$pair@$$CBW4Object_Type@@PEBVGameObject@@@std@@PEAX@1@@Z 000000014004cc00     config.obj
 0003:0000ac14       $stateUnwindMap$?SetTexture@Object@@QEAA_NPEBD@Z 000000014004cc14     object.obj
 0003:0000ac20       $ip2state$??$_Insert_hint@AEAU?$pair@$$CBW4Object_Type@@PEBVGameObject@@@std@@PEAU?$_Tree_node@U?$pair@$$CBW4Object_Type@@PEBVGameObject@@@std@@PEAX@2@@?$_Tree@V?$_Tmap_traits@W4Object_Type@@PEBVGameObject@@U?$less@W4Object_Type@@@std@@V?$allocator@U?$pair@$$CBW4Object_Type@@PEBVGameObject@@@std@@@4@$0A@@std@@@std@@IEAA?AV?$_Tree_iterator@V?$_Tree_val@U?$_Tree_simple_types@U?$pair@$$CBW4Object_Type@@PEBVGameObject@@@std@@@std@@@std@@@1@V?$_Tree_const_iterator@V?$_Tree_val@U?$_Tree_simple_types@U?$pair@$$CBW4Object_Type@@PEBVGameObject@@@std@@@std@@@std@@@1@AEAU?$pair@$$CBW4Object_Type@@PEBVGameObject@@@1@PEAU?$_Tree_node@U?$pair@$$CBW4Object_Type@@PEBVGameObject@@@std@@PEAX@1@@Z 000000014004cc20     config.obj
 0003:0000ae00       $unwind$??1?$_Vector_alloc@U?$_Vec_base_types@PEAV?$Container@VWidget@@@@V?$allocator@PEAV?$Container@VWidget@@@@@std@@@std@@@std@@QEAA@XZ 000000014004ce00     engine.obj
 0003:0000ae18       $unwind$??1?$vector@PEAV?$Container@VWidget@@@@V?$allocator@PEAV?$Container@VWidget@@@@@std@@@std@@QEAA@XZ 000000014004ce18     engine.obj
 0003:0000ae30       $unwind$?dtor$0@?0???$_Insert_hint@AEAU?$pair@$$CBW4Object_Type@@PEBVGameObject@@@std@@PEAU?$_Tree_node@U?$pair@$$CBW4Object_Type@@PEBVGameObject@@@std@@PEAX@2@@?$_Tree@V?$_Tmap_traits@W4Object_Type@@PEBVGameObject@@U?$less@W4Object_Type@@@std@@V?$allocator@U?$pair@$$CBW4Object_Type@@PEBVGameObject@@@std@@@4@$0A@@std@@@std@@IEAA?AV?$_Tree_iterator@V?$_Tree_val@U?$_Tree_simple_types@U?$pair@$$CBW4Object_Type@@PEBVGameObject@@@std@@@std@@@std@@@1@V?$_Tree_const_iterator@V?$_Tree_val@U?$_Tree_simple_types@U?$pair@$$CBW4Object_Type@@PEBVGameObject@@@std@@@std@@@std@@@1@AEAU?$pair@$$CBW4Object_Type@@PEBVGameObject@@@1@PEAU?$_Tree_node@U?$pair@$$CBW4Object_Type@@PEBVGameObject@@@std@@PEAX@1@@Z@4HA 000000014004ce30     config.obj
 0003:0000ae40       $unwind$?dtor$1@?0???$_Insert_hint@AEAU?$pair@$$CBW4Object_Type@@PEBVGameObject@@@std@@PEAU?$_Tree_node@U?$pair@$$CBW4Object_Type@@PEBVGameObject@@@std@@PEAX@2@@?$_Tree@V?$_Tmap_traits@W4Object_Type@@PEBVGameObject@@U?$less@W4Object_Type@@@std@@V?$allocator@U?$pair@$$CBW4Object_Type@@PEBVGameObject@@@std@@@4@$0A@@std@@@std@@IEAA?AV?$_Tree_iterator@V?$_Tree_val@U?$_Tree_simple_types@U?$pair@$$CBW4Object_Type@@PEBVGameObject@@@std@@@std@@@std@@@1@V?$_Tree_const_iterator@V?$_Tree_val@U?$_Tree_simple_types@U?$pair@$$CBW4Object_Type@@PEBVGameObject@@@std@@@std@@@std@@@1@AEAU?$pair@$$CBW4Object_Type@@PEBVGameObject@@@1@PEAU?$_Tree_node@U?$pair@$$CBW4Object_Type@@PEBVGameObject@@@std@@PEAX@1@@Z@4HA 000000014004ce40     config.obj
 0003:0000ae50       $unwind$?dtor$3@?0???$_Insert_hint@AEAU?$pair@$$CBW4Object_Type@@PEBVGameObject@@@std@@PEAU?$_Tree_node@U?$pair@$$CBW4Object_Type@@PEBVGameObject@@@std@@PEAX@2@@?$_Tree@V?$_Tmap_traits@W4Object_Type@@PEBVGameObject@@U?$less@W4Object_Type@@@std@@V?$allocator@U?$pair@$$CBW4Object_Type@@PEBVGameObject@@@std@@@4@$0A@@std@@@std@@IEAA?AV?$_Tree_iterator@V?$_Tree_val@U?$_Tree_simple_types@U?$pair@$$CBW4Object_Type@@PEBVGameObject@@@std@@@std@@@std@@@1@V?$_Tree_const_iterator@V?$_Tree_val@U?$_Tree_simple_types@U?$pair@$$CBW4Object_Type@@PEBVGameObject@@@std@@@std@@@std@@@1@AEAU?$pair@$$CBW4Object_Type@@PEBVGameObject@@@1@PEAU?$_Tree_node@U?$pair@$$CBW4Object_Type@@PEBVGameObject@@@std@@PEAX@1@@Z@4HA 000000014004ce50     config.obj
 0003:0000ae60       $unwind$?dtor$4@?0???$_Insert_hint@AEAU?$pair@$$CBW4Object_Type@@PEBVGameObject@@@std@@PEAU?$_Tree_node@U?$pair@$$CBW4Object_Type@@PEBVGameObject@@@std@@PEAX@2@@?$_Tree@V?$_Tmap_traits@W4Object_Type@@PEBVGameObject@@U?$less@W4Object_Type@@@std@@V?$allocator@U?$pair@$$CBW4Object_Type@@PEBVGameObject@@@std@@@4@$0A@@std@@@std@@IEAA?AV?$_Tree_iterator@V?$_Tree_val@U?$_Tree_simple_types@U?$pair@$$CBW4Object_Type@@PEBVGameObject@@@std@@@std@@@std@@@1@V?$_Tree_const_iterator@V?$_Tree_val@U?$_Tree_simple_types@U?$pair@$$CBW4Object_Type@@PEBVGameObject@@@std@@@std@@@std@@@1@AEAU?$pair@$$CBW4Object_Type@@PEBVGameObject@@@1@PEAU?$_Tree_node@U?$pair@$$CBW4Object_Type@@PEBVGameObject@@@std@@PEAX@1@@Z@4HA 000000014004ce60     config.obj
 0003:0000ae70       $unwind$?dtor$5@?0???$_Insert_hint@AEAU?$pair@$$CBW4Object_Type@@PEBVGameObject@@@std@@PEAU?$_Tree_node@U?$pair@$$CBW4Object_Type@@PEBVGameObject@@@std@@PEAX@2@@?$_Tree@V?$_Tmap_traits@W4Object_Type@@PEBVGameObject@@U?$less@W4Object_Type@@@std@@V?$allocator@U?$pair@$$CBW4Object_Type@@PEBVGameObject@@@std@@@4@$0A@@std@@@std@@IEAA?AV?$_Tree_iterator@V?$_Tree_val@U?$_Tree_simple_types@U?$pair@$$CBW4Object_Type@@PEBVGameObject@@@std@@@std@@@std@@@1@V?$_Tree_const_iterator@V?$_Tree_val@U?$_Tree_simple_types@U?$pair@$$CBW4Object_Type@@PEBVGameObject@@@std@@@std@@@std@@@1@AEAU?$pair@$$CBW4Object_Type@@PEBVGameObject@@@1@PEAU?$_Tree_node@U?$pair@$$CBW4Object_Type@@PEBVGameObject@@@std@@PEAX@1@@Z@4HA 000000014004ce70     config.obj
 0003:0000ae80       $unwind$?dtor$6@?0???$_Insert_hint@AEAU?$pair@$$CBW4Object_Type@@PEBVGameObject@@@std@@PEAU?$_Tree_node@U?$pair@$$CBW4Object_Type@@PEBVGameObject@@@std@@PEAX@2@@?$_Tree@V?$_Tmap_traits@W4Object_Type@@PEBVGameObject@@U?$less@W4Object_Type@@@std@@V?$allocator@U?$pair@$$CBW4Object_Type@@PEBVGameObject@@@std@@@4@$0A@@std@@@std@@IEAA?AV?$_Tree_iterator@V?$_Tree_val@U?$_Tree_simple_types@U?$pair@$$CBW4Object_Type@@PEBVGameObject@@@std@@@std@@@std@@@1@V?$_Tree_const_iterator@V?$_Tree_val@U?$_Tree_simple_types@U?$pair@$$CBW4Object_Type@@PEBVGameObject@@@std@@@std@@@std@@@1@AEAU?$pair@$$CBW4Object_Type@@PEBVGameObject@@@1@PEAU?$_Tree_node@U?$pair@$$CBW4Object_Type@@PEBVGameObject@@@std@@PEAX@1@@Z@4HA 000000014004ce80     config.obj
 0003:0000ae90       $unwind$?dtor$7@?0???$_Insert_hint@AEAU?$pair@$$CBW4Object_Type@@PEBVGameObject@@@std@@PEAU?$_Tree_node@U?$pair@$$CBW4Object_Type@@PEBVGameObject@@@std@@PEAX@2@@?$_Tree@V?$_Tmap_traits@W4Object_Type@@PEBVGameObject@@U?$less@W4Object_Type@@@std@@V?$allocator@U?$pair@$$CBW4Object_Type@@PEBVGameObject@@@std@@@4@$0A@@std@@@std@@IEAA?AV?$_Tree_iterator@V?$_Tree_val@U?$_Tree_simple_types@U?$pair@$$CBW4Object_Type@@PEBVGameObject@@@std@@@std@@@std@@@1@V?$_Tree_const_iterator@V?$_Tree_val@U?$_Tree_simple_types@U?$pair@$$CBW4Object_Type@@PEBVGameObject@@@std@@@std@@@std@@@1@AEAU?$pair@$$CBW4Object_Type@@PEBVGameObject@@@1@PEAU?$_Tree_node@U?$pair@$$CBW4Object_Type@@PEBVGameObject@@@std@@PEAX@1@@Z@4HA 000000014004ce90     config.obj
 0003:0000aea0       $unwind$?dtor$8@?0???$_Insert_hint@AEAU?$pair@$$CBW4Object_Type@@PEBVGameObject@@@std@@PEAU?$_Tree_node@U?$pair@$$CBW4Object_Type@@PEBVGameObject@@@std@@PEAX@2@@?$_Tree@V?$_Tmap_traits@W4Object_Type@@PEBVGameObject@@U?$less@W4Object_Type@@@std@@V?$allocator@U?$pair@$$CBW4Object_Type@@PEBVGameObject@@@std@@@4@$0A@@std@@@std@@IEAA?AV?$_Tree_iterator@V?$_Tree_val@U?$_Tree_simple_types@U?$pair@$$CBW4Object_Type@@PEBVGameObject@@@std@@@std@@@std@@@1@V?$_Tree_const_iterator@V?$_Tree_val@U?$_Tree_simple_types@U?$pair@$$CBW4Object_Type@@PEBVGameObject@@@std@@@std@@@std@@@1@AEAU?$pair@$$CBW4Object_Type@@PEBVGameObject@@@1@PEAU?$_Tree_node@U?$pair@$$CBW4Object_Type@@PEBVGameObject@@@std@@PEAX@1@@Z@4HA 000000014004cea0     config.obj
 0003:0000aeb0       $unwind$?catch$10@?0???$_Insert_hint@AEAU?$pair@$$CBW4Object_Type@@PEBVGameObject@@@std@@PEAU?$_Tree_node@U?$pair@$$CBW4Object_Type@@PEBVGameObject@@@std@@PEAX@2@@?$_Tree@V?$_Tmap_traits@W4Object_Type@@PEBVGameObject@@U?$less@W4Object_Type@@@std@@V?$allocator@U?$pair@$$CBW4Object_Type@@PEBVGameObject@@@std@@@4@$0A@@std@@@std@@IEAA?AV?$_Tree_iterator@V?$_Tree_val@U?$_Tree_simple_types@U?$pair@$$CBW4Object_Type@@PEBVGameObject@@@std@@@std@@@std@@@1@V?$_Tree_const_iterator@V?$_Tree_val@U?$_Tree_simple_types@U?$pair@$$CBW4Object_Type@@PEBVGameObject@@@std@@@std@@@std@@@1@AEAU?$pair@$$CBW4Object_Type@@PEBVGameObject@@@1@PEAU?$_Tree_node@U?$pair@$$CBW4Object_Type@@PEBVGameObject@@@std@@PEAX@1@@Z@4HA 000000014004ceb0     config.obj
 0003:0000aec8       $unwind$??$forward@V?$_Tree_iterator@V?$_Tree_val@U?$_Tree_simple_types@U?$pair@$$CBW4Object_Type@@PEBVGameObject@@@std@@@std@@@std@@@std@@@std@@YA$$QEAV?$_Tree_iterator@V?$_Tree_val@U?$_Tree_simple_types@U?$pair@$$CBW4Object_Type@@PEBVGameObject@@@std@@@std@@@std@@@0@AEAV10@@Z 000000014004cec8     config.obj
 0003:0000aedc       $unwind$??$forward@_N@std@@YA$$QEA_NAEA_N@Z 000000014004cedc     config.obj
 0003:0000aef0       $unwind$??$forward@AEAV?$_Tree_iterator@V?$_Tree_val@U?$_Tree_simple_types@U?$pair@$$CBW4Object_Type@@PEBVGameObject@@@std@@@std@@@std@@@std@@@std@@YAAEAV?$_Tree_iterator@V?$_Tree_val@U?$_Tree_simple_types@U?$pair@$$CBW4Object_Type@@PEBVGameObject@@@std@@@std@@@std@@@0@AEAV10@@Z 000000014004cef0     config.obj
 0003:0000af04       $unwind$??$?0U_Exact_args_t@std@@W4Object_Type@@$$V$0A@@?$tuple@$$QEAW4Object_Type@@@std@@QEAA@U_Exact_args_t@1@$$QEAW4Object_Type@@@Z 000000014004cf04     config.obj
 0003:0000af18       $unwind$??$construct@U?$pair@$$CBW4Object_Type@@PEBVGameObject@@@std@@AEBUpiecewise_construct_t@2@V?$tuple@$$QEAW4Object_Type@@@2@V?$tuple@$$V@2@@?$_Default_allocator_traits@V?$allocator@U?$_Tree_node@U?$pair@$$CBW4Object_Type@@PEBVGameObject@@@std@@PEAX@std@@@std@@@std@@SAXAEAV?$allocator@U?$_Tree_node@U?$pair@$$CBW4Object_Type@@PEBVGameObject@@@std@@PEAX@std@@@1@QEAU?$pair@$$CBW4Object_Type@@PEBVGameObject@@@1@AEBUpiecewise_construct_t@1@$$QEAV?$tuple@$$QEAW4Object_Type@@@1@$$QEAV?$tuple@$$V@1@@Z 000000014004cf18     config.obj
 0003:0000af2c       $unwind$??$forward@AEAU?$pair@$$CBW4Object_Type@@PEBVGameObject@@@std@@@std@@YAAEAU?$pair@$$CBW4Object_Type@@PEBVGameObject@@@0@AEAU10@@Z 000000014004cf2c     config.obj
 0003:0000af40       $unwind$??$_Insert_at@AEAU?$pair@$$CBW4Object_Type@@PEBVGameObject@@@std@@PEAU?$_Tree_node@U?$pair@$$CBW4Object_Type@@PEBVGameObject@@@std@@PEAX@2@@?$_Tree@V?$_Tmap_traits@W4Object_Type@@PEBVGameObject@@U?$less@W4Object_Type@@@std@@V?$allocator@U?$pair@$$CBW4Object_Type@@PEBVGameObject@@@std@@@4@$0A@@std@@@std@@IEAA?AV?$_Tree_iterator@V?$_Tree_val@U?$_Tree_simple_types@U?$pair@$$CBW4Object_Type@@PEBVGameObject@@@std@@@std@@@std@@@1@_NPEAU?$_Tree_node@U?$pair@$$CBW4Object_Type@@PEBVGameObject@@@std@@PEAX@1@AEAU?$pair@$$CBW4Object_Type@@PEBVGameObject@@@1@1@Z 000000014004cf40     config.obj
 0003:0000af54       $unwind$??$_Debug_lt_pred@AEAU?$less@W4Object_Type@@@std@@AEBW4Object_Type@@AEBW43@@std@@YA_NAEAU?$less@W4Object_Type@@@0@AEBW4Object_Type@@1PEB_WI@Z 000000014004cf54     config.obj
 0003:0000af68       $unwind$??$_Insert_nohint@AEAU?$pair@$$CBW4Object_Type@@PEBVGameObject@@@std@@PEAU?$_Tree_node@U?$pair@$$CBW4Object_Type@@PEBVGameObject@@@std@@PEAX@2@@?$_Tree@V?$_Tmap_traits@W4Object_Type@@PEBVGameObject@@U?$less@W4Object_Type@@@std@@V?$allocator@U?$pair@$$CBW4Object_Type@@PEBVGameObject@@@std@@@4@$0A@@std@@@std@@IEAA?AU?$pair@V?$_Tree_iterator@V?$_Tree_val@U?$_Tree_simple_types@U?$pair@$$CBW4Object_Type@@PEBVGameObject@@@std@@@std@@@std@@@std@@_N@1@_NAEAU?$pair@$$CBW4Object_Type@@PEBVGameObject@@@1@PEAU?$_Tree_node@U?$pair@$$CBW4Object_Type@@PEBVGameObject@@@std@@PEAX@1@@Z 000000014004cf68     config.obj
 0003:0000af84       $stateUnwindMap$??$_Insert_nohint@AEAU?$pair@$$CBW4Object_Type@@PEBVGameObject@@@std@@PEAU?$_Tree_node@U?$pair@$$CBW4Object_Type@@PEBVGameObject@@@std@@PEAX@2@@?$_Tree@V?$_Tmap_traits@W4Object_Type@@PEBVGameObject@@U?$less@W4Object_Type@@@std@@V?$allocator@U?$pair@$$CBW4Object_Type@@PEBVGameObject@@@std@@@4@$0A@@std@@@std@@IEAA?AU?$pair@V?$_Tree_iterator@V?$_Tree_val@U?$_Tree_simple_types@U?$pair@$$CBW4Object_Type@@PEBVGameObject@@@std@@@std@@@std@@@std@@_N@1@_NAEAU?$pair@$$CBW4Object_Type@@PEBVGameObject@@@1@PEAU?$_Tree_node@U?$pair@$$CBW4Object_Type@@PEBVGameObject@@@std@@PEAX@1@@Z 000000014004cf84     config.obj
 0003:0000afa8       $tryMap$??$_Insert_nohint@AEAU?$pair@$$CBW4Object_Type@@PEBVGameObject@@@std@@PEAU?$_Tree_node@U?$pair@$$CBW4Object_Type@@PEBVGameObject@@@std@@PEAX@2@@?$_Tree@V?$_Tmap_traits@W4Object_Type@@PEBVGameObject@@U?$less@W4Object_Type@@@std@@V?$allocator@U?$pair@$$CBW4Object_Type@@PEBVGameObject@@@std@@@4@$0A@@std@@@std@@IEAA?AU?$pair@V?$_Tree_iterator@V?$_Tree_val@U?$_Tree_simple_types@U?$pair@$$CBW4Object_Type@@PEBVGameObject@@@std@@@std@@@std@@@std@@_N@1@_NAEAU?$pair@$$CBW4Object_Type@@PEBVGameObject@@@1@PEAU?$_Tree_node@U?$pair@$$CBW4Object_Type@@PEBVGameObject@@@std@@PEAX@1@@Z 000000014004cfa8     config.obj
 0003:0000afc0       $handlerMap$0$??$_Insert_nohint@AEAU?$pair@$$CBW4Object_Type@@PEBVGameObject@@@std@@PEAU?$_Tree_node@U?$pair@$$CBW4Object_Type@@PEBVGameObject@@@std@@PEAX@2@@?$_Tree@V?$_Tmap_traits@W4Object_Type@@PEBVGameObject@@U?$less@W4Object_Type@@@std@@V?$allocator@U?$pair@$$CBW4Object_Type@@PEBVGameObject@@@std@@@4@$0A@@std@@@std@@IEAA?AU?$pair@V?$_Tree_iterator@V?$_Tree_val@U?$_Tree_simple_types@U?$pair@$$CBW4Object_Type@@PEBVGameObject@@@std@@@std@@@std@@@std@@_N@1@_NAEAU?$pair@$$CBW4Object_Type@@PEBVGameObject@@@1@PEAU?$_Tree_node@U?$pair@$$CBW4Object_Type@@PEBVGameObject@@@std@@PEAX@1@@Z 000000014004cfc0     config.obj
 0003:0000afe0       $ip2state$??$_Insert_nohint@AEAU?$pair@$$CBW4Object_Type@@PEBVGameObject@@@std@@PEAU?$_Tree_node@U?$pair@$$CBW4Object_Type@@PEBVGameObject@@@std@@PEAX@2@@?$_Tree@V?$_Tmap_traits@W4Object_Type@@PEBVGameObject@@U?$less@W4Object_Type@@@std@@V?$allocator@U?$pair@$$CBW4Object_Type@@PEBVGameObject@@@std@@@4@$0A@@std@@@std@@IEAA?AU?$pair@V?$_Tree_iterator@V?$_Tree_val@U?$_Tree_simple_types@U?$pair@$$CBW4Object_Type@@PEBVGameObject@@@std@@@std@@@std@@@std@@_N@1@_NAEAU?$pair@$$CBW4Object_Type@@PEBVGameObject@@@1@PEAU?$_Tree_node@U?$pair@$$CBW4Object_Type@@PEBVGameObject@@@std@@PEAX@1@@Z 000000014004cfe0     config.obj
 0003:0000b04c       $unwind$?dtor$2@?0???$_Insert_nohint@AEAU?$pair@$$CBW4Object_Type@@PEBVGameObject@@@std@@PEAU?$_Tree_node@U?$pair@$$CBW4Object_Type@@PEBVGameObject@@@std@@PEAX@2@@?$_Tree@V?$_Tmap_traits@W4Object_Type@@PEBVGameObject@@U?$less@W4Object_Type@@@std@@V?$allocator@U?$pair@$$CBW4Object_Type@@PEBVGameObject@@@std@@@4@$0A@@std@@@std@@IEAA?AU?$pair@V?$_Tree_iterator@V?$_Tree_val@U?$_Tree_simple_types@U?$pair@$$CBW4Object_Type@@PEBVGameObject@@@std@@@std@@@std@@@std@@_N@1@_NAEAU?$pair@$$CBW4Object_Type@@PEBVGameObject@@@1@PEAU?$_Tree_node@U?$pair@$$CBW4Object_Type@@PEBVGameObject@@@std@@PEAX@1@@Z@4HA 000000014004d04c     config.obj
 0003:0000b05c       $unwind$?dtor$3@?0???$_Insert_nohint@AEAU?$pair@$$CBW4Object_Type@@PEBVGameObject@@@std@@PEAU?$_Tree_node@U?$pair@$$CBW4Object_Type@@PEBVGameObject@@@std@@PEAX@2@@?$_Tree@V?$_Tmap_traits@W4Object_Type@@PEBVGameObject@@U?$less@W4Object_Type@@@std@@V?$allocator@U?$pair@$$CBW4Object_Type@@PEBVGameObject@@@std@@@4@$0A@@std@@@std@@IEAA?AU?$pair@V?$_Tree_iterator@V?$_Tree_val@U?$_Tree_simple_types@U?$pair@$$CBW4Object_Type@@PEBVGameObject@@@std@@@std@@@std@@@std@@_N@1@_NAEAU?$pair@$$CBW4Object_Type@@PEBVGameObject@@@1@PEAU?$_Tree_node@U?$pair@$$CBW4Object_Type@@PEBVGameObject@@@std@@PEAX@1@@Z@4HA 000000014004d05c     config.obj
 0003:0000b06c       $unwind$?catch$6@?0???$_Insert_nohint@AEAU?$pair@$$CBW4Object_Type@@PEBVGameObject@@@std@@PEAU?$_Tree_node@U?$pair@$$CBW4Object_Type@@PEBVGameObject@@@std@@PEAX@2@@?$_Tree@V?$_Tmap_traits@W4Object_Type@@PEBVGameObject@@U?$less@W4Object_Type@@@std@@V?$allocator@U?$pair@$$CBW4Object_Type@@PEBVGameObject@@@std@@@4@$0A@@std@@@std@@IEAA?AU?$pair@V?$_Tree_iterator@V?$_Tree_val@U?$_Tree_simple_types@U?$pair@$$CBW4Object_Type@@PEBVGameObject@@@std@@@std@@@std@@@std@@_N@1@_NAEAU?$pair@$$CBW4Object_Type@@PEBVGameObject@@@1@PEAU?$_Tree_node@U?$pair@$$CBW4Object_Type@@PEBVGameObject@@@std@@PEAX@1@@Z@4HA 000000014004d06c     config.obj
 0003:0000b084       $unwind$??$_Freenode0@V?$allocator@U?$_Tree_node@U?$pair@$$CBW4Object_Type@@PEBVGameObject@@@std@@PEAX@std@@@std@@@?$_Tree_node@U?$pair@$$CBW4Object_Type@@PEBVGameObject@@@std@@PEAX@std@@SAXAEAV?$allocator@U?$_Tree_node@U?$pair@$$CBW4Object_Type@@PEBVGameObject@@@std@@PEAX@std@@@1@PEAU01@@Z 000000014004d084     config.obj
 0003:0000b0a0       $ip2state$??$_Freenode0@V?$allocator@U?$_Tree_node@U?$pair@$$CBW4Object_Type@@PEBVGameObject@@@std@@PEAX@std@@@std@@@?$_Tree_node@U?$pair@$$CBW4Object_Type@@PEBVGameObject@@@std@@PEAX@std@@SAXAEAV?$allocator@U?$_Tree_node@U?$pair@$$CBW4Object_Type@@PEBVGameObject@@@std@@PEAX@std@@@1@PEAU01@@Z 000000014004d0a0     config.obj
 0003:0000b0a8       $unwind$??$addressof@PEAU?$_Tree_node@U?$pair@$$CBW4Object_Type@@PEBVGameObject@@@std@@PEAX@std@@@std@@YAPEAPEAU?$_Tree_node@U?$pair@$$CBW4Object_Type@@PEBVGameObject@@@std@@PEAX@0@AEAPEAU10@@Z 000000014004d0a8     config.obj
 0003:0000b0bc       $unwind$??$construct@PEAU?$_Tree_node@U?$pair@$$CBW4Object_Type@@PEBVGameObject@@@std@@PEAX@std@@AEAPEAU12@@?$_Default_allocator_traits@V?$allocator@U?$_Tree_node@U?$pair@$$CBW4Object_Type@@PEBVGameObject@@@std@@PEAX@std@@@std@@@std@@SAXAEAV?$allocator@U?$_Tree_node@U?$pair@$$CBW4Object_Type@@PEBVGameObject@@@std@@PEAX@std@@@1@QEAPEAU?$_Tree_node@U?$pair@$$CBW4Object_Type@@PEBVGameObject@@@std@@PEAX@1@AEAPEAU31@@Z 000000014004d0bc     config.obj
 0003:0000b0d0       $unwind$??$destroy@U?$pair@$$CBW4Object_Type@@PEBVGameObject@@@std@@@?$_Default_allocator_traits@V?$allocator@U?$_Tree_node@U?$pair@$$CBW4Object_Type@@PEBVGameObject@@@std@@PEAX@std@@@std@@@std@@SAXAEAV?$allocator@U?$_Tree_node@U?$pair@$$CBW4Object_Type@@PEBVGameObject@@@std@@PEAX@std@@@1@QEAU?$pair@$$CBW4Object_Type@@PEBVGameObject@@@1@@Z 000000014004d0d0     config.obj
 0003:0000b0e4       $unwind$??$_Get_size_of_n@$0DA@@std@@YA_K_K@Z 000000014004d0e4     config.obj
 0003:0000b0f8       $unwind$??$?0U_Exact_args_t@std@@$0A@@?$tuple@$$V@std@@QEAA@U_Exact_args_t@1@@Z 000000014004d0f8     config.obj
 0003:0000b10c       $unwind$??$?0W4Object_Type@@@?$_Tuple_val@$$QEAW4Object_Type@@@std@@QEAA@$$QEAW4Object_Type@@@Z 000000014004d10c     config.obj
 0003:0000b120       $unwind$??$?0$$QEAW4Object_Type@@$$Z$$V@?$pair@$$CBW4Object_Type@@PEBVGameObject@@@std@@QEAA@Upiecewise_construct_t@1@V?$tuple@$$QEAW4Object_Type@@@1@V?$tuple@$$V@1@@Z 000000014004d120     config.obj
 0003:0000b134       $unwind$??$_Buy_if_not_node@AEAU?$pair@$$CBW4Object_Type@@PEBVGameObject@@@std@@@?$_Tree@V?$_Tmap_traits@W4Object_Type@@PEBVGameObject@@U?$less@W4Object_Type@@@std@@V?$allocator@U?$pair@$$CBW4Object_Type@@PEBVGameObject@@@std@@@4@$0A@@std@@@std@@IEAAPEAU?$_Tree_node@U?$pair@$$CBW4Object_Type@@PEBVGameObject@@@std@@PEAX@1@PEAU21@AEAU?$pair@$$CBW4Object_Type@@PEBVGameObject@@@1@@Z 000000014004d134     config.obj
 0003:0000b148       $unwind$??$destroy@PEAU?$_Tree_node@U?$pair@$$CBW4Object_Type@@PEBVGameObject@@@std@@PEAX@std@@@?$_Default_allocator_traits@V?$allocator@U?$_Tree_node@U?$pair@$$CBW4Object_Type@@PEBVGameObject@@@std@@PEAX@std@@@std@@@std@@SAXAEAV?$allocator@U?$_Tree_node@U?$pair@$$CBW4Object_Type@@PEBVGameObject@@@std@@PEAX@std@@@1@QEAPEAU?$_Tree_node@U?$pair@$$CBW4Object_Type@@PEBVGameObject@@@std@@PEAX@1@@Z 000000014004d148     config.obj
 0003:0000b15c       $unwind$??$forward@AEAPEAU?$_Tree_node@U?$pair@$$CBW4Object_Type@@PEBVGameObject@@@std@@PEAX@std@@@std@@YAAEAPEAU?$_Tree_node@U?$pair@$$CBW4Object_Type@@PEBVGameObject@@@std@@PEAX@0@AEAPEAU10@@Z 000000014004d15c     config.obj
 0003:0000b170       $unwind$??$?0V?$tuple@$$QEAW4Object_Type@@@std@@V?$tuple@$$V@1@$0A@$$Z$S@?$pair@$$CBW4Object_Type@@PEBVGameObject@@@std@@QEAA@AEAV?$tuple@$$QEAW4Object_Type@@@1@AEAV?$tuple@$$V@1@U?$integer_sequence@_K$0A@@1@U?$integer_sequence@_K$S@1@@Z 000000014004d170     config.obj
 0003:0000b184       $unwind$??$move@AEAV?$tuple@$$QEAW4Object_Type@@@std@@@std@@YA$$QEAV?$tuple@$$QEAW4Object_Type@@@0@AEAV10@@Z 000000014004d184     config.obj
 0003:0000b198       $unwind$??$get@$0A@$$QEAW4Object_Type@@@std@@YA$$QEAW4Object_Type@@$$QEAV?$tuple@$$QEAW4Object_Type@@@0@@Z 000000014004d198     config.obj
 0003:0000b1ac       $unwind$??$forward@$$QEAW4Object_Type@@@std@@YA$$QEAW4Object_Type@@AEAW41@@Z 000000014004d1ac     config.obj
 0003:0000b1c0       $unwind$??0?$Container@VWidget@@@@QEAA@AEBV?$Vector2@M@sf@@0@Z 000000014004d1c0     container.obj
 0003:0000b1d4       $unwind$??1?$Container@VWidget@@@@UEAA@XZ 000000014004d1d4     container.obj
 0003:0000b1e8       $unwind$?SetPos@?$Container@VWidget@@@@UEAAXAEBV?$Vector2@M@sf@@@Z 000000014004d1e8     container.obj
 0003:0000b1fc       $unwind$?AddWidget@?$Container@VWidget@@@@QEAAXPEAVWidget@@@Z 000000014004d1fc     container.obj
 0003:0000b210       $unwind$?RemoveWidget@?$Container@VWidget@@@@QEAA_NPEAVWidget@@@Z 000000014004d210     container.obj
 0003:0000b224       $unwind$?GetWidget@?$Container@VWidget@@@@QEBAPEAVWidget@@_K@Z 000000014004d224     container.obj
 0003:0000b238       $unwind$?GetWidgetsCount@?$Container@VWidget@@@@QEBA_KXZ 000000014004d238     container.obj
 0003:0000b24c       $unwind$?Draw@?$Container@VWidget@@@@UEAAXPEAVRenderWindow@sf@@@Z 000000014004d24c     container.obj
 0003:0000b260       $unwind$?Update@?$Container@VWidget@@@@UEAAXAEBVTime@sf@@@Z 000000014004d260     container.obj
 0003:0000b274       $unwind$?HandleEvent@?$Container@VWidget@@@@UEAAXAEBVEvent@sf@@@Z 000000014004d274     container.obj
 0003:0000b288       $unwind$??_G?$Container@VWidget@@@@UEAAPEAXI@Z 000000014004d288     container.obj
 0003:0000b29c       $unwind$??0?$Container@VGameObject@@@@QEAA@AEBV?$Vector2@M@sf@@0@Z 000000014004d29c     container.obj
 0003:0000b2b0       $unwind$??1?$Container@VGameObject@@@@UEAA@XZ 000000014004d2b0     container.obj
 0003:0000b2c4       $unwind$?SetPos@?$Container@VGameObject@@@@UEAAXAEBV?$Vector2@M@sf@@@Z 000000014004d2c4     container.obj
 0003:0000b2d8       $unwind$?AddWidget@?$Container@VGameObject@@@@QEAAXPEAVGameObject@@@Z 000000014004d2d8     container.obj
 0003:0000b2ec       $unwind$?RemoveWidget@?$Container@VGameObject@@@@QEAA_NPEAVGameObject@@@Z 000000014004d2ec     container.obj
 0003:0000b300       $unwind$?GetWidget@?$Container@VGameObject@@@@QEBAPEAVGameObject@@_K@Z 000000014004d300     container.obj
 0003:0000b314       $unwind$?GetWidgetsCount@?$Container@VGameObject@@@@QEBA_KXZ 000000014004d314     container.obj
 0003:0000b328       $unwind$?Draw@?$Container@VGameObject@@@@UEAAXPEAVRenderWindow@sf@@@Z 000000014004d328     container.obj
 0003:0000b33c       $unwind$?Update@?$Container@VGameObject@@@@UEAAXAEBVTime@sf@@@Z 000000014004d33c     container.obj
 0003:0000b350       $unwind$?HandleEvent@?$Container@VGameObject@@@@UEAAXAEBVEvent@sf@@@Z 000000014004d350     container.obj
 0003:0000b364       $unwind$??_G?$Container@VGameObject@@@@UEAAPEAXI@Z 000000014004d364     container.obj
 0003:0000b378       $unwind$?_Getpfirst@_Container_base12@std@@QEBAPEAPEAU_Iterator_base12@2@XZ 000000014004d378     engine.obj
 0003:0000b38c       $unwind$?_Clrcont@_Iterator_base12@std@@QEAAXXZ 000000014004d38c     engine.obj
 0003:0000b3a0       $unwind$?_Getpnext@_Iterator_base12@std@@QEAAPEAPEAU12@XZ 000000014004d3a0     engine.obj
 0003:0000b3b4       $unwind$??0locale@std@@QEAA@XZ 000000014004d3b4     engine.obj
 0003:0000b3d0       $ip2state$??0locale@std@@QEAA@XZ 000000014004d3d0     engine.obj
 0003:0000b3d8       $unwind$??1locale@std@@QEAA@XZ 000000014004d3d8     engine.obj
 0003:0000b3f8       $ip2state$??1locale@std@@QEAA@XZ 000000014004d3f8     engine.obj
 0003:0000b400       $unwind$??0ContextSettings@sf@@QEAA@IIIIII_N@Z 000000014004d400     engine.obj
 0003:0000b414       $unwind$??_GRenderWindow@sf@@UEAAPEAXI@Z 000000014004d414     engine.obj
 0003:0000b428       $unwind$??0?$allocator@U?$_Tree_node@U?$pair@$$CBW4Object_Type@@PEBVGameObject@@@std@@PEAX@std@@@std@@QEAA@XZ 000000014004d428     engine.obj
 0003:0000b43c       $unwind$??0?$_Tree_comp_alloc@V?$_Tmap_traits@W4Object_Type@@PEBVGameObject@@U?$less@W4Object_Type@@@std@@V?$allocator@U?$pair@$$CBW4Object_Type@@PEBVGameObject@@@std@@@4@$0A@@std@@@std@@QEAA@AEBU?$less@W4Object_Type@@@1@@Z 000000014004d43c     engine.obj
 0003:0000b450       $unwind$?_Construct@?$_Tree_comp_alloc@V?$_Tmap_traits@W4Object_Type@@PEBVGameObject@@U?$less@W4Object_Type@@@std@@V?$allocator@U?$pair@$$CBW4Object_Type@@PEBVGameObject@@@std@@@4@$0A@@std@@@std@@QEAAXXZ 000000014004d450     engine.obj
 0003:0000b46c       $stateUnwindMap$?_Construct@?$_Tree_comp_alloc@V?$_Tmap_traits@W4Object_Type@@PEBVGameObject@@U?$less@W4Object_Type@@@std@@V?$allocator@U?$pair@$$CBW4Object_Type@@PEBVGameObject@@@std@@@4@$0A@@std@@@std@@QEAAXXZ 000000014004d46c     engine.obj
 0003:0000b480       $tryMap$?_Construct@?$_Tree_comp_alloc@V?$_Tmap_traits@W4Object_Type@@PEBVGameObject@@U?$less@W4Object_Type@@@std@@V?$allocator@U?$pair@$$CBW4Object_Type@@PEBVGameObject@@@std@@@4@$0A@@std@@@std@@QEAAXXZ 000000014004d480     engine.obj
 0003:0000b498       $handlerMap$0$?_Construct@?$_Tree_comp_alloc@V?$_Tmap_traits@W4Object_Type@@PEBVGameObject@@U?$less@W4Object_Type@@@std@@V?$allocator@U?$pair@$$CBW4Object_Type@@PEBVGameObject@@@std@@@4@$0A@@std@@@std@@QEAAXXZ 000000014004d498     engine.obj
 0003:0000b4b0       $ip2state$?_Construct@?$_Tree_comp_alloc@V?$_Tmap_traits@W4Object_Type@@PEBVGameObject@@U?$less@W4Object_Type@@@std@@V?$allocator@U?$pair@$$CBW4Object_Type@@PEBVGameObject@@@std@@@4@$0A@@std@@@std@@QEAAXXZ 000000014004d4b0     engine.obj
 0003:0000b4e4       $unwind$?catch$0@?0??_Construct@?$_Tree_comp_alloc@V?$_Tmap_traits@W4Object_Type@@PEBVGameObject@@U?$less@W4Object_Type@@@std@@V?$allocator@U?$pair@$$CBW4Object_Type@@PEBVGameObject@@@std@@@4@$0A@@std@@@std@@QEAAXXZ@4HA 000000014004d4e4     engine.obj
 0003:0000b4fc       $unwind$??1?$_Tree_comp_alloc@V?$_Tmap_traits@W4Object_Type@@PEBVGameObject@@U?$less@W4Object_Type@@@std@@V?$allocator@U?$pair@$$CBW4Object_Type@@PEBVGameObject@@@std@@@4@$0A@@std@@@std@@QEAA@XZ 000000014004d4fc     engine.obj
 0003:0000b518       $ip2state$??1?$_Tree_comp_alloc@V?$_Tmap_traits@W4Object_Type@@PEBVGameObject@@U?$less@W4Object_Type@@@std@@V?$allocator@U?$pair@$$CBW4Object_Type@@PEBVGameObject@@@std@@@4@$0A@@std@@@std@@QEAA@XZ 000000014004d518     engine.obj
 0003:0000b520       $unwind$?_Alloc_proxy@?$_Tree_comp_alloc@V?$_Tmap_traits@W4Object_Type@@PEBVGameObject@@U?$less@W4Object_Type@@@std@@V?$allocator@U?$pair@$$CBW4Object_Type@@PEBVGameObject@@@std@@@4@$0A@@std@@@std@@QEAAXXZ 000000014004d520     engine.obj
 0003:0000b534       $unwind$?_Free_proxy@?$_Tree_comp_alloc@V?$_Tmap_traits@W4Object_Type@@PEBVGameObject@@U?$less@W4Object_Type@@@std@@V?$allocator@U?$pair@$$CBW4Object_Type@@PEBVGameObject@@@std@@@4@$0A@@std@@@std@@QEAAXXZ 000000014004d534     engine.obj
 0003:0000b548       $unwind$?_Getpfirst@?$_Tree_comp_alloc@V?$_Tmap_traits@W4Object_Type@@PEBVGameObject@@U?$less@W4Object_Type@@@std@@V?$allocator@U?$pair@$$CBW4Object_Type@@PEBVGameObject@@@std@@@4@$0A@@std@@@std@@QEBAPEAPEAU_Iterator_base12@2@XZ 000000014004d548     engine.obj
 0003:0000b55c       $unwind$?_Myproxy@?$_Tree_comp_alloc@V?$_Tmap_traits@W4Object_Type@@PEBVGameObject@@U?$less@W4Object_Type@@@std@@V?$allocator@U?$pair@$$CBW4Object_Type@@PEBVGameObject@@@std@@@4@$0A@@std@@@std@@QEAAAEAPEAU_Container_proxy@2@XZ 000000014004d55c     engine.obj
 0003:0000b570       $unwind$?_Orphan_all@?$_Tree_comp_alloc@V?$_Tmap_traits@W4Object_Type@@PEBVGameObject@@U?$less@W4Object_Type@@@std@@V?$allocator@U?$pair@$$CBW4Object_Type@@PEBVGameObject@@@std@@@4@$0A@@std@@@std@@QEAAXXZ 000000014004d570     engine.obj
 0003:0000b584       $unwind$?_Buyheadnode@?$_Tree_comp_alloc@V?$_Tmap_traits@W4Object_Type@@PEBVGameObject@@U?$less@W4Object_Type@@@std@@V?$allocator@U?$pair@$$CBW4Object_Type@@PEBVGameObject@@@std@@@4@$0A@@std@@@std@@QEAAPEAU?$_Tree_node@U?$pair@$$CBW4Object_Type@@PEBVGameObject@@@std@@PEAX@2@XZ 000000014004d584     engine.obj
 0003:0000b5a0       $stateUnwindMap$?_Buyheadnode@?$_Tree_comp_alloc@V?$_Tmap_traits@W4Object_Type@@PEBVGameObject@@U?$less@W4Object_Type@@@std@@V?$allocator@U?$pair@$$CBW4Object_Type@@PEBVGameObject@@@std@@@4@$0A@@std@@@std@@QEAAPEAU?$_Tree_node@U?$pair@$$CBW4Object_Type@@PEBVGameObject@@@std@@PEAX@2@XZ 000000014004d5a0     engine.obj
 0003:0000b5b4       $tryMap$?_Buyheadnode@?$_Tree_comp_alloc@V?$_Tmap_traits@W4Object_Type@@PEBVGameObject@@U?$less@W4Object_Type@@@std@@V?$allocator@U?$pair@$$CBW4Object_Type@@PEBVGameObject@@@std@@@4@$0A@@std@@@std@@QEAAPEAU?$_Tree_node@U?$pair@$$CBW4Object_Type@@PEBVGameObject@@@std@@PEAX@2@XZ 000000014004d5b4     engine.obj
 0003:0000b5cc       $handlerMap$0$?_Buyheadnode@?$_Tree_comp_alloc@V?$_Tmap_traits@W4Object_Type@@PEBVGameObject@@U?$less@W4Object_Type@@@std@@V?$allocator@U?$pair@$$CBW4Object_Type@@PEBVGameObject@@@std@@@4@$0A@@std@@@std@@QEAAPEAU?$_Tree_node@U?$pair@$$CBW4Object_Type@@PEBVGameObject@@@std@@PEAX@2@XZ 000000014004d5cc     engine.obj
 0003:0000b5e8       $ip2state$?_Buyheadnode@?$_Tree_comp_alloc@V?$_Tmap_traits@W4Object_Type@@PEBVGameObject@@U?$less@W4Object_Type@@@std@@V?$allocator@U?$pair@$$CBW4Object_Type@@PEBVGameObject@@@std@@@4@$0A@@std@@@std@@QEAAPEAU?$_Tree_node@U?$pair@$$CBW4Object_Type@@PEBVGameObject@@@std@@PEAX@2@XZ 000000014004d5e8     engine.obj
 0003:0000b61c       $unwind$?catch$0@?0??_Buyheadnode@?$_Tree_comp_alloc@V?$_Tmap_traits@W4Object_Type@@PEBVGameObject@@U?$less@W4Object_Type@@@std@@V?$allocator@U?$pair@$$CBW4Object_Type@@PEBVGameObject@@@std@@@4@$0A@@std@@@std@@QEAAPEAU?$_Tree_node@U?$pair@$$CBW4Object_Type@@PEBVGameObject@@@std@@PEAX@2@XZ@4HA 000000014004d61c     engine.obj
 0003:0000b634       $unwind$?_Freeheadnode@?$_Tree_comp_alloc@V?$_Tmap_traits@W4Object_Type@@PEBVGameObject@@U?$less@W4Object_Type@@@std@@V?$allocator@U?$pair@$$CBW4Object_Type@@PEBVGameObject@@@std@@@4@$0A@@std@@@std@@QEAAXPEAU?$_Tree_node@U?$pair@$$CBW4Object_Type@@PEBVGameObject@@@std@@PEAX@2@@Z 000000014004d634     engine.obj
 0003:0000b648       $unwind$??0?$_Tree_val@U?$_Tree_simple_types@U?$pair@$$CBW4Object_Type@@PEBVGameObject@@@std@@@std@@@std@@QEAA@XZ 000000014004d648     engine.obj
 0003:0000b65c       $unwind$?_Extract@?$_Tree_val@U?$_Tree_simple_types@U?$pair@$$CBW4Object_Type@@PEBVGameObject@@@std@@@std@@@std@@QEAAPEAU?$_Tree_node@U?$pair@$$CBW4Object_Type@@PEBVGameObject@@@std@@PEAX@2@V?$_Tree_const_iterator@V?$_Tree_val@U?$_Tree_simple_types@U?$pair@$$CBW4Object_Type@@PEBVGameObject@@@std@@@std@@@std@@@2@@Z 000000014004d65c     engine.obj
 0003:0000b678       $stateUnwindMap$?_Extract@?$_Tree_val@U?$_Tree_simple_types@U?$pair@$$CBW4Object_Type@@PEBVGameObject@@@std@@@std@@@std@@QEAAPEAU?$_Tree_node@U?$pair@$$CBW4Object_Type@@PEBVGameObject@@@std@@PEAX@2@V?$_Tree_const_iterator@V?$_Tree_val@U?$_Tree_simple_types@U?$pair@$$CBW4Object_Type@@PEBVGameObject@@@std@@@std@@@std@@@2@@Z 000000014004d678     engine.obj
 0003:0000b680       $ip2state$?_Extract@?$_Tree_val@U?$_Tree_simple_types@U?$pair@$$CBW4Object_Type@@PEBVGameObject@@@std@@@std@@@std@@QEAAPEAU?$_Tree_node@U?$pair@$$CBW4Object_Type@@PEBVGameObject@@@std@@PEAX@2@V?$_Tree_const_iterator@V?$_Tree_val@U?$_Tree_simple_types@U?$pair@$$CBW4Object_Type@@PEBVGameObject@@@std@@@std@@@std@@@2@@Z 000000014004d680     engine.obj
 0003:0000b69c       $unwind$?dtor$0@?0??_Extract@?$_Tree_val@U?$_Tree_simple_types@U?$pair@$$CBW4Object_Type@@PEBVGameObject@@@std@@@std@@@std@@QEAAPEAU?$_Tree_node@U?$pair@$$CBW4Object_Type@@PEBVGameObject@@@std@@PEAX@2@V?$_Tree_const_iterator@V?$_Tree_val@U?$_Tree_simple_types@U?$pair@$$CBW4Object_Type@@PEBVGameObject@@@std@@@std@@@std@@@2@@Z@4HA 000000014004d69c     engine.obj
 0003:0000b6ac       $unwind$??0?$_Tree@V?$_Tmap_traits@W4Object_Type@@PEBVGameObject@@U?$less@W4Object_Type@@@std@@V?$allocator@U?$pair@$$CBW4Object_Type@@PEBVGameObject@@@std@@@4@$0A@@std@@@std@@QEAA@AEBU?$less@W4Object_Type@@@1@@Z 000000014004d6ac     engine.obj
 0003:0000b6c0       $unwind$??1?$_Tree@V?$_Tmap_traits@W4Object_Type@@PEBVGameObject@@U?$less@W4Object_Type@@@std@@V?$allocator@U?$pair@$$CBW4Object_Type@@PEBVGameObject@@@std@@@4@$0A@@std@@@std@@QEAA@XZ 000000014004d6c0     engine.obj
 0003:0000b6e0       $ip2state$??1?$_Tree@V?$_Tmap_traits@W4Object_Type@@PEBVGameObject@@U?$less@W4Object_Type@@@std@@V?$allocator@U?$pair@$$CBW4Object_Type@@PEBVGameObject@@@std@@@4@$0A@@std@@@std@@QEAA@XZ 000000014004d6e0     engine.obj
 0003:0000b6e8       $unwind$?erase@?$_Tree@V?$_Tmap_traits@W4Object_Type@@PEBVGameObject@@U?$less@W4Object_Type@@@std@@V?$allocator@U?$pair@$$CBW4Object_Type@@PEBVGameObject@@@std@@@4@$0A@@std@@@std@@QEAA?AV?$_Tree_iterator@V?$_Tree_val@U?$_Tree_simple_types@U?$pair@$$CBW4Object_Type@@PEBVGameObject@@@std@@@std@@@std@@@2@V?$_Tree_const_iterator@V?$_Tree_val@U?$_Tree_simple_types@U?$pair@$$CBW4Object_Type@@PEBVGameObject@@@std@@@std@@@std@@@2@@Z 000000014004d6e8     engine.obj
 0003:0000b704       $stateUnwindMap$?erase@?$_Tree@V?$_Tmap_traits@W4Object_Type@@PEBVGameObject@@U?$less@W4Object_Type@@@std@@V?$allocator@U?$pair@$$CBW4Object_Type@@PEBVGameObject@@@std@@@4@$0A@@std@@@std@@QEAA?AV?$_Tree_iterator@V?$_Tree_val@U?$_Tree_simple_types@U?$pair@$$CBW4Object_Type@@PEBVGameObject@@@std@@@std@@@std@@@2@V?$_Tree_const_iterator@V?$_Tree_val@U?$_Tree_simple_types@U?$pair@$$CBW4Object_Type@@PEBVGameObject@@@std@@@std@@@std@@@2@@Z 000000014004d704     engine.obj
 0003:0000b718       $ip2state$?erase@?$_Tree@V?$_Tmap_traits@W4Object_Type@@PEBVGameObject@@U?$less@W4Object_Type@@@std@@V?$allocator@U?$pair@$$CBW4Object_Type@@PEBVGameObject@@@std@@@4@$0A@@std@@@std@@QEAA?AV?$_Tree_iterator@V?$_Tree_val@U?$_Tree_simple_types@U?$pair@$$CBW4Object_Type@@PEBVGameObject@@@std@@@std@@@std@@@2@V?$_Tree_const_iterator@V?$_Tree_val@U?$_Tree_simple_types@U?$pair@$$CBW4Object_Type@@PEBVGameObject@@@std@@@std@@@std@@@2@@Z 000000014004d718     engine.obj
 0003:0000b744       $unwind$?dtor$0@?0??erase@?$_Tree@V?$_Tmap_traits@W4Object_Type@@PEBVGameObject@@U?$less@W4Object_Type@@@std@@V?$allocator@U?$pair@$$CBW4Object_Type@@PEBVGameObject@@@std@@@4@$0A@@std@@@std@@QEAA?AV?$_Tree_iterator@V?$_Tree_val@U?$_Tree_simple_types@U?$pair@$$CBW4Object_Type@@PEBVGameObject@@@std@@@std@@@std@@@2@V?$_Tree_const_iterator@V?$_Tree_val@U?$_Tree_simple_types@U?$pair@$$CBW4Object_Type@@PEBVGameObject@@@std@@@std@@@std@@@2@@Z@4HA 000000014004d744     engine.obj
 0003:0000b754       $unwind$?dtor$1@?0??erase@?$_Tree@V?$_Tmap_traits@W4Object_Type@@PEBVGameObject@@U?$less@W4Object_Type@@@std@@V?$allocator@U?$pair@$$CBW4Object_Type@@PEBVGameObject@@@std@@@4@$0A@@std@@@std@@QEAA?AV?$_Tree_iterator@V?$_Tree_val@U?$_Tree_simple_types@U?$pair@$$CBW4Object_Type@@PEBVGameObject@@@std@@@std@@@std@@@2@V?$_Tree_const_iterator@V?$_Tree_val@U?$_Tree_simple_types@U?$pair@$$CBW4Object_Type@@PEBVGameObject@@@std@@@std@@@std@@@2@@Z@4HA 000000014004d754     engine.obj
 0003:0000b764       $unwind$?erase@?$_Tree@V?$_Tmap_traits@W4Object_Type@@PEBVGameObject@@U?$less@W4Object_Type@@@std@@V?$allocator@U?$pair@$$CBW4Object_Type@@PEBVGameObject@@@std@@@4@$0A@@std@@@std@@QEAA?AV?$_Tree_iterator@V?$_Tree_val@U?$_Tree_simple_types@U?$pair@$$CBW4Object_Type@@PEBVGameObject@@@std@@@std@@@std@@@2@V?$_Tree_const_iterator@V?$_Tree_val@U?$_Tree_simple_types@U?$pair@$$CBW4Object_Type@@PEBVGameObject@@@std@@@std@@@std@@@2@0@Z 000000014004d764     engine.obj
 0003:0000b780       $stateUnwindMap$?erase@?$_Tree@V?$_Tmap_traits@W4Object_Type@@PEBVGameObject@@U?$less@W4Object_Type@@@std@@V?$allocator@U?$pair@$$CBW4Object_Type@@PEBVGameObject@@@std@@@4@$0A@@std@@@std@@QEAA?AV?$_Tree_iterator@V?$_Tree_val@U?$_Tree_simple_types@U?$pair@$$CBW4Object_Type@@PEBVGameObject@@@std@@@std@@@std@@@2@V?$_Tree_const_iterator@V?$_Tree_val@U?$_Tree_simple_types@U?$pair@$$CBW4Object_Type@@PEBVGameObject@@@std@@@std@@@std@@@2@0@Z 000000014004d780     engine.obj
 0003:0000b7a0       $unwind$??$_Copy_memmove@PEAPEAV?$Container@VWidget@@@@PEAPEAV1@@std@@YAPEAPEAV?$Container@VWidget@@@@PEAPEAV1@00@Z 000000014004d7a0     engine.obj
 0003:0000b7b0       $ip2state$?erase@?$_Tree@V?$_Tmap_traits@W4Object_Type@@PEBVGameObject@@U?$less@W4Object_Type@@@std@@V?$allocator@U?$pair@$$CBW4Object_Type@@PEBVGameObject@@@std@@@4@$0A@@std@@@std@@QEAA?AV?$_Tree_iterator@V?$_Tree_val@U?$_Tree_simple_types@U?$pair@$$CBW4Object_Type@@PEBVGameObject@@@std@@@std@@@std@@@2@V?$_Tree_const_iterator@V?$_Tree_val@U?$_Tree_simple_types@U?$pair@$$CBW4Object_Type@@PEBVGameObject@@@std@@@std@@@std@@@2@0@Z 000000014004d7b0     engine.obj
 0003:0000b810       $unwind$?dtor$0@?0??erase@?$_Tree@V?$_Tmap_traits@W4Object_Type@@PEBVGameObject@@U?$less@W4Object_Type@@@std@@V?$allocator@U?$pair@$$CBW4Object_Type@@PEBVGameObject@@@std@@@4@$0A@@std@@@std@@QEAA?AV?$_Tree_iterator@V?$_Tree_val@U?$_Tree_simple_types@U?$pair@$$CBW4Object_Type@@PEBVGameObject@@@std@@@std@@@std@@@2@V?$_Tree_const_iterator@V?$_Tree_val@U?$_Tree_simple_types@U?$pair@$$CBW4Object_Type@@PEBVGameObject@@@std@@@std@@@std@@@2@0@Z@4HA 000000014004d810     engine.obj
 0003:0000b820       $unwind$?dtor$1@?0??erase@?$_Tree@V?$_Tmap_traits@W4Object_Type@@PEBVGameObject@@U?$less@W4Object_Type@@@std@@V?$allocator@U?$pair@$$CBW4Object_Type@@PEBVGameObject@@@std@@@4@$0A@@std@@@std@@QEAA?AV?$_Tree_iterator@V?$_Tree_val@U?$_Tree_simple_types@U?$pair@$$CBW4Object_Type@@PEBVGameObject@@@std@@@std@@@std@@@2@V?$_Tree_const_iterator@V?$_Tree_val@U?$_Tree_simple_types@U?$pair@$$CBW4Object_Type@@PEBVGameObject@@@std@@@std@@@std@@@2@0@Z@4HA 000000014004d820     engine.obj
 0003:0000b830       $unwind$?dtor$2@?0??erase@?$_Tree@V?$_Tmap_traits@W4Object_Type@@PEBVGameObject@@U?$less@W4Object_Type@@@std@@V?$allocator@U?$pair@$$CBW4Object_Type@@PEBVGameObject@@@std@@@4@$0A@@std@@@std@@QEAA?AV?$_Tree_iterator@V?$_Tree_val@U?$_Tree_simple_types@U?$pair@$$CBW4Object_Type@@PEBVGameObject@@@std@@@std@@@std@@@2@V?$_Tree_const_iterator@V?$_Tree_val@U?$_Tree_simple_types@U?$pair@$$CBW4Object_Type@@PEBVGameObject@@@std@@@std@@@std@@@2@0@Z@4HA 000000014004d830     engine.obj
 0003:0000b840       $unwind$?dtor$3@?0??erase@?$_Tree@V?$_Tmap_traits@W4Object_Type@@PEBVGameObject@@U?$less@W4Object_Type@@@std@@V?$allocator@U?$pair@$$CBW4Object_Type@@PEBVGameObject@@@std@@@4@$0A@@std@@@std@@QEAA?AV?$_Tree_iterator@V?$_Tree_val@U?$_Tree_simple_types@U?$pair@$$CBW4Object_Type@@PEBVGameObject@@@std@@@std@@@std@@@2@V?$_Tree_const_iterator@V?$_Tree_val@U?$_Tree_simple_types@U?$pair@$$CBW4Object_Type@@PEBVGameObject@@@std@@@std@@@std@@@2@0@Z@4HA 000000014004d840     engine.obj
 0003:0000b850       $unwind$?clear@?$_Tree@V?$_Tmap_traits@W4Object_Type@@PEBVGameObject@@U?$less@W4Object_Type@@@std@@V?$allocator@U?$pair@$$CBW4Object_Type@@PEBVGameObject@@@std@@@4@$0A@@std@@@std@@QEAAXXZ 000000014004d850     engine.obj
 0003:0000b870       $ip2state$?clear@?$_Tree@V?$_Tmap_traits@W4Object_Type@@PEBVGameObject@@U?$less@W4Object_Type@@@std@@V?$allocator@U?$pair@$$CBW4Object_Type@@PEBVGameObject@@@std@@@4@$0A@@std@@@std@@QEAAXXZ 000000014004d870     engine.obj
 0003:0000b878       $unwind$?_Erase@?$_Tree@V?$_Tmap_traits@W4Object_Type@@PEBVGameObject@@U?$less@W4Object_Type@@@std@@V?$allocator@U?$pair@$$CBW4Object_Type@@PEBVGameObject@@@std@@@4@$0A@@std@@@std@@IEAAXPEAU?$_Tree_node@U?$pair@$$CBW4Object_Type@@PEBVGameObject@@@std@@PEAX@2@@Z 000000014004d878     engine.obj
 0003:0000b88c       $unwind$?_Orphan_ptr@?$_Tree@V?$_Tmap_traits@W4Object_Type@@PEBVGameObject@@U?$less@W4Object_Type@@@std@@V?$allocator@U?$pair@$$CBW4Object_Type@@PEBVGameObject@@@std@@@4@$0A@@std@@@std@@IEAAXPEAU?$_Tree_node@U?$pair@$$CBW4Object_Type@@PEBVGameObject@@@std@@PEAX@2@@Z 000000014004d88c     engine.obj
 0003:0000b8a8       $stateUnwindMap$?_Orphan_ptr@?$_Tree@V?$_Tmap_traits@W4Object_Type@@PEBVGameObject@@U?$less@W4Object_Type@@@std@@V?$allocator@U?$pair@$$CBW4Object_Type@@PEBVGameObject@@@std@@@4@$0A@@std@@@std@@IEAAXPEAU?$_Tree_node@U?$pair@$$CBW4Object_Type@@PEBVGameObject@@@std@@PEAX@2@@Z 000000014004d8a8     engine.obj
 0003:0000b8b0       $ip2state$?_Orphan_ptr@?$_Tree@V?$_Tmap_traits@W4Object_Type@@PEBVGameObject@@U?$less@W4Object_Type@@@std@@V?$allocator@U?$pair@$$CBW4Object_Type@@PEBVGameObject@@@std@@@4@$0A@@std@@@std@@IEAAXPEAU?$_Tree_node@U?$pair@$$CBW4Object_Type@@PEBVGameObject@@@std@@PEAX@2@@Z 000000014004d8b0     engine.obj
 0003:0000b8cc       $unwind$?dtor$0@?0??_Orphan_ptr@?$_Tree@V?$_Tmap_traits@W4Object_Type@@PEBVGameObject@@U?$less@W4Object_Type@@@std@@V?$allocator@U?$pair@$$CBW4Object_Type@@PEBVGameObject@@@std@@@4@$0A@@std@@@std@@IEAAXPEAU?$_Tree_node@U?$pair@$$CBW4Object_Type@@PEBVGameObject@@@std@@PEAX@2@@Z@4HA 000000014004d8cc     engine.obj
 0003:0000b8dc       $unwind$?_Tidy@?$_Tree@V?$_Tmap_traits@W4Object_Type@@PEBVGameObject@@U?$less@W4Object_Type@@@std@@V?$allocator@U?$pair@$$CBW4Object_Type@@PEBVGameObject@@@std@@@4@$0A@@std@@@std@@IEAAXXZ 000000014004d8dc     engine.obj
 0003:0000b8f8       $stateUnwindMap$?_Tidy@?$_Tree@V?$_Tmap_traits@W4Object_Type@@PEBVGameObject@@U?$less@W4Object_Type@@@std@@V?$allocator@U?$pair@$$CBW4Object_Type@@PEBVGameObject@@@std@@@4@$0A@@std@@@std@@IEAAXXZ 000000014004d8f8     engine.obj
 0003:0000b910       $ip2state$?_Tidy@?$_Tree@V?$_Tmap_traits@W4Object_Type@@PEBVGameObject@@U?$less@W4Object_Type@@@std@@V?$allocator@U?$pair@$$CBW4Object_Type@@PEBVGameObject@@@std@@@4@$0A@@std@@@std@@IEAAXXZ 000000014004d910     engine.obj
 0003:0000b93c       $unwind$?dtor$0@?0??_Tidy@?$_Tree@V?$_Tmap_traits@W4Object_Type@@PEBVGameObject@@U?$less@W4Object_Type@@@std@@V?$allocator@U?$pair@$$CBW4Object_Type@@PEBVGameObject@@@std@@@4@$0A@@std@@@std@@IEAAXXZ@4HA 000000014004d93c     engine.obj
 0003:0000b94c       $unwind$?dtor$2@?0??_Tidy@?$_Tree@V?$_Tmap_traits@W4Object_Type@@PEBVGameObject@@U?$less@W4Object_Type@@@std@@V?$allocator@U?$pair@$$CBW4Object_Type@@PEBVGameObject@@@std@@@4@$0A@@std@@@std@@IEAAXXZ@4HA 000000014004d94c     engine.obj
 0003:0000b95c       $unwind$??0?$map@W4Object_Type@@PEBVGameObject@@U?$less@W4Object_Type@@@std@@V?$allocator@U?$pair@$$CBW4Object_Type@@PEBVGameObject@@@std@@@4@@std@@QEAA@XZ 000000014004d95c     engine.obj
 0003:0000b970       $unwind$??1?$map@W4Object_Type@@PEBVGameObject@@U?$less@W4Object_Type@@@std@@V?$allocator@U?$pair@$$CBW4Object_Type@@PEBVGameObject@@@std@@@4@@std@@QEAA@XZ 000000014004d970     engine.obj
 0003:0000b984       $unwind$??0ConfigManager@@QEAA@XZ 000000014004d984     engine.obj
 0003:0000b998       $unwind$??1ConfigManager@@QEAA@XZ 000000014004d998     engine.obj
 0003:0000b9ac       $unwind$??0Engine@@QEAA@XZ 000000014004d9ac     engine.obj
 0003:0000b9cc       $stateUnwindMap$??0Engine@@QEAA@XZ 000000014004d9cc     engine.obj
 0003:0000ba0c       $unwind$??R<lambda_66f57f934f28d61049862f64df852ff0>@@QEBAXQEAD_KQEBD@Z 000000014004da0c     object.obj
 0003:0000ba20       $ip2state$??0Engine@@QEAA@XZ 000000014004da20     engine.obj
 0003:0000ba94       $unwind$?dtor$0@?0???0Engine@@QEAA@XZ@4HA 000000014004da94     engine.obj
 0003:0000baa4       $unwind$?dtor$1@?0???0Engine@@QEAA@XZ@4HA 000000014004daa4     engine.obj
 0003:0000bab4       $unwind$?dtor$2@?0???0Engine@@QEAA@XZ@4HA 000000014004dab4     engine.obj
 0003:0000bac4       $unwind$?dtor$3@?0???0Engine@@QEAA@XZ@4HA 000000014004dac4     engine.obj
 0003:0000bad4       $unwind$?dtor$4@?0???0Engine@@QEAA@XZ@4HA 000000014004dad4     engine.obj
 0003:0000bae4       $unwind$?dtor$5@?0???0Engine@@QEAA@XZ@4HA 000000014004dae4     engine.obj
 0003:0000baf4       $unwind$??1Engine@@QEAA@XZ 000000014004daf4     engine.obj
 0003:0000bb08       $unwind$?Execute@Engine@@QEAAXXZ 000000014004db08     engine.obj
 0003:0000bb24       $stateUnwindMap$?Execute@Engine@@QEAAXXZ 000000014004db24     engine.obj
 0003:0000bb30       $ip2state$?Execute@Engine@@QEAAXXZ 000000014004db30     engine.obj
 0003:0000bb4c       $unwind$?dtor$0@?0??Execute@Engine@@QEAAXXZ@4HA 000000014004db4c     engine.obj
 0003:0000bb5c       $unwind$?Update@Engine@@QEAAXAEBVTime@sf@@@Z 000000014004db5c     engine.obj
 0003:0000bb70       $unwind$?HandleEvents@Engine@@QEAAXXZ 000000014004db70     engine.obj
 0003:0000bb84       $unwind$?Draw@Engine@@QEAAXXZ 000000014004db84     engine.obj
 0003:0000bb98       $unwind$?GetSize@Engine@@QEBA?AV?$Vector2@M@sf@@XZ 000000014004db98     engine.obj
 0003:0000bbac       $unwind$?SetSize@Engine@@QEAAXAEBV?$Vector2@M@sf@@@Z 000000014004dbac     engine.obj
 0003:0000bbc0       $unwind$?GetConfigManager@Engine@@QEAAPEAVConfigManager@@XZ 000000014004dbc0     engine.obj
 0003:0000bbd4       $unwind$?ChangeWindow@Engine@@QEAAXPEAV?$Window@VWidget@@@@@Z 000000014004dbd4     engine.obj
 0003:0000bbe8       $unwind$?Close@Engine@@QEAAXXZ 000000014004dbe8     engine.obj
 0003:0000bbfc       $unwind$?destroyObjectsDeffered@Engine@@AEAAXXZ 000000014004dbfc     engine.obj
 0003:0000bc10       $unwind$??0?$allocator@PEAV?$Container@VWidget@@@@@std@@QEAA@XZ 000000014004dc10     engine.obj
 0003:0000bc24       $unwind$?deallocate@?$allocator@PEAV?$Container@VWidget@@@@@std@@QEAAXQEAPEAV?$Container@VWidget@@@@_K@Z 000000014004dc24     engine.obj
 0003:0000bc38       $unwind$?allocate@?$allocator@PEAV?$Container@VWidget@@@@@std@@QEAAPEAPEAV?$Container@VWidget@@@@_K@Z 000000014004dc38     engine.obj
 0003:0000bc4c       $unwind$?max_size@?$_Default_allocator_traits@V?$allocator@PEAV?$Container@VWidget@@@@@std@@@std@@SA_KAEBV?$allocator@PEAV?$Container@VWidget@@@@@2@@Z 000000014004dc4c     engine.obj
 0003:0000bc60       $unwind$??0?$_Vector_alloc@U?$_Vec_base_types@PEAV?$Container@VWidget@@@@V?$allocator@PEAV?$Container@VWidget@@@@@std@@@std@@@std@@QEAA@XZ 000000014004dc60     engine.obj
 0003:0000bc70       $unwind$??$_Reallocate_for@V<lambda_66f57f934f28d61049862f64df852ff0>@@PEBD@?$basic_string@DU?$char_traits@D@std@@V?$allocator@D@2@@std@@QEAAAEAV01@_KV<lambda_66f57f934f28d61049862f64df852ff0>@@PEBD@Z 000000014004dc70     object.obj
 0003:0000bc80       $ip2state$??1?$_Vector_alloc@U?$_Vec_base_types@PEAV?$Container@VWidget@@@@V?$allocator@PEAV?$Container@VWidget@@@@@std@@@std@@@std@@QEAA@XZ 000000014004dc80     engine.obj
 0003:0000bc9c       $unwind$?_Alloc_proxy@?$_Vector_alloc@U?$_Vec_base_types@PEAV?$Container@VWidget@@@@V?$allocator@PEAV?$Container@VWidget@@@@@std@@@std@@@std@@QEAAXXZ 000000014004dc9c     engine.obj
 0003:0000bcb0       $unwind$?_Free_proxy@?$_Vector_alloc@U?$_Vec_base_types@PEAV?$Container@VWidget@@@@V?$allocator@PEAV?$Container@VWidget@@@@@std@@@std@@@std@@QEAAXXZ 000000014004dcb0     engine.obj
 0003:0000bcc4       $unwind$?_Getpfirst@?$_Vector_alloc@U?$_Vec_base_types@PEAV?$Container@VWidget@@@@V?$allocator@PEAV?$Container@VWidget@@@@@std@@@std@@@std@@QEBAPEAPEAU_Iterator_base12@2@XZ 000000014004dcc4     engine.obj
 0003:0000bcd8       $unwind$?_Myproxy@?$_Vector_alloc@U?$_Vec_base_types@PEAV?$Container@VWidget@@@@V?$allocator@PEAV?$Container@VWidget@@@@@std@@@std@@@std@@QEAAAEAPEAU_Container_proxy@2@XZ 000000014004dcd8     engine.obj
 0003:0000bcec       $unwind$?_Orphan_all@?$_Vector_alloc@U?$_Vec_base_types@PEAV?$Container@VWidget@@@@V?$allocator@PEAV?$Container@VWidget@@@@@std@@@std@@@std@@QEAAXXZ 000000014004dcec     engine.obj
 0003:0000bd00       $unwind$?_Getal@?$_Vector_alloc@U?$_Vec_base_types@PEAV?$Container@VWidget@@@@V?$allocator@PEAV?$Container@VWidget@@@@@std@@@std@@@std@@QEAAAEAV?$allocator@PEAV?$Container@VWidget@@@@@2@XZ 000000014004dd00     engine.obj
 0003:0000bd14       $unwind$?_Getal@?$_Vector_alloc@U?$_Vec_base_types@PEAV?$Container@VWidget@@@@V?$allocator@PEAV?$Container@VWidget@@@@@std@@@std@@@std@@QEBAAEBV?$allocator@PEAV?$Container@VWidget@@@@@2@XZ 000000014004dd14     engine.obj
 0003:0000bd28       $unwind$?_Get_data@?$_Vector_alloc@U?$_Vec_base_types@PEAV?$Container@VWidget@@@@V?$allocator@PEAV?$Container@VWidget@@@@@std@@@std@@@std@@QEAAAEAV?$_Vector_val@U?$_Simple_types@PEAV?$Container@VWidget@@@@@std@@@2@XZ 000000014004dd28     engine.obj
 0003:0000bd3c       $unwind$?_Get_data@?$_Vector_alloc@U?$_Vec_base_types@PEAV?$Container@VWidget@@@@V?$allocator@PEAV?$Container@VWidget@@@@@std@@@std@@@std@@QEBAAEBV?$_Vector_val@U?$_Simple_types@PEAV?$Container@VWidget@@@@@std@@@2@XZ 000000014004dd3c     engine.obj
 0003:0000bd50       $unwind$?_Myfirst@?$_Vector_alloc@U?$_Vec_base_types@PEAV?$Container@VWidget@@@@V?$allocator@PEAV?$Container@VWidget@@@@@std@@@std@@@std@@QEAAAEAPEAPEAV?$Container@VWidget@@@@XZ 000000014004dd50     engine.obj
 0003:0000bd64       $unwind$?_Myfirst@?$_Vector_alloc@U?$_Vec_base_types@PEAV?$Container@VWidget@@@@V?$allocator@PEAV?$Container@VWidget@@@@@std@@@std@@@std@@QEBAAEBQEAPEAV?$Container@VWidget@@@@XZ 000000014004dd64     engine.obj
 0003:0000bd78       $unwind$?_Mylast@?$_Vector_alloc@U?$_Vec_base_types@PEAV?$Container@VWidget@@@@V?$allocator@PEAV?$Container@VWidget@@@@@std@@@std@@@std@@QEAAAEAPEAPEAV?$Container@VWidget@@@@XZ 000000014004dd78     engine.obj
 0003:0000bd8c       $unwind$?_Mylast@?$_Vector_alloc@U?$_Vec_base_types@PEAV?$Container@VWidget@@@@V?$allocator@PEAV?$Container@VWidget@@@@@std@@@std@@@std@@QEBAAEBQEAPEAV?$Container@VWidget@@@@XZ 000000014004dd8c     engine.obj
 0003:0000bda0       $unwind$?_Myend@?$_Vector_alloc@U?$_Vec_base_types@PEAV?$Container@VWidget@@@@V?$allocator@PEAV?$Container@VWidget@@@@@std@@@std@@@std@@QEAAAEAPEAPEAV?$Container@VWidget@@@@XZ 000000014004dda0     engine.obj
 0003:0000bdb4       $unwind$?_Myend@?$_Vector_alloc@U?$_Vec_base_types@PEAV?$Container@VWidget@@@@V?$allocator@PEAV?$Container@VWidget@@@@@std@@@std@@@std@@QEBAAEBQEAPEAV?$Container@VWidget@@@@XZ 000000014004ddb4     engine.obj
 0003:0000bdc8       $unwind$??0?$_Vector_val@U?$_Simple_types@PEAV?$Container@VWidget@@@@@std@@@std@@QEAA@XZ 000000014004ddc8     engine.obj
 0003:0000bddc       $unwind$?_Get_first@?$_Compressed_pair@V?$allocator@PEAV?$Container@VWidget@@@@@std@@V?$_Vector_val@U?$_Simple_types@PEAV?$Container@VWidget@@@@@std@@@2@$00@std@@QEAAAEAV?$allocator@PEAV?$Container@VWidget@@@@@2@XZ 000000014004dddc     engine.obj
 0003:0000bdf0       $unwind$?_Get_first@?$_Compressed_pair@V?$allocator@PEAV?$Container@VWidget@@@@@std@@V?$_Vector_val@U?$_Simple_types@PEAV?$Container@VWidget@@@@@std@@@2@$00@std@@QEBAAEBV?$allocator@PEAV?$Container@VWidget@@@@@2@XZ 000000014004ddf0     engine.obj
 0003:0000be04       $unwind$?_Get_second@?$_Compressed_pair@V?$allocator@PEAV?$Container@VWidget@@@@@std@@V?$_Vector_val@U?$_Simple_types@PEAV?$Container@VWidget@@@@@std@@@2@$00@std@@QEAAAEAV?$_Vector_val@U?$_Simple_types@PEAV?$Container@VWidget@@@@@std@@@2@XZ 000000014004de04     engine.obj
 0003:0000be18       $unwind$?_Get_second@?$_Compressed_pair@V?$allocator@PEAV?$Container@VWidget@@@@@std@@V?$_Vector_val@U?$_Simple_types@PEAV?$Container@VWidget@@@@@std@@@2@$00@std@@QEBAAEBV?$_Vector_val@U?$_Simple_types@PEAV?$Container@VWidget@@@@@std@@@2@XZ 000000014004de18     engine.obj
 0003:0000be38       $ip2state$??0?$vector@PEAV?$Container@VWidget@@@@V?$allocator@PEAV?$Container@VWidget@@@@@std@@@std@@QEAA@XZ 000000014004de38     engine.obj
 0003:0000be40       $unwind$??0?$vector@PEAV?$Container@VWidget@@@@V?$allocator@PEAV?$Container@VWidget@@@@@std@@@std@@QEAA@XZ 000000014004de40     engine.obj
 0003:0000be60       $ip2state$??1?$vector@PEAV?$Container@VWidget@@@@V?$allocator@PEAV?$Container@VWidget@@@@@std@@@std@@QEAA@XZ 000000014004de60     engine.obj
 0003:0000be7c       $unwind$?push_back@?$vector@PEAV?$Container@VWidget@@@@V?$allocator@PEAV?$Container@VWidget@@@@@std@@@std@@QEAAXAEBQEAV?$Container@VWidget@@@@@Z 000000014004de7c     engine.obj
 0003:0000be98       $ip2state$?clear@?$vector@PEAV?$Container@VWidget@@@@V?$allocator@PEAV?$Container@VWidget@@@@@std@@@std@@QEAAXXZ 000000014004de98     engine.obj
 0003:0000beb4       $unwind$?size@?$vector@PEAV?$Container@VWidget@@@@V?$allocator@PEAV?$Container@VWidget@@@@@std@@@std@@QEBA_KXZ 000000014004deb4     engine.obj
 0003:0000bec8       $unwind$?max_size@?$vector@PEAV?$Container@VWidget@@@@V?$allocator@PEAV?$Container@VWidget@@@@@std@@@std@@QEBA_KXZ 000000014004dec8     engine.obj
 0003:0000bedc       $unwind$?capacity@?$vector@PEAV?$Container@VWidget@@@@V?$allocator@PEAV?$Container@VWidget@@@@@std@@@std@@QEBA_KXZ 000000014004dedc     engine.obj
 0003:0000bef0       $unwind$?_Has_unused_capacity@?$vector@PEAV?$Container@VWidget@@@@V?$allocator@PEAV?$Container@VWidget@@@@@std@@@std@@AEBA_NXZ 000000014004def0     engine.obj
 0003:0000bf04       $unwind$??A?$vector@PEAV?$Container@VWidget@@@@V?$allocator@PEAV?$Container@VWidget@@@@@std@@@std@@QEAAAEAPEAV?$Container@VWidget@@@@_K@Z 000000014004df04     engine.obj
 0003:0000bf18       $unwind$?_Umove@?$vector@PEAV?$Container@VWidget@@@@V?$allocator@PEAV?$Container@VWidget@@@@@std@@@std@@AEAAPEAPEAV?$Container@VWidget@@@@PEAPEAV3@00@Z 000000014004df18     engine.obj
 0003:0000bf2c       $unwind$?_Umove_if_noexcept1@?$vector@PEAV?$Container@VWidget@@@@V?$allocator@PEAV?$Container@VWidget@@@@@std@@@std@@AEAAXPEAPEAV?$Container@VWidget@@@@00U?$integral_constant@_N$00@2@@Z 000000014004df2c     engine.obj
 0003:0000bf40       $unwind$?_Umove_if_noexcept@?$vector@PEAV?$Container@VWidget@@@@V?$allocator@PEAV?$Container@VWidget@@@@@std@@@std@@AEAAXPEAPEAV?$Container@VWidget@@@@00@Z 000000014004df40     engine.obj
 0003:0000bf54       $unwind$?_Destroy@?$vector@PEAV?$Container@VWidget@@@@V?$allocator@PEAV?$Container@VWidget@@@@@std@@@std@@AEAAXPEAPEAV?$Container@VWidget@@@@0@Z 000000014004df54     engine.obj
 0003:0000bf68       $unwind$?_Calculate_growth@?$vector@PEAV?$Container@VWidget@@@@V?$allocator@PEAV?$Container@VWidget@@@@@std@@@std@@AEBA_K_K@Z 000000014004df68     engine.obj
 0003:0000bf7c       $unwind$?_Change_array@?$vector@PEAV?$Container@VWidget@@@@V?$allocator@PEAV?$Container@VWidget@@@@@std@@@std@@AEAAXQEAPEAV?$Container@VWidget@@@@_K1@Z 000000014004df7c     engine.obj
 0003:0000bf90       $unwind$?_Tidy@?$vector@PEAV?$Container@VWidget@@@@V?$allocator@PEAV?$Container@VWidget@@@@@std@@@std@@AEAAXXZ 000000014004df90     engine.obj
 0003:0000bfa4       $unwind$?_Xlength@?$vector@PEAV?$Container@VWidget@@@@V?$allocator@PEAV?$Container@VWidget@@@@@std@@@std@@CAXXZ 000000014004dfa4     engine.obj
 0003:0000bfc8       $ip2state$?_Orphan_range@?$vector@PEAV?$Container@VWidget@@@@V?$allocator@PEAV?$Container@VWidget@@@@@std@@@std@@AEBAXPEAPEAV?$Container@VWidget@@@@0@Z 000000014004dfc8     engine.obj
 0003:0000bfe4       $stateUnwindMap$?_Orphan_range@?$vector@PEAV?$Container@VWidget@@@@V?$allocator@PEAV?$Container@VWidget@@@@@std@@@std@@AEBAXPEAPEAV?$Container@VWidget@@@@0@Z 000000014004dfe4     engine.obj
 0003:0000bff4       $unwind$?dtor$0@?0??_Orphan_range@?$vector@PEAV?$Container@VWidget@@@@V?$allocator@PEAV?$Container@VWidget@@@@@std@@@std@@AEBAXPEAPEAV?$Container@VWidget@@@@0@Z@4HA 000000014004dff4     engine.obj
 0003:0000c008       $unwind$??0?$allocator@PEAVObject@@@std@@QEAA@XZ 000000014004e008     engine.obj
 0003:0000c01c       $unwind$?deallocate@?$allocator@PEAVObject@@@std@@QEAAXQEAPEAVObject@@_K@Z 000000014004e01c     engine.obj
 0003:0000c030       $unwind$?allocate@?$allocator@PEAVObject@@@std@@QEAAPEAPEAVObject@@_K@Z 000000014004e030     engine.obj
 0003:0000c044       $unwind$?max_size@?$_Default_allocator_traits@V?$allocator@PEAVObject@@@std@@@std@@SA_KAEBV?$allocator@PEAVObject@@@2@@Z 000000014004e044     engine.obj
 0003:0000c058       $unwind$??0?$_Vector_alloc@U?$_Vec_base_types@PEAVObject@@V?$allocator@PEAVObject@@@std@@@std@@@std@@QEAA@XZ 000000014004e058     engine.obj
 0003:0000c078       $ip2state$??1?$_Vector_alloc@U?$_Vec_base_types@PEAVObject@@V?$allocator@PEAVObject@@@std@@@std@@@std@@QEAA@XZ 000000014004e078     engine.obj
 0003:0000c094       $unwind$?_Alloc_proxy@?$_Vector_alloc@U?$_Vec_base_types@PEAVObject@@V?$allocator@PEAVObject@@@std@@@std@@@std@@QEAAXXZ 000000014004e094     engine.obj
 0003:0000c0a8       $unwind$?_Free_proxy@?$_Vector_alloc@U?$_Vec_base_types@PEAVObject@@V?$allocator@PEAVObject@@@std@@@std@@@std@@QEAAXXZ 000000014004e0a8     engine.obj
 0003:0000c0bc       $unwind$?_Getpfirst@?$_Vector_alloc@U?$_Vec_base_types@PEAVObject@@V?$allocator@PEAVObject@@@std@@@std@@@std@@QEBAPEAPEAU_Iterator_base12@2@XZ 000000014004e0bc     engine.obj
 0003:0000c0d0       $unwind$?_Myproxy@?$_Vector_alloc@U?$_Vec_base_types@PEAVObject@@V?$allocator@PEAVObject@@@std@@@std@@@std@@QEAAAEAPEAU_Container_proxy@2@XZ 000000014004e0d0     engine.obj
 0003:0000c0e4       $unwind$?_Orphan_all@?$_Vector_alloc@U?$_Vec_base_types@PEAVObject@@V?$allocator@PEAVObject@@@std@@@std@@@std@@QEAAXXZ 000000014004e0e4     engine.obj
 0003:0000c0f8       $unwind$?_Getal@?$_Vector_alloc@U?$_Vec_base_types@PEAVObject@@V?$allocator@PEAVObject@@@std@@@std@@@std@@QEAAAEAV?$allocator@PEAVObject@@@2@XZ 000000014004e0f8     engine.obj
 0003:0000c10c       $unwind$?_Getal@?$_Vector_alloc@U?$_Vec_base_types@PEAVObject@@V?$allocator@PEAVObject@@@std@@@std@@@std@@QEBAAEBV?$allocator@PEAVObject@@@2@XZ 000000014004e10c     engine.obj
 0003:0000c120       $unwind$?_Get_data@?$_Vector_alloc@U?$_Vec_base_types@PEAVObject@@V?$allocator@PEAVObject@@@std@@@std@@@std@@QEAAAEAV?$_Vector_val@U?$_Simple_types@PEAVObject@@@std@@@2@XZ 000000014004e120     engine.obj
 0003:0000c134       $unwind$?_Get_data@?$_Vector_alloc@U?$_Vec_base_types@PEAVObject@@V?$allocator@PEAVObject@@@std@@@std@@@std@@QEBAAEBV?$_Vector_val@U?$_Simple_types@PEAVObject@@@std@@@2@XZ 000000014004e134     engine.obj
 0003:0000c148       $unwind$?_Myfirst@?$_Vector_alloc@U?$_Vec_base_types@PEAVObject@@V?$allocator@PEAVObject@@@std@@@std@@@std@@QEAAAEAPEAPEAVObject@@XZ 000000014004e148     engine.obj
 0003:0000c15c       $unwind$?_Myfirst@?$_Vector_alloc@U?$_Vec_base_types@PEAVObject@@V?$allocator@PEAVObject@@@std@@@std@@@std@@QEBAAEBQEAPEAVObject@@XZ 000000014004e15c     engine.obj
 0003:0000c170       $unwind$?_Mylast@?$_Vector_alloc@U?$_Vec_base_types@PEAVObject@@V?$allocator@PEAVObject@@@std@@@std@@@std@@QEAAAEAPEAPEAVObject@@XZ 000000014004e170     engine.obj
 0003:0000c184       $unwind$?_Mylast@?$_Vector_alloc@U?$_Vec_base_types@PEAVObject@@V?$allocator@PEAVObject@@@std@@@std@@@std@@QEBAAEBQEAPEAVObject@@XZ 000000014004e184     engine.obj
 0003:0000c198       $unwind$?_Myend@?$_Vector_alloc@U?$_Vec_base_types@PEAVObject@@V?$allocator@PEAVObject@@@std@@@std@@@std@@QEAAAEAPEAPEAVObject@@XZ 000000014004e198     engine.obj
 0003:0000c1ac       $unwind$?_Myend@?$_Vector_alloc@U?$_Vec_base_types@PEAVObject@@V?$allocator@PEAVObject@@@std@@@std@@@std@@QEBAAEBQEAPEAVObject@@XZ 000000014004e1ac     engine.obj
 0003:0000c1c0       $unwind$??0?$_Vector_val@U?$_Simple_types@PEAVObject@@@std@@@std@@QEAA@XZ 000000014004e1c0     engine.obj
 0003:0000c1d4       $unwind$?_Get_first@?$_Compressed_pair@V?$allocator@PEAVObject@@@std@@V?$_Vector_val@U?$_Simple_types@PEAVObject@@@std@@@2@$00@std@@QEAAAEAV?$allocator@PEAVObject@@@2@XZ 000000014004e1d4     engine.obj
 0003:0000c1e8       $unwind$?_Get_first@?$_Compressed_pair@V?$allocator@PEAVObject@@@std@@V?$_Vector_val@U?$_Simple_types@PEAVObject@@@std@@@2@$00@std@@QEBAAEBV?$allocator@PEAVObject@@@2@XZ 000000014004e1e8     engine.obj
 0003:0000c1fc       $unwind$?_Get_second@?$_Compressed_pair@V?$allocator@PEAVObject@@@std@@V?$_Vector_val@U?$_Simple_types@PEAVObject@@@std@@@2@$00@std@@QEAAAEAV?$_Vector_val@U?$_Simple_types@PEAVObject@@@std@@@2@XZ 000000014004e1fc     engine.obj
 0003:0000c210       $unwind$?_Get_second@?$_Compressed_pair@V?$allocator@PEAVObject@@@std@@V?$_Vector_val@U?$_Simple_types@PEAVObject@@@std@@@2@$00@std@@QEBAAEBV?$_Vector_val@U?$_Simple_types@PEAVObject@@@std@@@2@XZ 000000014004e210     engine.obj
 0003:0000c230       $ip2state$??0?$vector@PEAVObject@@V?$allocator@PEAVObject@@@std@@@std@@QEAA@XZ 000000014004e230     engine.obj
 0003:0000c238       $unwind$??0?$vector@PEAVObject@@V?$allocator@PEAVObject@@@std@@@std@@QEAA@XZ 000000014004e238     engine.obj
 0003:0000c258       $ip2state$??1?$vector@PEAVObject@@V?$allocator@PEAVObject@@@std@@@std@@QEAA@XZ 000000014004e258     engine.obj
 0003:0000c274       $unwind$?push_back@?$vector@PEAVObject@@V?$allocator@PEAVObject@@@std@@@std@@QEAAXAEBQEAVObject@@@Z 000000014004e274     engine.obj
 0003:0000c290       $ip2state$?clear@?$vector@PEAVObject@@V?$allocator@PEAVObject@@@std@@@std@@QEAAXXZ 000000014004e290     engine.obj
 0003:0000c2ac       $unwind$?size@?$vector@PEAVObject@@V?$allocator@PEAVObject@@@std@@@std@@QEBA_KXZ 000000014004e2ac     engine.obj
 0003:0000c2c0       $unwind$?max_size@?$vector@PEAVObject@@V?$allocator@PEAVObject@@@std@@@std@@QEBA_KXZ 000000014004e2c0     engine.obj
 0003:0000c2d4       $unwind$?capacity@?$vector@PEAVObject@@V?$allocator@PEAVObject@@@std@@@std@@QEBA_KXZ 000000014004e2d4     engine.obj
 0003:0000c2e8       $unwind$?_Has_unused_capacity@?$vector@PEAVObject@@V?$allocator@PEAVObject@@@std@@@std@@AEBA_NXZ 000000014004e2e8     engine.obj
 0003:0000c2fc       $unwind$??A?$vector@PEAVObject@@V?$allocator@PEAVObject@@@std@@@std@@QEAAAEAPEAVObject@@_K@Z 000000014004e2fc     engine.obj
 0003:0000c310       $unwind$?_Umove@?$vector@PEAVObject@@V?$allocator@PEAVObject@@@std@@@std@@AEAAPEAPEAVObject@@PEAPEAV3@00@Z 000000014004e310     engine.obj
 0003:0000c324       $unwind$?_Umove_if_noexcept1@?$vector@PEAVObject@@V?$allocator@PEAVObject@@@std@@@std@@AEAAXPEAPEAVObject@@00U?$integral_constant@_N$00@2@@Z 000000014004e324     engine.obj
 0003:0000c338       $unwind$?_Umove_if_noexcept@?$vector@PEAVObject@@V?$allocator@PEAVObject@@@std@@@std@@AEAAXPEAPEAVObject@@00@Z 000000014004e338     engine.obj
 0003:0000c34c       $unwind$?_Destroy@?$vector@PEAVObject@@V?$allocator@PEAVObject@@@std@@@std@@AEAAXPEAPEAVObject@@0@Z 000000014004e34c     engine.obj
 0003:0000c360       $unwind$?_Calculate_growth@?$vector@PEAVObject@@V?$allocator@PEAVObject@@@std@@@std@@AEBA_K_K@Z 000000014004e360     engine.obj
 0003:0000c374       $unwind$?_Change_array@?$vector@PEAVObject@@V?$allocator@PEAVObject@@@std@@@std@@AEAAXQEAPEAVObject@@_K1@Z 000000014004e374     engine.obj
 0003:0000c388       $unwind$?_Tidy@?$vector@PEAVObject@@V?$allocator@PEAVObject@@@std@@@std@@AEAAXXZ 000000014004e388     engine.obj
 0003:0000c39c       $unwind$?_Xlength@?$vector@PEAVObject@@V?$allocator@PEAVObject@@@std@@@std@@CAXXZ 000000014004e39c     engine.obj
 0003:0000c3c0       $ip2state$?_Orphan_range@?$vector@PEAVObject@@V?$allocator@PEAVObject@@@std@@@std@@AEBAXPEAPEAVObject@@0@Z 000000014004e3c0     engine.obj
 0003:0000c3dc       $stateUnwindMap$?_Orphan_range@?$vector@PEAVObject@@V?$allocator@PEAVObject@@@std@@@std@@AEBAXPEAPEAVObject@@0@Z 000000014004e3dc     engine.obj
 0003:0000c3ec       $unwind$?dtor$0@?0??_Orphan_range@?$vector@PEAVObject@@V?$allocator@PEAVObject@@@std@@@std@@AEBAXPEAPEAVObject@@0@Z@4HA 000000014004e3ec     engine.obj
 0003:0000c400       $unwind$??$emplace_back@AEBQEAVObject@@@?$vector@PEAVObject@@V?$allocator@PEAVObject@@@std@@@std@@QEAA@AEBQEAVObject@@@Z 000000014004e400     engine.obj
 0003:0000c414       $unwind$??$forward@AEBQEAVObject@@@std@@YAAEBQEAVObject@@AEBQEAV1@@Z 000000014004e414     engine.obj
 0003:0000c428       $unwind$??$_Emplace_back_with_unused_capacity@AEBQEAVObject@@@?$vector@PEAVObject@@V?$allocator@PEAVObject@@@std@@@std@@AEAA@AEBQEAVObject@@@Z 000000014004e428     engine.obj
 0003:0000c43c       $unwind$??$_Unfancy@PEAVObject@@@std@@YAPEAPEAVObject@@PEAPEAV1@@Z 000000014004e43c     engine.obj
 0003:0000c450       $unwind$??$construct@PEAVObject@@AEBQEAV1@@?$_Default_allocator_traits@V?$allocator@PEAVObject@@@std@@@std@@SAXAEAV?$allocator@PEAVObject@@@1@QEAPEAVObject@@AEBQEAV3@@Z 000000014004e450     engine.obj
 0003:0000c460       $unwind$??$_Emplace_reallocate@AEBQEAVObject@@@?$vector@PEAVObject@@V?$allocator@PEAVObject@@@std@@@std@@QEAAPEAPEAVObject@@QEAPEAV2@AEBQEAV2@@Z 000000014004e460     engine.obj
 0003:0000c480       $stateUnwindMap$??$_Emplace_reallocate@AEBQEAVObject@@@?$vector@PEAVObject@@V?$allocator@PEAVObject@@@std@@@std@@QEAAPEAPEAVObject@@QEAPEAV2@AEBQEAV2@@Z 000000014004e480     engine.obj
 0003:0000c498       $tryMap$??$_Emplace_reallocate@AEBQEAVObject@@@?$vector@PEAVObject@@V?$allocator@PEAVObject@@@std@@@std@@QEAAPEAPEAVObject@@QEAPEAV2@AEBQEAV2@@Z 000000014004e498     engine.obj
 0003:0000c4b0       $ip2state$??$_Emplace_reallocate@AEBQEAVObject@@@?$vector@PEAVObject@@V?$allocator@PEAVObject@@@std@@@std@@QEAAPEAPEAVObject@@QEAPEAV2@AEBQEAV2@@Z 000000014004e4b0     engine.obj
 0003:0000c4e4       $handlerMap$0$??$_Emplace_reallocate@AEBQEAVObject@@@?$vector@PEAVObject@@V?$allocator@PEAVObject@@@std@@@std@@QEAAPEAPEAVObject@@QEAPEAV2@AEBQEAV2@@Z 000000014004e4e4     engine.obj
 0003:0000c4fc       $unwind$?catch$0@?0???$_Emplace_reallocate@AEBQEAVObject@@@?$vector@PEAVObject@@V?$allocator@PEAVObject@@@std@@@std@@QEAAPEAPEAVObject@@QEAPEAV2@AEBQEAV2@@Z@4HA 000000014004e4fc     engine.obj
 0003:0000c510       $unwind$??$emplace_back@AEBQEAV?$Container@VWidget@@@@@?$vector@PEAV?$Container@VWidget@@@@V?$allocator@PEAV?$Container@VWidget@@@@@std@@@std@@QEAA@AEBQEAV?$Container@VWidget@@@@@Z 000000014004e510     engine.obj
 0003:0000c524       $unwind$??$forward@AEBQEAV?$Container@VWidget@@@@@std@@YAAEBQEAV?$Container@VWidget@@@@AEBQEAV1@@Z 000000014004e524     engine.obj
 0003:0000c538       $unwind$??$_Emplace_back_with_unused_capacity@AEBQEAV?$Container@VWidget@@@@@?$vector@PEAV?$Container@VWidget@@@@V?$allocator@PEAV?$Container@VWidget@@@@@std@@@std@@AEAA@AEBQEAV?$Container@VWidget@@@@@Z 000000014004e538     engine.obj
 0003:0000c54c       $unwind$??$_Unfancy@PEAV?$Container@VWidget@@@@@std@@YAPEAPEAV?$Container@VWidget@@@@PEAPEAV1@@Z 000000014004e54c     engine.obj
 0003:0000c560       $unwind$??$construct@PEAV?$Container@VWidget@@@@AEBQEAV1@@?$_Default_allocator_traits@V?$allocator@PEAV?$Container@VWidget@@@@@std@@@std@@SAXAEAV?$allocator@PEAV?$Container@VWidget@@@@@1@QEAPEAV?$Container@VWidget@@@@AEBQEAV3@@Z 000000014004e560     engine.obj
 0003:0000c570       $unwind$??$_Emplace_reallocate@AEBQEAV?$Container@VWidget@@@@@?$vector@PEAV?$Container@VWidget@@@@V?$allocator@PEAV?$Container@VWidget@@@@@std@@@std@@QEAAPEAPEAV?$Container@VWidget@@@@QEAPEAV2@AEBQEAV2@@Z 000000014004e570     engine.obj
 0003:0000c590       $stateUnwindMap$??$_Emplace_reallocate@AEBQEAV?$Container@VWidget@@@@@?$vector@PEAV?$Container@VWidget@@@@V?$allocator@PEAV?$Container@VWidget@@@@@std@@@std@@QEAAPEAPEAV?$Container@VWidget@@@@QEAPEAV2@AEBQEAV2@@Z 000000014004e590     engine.obj
 0003:0000c5a8       $tryMap$??$_Emplace_reallocate@AEBQEAV?$Container@VWidget@@@@@?$vector@PEAV?$Container@VWidget@@@@V?$allocator@PEAV?$Container@VWidget@@@@@std@@@std@@QEAAPEAPEAV?$Container@VWidget@@@@QEAPEAV2@AEBQEAV2@@Z 000000014004e5a8     engine.obj
 0003:0000c5c0       $ip2state$??$_Emplace_reallocate@AEBQEAV?$Container@VWidget@@@@@?$vector@PEAV?$Container@VWidget@@@@V?$allocator@PEAV?$Container@VWidget@@@@@std@@@std@@QEAAPEAPEAV?$Container@VWidget@@@@QEAPEAV2@AEBQEAV2@@Z 000000014004e5c0     engine.obj
 0003:0000c5f4       $handlerMap$0$??$_Emplace_reallocate@AEBQEAV?$Container@VWidget@@@@@?$vector@PEAV?$Container@VWidget@@@@V?$allocator@PEAV?$Container@VWidget@@@@@std@@@std@@QEAAPEAPEAV?$Container@VWidget@@@@QEAPEAV2@AEBQEAV2@@Z 000000014004e5f4     engine.obj
 0003:0000c60c       $unwind$?catch$0@?0???$_Emplace_reallocate@AEBQEAV?$Container@VWidget@@@@@?$vector@PEAV?$Container@VWidget@@@@V?$allocator@PEAV?$Container@VWidget@@@@@std@@@std@@QEAAPEAPEAV?$Container@VWidget@@@@QEAPEAV2@AEBQEAV2@@Z@4HA 000000014004e60c     engine.obj
 0003:0000c620       $unwind$??$?0$$V@?$_Compressed_pair@V?$allocator@PEAVObject@@@std@@V?$_Vector_val@U?$_Simple_types@PEAVObject@@@std@@@2@$00@std@@QEAA@U_Zero_then_variadic_args_t@1@@Z 000000014004e620     engine.obj
 0003:0000c634       $unwind$??$_Destroy_range@V?$allocator@PEAVObject@@@std@@@std@@YAXPEAPEAVObject@@0AEAV?$allocator@PEAVObject@@@0@@Z 000000014004e634     engine.obj
 0003:0000c648       $unwind$??$?0$$V@?$_Compressed_pair@V?$allocator@PEAV?$Container@VWidget@@@@@std@@V?$_Vector_val@U?$_Simple_types@PEAV?$Container@VWidget@@@@@std@@@2@$00@std@@QEAA@U_Zero_then_variadic_args_t@1@@Z 000000014004e648     engine.obj
 0003:0000c65c       $unwind$??$_Destroy_range@V?$allocator@PEAV?$Container@VWidget@@@@@std@@@std@@YAXPEAPEAV?$Container@VWidget@@@@0AEAV?$allocator@PEAV?$Container@VWidget@@@@@0@@Z 000000014004e65c     engine.obj
 0003:0000c680       $ip2state$??E?$_Tree_const_iterator@V?$_Tree_val@U?$_Tree_simple_types@U?$pair@$$CBW4Object_Type@@PEBVGameObject@@@std@@@std@@@std@@@std@@QEAA?AV01@H@Z 000000014004e680     engine.obj
 0003:0000c69c       $stateUnwindMap$??E?$_Tree_const_iterator@V?$_Tree_val@U?$_Tree_simple_types@U?$pair@$$CBW4Object_Type@@PEBVGameObject@@@std@@@std@@@std@@@std@@QEAA?AV01@H@Z 000000014004e69c     engine.obj
 0003:0000c6ac       $unwind$?dtor$0@?0???E?$_Tree_const_iterator@V?$_Tree_val@U?$_Tree_simple_types@U?$pair@$$CBW4Object_Type@@PEBVGameObject@@@std@@@std@@@std@@@std@@QEAA?AV01@H@Z@4HA 000000014004e6ac     engine.obj
 0003:0000c6c0       $unwind$??9?$_Tree_const_iterator@V?$_Tree_val@U?$_Tree_simple_types@U?$pair@$$CBW4Object_Type@@PEBVGameObject@@@std@@@std@@@std@@@std@@QEBA_NAEBV01@@Z 000000014004e6c0     engine.obj
 0003:0000c6d4       $unwind$??$?0PEAVObject@@@?$allocator@U_Container_proxy@std@@@std@@QEAA@AEBV?$allocator@PEAVObject@@@1@@Z 000000014004e6d4     engine.obj
 0003:0000c6e8       $unwind$??$addressof@V?$_Vector_val@U?$_Simple_types@PEAVObject@@@std@@@std@@@std@@YAPEAV?$_Vector_val@U?$_Simple_types@PEAVObject@@@std@@@0@AEAV10@@Z 000000014004e6e8     engine.obj
 0003:0000c6fc       $unwind$??$?0PEAV?$Container@VWidget@@@@@?$allocator@U_Container_proxy@std@@@std@@QEAA@AEBV?$allocator@PEAV?$Container@VWidget@@@@@1@@Z 000000014004e6fc     engine.obj
 0003:0000c710       $unwind$??$addressof@V?$_Vector_val@U?$_Simple_types@PEAV?$Container@VWidget@@@@@std@@@std@@@std@@YAPEAV?$_Vector_val@U?$_Simple_types@PEAV?$Container@VWidget@@@@@std@@@0@AEAV10@@Z 000000014004e710     engine.obj
 0003:0000c724       $unwind$??$?0U?$_Tree_node@U?$pair@$$CBW4Object_Type@@PEBVGameObject@@@std@@PEAX@std@@@?$allocator@U_Container_proxy@std@@@std@@QEAA@AEBV?$allocator@U?$_Tree_node@U?$pair@$$CBW4Object_Type@@PEBVGameObject@@@std@@PEAX@std@@@1@@Z 000000014004e724     engine.obj
 0003:0000c738       $unwind$??$?0AEBU?$less@W4Object_Type@@@std@@U_Zero_then_variadic_args_t@1@@?$_Compressed_pair@U?$less@W4Object_Type@@@std@@V?$_Compressed_pair@V?$allocator@U?$_Tree_node@U?$pair@$$CBW4Object_Type@@PEBVGameObject@@@std@@PEAX@std@@@std@@V?$_Tree_val@U?$_Tree_simple_types@U?$pair@$$CBW4Object_Type@@PEBVGameObject@@@std@@@std@@@2@$00@2@$00@std@@QEAA@U_One_then_variadic_args_t@1@AEBU?$less@W4Object_Type@@@1@$$QEAU_Zero_then_variadic_args_t@1@@Z 000000014004e738     engine.obj
 0003:0000c74c       $unwind$??$swap@DX@std@@YAXAEAD0@Z 000000014004e74c     engine.obj
 0003:0000c760       $unwind$??$_Destroy_range1@V?$allocator@PEAVObject@@@std@@@std@@YAXPEAPEAVObject@@0AEAV?$allocator@PEAVObject@@@0@U?$integral_constant@_N$00@0@@Z 000000014004e760     engine.obj
 0003:0000c774       $unwind$??$_Destroy_range1@V?$allocator@PEAV?$Container@VWidget@@@@@std@@@std@@YAXPEAPEAV?$Container@VWidget@@@@0AEAV?$allocator@PEAV?$Container@VWidget@@@@@0@U?$integral_constant@_N$00@0@@Z 000000014004e774     engine.obj
 0003:0000c788       $unwind$??$forward@AEBU?$less@W4Object_Type@@@std@@@std@@YAAEBU?$less@W4Object_Type@@@0@AEBU10@@Z 000000014004e788     engine.obj
 0003:0000c79c       $unwind$??$forward@U_Zero_then_variadic_args_t@std@@@std@@YA$$QEAU_Zero_then_variadic_args_t@0@AEAU10@@Z 000000014004e79c     engine.obj
 0003:0000c7b0       $unwind$??$?0$$V@?$_Compressed_pair@V?$allocator@U?$_Tree_node@U?$pair@$$CBW4Object_Type@@PEBVGameObject@@@std@@PEAX@std@@@std@@V?$_Tree_val@U?$_Tree_simple_types@U?$pair@$$CBW4Object_Type@@PEBVGameObject@@@std@@@std@@@2@$00@std@@QEAA@U_Zero_then_variadic_args_t@1@@Z 000000014004e7b0     engine.obj
 0003:0000c7c4       $unwind$??$move@AEAD@std@@YA$$QEADAEAD@Z 000000014004e7c4     engine.obj
 0003:0000c7d8       $unwind$??$_Uninitialized_move@PEAPEAVObject@@PEAPEAV1@V?$allocator@PEAVObject@@@std@@@std@@YAPEAPEAVObject@@QEAPEAV1@0PEAPEAV1@AEAV?$allocator@PEAVObject@@@0@@Z 000000014004e7d8     engine.obj
 0003:0000c7ec       $unwind$??$_Get_size_of_n@$07@std@@YA_K_K@Z 000000014004e7ec     engine.obj
 0003:0000c800       $unwind$??$_Uninitialized_move@PEAPEAV?$Container@VWidget@@@@PEAPEAV1@V?$allocator@PEAV?$Container@VWidget@@@@@std@@@std@@YAPEAPEAV?$Container@VWidget@@@@QEAPEAV1@0PEAPEAV1@AEAV?$allocator@PEAV?$Container@VWidget@@@@@0@@Z 000000014004e800     engine.obj
 0003:0000c814       $unwind$??$_Unchecked@PEAPEAVObject@@@std@@YAPEAPEAVObject@@PEAPEAV1@@Z 000000014004e814     engine.obj
 0003:0000c828       $unwind$??$_Ptr_move_cat@PEAVObject@@PEAV1@@std@@YA?AU_Really_trivial_ptr_iterator_tag@0@AEBQEAPEAVObject@@0@Z 000000014004e828     engine.obj
 0003:0000c83c       $unwind$??$_Uninitialized_move_al_unchecked@PEAVObject@@PEAV1@V?$allocator@PEAVObject@@@std@@@std@@YAPEAPEAVObject@@QEAPEAV1@00AEAV?$allocator@PEAVObject@@@0@U_Really_trivial_ptr_iterator_tag@0@U?$integral_constant@_N$00@0@@Z 000000014004e83c     engine.obj
 0003:0000c850       $unwind$??$_Rechecked@PEAPEAVObject@@PEAPEAV1@@std@@YAAEAPEAPEAVObject@@AEAPEAPEAV1@QEAPEAV1@@Z 000000014004e850     engine.obj
 0003:0000c864       $unwind$??$_Unchecked@PEAPEAV?$Container@VWidget@@@@@std@@YAPEAPEAV?$Container@VWidget@@@@PEAPEAV1@@Z 000000014004e864     engine.obj
 0003:0000c878       $unwind$??$_Ptr_move_cat@PEAV?$Container@VWidget@@@@PEAV1@@std@@YA?AU_Really_trivial_ptr_iterator_tag@0@AEBQEAPEAV?$Container@VWidget@@@@0@Z 000000014004e878     engine.obj
 0003:0000c88c       $unwind$??$_Uninitialized_move_al_unchecked@PEAV?$Container@VWidget@@@@PEAV1@V?$allocator@PEAV?$Container@VWidget@@@@@std@@@std@@YAPEAPEAV?$Container@VWidget@@@@QEAPEAV1@00AEAV?$allocator@PEAV?$Container@VWidget@@@@@0@U_Really_trivial_ptr_iterator_tag@0@U?$integral_constant@_N$00@0@@Z 000000014004e88c     engine.obj
 0003:0000c8a0       $unwind$??$_Rechecked@PEAPEAV?$Container@VWidget@@@@PEAPEAV1@@std@@YAAEAPEAPEAV?$Container@VWidget@@@@AEAPEAPEAV1@QEAPEAV1@@Z 000000014004e8a0     engine.obj
 0003:0000c8b4       $unwind$??$_Copy_memmove@PEAPEAVObject@@PEAPEAV1@@std@@YAPEAPEAVObject@@PEAPEAV1@00@Z 000000014004e8b4     engine.obj
 0003:0000c8c8       $unwind$WinMain            000000014004e8c8     main.obj
 0003:0000c8e4       $stateUnwindMap$WinMain    000000014004e8e4     main.obj
 0003:0000c8f0       $ip2state$WinMain          000000014004e8f0     main.obj
 0003:0000c90c       $unwind$WinMain$dtor$0     000000014004e90c     main.obj
 0003:0000c91c       $unwind$??0?$Vector2@M@sf@@QEAA@XZ 000000014004e91c     container-moving.obj
 0003:0000c930       $unwind$??0?$ContainerMoving@VWidget@@@@QEAA@AEBV?$Vector2@M@sf@@0@Z 000000014004e930     container-moving.obj
 0003:0000c94c       $stateUnwindMap$??0?$ContainerMoving@VWidget@@@@QEAA@AEBV?$Vector2@M@sf@@0@Z 000000014004e94c     container-moving.obj
 0003:0000c958       $ip2state$??0?$ContainerMoving@VWidget@@@@QEAA@AEBV?$Vector2@M@sf@@0@Z 000000014004e958     container-moving.obj
 0003:0000c974       $unwind$?dtor$0@?0???0?$ContainerMoving@VWidget@@@@QEAA@AEBV?$Vector2@M@sf@@0@Z@4HA 000000014004e974     container-moving.obj
 0003:0000c984       $unwind$??1?$ContainerMoving@VWidget@@@@UEAA@XZ 000000014004e984     container-moving.obj
 0003:0000c998       $unwind$?SetMoveBeginListener@?$ContainerMoving@VWidget@@@@QEAAXP6APEAVWidget@@PEAV2@@Z@Z 000000014004e998     container-moving.obj
 0003:0000c9ac       $unwind$?SetMovingListener@?$ContainerMoving@VWidget@@@@QEAAXP6AXPEAVWidget@@@Z@Z 000000014004e9ac     container-moving.obj
 0003:0000c9c0       $unwind$?SetMoveEndListener@?$ContainerMoving@VWidget@@@@QEAAXP6AXPEAVWidget@@@Z@Z 000000014004e9c0     container-moving.obj
 0003:0000c9d4       $unwind$?HandleEvent@?$ContainerMoving@VWidget@@@@UEAAXAEBVEvent@sf@@@Z 000000014004e9d4     container-moving.obj
 0003:0000c9e8       $unwind$??_G?$ContainerMoving@VWidget@@@@UEAAPEAXI@Z 000000014004e9e8     container-moving.obj
 0003:0000c9fc       $unwind$fabsf              000000014004e9fc     game-object.obj
 0003:0000ca10       $unwind$?fabs@@YAMM@Z      000000014004ea10     game-object.obj
 0003:0000ca24       $unwind$??0?$basic_string@DU?$char_traits@D@std@@V?$allocator@D@2@@std@@QEAA@XZ 000000014004ea24     game-object.obj
 0003:0000ca40       $ip2state$??0?$basic_string@DU?$char_traits@D@std@@V?$allocator@D@2@@std@@QEAA@XZ 000000014004ea40     game-object.obj
 0003:0000ca48       $unwind$??0ID@@QEAA@XZ     000000014004ea48     game-object.obj
 0003:0000ca5c       $unwind$??1ID@@QEAA@XZ     000000014004ea5c     game-object.obj
 0003:0000ca70       $unwind$?Generate@ID@@QEAAXXZ 000000014004ea70     game-object.obj
 0003:0000ca84       $unwind$??0GameObject@@QEAA@PEBD@Z 000000014004ea84     game-object.obj
 0003:0000caa4       $stateUnwindMap$??0GameObject@@QEAA@PEBD@Z 000000014004eaa4     game-object.obj
 0003:0000cac0       $ip2state$??0GameObject@@QEAA@PEBD@Z 000000014004eac0     game-object.obj
 0003:0000caf4       $unwind$?dtor$0@?0???0GameObject@@QEAA@PEBD@Z@4HA 000000014004eaf4     game-object.obj
 0003:0000cb04       $unwind$?dtor$1@?0???0GameObject@@QEAA@PEBD@Z@4HA 000000014004eb04     game-object.obj
 0003:0000cb14       $unwind$?dtor$2@?0???0GameObject@@QEAA@PEBD@Z@4HA 000000014004eb14     game-object.obj
 0003:0000cb24       $unwind$??0GameObject@@QEAA@PEBV0@@Z 000000014004eb24     game-object.obj
 0003:0000cb40       $stateUnwindMap$??0GameObject@@QEAA@PEBV0@@Z 000000014004eb40     game-object.obj
 0003:0000cb58       $ip2state$??0GameObject@@QEAA@PEBV0@@Z 000000014004eb58     game-object.obj
 0003:0000cb7c       $unwind$?dtor$0@?0???0GameObject@@QEAA@PEBV0@@Z@4HA 000000014004eb7c     game-object.obj
 0003:0000cb8c       $unwind$?dtor$1@?0???0GameObject@@QEAA@PEBV0@@Z@4HA 000000014004eb8c     game-object.obj
 0003:0000cb9c       $unwind$??1GameObject@@UEAA@XZ 000000014004eb9c     game-object.obj
 0003:0000cbb0       $unwind$?Create@GameObject@@SAPEBV1@PEBD@Z 000000014004ebb0     game-object.obj
 0003:0000cbd0       $stateUnwindMap$?Create@GameObject@@SAPEBV1@PEBD@Z 000000014004ebd0     game-object.obj
 0003:0000cbe0       $ip2state$?Create@GameObject@@SAPEBV1@PEBD@Z 000000014004ebe0     game-object.obj
 0003:0000cc30       $unwind$?dtor$0@?0??Create@GameObject@@SAPEBV1@PEBD@Z@4HA 000000014004ec30     game-object.obj
 0003:0000cc40       $unwind$?GetVelocity@GameObject@@QEBA?AV?$Vector2@M@sf@@XZ 000000014004ec40     game-object.obj
 0003:0000cc54       $unwind$?SetVelocity@GameObject@@QEAAXAEBV?$Vector2@M@sf@@@Z 000000014004ec54     game-object.obj
 0003:0000cc68       $unwind$?GetDirection@GameObject@@QEBA?AV?$Vector2@M@sf@@XZ 000000014004ec68     game-object.obj
 0003:0000cc7c       $unwind$?GetGroup@GameObject@@QEBA_KXZ 000000014004ec7c     game-object.obj
 0003:0000cc90       $unwind$?SetGroup@GameObject@@QEAAX_K@Z 000000014004ec90     game-object.obj
 0003:0000cca4       $unwind$?SetType@GameObject@@QEAAX_K@Z 000000014004eca4     game-object.obj
 0003:0000ccb8       $unwind$?GetType@GameObject@@QEBA?AW4Object_Type@@XZ 000000014004ecb8     game-object.obj
 0003:0000cccc       $unwind$?GetHealth@GameObject@@QEBAHXZ 000000014004eccc     game-object.obj
 0003:0000cce0       $unwind$?CheckIntersect@GameObject@@QEBA_NPEBV1@VTime@sf@@@Z 000000014004ece0     game-object.obj
 0003:0000ccf4       $unwind$?CheckIntersectX@GameObject@@QEBA_NPEBV1@VTime@sf@@@Z 000000014004ecf4     game-object.obj
 0003:0000cd08       $unwind$?CheckIntersectY@GameObject@@QEBA_NPEBV1@VTime@sf@@@Z 000000014004ed08     game-object.obj
 0003:0000cd1c       $unwind$?Update@GameObject@@UEAAXAEBVTime@sf@@@Z 000000014004ed1c     game-object.obj
 0003:0000cd30       $unwind$?calculateDirection@GameObject@@AEAAXXZ 000000014004ed30     game-object.obj
 0003:0000cd44       $unwind$?CreateImpl@GameObject@@CAPEAV1@W4Object_Type@@PEBD@Z 000000014004ed44     game-object.obj
 0003:0000cd60       $stateUnwindMap$?CreateImpl@GameObject@@CAPEAV1@W4Object_Type@@PEBD@Z 000000014004ed60     game-object.obj
 0003:0000cd84       $tryMap$?CreateImpl@GameObject@@CAPEAV1@W4Object_Type@@PEBD@Z 000000014004ed84     game-object.obj
 0003:0000cd9c       $handlerMap$0$?CreateImpl@GameObject@@CAPEAV1@W4Object_Type@@PEBD@Z 000000014004ed9c     game-object.obj
 0003:0000cdc0       $ip2state$?CreateImpl@GameObject@@CAPEAV1@W4Object_Type@@PEBD@Z 000000014004edc0     game-object.obj
 0003:0000ce18       $unwind$?dtor$0@?0??CreateImpl@GameObject@@CAPEAV1@W4Object_Type@@PEBD@Z@4HA 000000014004ee18     game-object.obj
 0003:0000ce28       $unwind$?dtor$1@?0??CreateImpl@GameObject@@CAPEAV1@W4Object_Type@@PEBD@Z@4HA 000000014004ee28     game-object.obj
 0003:0000ce38       $unwind$?catch$2@?0??CreateImpl@GameObject@@CAPEAV1@W4Object_Type@@PEBD@Z@4HA 000000014004ee38     game-object.obj
 0003:0000ce50       $unwind$??_GGameObject@@UEAAPEAXI@Z 000000014004ee50     game-object.obj
 0003:0000ce64       $unwind$??0MenuWindow@@QEAA@PEAVEngine@@AEBV?$Vector2@M@sf@@1@Z 000000014004ee64     menu-window.obj
 0003:0000ce80       $stateUnwindMap$??0MenuWindow@@QEAA@PEAVEngine@@AEBV?$Vector2@M@sf@@1@Z 000000014004ee80     menu-window.obj
 0003:0000ceb0       $ip2state$??0MenuWindow@@QEAA@PEAVEngine@@AEBV?$Vector2@M@sf@@1@Z 000000014004eeb0     menu-window.obj
 0003:0000cf00       $unwind$?dtor$0@?0???0MenuWindow@@QEAA@PEAVEngine@@AEBV?$Vector2@M@sf@@1@Z@4HA 000000014004ef00     menu-window.obj
 0003:0000cf10       $unwind$?dtor$1@?0???0MenuWindow@@QEAA@PEAVEngine@@AEBV?$Vector2@M@sf@@1@Z@4HA 000000014004ef10     menu-window.obj
 0003:0000cf20       $unwind$?dtor$3@?0???0MenuWindow@@QEAA@PEAVEngine@@AEBV?$Vector2@M@sf@@1@Z@4HA 000000014004ef20     menu-window.obj
 0003:0000cf30       $unwind$?dtor$5@?0???0MenuWindow@@QEAA@PEAVEngine@@AEBV?$Vector2@M@sf@@1@Z@4HA 000000014004ef30     menu-window.obj
 0003:0000cf40       $unwind$??1MenuWindow@@UEAA@XZ 000000014004ef40     menu-window.obj
 0003:0000cf54       $unwind$?onStartClicked@MenuWindow@@AEAAXPEAVButton@@@Z 000000014004ef54     menu-window.obj
 0003:0000cf70       $stateUnwindMap$?onStartClicked@MenuWindow@@AEAAXPEAVButton@@@Z 000000014004ef70     menu-window.obj
 0003:0000cf78       $ip2state$?onStartClicked@MenuWindow@@AEAAXPEAVButton@@@Z 000000014004ef78     menu-window.obj
 0003:0000cf94       $unwind$?dtor$0@?0??onStartClicked@MenuWindow@@AEAAXPEAVButton@@@Z@4HA 000000014004ef94     menu-window.obj
 0003:0000cfa4       $unwind$?onEditorClicked@MenuWindow@@AEAAXPEAVButton@@@Z 000000014004efa4     menu-window.obj
 0003:0000cfb8       $unwind$?onExitClicked@MenuWindow@@AEAAXPEAVButton@@@Z 000000014004efb8     menu-window.obj
 0003:0000cfcc       $unwind$??_GMenuWindow@@UEAAPEAXI@Z 000000014004efcc     menu-window.obj
 0003:0000cfe0       $unwind$??R<lambda_668a1179af56ef880bbabaf92a5d9839>@@QEBAXPEAVButton@@@Z 000000014004efe0     menu-window.obj
 0003:0000cff4       $unwind$??0<lambda_668a1179af56ef880bbabaf92a5d9839>@@QEAA@QEAVMenuWindow@@@Z 000000014004eff4     menu-window.obj
 0003:0000d008       $unwind$??$forward@AEAV<lambda_668a1179af56ef880bbabaf92a5d9839>@@@std@@YAAEAV<lambda_668a1179af56ef880bbabaf92a5d9839>@@AEAV1@@Z 000000014004f008     menu-window.obj
 0003:0000d01c       $unwind$??$_Call@AEAV<lambda_668a1179af56ef880bbabaf92a5d9839>@@PEAVButton@@@_Invoker_functor@std@@SAXAEAV<lambda_668a1179af56ef880bbabaf92a5d9839>@@$$QEAPEAVButton@@@Z 000000014004f01c     menu-window.obj
 0003:0000d030       $unwind$??$invoke@AEAV<lambda_668a1179af56ef880bbabaf92a5d9839>@@PEAVButton@@@std@@YAXAEAV<lambda_668a1179af56ef880bbabaf92a5d9839>@@$$QEAPEAVButton@@@Z 000000014004f030     menu-window.obj
 0003:0000d044       $unwind$??$?0V<lambda_668a1179af56ef880bbabaf92a5d9839>@@X@?$function@$$A6AXPEAVButton@@@Z@std@@QEAA@V<lambda_668a1179af56ef880bbabaf92a5d9839>@@@Z 000000014004f044     menu-window.obj
 0003:0000d060       $stateUnwindMap$??$?0V<lambda_668a1179af56ef880bbabaf92a5d9839>@@X@?$function@$$A6AXPEAVButton@@@Z@std@@QEAA@V<lambda_668a1179af56ef880bbabaf92a5d9839>@@@Z 000000014004f060     menu-window.obj
 0003:0000d068       $ip2state$??$?0V<lambda_668a1179af56ef880bbabaf92a5d9839>@@X@?$function@$$A6AXPEAVButton@@@Z@std@@QEAA@V<lambda_668a1179af56ef880bbabaf92a5d9839>@@@Z 000000014004f068     menu-window.obj
 0003:0000d084       $unwind$?dtor$0@?0???$?0V<lambda_668a1179af56ef880bbabaf92a5d9839>@@X@?$function@$$A6AXPEAVButton@@@Z@std@@QEAA@V<lambda_668a1179af56ef880bbabaf92a5d9839>@@@Z@4HA 000000014004f084     menu-window.obj
 0003:0000d094       $unwind$??R<lambda_312b3f49165ee8dbe2e5837b3ce31c90>@@QEBAXPEAVButton@@@Z 000000014004f094     menu-window.obj
 0003:0000d0a8       $unwind$??0<lambda_312b3f49165ee8dbe2e5837b3ce31c90>@@QEAA@QEAVMenuWindow@@@Z 000000014004f0a8     menu-window.obj
 0003:0000d0bc       $unwind$??$forward@AEAV<lambda_312b3f49165ee8dbe2e5837b3ce31c90>@@@std@@YAAEAV<lambda_312b3f49165ee8dbe2e5837b3ce31c90>@@AEAV1@@Z 000000014004f0bc     menu-window.obj
 0003:0000d0d0       $unwind$??$_Call@AEAV<lambda_312b3f49165ee8dbe2e5837b3ce31c90>@@PEAVButton@@@_Invoker_functor@std@@SAXAEAV<lambda_312b3f49165ee8dbe2e5837b3ce31c90>@@$$QEAPEAVButton@@@Z 000000014004f0d0     menu-window.obj
 0003:0000d0e4       $unwind$??$invoke@AEAV<lambda_312b3f49165ee8dbe2e5837b3ce31c90>@@PEAVButton@@@std@@YAXAEAV<lambda_312b3f49165ee8dbe2e5837b3ce31c90>@@$$QEAPEAVButton@@@Z 000000014004f0e4     menu-window.obj
 0003:0000d0f8       $unwind$??$?0V<lambda_312b3f49165ee8dbe2e5837b3ce31c90>@@X@?$function@$$A6AXPEAVButton@@@Z@std@@QEAA@V<lambda_312b3f49165ee8dbe2e5837b3ce31c90>@@@Z 000000014004f0f8     menu-window.obj
 0003:0000d114       $stateUnwindMap$??$?0V<lambda_312b3f49165ee8dbe2e5837b3ce31c90>@@X@?$function@$$A6AXPEAVButton@@@Z@std@@QEAA@V<lambda_312b3f49165ee8dbe2e5837b3ce31c90>@@@Z 000000014004f114     menu-window.obj
 0003:0000d120       $ip2state$??$?0V<lambda_312b3f49165ee8dbe2e5837b3ce31c90>@@X@?$function@$$A6AXPEAVButton@@@Z@std@@QEAA@V<lambda_312b3f49165ee8dbe2e5837b3ce31c90>@@@Z 000000014004f120     menu-window.obj
 0003:0000d13c       $unwind$?dtor$0@?0???$?0V<lambda_312b3f49165ee8dbe2e5837b3ce31c90>@@X@?$function@$$A6AXPEAVButton@@@Z@std@@QEAA@V<lambda_312b3f49165ee8dbe2e5837b3ce31c90>@@@Z@4HA 000000014004f13c     menu-window.obj
 0003:0000d14c       $unwind$??R<lambda_5f2a59844b8069354d5a17d44e450129>@@QEBAXPEAVButton@@@Z 000000014004f14c     menu-window.obj
 0003:0000d160       $unwind$??0<lambda_5f2a59844b8069354d5a17d44e450129>@@QEAA@QEAVMenuWindow@@@Z 000000014004f160     menu-window.obj
 0003:0000d174       $unwind$??$forward@AEAV<lambda_5f2a59844b8069354d5a17d44e450129>@@@std@@YAAEAV<lambda_5f2a59844b8069354d5a17d44e450129>@@AEAV1@@Z 000000014004f174     menu-window.obj
 0003:0000d188       $unwind$??$_Call@AEAV<lambda_5f2a59844b8069354d5a17d44e450129>@@PEAVButton@@@_Invoker_functor@std@@SAXAEAV<lambda_5f2a59844b8069354d5a17d44e450129>@@$$QEAPEAVButton@@@Z 000000014004f188     menu-window.obj
 0003:0000d19c       $unwind$??$invoke@AEAV<lambda_5f2a59844b8069354d5a17d44e450129>@@PEAVButton@@@std@@YAXAEAV<lambda_5f2a59844b8069354d5a17d44e450129>@@$$QEAPEAVButton@@@Z 000000014004f19c     menu-window.obj
 0003:0000d1b0       $unwind$??$?0V<lambda_5f2a59844b8069354d5a17d44e450129>@@X@?$function@$$A6AXPEAVButton@@@Z@std@@QEAA@V<lambda_5f2a59844b8069354d5a17d44e450129>@@@Z 000000014004f1b0     menu-window.obj
 0003:0000d1cc       $stateUnwindMap$??$?0V<lambda_5f2a59844b8069354d5a17d44e450129>@@X@?$function@$$A6AXPEAVButton@@@Z@std@@QEAA@V<lambda_5f2a59844b8069354d5a17d44e450129>@@@Z 000000014004f1cc     menu-window.obj
 0003:0000d1d8       $ip2state$??$?0V<lambda_5f2a59844b8069354d5a17d44e450129>@@X@?$function@$$A6AXPEAVButton@@@Z@std@@QEAA@V<lambda_5f2a59844b8069354d5a17d44e450129>@@@Z 000000014004f1d8     menu-window.obj
 0003:0000d1f4       $unwind$?dtor$0@?0???$?0V<lambda_5f2a59844b8069354d5a17d44e450129>@@X@?$function@$$A6AXPEAVButton@@@Z@std@@QEAA@V<lambda_5f2a59844b8069354d5a17d44e450129>@@@Z@4HA 000000014004f1f4     menu-window.obj
 0003:0000d204       $unwind$??0?$_Func_base@XPEAVButton@@@std@@QEAA@XZ 000000014004f204     menu-window.obj
 0003:0000d218       $unwind$??$move@AEAV<lambda_668a1179af56ef880bbabaf92a5d9839>@@@std@@YA$$QEAV<lambda_668a1179af56ef880bbabaf92a5d9839>@@AEAV1@@Z 000000014004f218     menu-window.obj
 0003:0000d22c       $unwind$??$_Reset@V<lambda_668a1179af56ef880bbabaf92a5d9839>@@@?$_Func_class@XPEAVButton@@@std@@IEAAX$$QEAV<lambda_668a1179af56ef880bbabaf92a5d9839>@@@Z 000000014004f22c     menu-window.obj
 0003:0000d240       $unwind$??$move@AEAV<lambda_312b3f49165ee8dbe2e5837b3ce31c90>@@@std@@YA$$QEAV<lambda_312b3f49165ee8dbe2e5837b3ce31c90>@@AEAV1@@Z 000000014004f240     menu-window.obj
 0003:0000d254       $unwind$??$_Reset@V<lambda_312b3f49165ee8dbe2e5837b3ce31c90>@@@?$_Func_class@XPEAVButton@@@std@@IEAAX$$QEAV<lambda_312b3f49165ee8dbe2e5837b3ce31c90>@@@Z 000000014004f254     menu-window.obj
 0003:0000d268       $unwind$??$move@AEAV<lambda_5f2a59844b8069354d5a17d44e450129>@@@std@@YA$$QEAV<lambda_5f2a59844b8069354d5a17d44e450129>@@AEAV1@@Z 000000014004f268     menu-window.obj
 0003:0000d27c       $unwind$??$_Reset@V<lambda_5f2a59844b8069354d5a17d44e450129>@@@?$_Func_class@XPEAVButton@@@std@@IEAAX$$QEAV<lambda_5f2a59844b8069354d5a17d44e450129>@@@Z 000000014004f27c     menu-window.obj
 0003:0000d290       $unwind$??$_Test_callable@V<lambda_668a1179af56ef880bbabaf92a5d9839>@@@std@@YA_NAEBV<lambda_668a1179af56ef880bbabaf92a5d9839>@@@Z 000000014004f290     menu-window.obj
 0003:0000d2a4       $unwind$??$forward@V<lambda_668a1179af56ef880bbabaf92a5d9839>@@@std@@YA$$QEAV<lambda_668a1179af56ef880bbabaf92a5d9839>@@AEAV1@@Z 000000014004f2a4     menu-window.obj
 0003:0000d2b8       $unwind$?_Copy@?$_Func_impl_no_alloc@V<lambda_668a1179af56ef880bbabaf92a5d9839>@@XPEAVButton@@@std@@EEBAPEAV?$_Func_base@XPEAVButton@@@2@PEAX@Z 000000014004f2b8     menu-window.obj
 0003:0000d2cc       $unwind$?_Clone@?$_Func_impl_no_alloc@V<lambda_668a1179af56ef880bbabaf92a5d9839>@@XPEAVButton@@@std@@AEBAPEAV?$_Func_base@XPEAVButton@@@2@PEAXU?$integral_constant@_N$0A@@2@@Z 000000014004f2cc     menu-window.obj
 0003:0000d2e0       $unwind$?_Move@?$_Func_impl_no_alloc@V<lambda_668a1179af56ef880bbabaf92a5d9839>@@XPEAVButton@@@std@@EEAAPEAV?$_Func_base@XPEAVButton@@@2@PEAX@Z 000000014004f2e0     menu-window.obj
 0003:0000d2f4       $unwind$?_Do_call@?$_Func_impl_no_alloc@V<lambda_668a1179af56ef880bbabaf92a5d9839>@@XPEAVButton@@@std@@EEAAX$$QEAPEAVButton@@@Z 000000014004f2f4     menu-window.obj
 0003:0000d308       $unwind$?_Target_type@?$_Func_impl_no_alloc@V<lambda_668a1179af56ef880bbabaf92a5d9839>@@XPEAVButton@@@std@@EEBAAEBVtype_info@@XZ 000000014004f308     menu-window.obj
 0003:0000d31c       $unwind$?_Get@?$_Func_impl_no_alloc@V<lambda_668a1179af56ef880bbabaf92a5d9839>@@XPEAVButton@@@std@@EEBAPEBXXZ 000000014004f31c     menu-window.obj
 0003:0000d330       $unwind$?_Delete_this@?$_Func_impl_no_alloc@V<lambda_668a1179af56ef880bbabaf92a5d9839>@@XPEAVButton@@@std@@EEAAX_N@Z 000000014004f330     menu-window.obj
 0003:0000d350       $ip2state$?_Delete_this@?$_Func_impl_no_alloc@V<lambda_668a1179af56ef880bbabaf92a5d9839>@@XPEAVButton@@@std@@EEAAX_N@Z 000000014004f350     menu-window.obj
 0003:0000d358       $unwind$??$_Reset_impl@V?$_Func_impl_no_alloc@V<lambda_668a1179af56ef880bbabaf92a5d9839>@@XPEAVButton@@@std@@V<lambda_668a1179af56ef880bbabaf92a5d9839>@@@?$_Func_class@XPEAVButton@@@std@@IEAAX$$QEAV<lambda_668a1179af56ef880bbabaf92a5d9839>@@U?$integral_constant@_N$0A@@1@@Z 000000014004f358     menu-window.obj
 0003:0000d36c       $unwind$??$_Test_callable@V<lambda_312b3f49165ee8dbe2e5837b3ce31c90>@@@std@@YA_NAEBV<lambda_312b3f49165ee8dbe2e5837b3ce31c90>@@@Z 000000014004f36c     menu-window.obj
 0003:0000d380       $unwind$??$forward@V<lambda_312b3f49165ee8dbe2e5837b3ce31c90>@@@std@@YA$$QEAV<lambda_312b3f49165ee8dbe2e5837b3ce31c90>@@AEAV1@@Z 000000014004f380     menu-window.obj
 0003:0000d394       $unwind$?_Copy@?$_Func_impl_no_alloc@V<lambda_312b3f49165ee8dbe2e5837b3ce31c90>@@XPEAVButton@@@std@@EEBAPEAV?$_Func_base@XPEAVButton@@@2@PEAX@Z 000000014004f394     menu-window.obj
 0003:0000d3a8       $unwind$?_Clone@?$_Func_impl_no_alloc@V<lambda_312b3f49165ee8dbe2e5837b3ce31c90>@@XPEAVButton@@@std@@AEBAPEAV?$_Func_base@XPEAVButton@@@2@PEAXU?$integral_constant@_N$0A@@2@@Z 000000014004f3a8     menu-window.obj
 0003:0000d3bc       $unwind$?_Move@?$_Func_impl_no_alloc@V<lambda_312b3f49165ee8dbe2e5837b3ce31c90>@@XPEAVButton@@@std@@EEAAPEAV?$_Func_base@XPEAVButton@@@2@PEAX@Z 000000014004f3bc     menu-window.obj
 0003:0000d3d0       $unwind$?_Do_call@?$_Func_impl_no_alloc@V<lambda_312b3f49165ee8dbe2e5837b3ce31c90>@@XPEAVButton@@@std@@EEAAX$$QEAPEAVButton@@@Z 000000014004f3d0     menu-window.obj
 0003:0000d3e4       $unwind$?_Target_type@?$_Func_impl_no_alloc@V<lambda_312b3f49165ee8dbe2e5837b3ce31c90>@@XPEAVButton@@@std@@EEBAAEBVtype_info@@XZ 000000014004f3e4     menu-window.obj
 0003:0000d3f8       $unwind$?_Get@?$_Func_impl_no_alloc@V<lambda_312b3f49165ee8dbe2e5837b3ce31c90>@@XPEAVButton@@@std@@EEBAPEBXXZ 000000014004f3f8     menu-window.obj
 0003:0000d40c       $unwind$?_Delete_this@?$_Func_impl_no_alloc@V<lambda_312b3f49165ee8dbe2e5837b3ce31c90>@@XPEAVButton@@@std@@EEAAX_N@Z 000000014004f40c     menu-window.obj
 0003:0000d428       $ip2state$?_Delete_this@?$_Func_impl_no_alloc@V<lambda_312b3f49165ee8dbe2e5837b3ce31c90>@@XPEAVButton@@@std@@EEAAX_N@Z 000000014004f428     menu-window.obj
 0003:0000d430       $unwind$??$_Reset_impl@V?$_Func_impl_no_alloc@V<lambda_312b3f49165ee8dbe2e5837b3ce31c90>@@XPEAVButton@@@std@@V<lambda_312b3f49165ee8dbe2e5837b3ce31c90>@@@?$_Func_class@XPEAVButton@@@std@@IEAAX$$QEAV<lambda_312b3f49165ee8dbe2e5837b3ce31c90>@@U?$integral_constant@_N$0A@@1@@Z 000000014004f430     menu-window.obj
 0003:0000d444       $unwind$??$_Test_callable@V<lambda_5f2a59844b8069354d5a17d44e450129>@@@std@@YA_NAEBV<lambda_5f2a59844b8069354d5a17d44e450129>@@@Z 000000014004f444     menu-window.obj
 0003:0000d458       $unwind$??$forward@V<lambda_5f2a59844b8069354d5a17d44e450129>@@@std@@YA$$QEAV<lambda_5f2a59844b8069354d5a17d44e450129>@@AEAV1@@Z 000000014004f458     menu-window.obj
 0003:0000d46c       $unwind$?_Copy@?$_Func_impl_no_alloc@V<lambda_5f2a59844b8069354d5a17d44e450129>@@XPEAVButton@@@std@@EEBAPEAV?$_Func_base@XPEAVButton@@@2@PEAX@Z 000000014004f46c     menu-window.obj
 0003:0000d480       $unwind$?_Clone@?$_Func_impl_no_alloc@V<lambda_5f2a59844b8069354d5a17d44e450129>@@XPEAVButton@@@std@@AEBAPEAV?$_Func_base@XPEAVButton@@@2@PEAXU?$integral_constant@_N$0A@@2@@Z 000000014004f480     menu-window.obj
 0003:0000d494       $unwind$?_Move@?$_Func_impl_no_alloc@V<lambda_5f2a59844b8069354d5a17d44e450129>@@XPEAVButton@@@std@@EEAAPEAV?$_Func_base@XPEAVButton@@@2@PEAX@Z 000000014004f494     menu-window.obj
 0003:0000d4a8       $unwind$?_Do_call@?$_Func_impl_no_alloc@V<lambda_5f2a59844b8069354d5a17d44e450129>@@XPEAVButton@@@std@@EEAAX$$QEAPEAVButton@@@Z 000000014004f4a8     menu-window.obj
 0003:0000d4bc       $unwind$?_Target_type@?$_Func_impl_no_alloc@V<lambda_5f2a59844b8069354d5a17d44e450129>@@XPEAVButton@@@std@@EEBAAEBVtype_info@@XZ 000000014004f4bc     menu-window.obj
 0003:0000d4d0       $unwind$?_Get@?$_Func_impl_no_alloc@V<lambda_5f2a59844b8069354d5a17d44e450129>@@XPEAVButton@@@std@@EEBAPEBXXZ 000000014004f4d0     menu-window.obj
 0003:0000d4e4       $unwind$?_Delete_this@?$_Func_impl_no_alloc@V<lambda_5f2a59844b8069354d5a17d44e450129>@@XPEAVButton@@@std@@EEAAX_N@Z 000000014004f4e4     menu-window.obj
 0003:0000d500       $ip2state$?_Delete_this@?$_Func_impl_no_alloc@V<lambda_5f2a59844b8069354d5a17d44e450129>@@XPEAVButton@@@std@@EEAAX_N@Z 000000014004f500     menu-window.obj
 0003:0000d508       $unwind$??$_Reset_impl@V?$_Func_impl_no_alloc@V<lambda_5f2a59844b8069354d5a17d44e450129>@@XPEAVButton@@@std@@V<lambda_5f2a59844b8069354d5a17d44e450129>@@@?$_Func_class@XPEAVButton@@@std@@IEAAX$$QEAV<lambda_5f2a59844b8069354d5a17d44e450129>@@U?$integral_constant@_N$0A@@1@@Z 000000014004f508     menu-window.obj
 0003:0000d51c       $unwind$??$_Deallocate@$07$0A@@std@@YAXPEAX_K@Z 000000014004f51c     menu-window.obj
 0003:0000d530       $unwind$??$addressof@$$CBV<lambda_5f2a59844b8069354d5a17d44e450129>@@@std@@YAPEBV<lambda_5f2a59844b8069354d5a17d44e450129>@@AEBV1@@Z 000000014004f530     menu-window.obj
 0003:0000d544       $unwind$??$?0V<lambda_5f2a59844b8069354d5a17d44e450129>@@X@?$_Func_impl_no_alloc@V<lambda_5f2a59844b8069354d5a17d44e450129>@@XPEAVButton@@@std@@QEAA@$$QEAV<lambda_5f2a59844b8069354d5a17d44e450129>@@@Z 000000014004f544     menu-window.obj
 0003:0000d558       $unwind$??$addressof@$$CBV<lambda_312b3f49165ee8dbe2e5837b3ce31c90>@@@std@@YAPEBV<lambda_312b3f49165ee8dbe2e5837b3ce31c90>@@AEBV1@@Z 000000014004f558     menu-window.obj
 0003:0000d56c       $unwind$??$?0V<lambda_312b3f49165ee8dbe2e5837b3ce31c90>@@X@?$_Func_impl_no_alloc@V<lambda_312b3f49165ee8dbe2e5837b3ce31c90>@@XPEAVButton@@@std@@QEAA@$$QEAV<lambda_312b3f49165ee8dbe2e5837b3ce31c90>@@@Z 000000014004f56c     menu-window.obj
 0003:0000d580       $unwind$??$addressof@$$CBV<lambda_668a1179af56ef880bbabaf92a5d9839>@@@std@@YAPEBV<lambda_668a1179af56ef880bbabaf92a5d9839>@@AEBV1@@Z 000000014004f580     menu-window.obj
 0003:0000d594       $unwind$??$?0V<lambda_668a1179af56ef880bbabaf92a5d9839>@@X@?$_Func_impl_no_alloc@V<lambda_668a1179af56ef880bbabaf92a5d9839>@@XPEAVButton@@@std@@QEAA@$$QEAV<lambda_668a1179af56ef880bbabaf92a5d9839>@@@Z 000000014004f594     menu-window.obj
 0003:0000d5a8       $unwind$??$?0AEBV<lambda_5f2a59844b8069354d5a17d44e450129>@@X@?$_Func_impl_no_alloc@V<lambda_5f2a59844b8069354d5a17d44e450129>@@XPEAVButton@@@std@@QEAA@AEBV<lambda_5f2a59844b8069354d5a17d44e450129>@@@Z 000000014004f5a8     menu-window.obj
 0003:0000d5bc       $unwind$??$?0AEBV<lambda_312b3f49165ee8dbe2e5837b3ce31c90>@@X@?$_Func_impl_no_alloc@V<lambda_312b3f49165ee8dbe2e5837b3ce31c90>@@XPEAVButton@@@std@@QEAA@AEBV<lambda_312b3f49165ee8dbe2e5837b3ce31c90>@@@Z 000000014004f5bc     menu-window.obj
 0003:0000d5d0       $unwind$??$?0AEBV<lambda_668a1179af56ef880bbabaf92a5d9839>@@X@?$_Func_impl_no_alloc@V<lambda_668a1179af56ef880bbabaf92a5d9839>@@XPEAVButton@@@std@@QEAA@AEBV<lambda_668a1179af56ef880bbabaf92a5d9839>@@@Z 000000014004f5d0     menu-window.obj
 0003:0000d5e4       $unwind$??$_Test_callable@V<lambda_668a1179af56ef880bbabaf92a5d9839>@@@std@@YA_NAEBV<lambda_668a1179af56ef880bbabaf92a5d9839>@@U?$integral_constant@_N$0A@@0@@Z 000000014004f5e4     menu-window.obj
 0003:0000d5f8       $unwind$??$_Call@AEAV<lambda_668a1179af56ef880bbabaf92a5d9839>@@PEAVButton@@@?$_Invoker_ret@X$00@std@@SAXAEAV<lambda_668a1179af56ef880bbabaf92a5d9839>@@$$QEAPEAVButton@@@Z 000000014004f5f8     menu-window.obj
 0003:0000d60c       $unwind$??$_Test_callable@V<lambda_312b3f49165ee8dbe2e5837b3ce31c90>@@@std@@YA_NAEBV<lambda_312b3f49165ee8dbe2e5837b3ce31c90>@@U?$integral_constant@_N$0A@@0@@Z 000000014004f60c     menu-window.obj
 0003:0000d620       $unwind$??$_Call@AEAV<lambda_312b3f49165ee8dbe2e5837b3ce31c90>@@PEAVButton@@@?$_Invoker_ret@X$00@std@@SAXAEAV<lambda_312b3f49165ee8dbe2e5837b3ce31c90>@@$$QEAPEAVButton@@@Z 000000014004f620     menu-window.obj
 0003:0000d634       $unwind$??$_Test_callable@V<lambda_5f2a59844b8069354d5a17d44e450129>@@@std@@YA_NAEBV<lambda_5f2a59844b8069354d5a17d44e450129>@@U?$integral_constant@_N$0A@@0@@Z 000000014004f634     menu-window.obj
 0003:0000d648       $unwind$??$_Call@AEAV<lambda_5f2a59844b8069354d5a17d44e450129>@@PEAVButton@@@?$_Invoker_ret@X$00@std@@SAXAEAV<lambda_5f2a59844b8069354d5a17d44e450129>@@$$QEAPEAVButton@@@Z 000000014004f648     menu-window.obj
 0003:0000d65c       $unwind$??$forward@AEBV<lambda_5f2a59844b8069354d5a17d44e450129>@@@std@@YAAEBV<lambda_5f2a59844b8069354d5a17d44e450129>@@AEBV1@@Z 000000014004f65c     menu-window.obj
 0003:0000d670       $unwind$??$forward@AEBV<lambda_312b3f49165ee8dbe2e5837b3ce31c90>@@@std@@YAAEBV<lambda_312b3f49165ee8dbe2e5837b3ce31c90>@@AEBV1@@Z 000000014004f670     menu-window.obj
 0003:0000d684       $unwind$??$forward@AEBV<lambda_668a1179af56ef880bbabaf92a5d9839>@@@std@@YAAEBV<lambda_668a1179af56ef880bbabaf92a5d9839>@@AEBV1@@Z 000000014004f684     menu-window.obj
 0003:0000d698       $unwind$??0Missile@@QEAA@XZ 000000014004f698     missile.obj
 0003:0000d6ac       $unwind$??1Missile@@QEAA@XZ 000000014004f6ac     missile.obj
 0003:0000d6c0       $unwind$??0?$Rect@H@sf@@QEAA@XZ 000000014004f6c0     object.obj
 0003:0000d6d0       $unwind$??0?$Rect@H@sf@@QEAA@AEBV?$Vector2@H@1@0@Z 000000014004f6d0     object.obj
 0003:0000d6e8       $unwind$??0Object@@QEAA@PEBD@Z 000000014004f6e8     object.obj
 0003:0000d704       $stateUnwindMap$??0Object@@QEAA@PEBD@Z 000000014004f704     object.obj
 0003:0000d718       $ip2state$??0Object@@QEAA@PEBD@Z 000000014004f718     object.obj
 0003:0000d73c       $unwind$?dtor$0@?0???0Object@@QEAA@PEBD@Z@4HA 000000014004f73c     object.obj
 0003:0000d75c       $unwind$??0Object@@QEAA@AEBV?$Vector2@M@sf@@0@Z 000000014004f75c     object.obj
 0003:0000d778       $stateUnwindMap$??0Object@@QEAA@AEBV?$Vector2@M@sf@@0@Z 000000014004f778     object.obj
 0003:0000d790       $ip2state$??0Object@@QEAA@AEBV?$Vector2@M@sf@@0@Z 000000014004f790     object.obj
 0003:0000d7b4       $unwind$?dtor$0@?0???0Object@@QEAA@AEBV?$Vector2@M@sf@@0@Z@4HA 000000014004f7b4     object.obj
 0003:0000d7d4       $unwind$??0Object@@QEAA@PEBV0@@Z 000000014004f7d4     object.obj
 0003:0000d7f0       $stateUnwindMap$??0Object@@QEAA@PEBV0@@Z 000000014004f7f0     object.obj
 0003:0000d808       $ip2state$??0Object@@QEAA@PEBV0@@Z 000000014004f808     object.obj
 0003:0000d82c       $unwind$?dtor$0@?0???0Object@@QEAA@PEBV0@@Z@4HA 000000014004f82c     object.obj
 0003:0000d83c       $unwind$?dtor$1@?0???0Object@@QEAA@PEBV0@@Z@4HA 000000014004f83c     object.obj
 0003:0000d84c       $unwind$??1Object@@UEAA@XZ 000000014004f84c     object.obj
 0003:0000d860       $unwind$?GetParent@Object@@QEBAPEAV1@XZ 000000014004f860     object.obj
 0003:0000d874       $unwind$?SetParent@Object@@QEAAXPEAV1@@Z 000000014004f874     object.obj
 0003:0000d888       $unwind$?GetPos@Object@@QEBA?AV?$Vector2@M@sf@@XZ 000000014004f888     object.obj
 0003:0000d89c       $unwind$?SetPos@Object@@UEAAXAEBV?$Vector2@M@sf@@@Z 000000014004f89c     object.obj
 0003:0000d8b0       $unwind$?GetSize@Object@@QEBA?AV?$Vector2@M@sf@@XZ 000000014004f8b0     object.obj
 0003:0000d8d8       $unwind$?SetTexture@Object@@QEAA_NPEBD@Z 000000014004f8d8     object.obj
 0003:0000d900       $ip2state$?SetTexture@Object@@QEAA_NPEBD@Z 000000014004f900     object.obj
 0003:0000d91c       $unwind$?dtor$0@?0??SetTexture@Object@@QEAA_NPEBD@Z@4HA 000000014004f91c     object.obj
 0003:0000d92c       $unwind$?GetAbsolutePos@Object@@QEBA?AV?$Vector2@M@sf@@XZ 000000014004f92c     object.obj
 0003:0000d940       $unwind$?CheckIntersect@Object@@QEBA_NAEBV?$Vector2@M@sf@@@Z 000000014004f940     object.obj
 0003:0000d954       $unwind$?Draw@Object@@UEAAXPEAVRenderWindow@sf@@@Z 000000014004f954     object.obj
 0003:0000d968       $unwind$?CalculateSpritePos@Object@@QEAAXXZ 000000014004f968     object.obj
 0003:0000d97c       $unwind$?calculateSpriteSize@Object@@AEAAXXZ 000000014004f97c     object.obj
 0003:0000d990       $unwind$??_GObject@@UEAAPEAXI@Z 000000014004f990     object.obj
 0003:0000d9a4       $unwind$??0?$Vector2@H@sf@@QEAA@HH@Z 000000014004f9a4     object.obj
 0003:0000d9e0       $unwind$??0Player@@QEAA@PEAVGameObject@@@Z 000000014004f9e0     player.obj
 0003:0000d9f4       $unwind$??1Player@@QEAA@XZ 000000014004f9f4     player.obj
 0003:0000da08       $unwind$?HandleEvent@Player@@QEAA_NAEBVEvent@sf@@@Z 000000014004fa08     player.obj
 0003:0000da1c       $unwind$??0Tank@@QEAA@PEBD@Z 000000014004fa1c     tank.obj
 0003:0000da30       $unwind$??0Tank@@QEAA@PEBV0@@Z 000000014004fa30     tank.obj
 0003:0000da44       $unwind$??1Tank@@UEAA@XZ   000000014004fa44     tank.obj
 0003:0000da58       $unwind$?Clone@Tank@@UEBAPEAVGameObject@@XZ 000000014004fa58     tank.obj
 0003:0000da74       $stateUnwindMap$?Clone@Tank@@UEBAPEAVGameObject@@XZ 000000014004fa74     tank.obj
 0003:0000da80       $ip2state$?Clone@Tank@@UEBAPEAVGameObject@@XZ 000000014004fa80     tank.obj
 0003:0000da9c       $unwind$?dtor$0@?0??Clone@Tank@@UEBAPEAVGameObject@@XZ@4HA 000000014004fa9c     tank.obj
 0003:0000daac       $unwind$?OnIntersect@Tank@@UEAAXPEAVGameObject@@@Z 000000014004faac     tank.obj
 0003:0000dac0       $unwind$??_GTank@@UEAAPEAXI@Z 000000014004fac0     tank.obj
 0003:0000dad4       $unwind$??0Wall@@QEAA@PEBD@Z 000000014004fad4     wall.obj
 0003:0000dae8       $unwind$??0Wall@@QEAA@PEBV0@@Z 000000014004fae8     wall.obj
 0003:0000dafc       $unwind$??1Wall@@UEAA@XZ   000000014004fafc     wall.obj
 0003:0000db10       $unwind$?Clone@Wall@@UEBAPEAVGameObject@@XZ 000000014004fb10     wall.obj
 0003:0000db2c       $stateUnwindMap$?Clone@Wall@@UEBAPEAVGameObject@@XZ 000000014004fb2c     wall.obj
 0003:0000db38       $ip2state$?Clone@Wall@@UEBAPEAVGameObject@@XZ 000000014004fb38     wall.obj
 0003:0000db54       $unwind$?dtor$0@?0??Clone@Wall@@UEBAPEAVGameObject@@XZ@4HA 000000014004fb54     wall.obj
 0003:0000db64       $unwind$?OnIntersect@Wall@@UEAAXPEAVGameObject@@@Z 000000014004fb64     wall.obj
 0003:0000db78       $unwind$??_GWall@@UEAAPEAXI@Z 000000014004fb78     wall.obj
 0003:0000db8c       $unwind$??0WidgetGame@@QEAA@PEAVEngine@@AEBV?$Vector2@M@sf@@1@Z 000000014004fb8c     widget-game.obj
 0003:0000dba8       $stateUnwindMap$??0WidgetGame@@QEAA@PEAVEngine@@AEBV?$Vector2@M@sf@@1@Z 000000014004fba8     widget-game.obj
 0003:0000dbc0       $ip2state$??0WidgetGame@@QEAA@PEAVEngine@@AEBV?$Vector2@M@sf@@1@Z 000000014004fbc0     widget-game.obj
 0003:0000dbec       $unwind$?dtor$0@?0???0WidgetGame@@QEAA@PEAVEngine@@AEBV?$Vector2@M@sf@@1@Z@4HA 000000014004fbec     widget-game.obj
 0003:0000dbfc       $unwind$?dtor$1@?0???0WidgetGame@@QEAA@PEAVEngine@@AEBV?$Vector2@M@sf@@1@Z@4HA 000000014004fbfc     widget-game.obj
 0003:0000dc0c       $unwind$??1WidgetGame@@UEAA@XZ 000000014004fc0c     widget-game.obj
 0003:0000dc20       $unwind$?Draw@WidgetGame@@UEAAXPEAVRenderWindow@sf@@@Z 000000014004fc20     widget-game.obj
 0003:0000dc34       $unwind$?Update@WidgetGame@@UEAAXAEBVTime@sf@@@Z 000000014004fc34     widget-game.obj
 0003:0000dc48       $unwind$?HandleEvent@WidgetGame@@UEAAXAEBVEvent@sf@@@Z 000000014004fc48     widget-game.obj
 0003:0000dc5c       $unwind$?createWorldWalls@WidgetGame@@QEAAXPEBVConfigManager@@@Z 000000014004fc5c     widget-game.obj
 0003:0000dc70       $unwind$?GetNearestIntersectX@WidgetGame@@AEBAPEAVGameObject@@PEBV2@VTime@sf@@@Z 000000014004fc70     widget-game.obj
 0003:0000dc84       $unwind$?GetNearestIntersectY@WidgetGame@@AEBAPEAVGameObject@@PEBV2@VTime@sf@@@Z 000000014004fc84     widget-game.obj
 0003:0000dc98       $unwind$??_GWidgetGame@@UEAAPEAXI@Z 000000014004fc98     widget-game.obj
 0003:0000dcac       $unwind$??0?$Rect@M@sf@@QEAA@MMMM@Z 000000014004fcac     widget.obj
 0003:0000dcc0       $unwind$??0Widget@@QEAA@AEBV?$Vector2@M@sf@@0@Z 000000014004fcc0     widget.obj
 0003:0000dcd4       $unwind$??1Widget@@UEAA@XZ 000000014004fcd4     widget.obj
 0003:0000dce8       $unwind$?Draw@Widget@@UEAAXPEAVRenderWindow@sf@@@Z 000000014004fce8     widget.obj
 0003:0000dd04       $unwind$??_GWidget@@UEAAPEAXI@Z 000000014004fd04     widget.obj
 0003:0000dd18       $unwind$??0WidgetTemplates@@QEAA@AEBV?$Vector2@M@sf@@0@Z 000000014004fd18     widget-templates.obj
 0003:0000dd2c       $unwind$??1WidgetTemplates@@UEAA@XZ 000000014004fd2c     widget-templates.obj
 0003:0000dd40       $unwind$??_GWidgetTemplates@@UEAAPEAXI@Z 000000014004fd40     widget-templates.obj
 0003:0000dd54       $unwind$??0?$Window@VWidget@@@@QEAA@AEBV?$Vector2@M@sf@@0@Z 000000014004fd54     window.obj
 0003:0000dd68       $unwind$??1?$Window@VWidget@@@@UEAA@XZ 000000014004fd68     window.obj
 0003:0000dd7c       $unwind$??_G?$Window@VWidget@@@@UEAAPEAXI@Z 000000014004fd7c     window.obj
 0003:0000dd90       $unwind$??0WindowGame@@QEAA@PEAVEngine@@AEBV?$Vector2@M@sf@@1@Z 000000014004fd90     window-game.obj
 0003:0000ddac       $stateUnwindMap$??0WindowGame@@QEAA@PEAVEngine@@AEBV?$Vector2@M@sf@@1@Z 000000014004fdac     window-game.obj
 0003:0000ddc0       $ip2state$??0WindowGame@@QEAA@PEAVEngine@@AEBV?$Vector2@M@sf@@1@Z 000000014004fdc0     window-game.obj
 0003:0000ddec       $unwind$?dtor$0@?0???0WindowGame@@QEAA@PEAVEngine@@AEBV?$Vector2@M@sf@@1@Z@4HA 000000014004fdec     window-game.obj
 0003:0000ddfc       $unwind$?dtor$1@?0???0WindowGame@@QEAA@PEAVEngine@@AEBV?$Vector2@M@sf@@1@Z@4HA 000000014004fdfc     window-game.obj
 0003:0000de0c       $unwind$??1WindowGame@@UEAA@XZ 000000014004fe0c     window-game.obj
 0003:0000de20       $unwind$??_GWindowGame@@UEAAPEAXI@Z 000000014004fe20     window-game.obj
 0003:0000de34       $unwind$??0WindowEditor@@QEAA@PEAVEngine@@AEBV?$Vector2@M@sf@@1@Z 000000014004fe34     window-editor.obj
 0003:0000de50       $stateUnwindMap$??0WindowEditor@@QEAA@PEAVEngine@@AEBV?$Vector2@M@sf@@1@Z 000000014004fe50     window-editor.obj
 0003:0000de68       $ip2state$??0WindowEditor@@QEAA@PEAVEngine@@AEBV?$Vector2@M@sf@@1@Z 000000014004fe68     window-editor.obj
 0003:0000de94       $unwind$?dtor$0@?0???0WindowEditor@@QEAA@PEAVEngine@@AEBV?$Vector2@M@sf@@1@Z@4HA 000000014004fe94     window-editor.obj
 0003:0000dea4       $unwind$?dtor$1@?0???0WindowEditor@@QEAA@PEAVEngine@@AEBV?$Vector2@M@sf@@1@Z@4HA 000000014004fea4     window-editor.obj
 0003:0000deb4       $unwind$??1WindowEditor@@UEAA@XZ 000000014004feb4     window-editor.obj
 0003:0000dec8       $unwind$??_GWindowEditor@@UEAAPEAXI@Z 000000014004fec8     window-editor.obj
 0003:0000dedc       $unwind$??R<lambda_d959d1f5d5308bc9905e6be0a7d8cebe>@@QEBAPEAVWidget@@PEAV1@@Z 000000014004fedc     window-editor.obj
 0003:0000def0       $unwind$?<lambda_invoker_cdecl>@<lambda_d959d1f5d5308bc9905e6be0a7d8cebe>@@CAPEAVWidget@@PEAV2@@Z 000000014004fef0     window-editor.obj
 0003:0000df04       $unwind$??B<lambda_d959d1f5d5308bc9905e6be0a7d8cebe>@@QEBAP6APEAVWidget@@PEAV1@@ZXZ 000000014004ff04     window-editor.obj
 0003:0000df18       $unwind$??2@YAPEAX_K@Z     000000014004ff18     MSVCRTD:new_scalar.obj
 0003:0000df20       $unwind$??3@YAXPEAX_K@Z    000000014004ff20     MSVCRTD:delete_scalar_size.obj
 0003:0000df28       $unwind$atexit             000000014004ff28     MSVCRTD:utility.obj
 0003:0000df30       $unwind$_onexit            000000014004ff30     MSVCRTD:utility.obj
 0003:0000df38       $unwind$at_quick_exit      000000014004ff38     MSVCRTD:utility.obj
 0003:0000df40       $unwind$__scrt_is_nonwritable_in_current_image 000000014004ff40     MSVCRTD:utility.obj
 0003:0000df64       $unwind$__scrt_is_nonwritable_in_current_image$filt$0 000000014004ff64     MSVCRTD:utility.obj
 0003:0000df6c       $unwind$__scrt_acquire_startup_lock 000000014004ff6c     MSVCRTD:utility.obj
 0003:0000df74       $unwind$__scrt_release_startup_lock 000000014004ff74     MSVCRTD:utility.obj
 0003:0000df7c       $unwind$__scrt_initialize_crt 000000014004ff7c     MSVCRTD:utility.obj
 0003:0000df84       $unwind$__scrt_uninitialize_crt 000000014004ff84     MSVCRTD:utility.obj
 0003:0000df8c       $unwind$__scrt_initialize_onexit_tables 000000014004ff8c     MSVCRTD:utility.obj
 0003:0000df9c       $unwind$__scrt_dllmain_exception_filter 000000014004ff9c     MSVCRTD:utility.obj
 0003:0000dfa4       $unwind$__scrt_dllmain_before_initialize_c 000000014004ffa4     MSVCRTD:utility.obj
 0003:0000dfac       $unwind$__scrt_dllmain_after_initialize_c 000000014004ffac     MSVCRTD:utility.obj
 0003:0000dfb4       $unwind$__scrt_dllmain_uninitialize_c 000000014004ffb4     MSVCRTD:utility.obj
 0003:0000dfbc       $unwind$__scrt_dllmain_uninitialize_critical 000000014004ffbc     MSVCRTD:utility.obj
 0003:0000dfc4       $unwind$__scrt_dllmain_crt_thread_attach 000000014004ffc4     MSVCRTD:utility.obj
 0003:0000dfcc       $unwind$__scrt_dllmain_crt_thread_detach 000000014004ffcc     MSVCRTD:utility.obj
 0003:0000dfd4       $unwind$?configure_argv@__scrt_narrow_argv_policy@@SAHXZ 000000014004ffd4     MSVCRTD:utility.obj
 0003:0000dfdc       $unwind$?initialize_environment@__scrt_narrow_environment_policy@@SAHXZ 000000014004ffdc     MSVCRTD:utility.obj
 0003:0000dfe4       $unwind$?is_potentially_valid_image_base@@YA_NQEAX@Z 000000014004ffe4     MSVCRTD:utility.obj
 0003:0000dfec       $unwind$?find_pe_section@@YAPEAU_IMAGE_SECTION_HEADER@@QEAE_K@Z 000000014004ffec     MSVCRTD:utility.obj
 0003:0000dff4       $unwind$??$__crt_fast_decode_pointer@PEAP6AXXZ@@YAPEAP6AXXZQEAP6AXXZ@Z 000000014004fff4     MSVCRTD:utility.obj
 0003:0000dffc       $unwind$??$__crt_fast_encode_pointer@PEAP6AXXZ@@YAPEAP6AXXZQEAP6AXXZ@Z 000000014004fffc     MSVCRTD:utility.obj
 0003:0000e004       $unwind$_RTC_CheckStackVars 0000000140050004     MSVCRTD:_stack_.obj
 0003:0000e018       $chain$0$_RTC_CheckStackVars 0000000140050018     MSVCRTD:_stack_.obj
 0003:0000e030       $chain$1$_RTC_CheckStackVars 0000000140050030     MSVCRTD:_stack_.obj
 0003:0000e044       $unwind$_RTC_CheckStackVars2 0000000140050044     MSVCRTD:_stack_.obj
 0003:0000e054       $chain$1$_RTC_CheckStackVars2 0000000140050054     MSVCRTD:_stack_.obj
 0003:0000e070       $chain$2$_RTC_CheckStackVars2 0000000140050070     MSVCRTD:_stack_.obj
 0003:0000e088       $chain$3$_RTC_CheckStackVars2 0000000140050088     MSVCRTD:_stack_.obj
 0003:0000e0a0       $chain$4$_RTC_CheckStackVars2 00000001400500a0     MSVCRTD:_stack_.obj
 0003:0000e0b4       $chain$5$_RTC_CheckStackVars2 00000001400500b4     MSVCRTD:_stack_.obj
 0003:0000e0c8       $chain$6$_RTC_CheckStackVars2 00000001400500c8     MSVCRTD:_stack_.obj
 0003:0000e0dc       $unwind$_RTC_AllocaHelper  00000001400500dc     MSVCRTD:_stack_.obj
 0003:0000e0e4       $chain$0$_RTC_AllocaHelper 00000001400500e4     MSVCRTD:_stack_.obj
 0003:0000e0fc       $chain$1$_RTC_AllocaHelper 00000001400500fc     MSVCRTD:_stack_.obj
 0003:0000e110       $unwind$_RTC_Shutdown      0000000140050110     MSVCRTD:_init_.obj
 0003:0000e118       $unwind$_RTC_InitBase      0000000140050118     MSVCRTD:_init_.obj
 0003:0000e120       $unwind$__GSHandlerCheckCommon 0000000140050120     MSVCRTD:_gshandler_.obj
 0003:0000e128       $unwind$__GSHandlerCheck   0000000140050128     MSVCRTD:_gshandler_.obj
 0003:0000e130       $unwind$__GSHandlerCheck_EH 0000000140050130     MSVCRTD:gshandlereh.obj
 0003:0000e138       $xdatasym                  0000000140050138     MSVCRTD:_amdsecgs_.obj
 0003:0000e13c       $unwind$??_Gtype_info@@UEAAPEAXI@Z 000000014005013c     MSVCRTD:std_type_info_static.obj
 0003:0000e144       $unwind$??_U@YAPEAX_K@Z    0000000140050144     MSVCRTD:new_array.obj
 0003:0000e14c       $unwind$_RTC_UninitUse     000000014005014c     MSVCRTD:_error_.obj
 0003:0000e168       $unwind$?_RTC_StackFailure@@YAXPEAXPEBD@Z 0000000140050168     MSVCRTD:_error_.obj
 0003:0000e188       $unwind$?_RTC_AllocaFailure@@YAXPEAXPEAU_RTC_ALLOCA_NODE@@H@Z 0000000140050188     MSVCRTD:_error_.obj
 0003:0000e1a4       $chain$0$?_RTC_AllocaFailure@@YAXPEAXPEAU_RTC_ALLOCA_NODE@@H@Z 00000001400501a4     MSVCRTD:_error_.obj
 0003:0000e1bc       $chain$1$?_RTC_AllocaFailure@@YAXPEAXPEAU_RTC_ALLOCA_NODE@@H@Z 00000001400501bc     MSVCRTD:_error_.obj
 0003:0000e1d0       $unwind$_vsprintf_s_l      00000001400501d0     MSVCRTD:_error_.obj
 0003:0000e1e8       $unwind$sprintf_s          00000001400501e8     MSVCRTD:_error_.obj
 0003:0000e1f0       $unwind$?notify_debugger@@YAXAEBUtagEXCEPTION_VISUALCPP_DEBUG_INFO@@@Z 00000001400501f0     MSVCRTD:_error_.obj
 0003:0000e214       $unwind$?filt$0@?0??notify_debugger@@YAXAEBUtagEXCEPTION_VISUALCPP_DEBUG_INFO@@@Z@4HA 0000000140050214     MSVCRTD:_error_.obj
 0003:0000e21c       $unwind$?DebuggerProbe@@YA_NK@Z 000000014005021c     MSVCRTD:_error_.obj
 0003:0000e224       $unwind$?DebuggerRuntime@@YA_NKHPEAXPEB_W@Z 0000000140050224     MSVCRTD:_error_.obj
 0003:0000e22c       $unwind$?failwithmessage@@YAXPEAXHHPEBD@Z 000000014005022c     MSVCRTD:_error_.obj
 0003:0000e254       $unwind$?_getMemBlockDataString@@YAXPEAD0PEBD_K@Z 0000000140050254     MSVCRTD:_error_.obj
 0003:0000e268       $chain$3$?_getMemBlockDataString@@YAXPEAD0PEBD_K@Z 0000000140050268     MSVCRTD:_error_.obj
 0003:0000e28c       $chain$4$?_getMemBlockDataString@@YAXPEAD0PEBD_K@Z 000000014005028c     MSVCRTD:_error_.obj
 0003:0000e2a0       $unwind$?set_app_type@__scrt_winmain_policy@@SAXXZ 00000001400502a0     MSVCRTD:exe_winmain.obj
 0003:0000e2a8       $unwind$?set_fmode@__scrt_file_policy@@SAXXZ 00000001400502a8     MSVCRTD:exe_winmain.obj
 0003:0000e2b0       $unwind$?set_commode@__scrt_file_policy@@SAXXZ 00000001400502b0     MSVCRTD:exe_winmain.obj
 0003:0000e2b8       $unwind$?invoke_main@@YAHXZ 00000001400502b8     MSVCRTD:exe_winmain.obj
 0003:0000e2c0       $unwind$?pre_c_initialization@@YAHXZ 00000001400502c0     MSVCRTD:exe_winmain.obj
 0003:0000e2c8       $unwind$?post_pgo_initialization@@YAHXZ 00000001400502c8     MSVCRTD:exe_winmain.obj
 0003:0000e2d0       $unwind$?pre_cpp_initialization@@YAXXZ 00000001400502d0     MSVCRTD:exe_winmain.obj
 0003:0000e2d8       $unwind$?__scrt_common_main_seh@@YAHXZ 00000001400502d8     MSVCRTD:exe_winmain.obj
 0003:0000e2fc       $unwind$?filt$0@?0??__scrt_common_main_seh@@YAHXZ@4HA 00000001400502fc     MSVCRTD:exe_winmain.obj
 0003:0000e304       $unwind$?__scrt_common_main@@YAHXZ 0000000140050304     MSVCRTD:exe_winmain.obj
 0003:0000e30c       $unwind$WinMainCRTStartup  000000014005030c     MSVCRTD:exe_winmain.obj
 0003:0000e314       $unwind$??0exception@std@@QEAA@QEBDH@Z 0000000140050314     MSVCRTD:throw_bad_alloc.obj
 0003:0000e31c       $unwind$??0exception@std@@QEAA@AEBV01@@Z 000000014005031c     MSVCRTD:throw_bad_alloc.obj
 0003:0000e324       $unwind$??1exception@std@@UEAA@XZ 0000000140050324     MSVCRTD:throw_bad_alloc.obj
 0003:0000e32c       $unwind$?what@exception@std@@UEBAPEBDXZ 000000014005032c     MSVCRTD:throw_bad_alloc.obj
 0003:0000e334       $unwind$??_Gexception@std@@UEAAPEAXI@Z 0000000140050334     MSVCRTD:throw_bad_alloc.obj
 0003:0000e33c       $unwind$??0bad_alloc@std@@QEAA@XZ 000000014005033c     MSVCRTD:throw_bad_alloc.obj
 0003:0000e344       $unwind$??0bad_alloc@std@@AEAA@QEBD@Z 0000000140050344     MSVCRTD:throw_bad_alloc.obj
 0003:0000e34c       $unwind$??1bad_alloc@std@@UEAA@XZ 000000014005034c     MSVCRTD:throw_bad_alloc.obj
 0003:0000e354       $unwind$??0bad_alloc@std@@QEAA@AEBV01@@Z 0000000140050354     MSVCRTD:throw_bad_alloc.obj
 0003:0000e35c       $unwind$??_Gbad_alloc@std@@UEAAPEAXI@Z 000000014005035c     MSVCRTD:throw_bad_alloc.obj
 0003:0000e364       $unwind$??0bad_array_new_length@std@@QEAA@XZ 0000000140050364     MSVCRTD:throw_bad_alloc.obj
 0003:0000e36c       $unwind$??1bad_array_new_length@std@@UEAA@XZ 000000014005036c     MSVCRTD:throw_bad_alloc.obj
 0003:0000e374       $unwind$??0bad_array_new_length@std@@QEAA@AEBV01@@Z 0000000140050374     MSVCRTD:throw_bad_alloc.obj
 0003:0000e37c       $unwind$??_Gbad_array_new_length@std@@UEAAPEAXI@Z 000000014005037c     MSVCRTD:throw_bad_alloc.obj
 0003:0000e384       $unwind$?__scrt_throw_std_bad_alloc@@YAXXZ 0000000140050384     MSVCRTD:throw_bad_alloc.obj
 0003:0000e38c       $unwind$?__scrt_throw_std_bad_array_new_length@@YAXXZ 000000014005038c     MSVCRTD:throw_bad_alloc.obj
 0003:0000e394       $unwind$??3@YAXPEAX@Z      0000000140050394     MSVCRTD:delete_scalar.obj
 0003:0000e39c       $unwind$__isa_available_init 000000014005039c     MSVCRTD:_cpu_disp_.obj
 0003:0000e3b0       $unwind$__scrt_is_ucrt_dll_in_use 00000001400503b0     MSVCRTD:ucrt_detection.obj
 0003:0000e3b8       $unwind$__scrt_get_show_window_mode 00000001400503b8     MSVCRTD:utility_desktop.obj
 0003:0000e3c8       $unwind$__scrt_is_managed_app 00000001400503c8     MSVCRTD:utility_desktop.obj
 0003:0000e3d0       $unwind$__scrt_set_unhandled_exception_filter 00000001400503d0     MSVCRTD:utility_desktop.obj
 0003:0000e3d8       $unwind$__scrt_fastfail    00000001400503d8     MSVCRTD:utility_desktop.obj
 0003:0000e3e8       $unwind$__scrt_unhandled_exception_filter 00000001400503e8     MSVCRTD:utility_desktop.obj
 0003:0000e3f0       $unwind$ReadNoFence64      00000001400503f0     MSVCRTD:guard_support.obj
 0003:0000e3f8       $unwind$ReadPointerNoFence 00000001400503f8     MSVCRTD:guard_support.obj
 0003:0000e400       $unwind$_guard_icall_checks_enforced 0000000140050400     MSVCRTD:guard_support.obj
 0003:0000e408       $unwind$__report_securityfailure 0000000140050408     MSVCRTD:gs_report.obj
 0003:0000e410       $unwind$__report_securityfailureEx 0000000140050410     MSVCRTD:gs_report.obj
 0003:0000e418       $unwind$__report_rangecheckfailure 0000000140050418     MSVCRTD:gs_report.obj
 0003:0000e420       $unwind$__report_gsfailure 0000000140050420     MSVCRTD:gs_report.obj
 0003:0000e428       $unwind$capture_current_context 0000000140050428     MSVCRTD:gs_report.obj
 0003:0000e430       $unwind$capture_previous_context 0000000140050430     MSVCRTD:gs_report.obj
 0003:0000e438       $unwind$__raise_securityfailure 0000000140050438     MSVCRTD:gs_report.obj
 0003:0000e440       $unwind$?_RTC_GetSrcLine@@YAHPEAEPEA_WKPEAH1K@Z 0000000140050440     MSVCRTD:_pdblkup_.obj
 0003:0000e45c       $unwind$?GetPdbDllFromInstallPath@@YAPEAUHINSTANCE__@@XZ 000000014005045c     MSVCRTD:_pdblkup_.obj
 0003:0000e484       $unwind$?GetPdbDllPathFromFilePath@@YAHPEB_WPEA_W_K@Z 0000000140050484     MSVCRTD:_pdblkup_.obj
 0003:0000e4a0       $unwind$?GetPdbDll@@YAPEAUHINSTANCE__@@XZ 00000001400504a0     MSVCRTD:_pdblkup_.obj
 0003:0000e4b4       $unwind$__security_init_cookie 00000001400504b4     MSVCRTD:gs_support.obj
 0003:0000e4bc       $unwind$__get_entropy      00000001400504bc     MSVCRTD:gs_support.obj
 0003:0000e4c4       $unwind$?__scrt_initialize_type_info@@YAXXZ 00000001400504c4     MSVCRTD:tncleanup.obj
 0003:0000e4cc       $unwind$?__scrt_uninitialize_type_info@@YAXXZ 00000001400504cc     MSVCRTD:tncleanup.obj
 0003:0000e4d4       $unwind$__scrt_initialize_default_local_stdio_options 00000001400504d4     MSVCRTD:default_local_stdio_options.obj
 0003:0000e4dc       $unwind$__scrt_is_user_matherr_present 00000001400504dc     MSVCRTD:matherr_detection.obj
 0003:0000e4e4       $unwind$_RTC_Initialize    00000001400504e4     MSVCRTD:_initsect_.obj
 0003:0000e4f4       $unwind$_RTC_Terminate     00000001400504f4     MSVCRTD:_initsect_.obj
 0003:0000e508       $xdatasym                  0000000140050508     MSVCRTD:_guard_dispatch_.obj
 0003:0000e50c       $unwind$?clear@?$vector@PEAV?$Container@VWidget@@@@V?$allocator@PEAV?$Container@VWidget@@@@@std@@@std@@QEAAXXZ 000000014005050c     engine.obj
 0003:0000e524       $unwind$?_Orphan_range@?$vector@PEAV?$Container@VWidget@@@@V?$allocator@PEAV?$Container@VWidget@@@@@std@@@std@@AEBAXPEAPEAV?$Container@VWidget@@@@0@Z 0000000140050524     engine.obj
 0003:0000e53c       $unwind$??1?$_Vector_alloc@U?$_Vec_base_types@PEAVObject@@V?$allocator@PEAVObject@@@std@@@std@@@std@@QEAA@XZ 000000014005053c     engine.obj
 0003:0000e554       $unwind$??1?$vector@PEAVObject@@V?$allocator@PEAVObject@@@std@@@std@@QEAA@XZ 0000000140050554     engine.obj
 0003:0000e56c       $unwind$?clear@?$vector@PEAVObject@@V?$allocator@PEAVObject@@@std@@@std@@QEAAXXZ 000000014005056c     engine.obj
 0003:0000e584       $unwind$?_Orphan_range@?$vector@PEAVObject@@V?$allocator@PEAVObject@@@std@@@std@@AEBAXPEAPEAVObject@@0@Z 0000000140050584     engine.obj
 0003:0000e59c       $unwind$??E?$_Tree_const_iterator@V?$_Tree_val@U?$_Tree_simple_types@U?$pair@$$CBW4Object_Type@@PEBVGameObject@@@std@@@std@@@std@@@std@@QEAA?AV01@H@Z 000000014005059c     engine.obj
 0003:0000e5b4       $unwind$?dtor$1@?0???0Object@@QEAA@PEBD@Z@4HA 00000001400505b4     object.obj
 0003:0000e5cc       $unwind$?dtor$1@?0???0Object@@QEAA@AEBV?$Vector2@M@sf@@0@Z@4HA 00000001400505cc     object.obj
 0003:0000e5e4       $unwind$?SetSize@Object@@QEAAXAEBV?$Vector2@M@sf@@@Z 00000001400505e4     object.obj
 0004:000003f0       ??_R0?AV<lambda_5f2a59844b8069354d5a17d44e450129>@@@8 00000001400513f0     menu-window.obj
 0004:00000440       ??_R0?AV<lambda_312b3f49165ee8dbe2e5837b3ce31c90>@@@8 0000000140051440     menu-window.obj
 0004:00000490       ??_R0?AV<lambda_668a1179af56ef880bbabaf92a5d9839>@@@8 0000000140051490     menu-window.obj
 0004:00000580       ??_R0?AV?$_Func_impl_no_alloc@V<lambda_668a1179af56ef880bbabaf92a5d9839>@@XPEAVButton@@@std@@@8 0000000140051580     menu-window.obj
 0004:00000600       ??_R0?AV?$_Func_impl_no_alloc@V<lambda_312b3f49165ee8dbe2e5837b3ce31c90>@@XPEAVButton@@@std@@@8 0000000140051600     menu-window.obj
 0004:00000680       ??_R0?AV?$_Func_impl_no_alloc@V<lambda_5f2a59844b8069354d5a17d44e450129>@@XPEAVButton@@@std@@@8 0000000140051680     menu-window.obj
 0004:00000a9c       ?module_local_atexit_table_initialized@@3_NA 0000000140051a9c     MSVCRTD:utility.obj
 0004:00000aa8       ?module_local_atexit_table@@3U_onexit_table_t@@A 0000000140051aa8     MSVCRTD:utility.obj
 0004:00000ac0       ?module_local_at_quick_exit_table@@3U_onexit_table_t@@A 0000000140051ac0     MSVCRTD:utility.obj
 0004:00000ad8       ?is_initialized_as_dll@@3_NA 0000000140051ad8     MSVCRTD:utility.obj
 0004:00000ae6       ?init@?1??_RTC_InitBase@@9@4_NA 0000000140051ae6     MSVCRTD:_init_.obj
 0004:00000af0       ?_RTC_ErrorReportFunc@@3P6AHHPEBDH00ZZEA 0000000140051af0     MSVCRTD:_userapi_.obj
 0004:00000af8       ?_RTC_ErrorReportFuncW@@3P6AHHPEB_WH00ZZEA 0000000140051af8     MSVCRTD:_userapi_.obj
 0004:00000b10       GS_ExceptionRecord         0000000140051b10     MSVCRTD:gs_report.obj
 0004:00000bb0       GS_ContextRecord           0000000140051bb0     MSVCRTD:gs_report.obj
 0004:00001198       ?mspdb@@3PEAUHINSTANCE__@@EA 0000000140052198     MSVCRTD:_pdblkup_.obj
 0004:000011a1       ?alreadyTried@?1??GetPdbDll@@YAPEAUHINSTANCE__@@XZ@4_NA 00000001400521a1     MSVCRTD:_pdblkup_.obj
 0004:000011a2       ?PDBOK@?1??_RTC_GetSrcLine@@YAHPEAEPEA_WKPEAH1K@Z@4_NA 00000001400521a2     MSVCRTD:_pdblkup_.obj
 0005:00001800       $pdata$??__Efont@@YAXXZ    0000000140054800     button.obj
 0005:0000180c       $pdata$??$?0$$V@?$_Compressed_pair@V?$allocator@D@std@@V?$_String_val@U?$_Simple_types@D@std@@@2@$00@std@@QEAA@U_Zero_then_variadic_args_t@1@@Z 000000014005480c     button.obj
 0005:00001818       $pdata$??$?0D@?$allocator@U_Container_proxy@std@@@std@@QEAA@AEBV?$allocator@D@1@@Z 0000000140054818     button.obj
 0005:00001824       $pdata$??$?0_W@?$allocator@U_Container_proxy@std@@@std@@QEAA@AEBV?$allocator@_W@1@@Z 0000000140054824     button.obj
 0005:00001830       $pdata$??$_Allocate@$0BA@U_Default_allocate_traits@std@@$0A@@std@@YAPEAX_K@Z 0000000140054830     button.obj
 0005:0000183c       $pdata$??$_Allocate_manually_vector_aligned@U_Default_allocate_traits@std@@@std@@YAPEAX_K@Z 000000014005483c     button.obj
 0005:00001848       $pdata$??$_Convert_size@_K@std@@YA_K_K@Z 0000000140054848     button.obj
 0005:00001854       $pdata$??$_Deallocate@$0BA@$0A@@std@@YAXPEAX_K@Z 0000000140054854     button.obj
 0005:00001860       $pdata$??$_Deallocate_plain@V?$allocator@U_Container_proxy@std@@@std@@$0A@@std@@YAXAEAV?$allocator@U_Container_proxy@std@@@0@QEAU_Container_proxy@0@@Z 0000000140054860     button.obj
 0005:0000186c       $pdata$??$_Get_size_of_n@$00@std@@YA_K_K@Z 000000014005486c     button.obj
 0005:00001878       $pdata$??$_Get_size_of_n@$0BA@@std@@YA_K_K@Z 0000000140054878     button.obj
 0005:00001884       $pdata$??$_Getvals@_W@?$time_get@DV?$istreambuf_iterator@DU?$char_traits@D@std@@@std@@@std@@IEAAX_WAEBV_Locinfo@1@@Z 0000000140054884     button.obj
 0005:00001890       $pdata$?_Getpfirst@_Container_base12@std@@QEBAPEAPEAU_Iterator_base12@2@XZ 0000000140054890     engine.obj
 0005:0000189c       $pdata$??$_Getvals@_W@?$time_get@_WV?$istreambuf_iterator@_WU?$char_traits@_W@std@@@std@@@std@@IEAAX_WAEBV_Locinfo@1@@Z 000000014005489c     button.obj
 0005:000018a8       $pdata$?size@?$vector@PEAVObject@@V?$allocator@PEAVObject@@@std@@@std@@QEBA_KXZ 00000001400548a8     engine.obj
 0005:000018b4       $pdata$??$_Maklocstr@D@std@@YAPEADPEBDPEADAEBU_Cvtvec@@@Z 00000001400548b4     button.obj
 0005:000018c0       $pdata$??$_Maklocstr@_W@std@@YAPEA_WPEBDPEA_WAEBU_Cvtvec@@@Z 00000001400548c0     button.obj
 0005:000018cc       $pdata$?_Has_unused_capacity@?$vector@PEAVObject@@V?$allocator@PEAVObject@@@std@@@std@@AEBA_NXZ 00000001400548cc     engine.obj
 0005:000018d8       $pdata$??$_Max_value@_K@std@@YAAEB_KAEB_K0@Z 00000001400548d8     button.obj
 0005:000018e4       $pdata$??$_Min_value@_K@std@@YAAEB_KAEB_K0@Z 00000001400548e4     button.obj
 0005:000018f0       $pdata$??$_Reallocate_for@V<lambda_66f57f934f28d61049862f64df852ff0>@@PEBD@?$basic_string@DU?$char_traits@D@std@@V?$allocator@D@2@@std@@QEAAAEAV01@_KV<lambda_66f57f934f28d61049862f64df852ff0>@@PEBD@Z 00000001400548f0     button.obj
 0005:00001908       $pdata$??$_Unfancy@D@std@@YAPEADPEAD@Z 0000000140054908     button.obj
 0005:00001914       $pdata$??$_Unfancy@U_Container_proxy@std@@@std@@YAPEAU_Container_proxy@0@PEAU10@@Z 0000000140054914     button.obj
 0005:00001920       $pdata$??$_Unfancy@_W@std@@YAPEA_WPEA_W@Z 0000000140054920     button.obj
 0005:0000192c       $pdata$??$addressof@PEAD@std@@YAPEAPEADAEAPEAD@Z 000000014005492c     button.obj
 0005:00001938       $pdata$??$addressof@PEA_W@std@@YAPEAPEA_WAEAPEA_W@Z 0000000140054938     button.obj
 0005:00001944       $pdata$??$addressof@V?$_String_val@U?$_Simple_types@D@std@@@std@@@std@@YAPEAV?$_String_val@U?$_Simple_types@D@std@@@0@AEAV10@@Z 0000000140054944     button.obj
 0005:00001950       $pdata$??$construct@PEADAEBQEAD@?$_Default_allocator_traits@V?$allocator@D@std@@@std@@SAXAEAV?$allocator@D@1@QEAPEADAEBQEAD@Z 0000000140054950     button.obj
 0005:0000195c       $pdata$??$construct@U_Container_proxy@std@@U12@@?$_Default_allocator_traits@V?$allocator@U_Container_proxy@std@@@std@@@std@@SAXAEAV?$allocator@U_Container_proxy@std@@@1@QEAU_Container_proxy@1@$$QEAU31@@Z 000000014005495c     button.obj
 0005:00001968       $pdata$??$destroy@PEAD@?$_Default_allocator_traits@V?$allocator@D@std@@@std@@SAXAEAV?$allocator@D@1@QEAPEAD@Z 0000000140054968     button.obj
 0005:00001974       $pdata$??$destroy@PEA_W@?$_Default_allocator_traits@V?$allocator@_W@std@@@std@@SAXAEAV?$allocator@_W@1@QEAPEA_W@Z 0000000140054974     button.obj
 0005:00001980       $pdata$??$destroy@U_Container_proxy@std@@@?$_Default_allocator_traits@V?$allocator@U_Container_proxy@std@@@std@@@std@@SAXAEAV?$allocator@U_Container_proxy@std@@@1@QEAU_Container_proxy@1@@Z 0000000140054980     button.obj
 0005:0000198c       $pdata$??$forward@AEBQEAD@std@@YAAEBQEADAEBQEAD@Z 000000014005498c     button.obj
 0005:00001998       $pdata$??$forward@PEAVButton@@@std@@YA$$QEAPEAVButton@@AEAPEAV1@@Z 0000000140054998     button.obj
 0005:000019a4       $pdata$??$forward@U_Container_proxy@std@@@std@@YA$$QEAU_Container_proxy@0@AEAU10@@Z 00000001400549a4     button.obj
 0005:000019b0       $pdata$??$move@AEAV?$_Func_class@XPEAVButton@@@std@@@std@@YA$$QEAV?$_Func_class@XPEAVButton@@@0@AEAV10@@Z 00000001400549b0     button.obj
 0005:000019bc       $pdata$??0?$Vector2@M@sf@@QEAA@MM@Z 00000001400549bc     button.obj
 0005:000019c8       $pdata$??0?$_Func_class@XPEAVButton@@@std@@QEAA@XZ 00000001400549c8     button.obj
 0005:000019d4       $pdata$??0?$_String_alloc@U?$_String_base_types@DV?$allocator@D@std@@@std@@@std@@QEAA@XZ 00000001400549d4     button.obj
 0005:000019e0       $pdata$??0?$_String_val@U?$_Simple_types@D@std@@@std@@QEAA@XZ 00000001400549e0     button.obj
 0005:000019ec       $pdata$??0?$allocator@D@std@@QEAA@XZ 00000001400549ec     button.obj
 0005:000019f8       $pdata$??0?$basic_string@DU?$char_traits@D@std@@V?$allocator@D@2@@std@@QEAA@QEBD@Z 00000001400549f8     button.obj
 0005:00001a04       $pdata$??0?$function@$$A6AXPEAVButton@@@Z@std@@QEAA@$$T@Z 0000000140054a04     button.obj
 0005:00001a10       $pdata$??0?$function@$$A6AXPEAVButton@@@Z@std@@QEAA@AEBV01@@Z 0000000140054a10     button.obj
 0005:00001a1c       $pdata$??0Button@@QEAA@AEBV?$Vector2@M@sf@@0@Z 0000000140054a1c     button.obj
 0005:00001a28       $pdata$??0_Bxty@?$_String_val@U?$_Simple_types@D@std@@@std@@QEAA@XZ 0000000140054a28     button.obj
 0005:00001a34       $pdata$??0_Container_base12@std@@QEAA@XZ 0000000140054a34     button.obj
 0005:00001a40       $pdata$??0_Container_proxy@std@@QEAA@XZ 0000000140054a40     button.obj
 0005:00001a4c       $pdata$??1?$_Compressed_pair@V?$allocator@D@std@@V?$_String_val@U?$_Simple_types@D@std@@@2@$00@std@@QEAA@XZ 0000000140054a4c     button.obj
 0005:00001a58       $pdata$??1?$_Compressed_pair@V?$allocator@_W@std@@V?$_String_val@U?$_Simple_types@_W@std@@@2@$00@std@@QEAA@XZ 0000000140054a58     button.obj
 0005:00001a64       $pdata$??1?$_Func_class@XPEAVButton@@@std@@QEAA@XZ 0000000140054a64     button.obj
 0005:00001a70       $pdata$??1?$_String_alloc@U?$_String_base_types@DV?$allocator@D@std@@@std@@@std@@QEAA@XZ 0000000140054a70     button.obj
 0005:00001a7c       $pdata$??1?$_String_alloc@U?$_String_base_types@_WV?$allocator@_W@std@@@std@@@std@@QEAA@XZ 0000000140054a7c     button.obj
 0005:00001a88       $pdata$??1?$_String_val@U?$_Simple_types@D@std@@@std@@QEAA@XZ 0000000140054a88     button.obj
 0005:00001a94       $pdata$??1?$_String_val@U?$_Simple_types@_W@std@@@std@@QEAA@XZ 0000000140054a94     button.obj
 0005:00001aa0       $pdata$??1?$basic_string@DU?$char_traits@D@std@@V?$allocator@D@2@@std@@QEAA@XZ 0000000140054aa0     button.obj
 0005:00001aac       $pdata$??1?$basic_string@_WU?$char_traits@_W@std@@V?$allocator@_W@2@@std@@QEAA@XZ 0000000140054aac     button.obj
 0005:00001ab8       $pdata$??1?$function@$$A6AXPEAVButton@@@Z@std@@QEAA@XZ 0000000140054ab8     button.obj
 0005:00001ac4       $pdata$??1Button@@UEAA@XZ  0000000140054ac4     button.obj
 0005:00001ad0       $pdata$??1_Bxty@?$_String_val@U?$_Simple_types@D@std@@@std@@QEAA@XZ 0000000140054ad0     button.obj
 0005:00001adc       $pdata$??1_Bxty@?$_String_val@U?$_Simple_types@_W@std@@@std@@QEAA@XZ 0000000140054adc     button.obj
 0005:00001ae8       $pdata$??2@YAPEAX_KPEAX@Z  0000000140054ae8     button.obj
 0005:00001af4       $pdata$??4?$function@$$A6AXPEAVButton@@@Z@std@@QEAAAEAV01@AEBV01@@Z 0000000140054af4     button.obj
 0005:00001b00       $pdata$??B?$function@$$A6AXPEAVButton@@@Z@std@@QEBA_NXZ 0000000140054b00     button.obj
 0005:00001b0c       $pdata$??R<lambda_66f57f934f28d61049862f64df852ff0>@@QEBAXQEAD_KQEBD@Z 0000000140054b0c     button.obj
 0005:00001b18       $pdata$??R?$_Func_class@XPEAVButton@@@std@@QEBAXPEAVButton@@@Z 0000000140054b18     button.obj
 0005:00001b24       $pdata$??_GButton@@UEAAPEAXI@Z 0000000140054b24     button.obj
 0005:00001b30       $pdata$?Draw@Button@@UEAAXPEAVRenderWindow@sf@@@Z 0000000140054b30     button.obj
 0005:00001b3c       $pdata$?GetText@Button@@QEBAPEB_WXZ 0000000140054b3c     button.obj
 0005:00001b48       $pdata$?HandleEvent@Button@@UEAAXAEBVEvent@sf@@@Z 0000000140054b48     button.obj
 0005:00001b54       $pdata$?SetOnClickedListener@Button@@QEAAXV?$function@$$A6AXPEAVButton@@@Z@std@@@Z 0000000140054b54     button.obj
 0005:00001b60       $pdata$?SetPos@Button@@UEAAXAEBV?$Vector2@M@sf@@@Z 0000000140054b60     button.obj
 0005:00001b6c       $pdata$?SetText@Button@@QEAAXPEB_W@Z 0000000140054b6c     button.obj
 0005:00001b78       $pdata$?Update@Button@@UEAAXAEBVTime@sf@@@Z 0000000140054b78     button.obj
 0005:00001b84       $pdata$?_Adjust_manually_vector_aligned@std@@YAXAEAPEAXAEA_K@Z 0000000140054b84     button.obj
 0005:00001b90       $pdata$?_Alloc_proxy@?$_String_alloc@U?$_String_base_types@DV?$allocator@D@std@@@std@@@std@@QEAAXXZ 0000000140054b90     button.obj
 0005:00001b9c       $pdata$?_Allocate@_Default_allocate_traits@std@@SAPEAX_K@Z 0000000140054b9c     button.obj
 0005:00001ba8       $pdata$?_Calculate_growth@?$basic_string@DU?$char_traits@D@std@@V?$allocator@D@2@@std@@QEBA_K_K@Z 0000000140054ba8     button.obj
 0005:00001bb4       $pdata$?_Empty@?$_Func_class@XPEAVButton@@@std@@IEBA_NXZ 0000000140054bb4     button.obj
 0005:00001bc0       $pdata$?_Free_proxy@?$_String_alloc@U?$_String_base_types@DV?$allocator@D@std@@@std@@@std@@QEAAXXZ 0000000140054bc0     button.obj
 0005:00001bcc       $pdata$?_Free_proxy@?$_String_alloc@U?$_String_base_types@_WV?$allocator@_W@std@@@std@@@std@@QEAAXXZ 0000000140054bcc     button.obj
 0005:00001bd8       $pdata$?_Get_data@?$_String_alloc@U?$_String_base_types@DV?$allocator@D@std@@@std@@@std@@QEAAAEAV?$_String_val@U?$_Simple_types@D@std@@@2@XZ 0000000140054bd8     button.obj
 0005:00001be4       $pdata$?_Get_data@?$_String_alloc@U?$_String_base_types@DV?$allocator@D@std@@@std@@@std@@QEBAAEBV?$_String_val@U?$_Simple_types@D@std@@@2@XZ 0000000140054be4     button.obj
 0005:00001bf0       $pdata$?_Get_data@?$_String_alloc@U?$_String_base_types@_WV?$allocator@_W@std@@@std@@@std@@QEAAAEAV?$_String_val@U?$_Simple_types@_W@std@@@2@XZ 0000000140054bf0     button.obj
 0005:00001bfc       $pdata$?_Get_data@?$_String_alloc@U?$_String_base_types@_WV?$allocator@_W@std@@@std@@@std@@QEBAAEBV?$_String_val@U?$_Simple_types@_W@std@@@2@XZ 0000000140054bfc     button.obj
 0005:00001c08       $pdata$?_Get_first@?$_Compressed_pair@V?$allocator@D@std@@V?$_String_val@U?$_Simple_types@D@std@@@2@$00@std@@QEAAAEAV?$allocator@D@2@XZ 0000000140054c08     button.obj
 0005:00001c14       $pdata$?_Get_first@?$_Compressed_pair@V?$allocator@D@std@@V?$_String_val@U?$_Simple_types@D@std@@@2@$00@std@@QEBAAEBV?$allocator@D@2@XZ 0000000140054c14     button.obj
 0005:00001c20       $pdata$?_Get_first@?$_Compressed_pair@V?$allocator@_W@std@@V?$_String_val@U?$_Simple_types@_W@std@@@2@$00@std@@QEAAAEAV?$allocator@_W@2@XZ 0000000140054c20     button.obj
 0005:00001c2c       $pdata$?_Get_second@?$_Compressed_pair@V?$allocator@D@std@@V?$_String_val@U?$_Simple_types@D@std@@@2@$00@std@@QEAAAEAV?$_String_val@U?$_Simple_types@D@std@@@2@XZ 0000000140054c2c     button.obj
 0005:00001c38       $pdata$?_Get_second@?$_Compressed_pair@V?$allocator@D@std@@V?$_String_val@U?$_Simple_types@D@std@@@2@$00@std@@QEBAAEBV?$_String_val@U?$_Simple_types@D@std@@@2@XZ 0000000140054c38     button.obj
 0005:00001c44       $pdata$?_Get_second@?$_Compressed_pair@V?$allocator@_W@std@@V?$_String_val@U?$_Simple_types@_W@std@@@2@$00@std@@QEAAAEAV?$_String_val@U?$_Simple_types@_W@std@@@2@XZ 0000000140054c44     button.obj
 0005:00001c50       $pdata$?_Get_second@?$_Compressed_pair@V?$allocator@_W@std@@V?$_String_val@U?$_Simple_types@_W@std@@@2@$00@std@@QEBAAEBV?$_String_val@U?$_Simple_types@_W@std@@@2@XZ 0000000140054c50     button.obj
 0005:00001c5c       $pdata$?_Getal@?$_String_alloc@U?$_String_base_types@DV?$allocator@D@std@@@std@@@std@@QEAAAEAV?$allocator@D@2@XZ 0000000140054c5c     button.obj
 0005:00001c68       $pdata$?_Getal@?$_String_alloc@U?$_String_base_types@DV?$allocator@D@std@@@std@@@std@@QEBAAEBV?$allocator@D@2@XZ 0000000140054c68     button.obj
 0005:00001c74       $pdata$?_Getal@?$_String_alloc@U?$_String_base_types@_WV?$allocator@_W@std@@@std@@@std@@QEAAAEAV?$allocator@_W@2@XZ 0000000140054c74     button.obj
 0005:00001c80       $pdata$?_Getimpl@?$_Func_class@XPEAVButton@@@std@@AEBAPEAV?$_Func_base@XPEAVButton@@@2@XZ 0000000140054c80     button.obj
 0005:00001c8c       $pdata$?_Getspace@?$_Func_class@XPEAVButton@@@std@@AEAAPEAXXZ 0000000140054c8c     button.obj
 0005:00001c98       $pdata$?_Getspace@?$_Func_class@XPEAVButton@@@std@@AEBAPEBXXZ 0000000140054c98     button.obj
 0005:00001ca4       $pdata$?_Large_string_engaged@?$_String_val@U?$_Simple_types@D@std@@@std@@QEBA_NXZ 0000000140054ca4     button.obj
 0005:00001cb0       $pdata$?_Large_string_engaged@?$_String_val@U?$_Simple_types@_W@std@@@std@@QEBA_NXZ 0000000140054cb0     button.obj
 0005:00001cbc       $pdata$?_Local@?$_Func_class@XPEAVButton@@@std@@AEBA_NXZ 0000000140054cbc     button.obj
 0005:00001cc8       $pdata$?_Maklocwcs@std@@YAPEA_WPEB_W@Z 0000000140054cc8     button.obj
 0005:00001cd4       $pdata$?_Myproxy@?$_String_alloc@U?$_String_base_types@DV?$allocator@D@std@@@std@@@std@@QEAAAEAPEAU_Container_proxy@2@XZ 0000000140054cd4     button.obj
 0005:00001ce0       $pdata$?_Myproxy@?$_String_alloc@U?$_String_base_types@_WV?$allocator@_W@std@@@std@@@std@@QEAAAEAPEAU_Container_proxy@2@XZ 0000000140054ce0     button.obj
 0005:00001cec       $pdata$?_Myptr@?$_String_val@U?$_Simple_types@D@std@@@std@@QEAAPEADXZ 0000000140054cec     button.obj
 0005:00001cf8       $pdata$?_Myptr@?$_String_val@U?$_Simple_types@_W@std@@@std@@QEBAPEB_WXZ 0000000140054cf8     button.obj
 0005:00001d04       $pdata$?_Orphan_all@?$_String_alloc@U?$_String_base_types@DV?$allocator@D@std@@@std@@@std@@QEAAXXZ 0000000140054d04     button.obj
 0005:00001d10       $pdata$?_Orphan_all@?$_String_alloc@U?$_String_base_types@_WV?$allocator@_W@std@@@std@@@std@@QEAAXXZ 0000000140054d10     button.obj
 0005:00001d1c       $pdata$?_Orphan_all@_Container_base12@std@@QEAAXXZ 0000000140054d1c     button.obj
 0005:00001d28       $pdata$?_Reset_copy@?$_Func_class@XPEAVButton@@@std@@IEAAXAEBV12@@Z 0000000140054d28     button.obj
 0005:00001d34       $pdata$?_Reset_move@?$_Func_class@XPEAVButton@@@std@@IEAAX$$QEAV12@@Z 0000000140054d34     button.obj
 0005:00001d40       $pdata$?_Set@?$_Func_class@XPEAVButton@@@std@@AEAAXPEAV?$_Func_base@XPEAVButton@@@2@@Z 0000000140054d40     button.obj
 0005:00001d4c       $pdata$?_Swap@?$_Func_class@XPEAVButton@@@std@@IEAAXAEAV12@@Z 0000000140054d4c     button.obj
 0005:00001d58       $pdata$?_Tidy@?$_Func_class@XPEAVButton@@@std@@IEAAXXZ 0000000140054d58     button.obj
 0005:00001d64       $pdata$?_Tidy_deallocate@?$basic_string@DU?$char_traits@D@std@@V?$allocator@D@2@@std@@QEAAXXZ 0000000140054d64     button.obj
 0005:00001d70       $pdata$?_Tidy_deallocate@?$basic_string@_WU?$char_traits@_W@std@@V?$allocator@_W@2@@std@@QEAAXXZ 0000000140054d70     button.obj
 0005:00001d7c       $pdata$?_Tidy_init@?$basic_string@DU?$char_traits@D@std@@V?$allocator@D@2@@std@@QEAAXXZ 0000000140054d7c     button.obj
 0005:00001d88       $pdata$?_Xlen@?$basic_string@DU?$char_traits@D@std@@V?$allocator@D@2@@std@@SAXXZ 0000000140054d88     button.obj
 0005:00001d94       $pdata$?__empty_global_delete@@YAXPEAX@Z 0000000140054d94     button.obj
 0005:00001da0       $pdata$?__empty_global_delete@@YAXPEAX_K@Z 0000000140054da0     button.obj
 0005:00001dac       $pdata$?allocate@?$allocator@D@std@@QEAAPEAD_K@Z 0000000140054dac     button.obj
 0005:00001db8       $pdata$?allocate@?$allocator@U_Container_proxy@std@@@std@@QEAAPEAU_Container_proxy@2@_K@Z 0000000140054db8     button.obj
 0005:00001dc4       $pdata$?assign@?$_WChar_traits@_W@std@@SAXAEA_WAEB_W@Z 0000000140054dc4     button.obj
 0005:00001dd0       $pdata$?assign@?$basic_string@DU?$char_traits@D@std@@V?$allocator@D@2@@std@@QEAAAEAV12@QEBD@Z 0000000140054dd0     button.obj
 0005:00001ddc       $pdata$?assign@?$basic_string@DU?$char_traits@D@std@@V?$allocator@D@2@@std@@QEAAAEAV12@QEBD_K@Z 0000000140054ddc     button.obj
 0005:00001de8       $pdata$?assign@?$char_traits@D@std@@SAXAEADAEBD@Z 0000000140054de8     button.obj
 0005:00001df4       $pdata$?c_str@?$basic_string@_WU?$char_traits@_W@std@@V?$allocator@_W@2@@std@@QEBAPEB_WXZ 0000000140054df4     button.obj
 0005:00001e00       $pdata$?calculatePosText@Button@@AEAAXXZ 0000000140054e00     button.obj
 0005:00001e0c       $pdata$?copy@?$char_traits@D@std@@SAPEADQEADQEBD_K@Z 0000000140054e0c     button.obj
 0005:00001e18       $pdata$?deallocate@?$_Default_allocator_traits@V?$allocator@U_Container_proxy@std@@@std@@@std@@SAXAEAV?$allocator@U_Container_proxy@std@@@2@QEAU_Container_proxy@2@_K@Z 0000000140054e18     button.obj
 0005:00001e24       $pdata$?deallocate@?$allocator@D@std@@QEAAXQEAD_K@Z 0000000140054e24     button.obj
 0005:00001e30       $pdata$?deallocate@?$allocator@_W@std@@QEAAXQEA_W_K@Z 0000000140054e30     button.obj
 0005:00001e3c       $pdata$?length@?$char_traits@D@std@@SA_KQEBD@Z 0000000140054e3c     button.obj
 0005:00001e48       $pdata$?max@?$numeric_limits@_J@std@@SA_JXZ 0000000140054e48     button.obj
 0005:00001e54       $pdata$?max_size@?$_Default_allocator_traits@V?$allocator@D@std@@@std@@SA_KAEBV?$allocator@D@2@@Z 0000000140054e54     button.obj
 0005:00001e60       $pdata$?max_size@?$basic_string@DU?$char_traits@D@std@@V?$allocator@D@2@@std@@QEBA_KXZ 0000000140054e60     button.obj
 0005:00001e6c       $pdata$?move@?$char_traits@D@std@@SAPEADQEADQEBD_K@Z 0000000140054e6c     button.obj
 0005:00001e78       $pdata$?swap@?$function@$$A6AXPEAVButton@@@Z@std@@QEAAXAEAV12@@Z 0000000140054e78     button.obj
 0005:00001e84       $pdata$wmemcpy             0000000140054e84     button.obj
 0005:00001e90       $pdata$??$?0$$QEAW4Object_Type@@$$Z$$V@?$pair@$$CBW4Object_Type@@PEBVGameObject@@@std@@QEAA@Upiecewise_construct_t@1@V?$tuple@$$QEAW4Object_Type@@@1@V?$tuple@$$V@1@@Z 0000000140054e90     config.obj
 0005:00001e9c       $pdata$??$?0AEAV?$_Tree_iterator@V?$_Tree_val@U?$_Tree_simple_types@U?$pair@$$CBW4Object_Type@@PEBVGameObject@@@std@@@std@@@std@@@std@@_N$0A@@?$pair@V?$_Tree_iterator@V?$_Tree_val@U?$_Tree_simple_types@U?$pair@$$CBW4Object_Type@@PEBVGameObject@@@std@@@std@@@std@@@std@@_N@std@@QEAA@AEAV?$_Tree_iterator@V?$_Tree_val@U?$_Tree_simple_types@U?$pair@$$CBW4Object_Type@@PEBVGameObject@@@std@@@std@@@std@@@1@$$QEA_N@Z 0000000140054e9c     config.obj
 0005:00001ea8       $pdata$??$?0AEBV?$allocator@D@std@@$$V@?$_Compressed_pair@V?$allocator@D@std@@V?$_String_val@U?$_Simple_types@D@std@@@2@$00@std@@QEAA@U_One_then_variadic_args_t@1@AEBV?$allocator@D@1@@Z 0000000140054ea8     config.obj
 0005:00001eb4       $pdata$??$?0AEBV?$allocator@D@std@@X@?$_String_alloc@U?$_String_base_types@DV?$allocator@D@std@@@std@@@std@@QEAA@AEBV?$allocator@D@1@@Z 0000000140054eb4     config.obj
 0005:00001ec0       $pdata$??$?0U_Exact_args_t@std@@$0A@@?$tuple@$$V@std@@QEAA@U_Exact_args_t@1@@Z 0000000140054ec0     config.obj
 0005:00001ecc       $pdata$??$?0U_Exact_args_t@std@@W4Object_Type@@$$V$0A@@?$tuple@$$QEAW4Object_Type@@@std@@QEAA@U_Exact_args_t@1@$$QEAW4Object_Type@@@Z 0000000140054ecc     config.obj
 0005:00001ed8       $pdata$??$?0V?$_Tree_iterator@V?$_Tree_val@U?$_Tree_simple_types@U?$pair@$$CBW4Object_Type@@PEBVGameObject@@@std@@@std@@@std@@@std@@_N$0A@@?$pair@V?$_Tree_iterator@V?$_Tree_val@U?$_Tree_simple_types@U?$pair@$$CBW4Object_Type@@PEBVGameObject@@@std@@@std@@@std@@@std@@_N@std@@QEAA@$$QEAV?$_Tree_iterator@V?$_Tree_val@U?$_Tree_simple_types@U?$pair@$$CBW4Object_Type@@PEBVGameObject@@@std@@@std@@@std@@@1@$$QEA_N@Z 0000000140054ed8     config.obj
 0005:00001ee4       $pdata$??$?0V?$tuple@$$QEAW4Object_Type@@@std@@V?$tuple@$$V@1@$0A@$$Z$S@?$pair@$$CBW4Object_Type@@PEBVGameObject@@@std@@QEAA@AEAV?$tuple@$$QEAW4Object_Type@@@1@AEAV?$tuple@$$V@1@U?$integer_sequence@_K$0A@@1@U?$integer_sequence@_K$S@1@@Z 0000000140054ee4     config.obj
 0005:00001ef0       $pdata$??$?0W4Object_Type@@$$V$0A@@?$tuple@$$QEAW4Object_Type@@@std@@QEAA@$$QEAW4Object_Type@@@Z 0000000140054ef0     config.obj
 0005:00001efc       $pdata$??$?0W4Object_Type@@@?$_Tuple_val@$$QEAW4Object_Type@@@std@@QEAA@$$QEAW4Object_Type@@@Z 0000000140054efc     config.obj
 0005:00001f08       $pdata$??$?9DD@std@@YA_NAEBV?$allocator@D@0@0@Z 0000000140054f08     config.obj
 0005:00001f14       $pdata$??$_Buy_if_not_node@AEAU?$pair@$$CBW4Object_Type@@PEBVGameObject@@@std@@@?$_Tree@V?$_Tmap_traits@W4Object_Type@@PEBVGameObject@@U?$less@W4Object_Type@@@std@@V?$allocator@U?$pair@$$CBW4Object_Type@@PEBVGameObject@@@std@@@4@$0A@@std@@@std@@IEAAPEAU?$_Tree_node@U?$pair@$$CBW4Object_Type@@PEBVGameObject@@@std@@PEAX@1@PEAU21@AEAU?$pair@$$CBW4Object_Type@@PEBVGameObject@@@1@@Z 0000000140054f14     config.obj
 0005:00001f20       $pdata$??$_Buynode@AEBUpiecewise_construct_t@std@@V?$tuple@$$QEAW4Object_Type@@@2@V?$tuple@$$V@2@@?$_Tree_comp_alloc@V?$_Tmap_traits@W4Object_Type@@PEBVGameObject@@U?$less@W4Object_Type@@@std@@V?$allocator@U?$pair@$$CBW4Object_Type@@PEBVGameObject@@@std@@@4@$0A@@std@@@std@@QEAAPEAU?$_Tree_node@U?$pair@$$CBW4Object_Type@@PEBVGameObject@@@std@@PEAX@1@AEBUpiecewise_construct_t@1@$$QEAV?$tuple@$$QEAW4Object_Type@@@1@$$QEAV?$tuple@$$V@1@@Z 0000000140054f20     config.obj
 0005:00001f2c       $pdata$??$_Debug_lt_pred@AEAU?$less@W4Object_Type@@@std@@AEAW4Object_Type@@AEBW43@@std@@YA_NAEAU?$less@W4Object_Type@@@0@AEAW4Object_Type@@AEBW42@PEB_WI@Z 0000000140054f2c     config.obj
 0005:00001f38       $pdata$??$_Debug_lt_pred@AEAU?$less@W4Object_Type@@@std@@AEBW4Object_Type@@AEBW43@@std@@YA_NAEAU?$less@W4Object_Type@@@0@AEBW4Object_Type@@1PEB_WI@Z 0000000140054f38     config.obj
 0005:00001f44       $pdata$??$_Debug_lt_pred@AEBU?$less@W4Object_Type@@@std@@AEBW4Object_Type@@AEBW43@@std@@YA_NAEBU?$less@W4Object_Type@@@0@AEBW4Object_Type@@1PEB_WI@Z 0000000140054f44     config.obj
 0005:00001f50       $pdata$??$_Freenode0@V?$allocator@U?$_Tree_node@U?$pair@$$CBW4Object_Type@@PEBVGameObject@@@std@@PEAX@std@@@std@@@?$_Tree_node@U?$pair@$$CBW4Object_Type@@PEBVGameObject@@@std@@PEAX@std@@SAXAEAV?$allocator@U?$_Tree_node@U?$pair@$$CBW4Object_Type@@PEBVGameObject@@@std@@PEAX@std@@@1@PEAU01@@Z 0000000140054f50     config.obj
 0005:00001f5c       $pdata$??$_Get_size_of_n@$0DA@@std@@YA_K_K@Z 0000000140054f5c     config.obj
 0005:00001f68       $pdata$??$_Insert_at@AEAU?$pair@$$CBW4Object_Type@@PEBVGameObject@@@std@@PEAU?$_Tree_node@U?$pair@$$CBW4Object_Type@@PEBVGameObject@@@std@@PEAX@2@@?$_Tree@V?$_Tmap_traits@W4Object_Type@@PEBVGameObject@@U?$less@W4Object_Type@@@std@@V?$allocator@U?$pair@$$CBW4Object_Type@@PEBVGameObject@@@std@@@4@$0A@@std@@@std@@IEAA?AV?$_Tree_iterator@V?$_Tree_val@U?$_Tree_simple_types@U?$pair@$$CBW4Object_Type@@PEBVGameObject@@@std@@@std@@@std@@@1@_NPEAU?$_Tree_node@U?$pair@$$CBW4Object_Type@@PEBVGameObject@@@std@@PEAX@1@AEAU?$pair@$$CBW4Object_Type@@PEBVGameObject@@@1@1@Z 0000000140054f68     config.obj
 0005:00001f74       $pdata$?HandleEvents@Engine@@QEAAXXZ 0000000140054f74     engine.obj
 0005:00001f80       $pdata$??$_Insert_hint@AEAU?$pair@$$CBW4Object_Type@@PEBVGameObject@@@std@@PEAU?$_Tree_node@U?$pair@$$CBW4Object_Type@@PEBVGameObject@@@std@@PEAX@2@@?$_Tree@V?$_Tmap_traits@W4Object_Type@@PEBVGameObject@@U?$less@W4Object_Type@@@std@@V?$allocator@U?$pair@$$CBW4Object_Type@@PEBVGameObject@@@std@@@4@$0A@@std@@@std@@IEAA?AV?$_Tree_iterator@V?$_Tree_val@U?$_Tree_simple_types@U?$pair@$$CBW4Object_Type@@PEBVGameObject@@@std@@@std@@@std@@@1@V?$_Tree_const_iterator@V?$_Tree_val@U?$_Tree_simple_types@U?$pair@$$CBW4Object_Type@@PEBVGameObject@@@std@@@std@@@std@@@1@AEAU?$pair@$$CBW4Object_Type@@PEBVGameObject@@@1@PEAU?$_Tree_node@U?$pair@$$CBW4Object_Type@@PEBVGameObject@@@std@@PEAX@1@@Z 0000000140054f80     config.obj
 0005:00001fa4       $pdata$?_Change_array@?$vector@PEAVObject@@V?$allocator@PEAVObject@@@std@@@std@@AEAAXQEAPEAVObject@@_K1@Z 0000000140054fa4     engine.obj
 0005:00001fb0       $pdata$?_Free_proxy@?$_Vector_alloc@U?$_Vec_base_types@PEAVObject@@V?$allocator@PEAVObject@@@std@@@std@@@std@@QEAAXXZ 0000000140054fb0     engine.obj
 0005:00001fbc       $pdata$?max_size@?$vector@PEAVObject@@V?$allocator@PEAVObject@@@std@@@std@@QEBA_KXZ 0000000140054fbc     engine.obj
 0005:00001fc8       $pdata$??$_Insert_nohint@AEAU?$pair@$$CBW4Object_Type@@PEBVGameObject@@@std@@PEAU?$_Tree_node@U?$pair@$$CBW4Object_Type@@PEBVGameObject@@@std@@PEAX@2@@?$_Tree@V?$_Tmap_traits@W4Object_Type@@PEBVGameObject@@U?$less@W4Object_Type@@@std@@V?$allocator@U?$pair@$$CBW4Object_Type@@PEBVGameObject@@@std@@@4@$0A@@std@@@std@@IEAA?AU?$pair@V?$_Tree_iterator@V?$_Tree_val@U?$_Tree_simple_types@U?$pair@$$CBW4Object_Type@@PEBVGameObject@@@std@@@std@@@std@@@std@@_N@1@_NAEAU?$pair@$$CBW4Object_Type@@PEBVGameObject@@@1@PEAU?$_Tree_node@U?$pair@$$CBW4Object_Type@@PEBVGameObject@@@std@@PEAX@1@@Z 0000000140054fc8     config.obj
 0005:00001fd4       $pdata$?_Tidy@?$vector@PEAVObject@@V?$allocator@PEAVObject@@@std@@@std@@AEAAXXZ 0000000140054fd4     engine.obj
 0005:00001fe0       $pdata$??$_Kfn@$$CBW4Object_Type@@PEBVGameObject@@@?$_Tmap_traits@W4Object_Type@@PEBVGameObject@@U?$less@W4Object_Type@@@std@@V?$allocator@U?$pair@$$CBW4Object_Type@@PEBVGameObject@@@std@@@4@$0A@@std@@SAAEBW4Object_Type@@AEBU?$pair@$$CBW4Object_Type@@PEBVGameObject@@@1@@Z 0000000140054fe0     config.obj
 0005:00001fec       $pdata$??$_Lbound@W4Object_Type@@@?$_Tree@V?$_Tmap_traits@W4Object_Type@@PEBVGameObject@@U?$less@W4Object_Type@@@std@@V?$allocator@U?$pair@$$CBW4Object_Type@@PEBVGameObject@@@std@@@4@$0A@@std@@@std@@IEBAPEAU?$_Tree_node@U?$pair@$$CBW4Object_Type@@PEBVGameObject@@@std@@PEAX@1@AEBW4Object_Type@@@Z 0000000140054fec     config.obj
 0005:00001ff8       $pdata$??$_Pocma@V?$allocator@D@std@@@std@@YAXAEAV?$allocator@D@0@0@Z 0000000140054ff8     config.obj
 0005:00002004       $pdata$??$_Pocma@V?$allocator@D@std@@@std@@YAXAEAV?$allocator@D@0@0U?$integral_constant@_N$00@0@@Z 0000000140055004     config.obj
 0005:00002010       $pdata$??$_Reallocate_for@V<lambda_66f57f934f28d61049862f64df852ff0>@@PEBD@?$basic_string@DU?$char_traits@D@std@@V?$allocator@D@2@@std@@QEAAAEAV01@_KV<lambda_66f57f934f28d61049862f64df852ff0>@@PEBD@Z 0000000140055010     config.obj
 0005:0000201c       $pdata$??$_Try_emplace@W4Object_Type@@$$V@?$map@W4Object_Type@@PEBVGameObject@@U?$less@W4Object_Type@@@std@@V?$allocator@U?$pair@$$CBW4Object_Type@@PEBVGameObject@@@std@@@4@@std@@QEAA?AU?$pair@V?$_Tree_iterator@V?$_Tree_val@U?$_Tree_simple_types@U?$pair@$$CBW4Object_Type@@PEBVGameObject@@@std@@@std@@@std@@@std@@_N@1@$$QEAW4Object_Type@@@Z 000000014005501c     config.obj
 0005:00002028       $pdata$?_Umove_if_noexcept@?$vector@PEAVObject@@V?$allocator@PEAVObject@@@std@@@std@@AEAAXPEAPEAVObject@@00@Z 0000000140055028     engine.obj
 0005:00002034       $pdata$??$addressof@$$CBU?$pair@$$CBW4Object_Type@@PEBVGameObject@@@std@@@std@@YAPEBU?$pair@$$CBW4Object_Type@@PEBVGameObject@@@0@AEBU10@@Z 0000000140055034     config.obj
 0005:00002040       $pdata$??$addressof@$$CBV?$_Tree_val@U?$_Tree_simple_types@U?$pair@$$CBW4Object_Type@@PEBVGameObject@@@std@@@std@@@std@@@std@@YAPEBV?$_Tree_val@U?$_Tree_simple_types@U?$pair@$$CBW4Object_Type@@PEBVGameObject@@@std@@@std@@@0@AEBV10@@Z 0000000140055040     config.obj
 0005:0000204c       $pdata$??$addressof@PEAU?$_Tree_node@U?$pair@$$CBW4Object_Type@@PEBVGameObject@@@std@@PEAX@std@@@std@@YAPEAPEAU?$_Tree_node@U?$pair@$$CBW4Object_Type@@PEBVGameObject@@@std@@PEAX@0@AEAPEAU10@@Z 000000014005504c     config.obj
 0005:00002058       $pdata$??$addressof@U?$pair@$$CBW4Object_Type@@PEBVGameObject@@@std@@@std@@YAPEAU?$pair@$$CBW4Object_Type@@PEBVGameObject@@@0@AEAU10@@Z 0000000140055058     config.obj
 0005:00002064       $pdata$??$addressof@V?$_Tree_val@U?$_Tree_simple_types@U?$pair@$$CBW4Object_Type@@PEBVGameObject@@@std@@@std@@@std@@@std@@YAPEAV?$_Tree_val@U?$_Tree_simple_types@U?$pair@$$CBW4Object_Type@@PEBVGameObject@@@std@@@std@@@0@AEAV10@@Z 0000000140055064     config.obj
 0005:00002070       $pdata$??$addressof@V?$basic_string@DU?$char_traits@D@std@@V?$allocator@D@2@@std@@@std@@YAPEAV?$basic_string@DU?$char_traits@D@std@@V?$allocator@D@2@@0@AEAV10@@Z 0000000140055070     config.obj
 0005:0000207c       $pdata$??$construct@PEAU?$_Tree_node@U?$pair@$$CBW4Object_Type@@PEBVGameObject@@@std@@PEAX@std@@AEAPEAU12@@?$_Default_allocator_traits@V?$allocator@U?$_Tree_node@U?$pair@$$CBW4Object_Type@@PEBVGameObject@@@std@@PEAX@std@@@std@@@std@@SAXAEAV?$allocator@U?$_Tree_node@U?$pair@$$CBW4Object_Type@@PEBVGameObject@@@std@@PEAX@std@@@1@QEAPEAU?$_Tree_node@U?$pair@$$CBW4Object_Type@@PEBVGameObject@@@std@@PEAX@1@AEAPEAU31@@Z 000000014005507c     config.obj
 0005:00002088       $pdata$??$construct@U?$pair@$$CBW4Object_Type@@PEBVGameObject@@@std@@AEBUpiecewise_construct_t@2@V?$tuple@$$QEAW4Object_Type@@@2@V?$tuple@$$V@2@@?$_Default_allocator_traits@V?$allocator@U?$_Tree_node@U?$pair@$$CBW4Object_Type@@PEBVGameObject@@@std@@PEAX@std@@@std@@@std@@SAXAEAV?$allocator@U?$_Tree_node@U?$pair@$$CBW4Object_Type@@PEBVGameObject@@@std@@PEAX@std@@@1@QEAU?$pair@$$CBW4Object_Type@@PEBVGameObject@@@1@AEBUpiecewise_construct_t@1@$$QEAV?$tuple@$$QEAW4Object_Type@@@1@$$QEAV?$tuple@$$V@1@@Z 0000000140055088     config.obj
 0005:00002094       $pdata$??$destroy@PEAU?$_Tree_node@U?$pair@$$CBW4Object_Type@@PEBVGameObject@@@std@@PEAX@std@@@?$_Default_allocator_traits@V?$allocator@U?$_Tree_node@U?$pair@$$CBW4Object_Type@@PEBVGameObject@@@std@@PEAX@std@@@std@@@std@@SAXAEAV?$allocator@U?$_Tree_node@U?$pair@$$CBW4Object_Type@@PEBVGameObject@@@std@@PEAX@std@@@1@QEAPEAU?$_Tree_node@U?$pair@$$CBW4Object_Type@@PEBVGameObject@@@std@@PEAX@1@@Z 0000000140055094     config.obj
 0005:000020a0       $pdata$??$destroy@U?$pair@$$CBW4Object_Type@@PEBVGameObject@@@std@@@?$_Default_allocator_traits@V?$allocator@U?$_Tree_node@U?$pair@$$CBW4Object_Type@@PEBVGameObject@@@std@@PEAX@std@@@std@@@std@@SAXAEAV?$allocator@U?$_Tree_node@U?$pair@$$CBW4Object_Type@@PEBVGameObject@@@std@@PEAX@std@@@1@QEAU?$pair@$$CBW4Object_Type@@PEBVGameObject@@@1@@Z 00000001400550a0     config.obj
 0005:000020ac       $pdata$??$emplace_hint@AEBUpiecewise_construct_t@std@@V?$tuple@$$QEAW4Object_Type@@@2@V?$tuple@$$V@2@@?$_Tree@V?$_Tmap_traits@W4Object_Type@@PEBVGameObject@@U?$less@W4Object_Type@@@std@@V?$allocator@U?$pair@$$CBW4Object_Type@@PEBVGameObject@@@std@@@4@$0A@@std@@@std@@QEAA?AV?$_Tree_iterator@V?$_Tree_val@U?$_Tree_simple_types@U?$pair@$$CBW4Object_Type@@PEBVGameObject@@@std@@@std@@@std@@@1@V?$_Tree_const_iterator@V?$_Tree_val@U?$_Tree_simple_types@U?$pair@$$CBW4Object_Type@@PEBVGameObject@@@std@@@std@@@std@@@1@AEBUpiecewise_construct_t@1@$$QEAV?$tuple@$$QEAW4Object_Type@@@1@$$QEAV?$tuple@$$V@1@@Z 00000001400550ac     config.obj
 0005:000020b8       $pdata$??$forward@$$QEAW4Object_Type@@@std@@YA$$QEAW4Object_Type@@AEAW41@@Z 00000001400550b8     config.obj
 0005:000020c4       $pdata$??$forward@AEAPEAU?$_Tree_node@U?$pair@$$CBW4Object_Type@@PEBVGameObject@@@std@@PEAX@std@@@std@@YAAEAPEAU?$_Tree_node@U?$pair@$$CBW4Object_Type@@PEBVGameObject@@@std@@PEAX@0@AEAPEAU10@@Z 00000001400550c4     config.obj
 0005:000020d0       $pdata$??$forward@AEAU?$pair@$$CBW4Object_Type@@PEBVGameObject@@@std@@@std@@YAAEAU?$pair@$$CBW4Object_Type@@PEBVGameObject@@@0@AEAU10@@Z 00000001400550d0     config.obj
 0005:000020dc       $pdata$??$forward@AEAV?$_Tree_iterator@V?$_Tree_val@U?$_Tree_simple_types@U?$pair@$$CBW4Object_Type@@PEBVGameObject@@@std@@@std@@@std@@@std@@@std@@YAAEAV?$_Tree_iterator@V?$_Tree_val@U?$_Tree_simple_types@U?$pair@$$CBW4Object_Type@@PEBVGameObject@@@std@@@std@@@std@@@0@AEAV10@@Z 00000001400550dc     config.obj
 0005:000020e8       $pdata$??$forward@AEBUpiecewise_construct_t@std@@@std@@YAAEBUpiecewise_construct_t@0@AEBU10@@Z 00000001400550e8     config.obj
 0005:000020f4       $pdata$??$forward@AEBV?$allocator@D@std@@@std@@YAAEBV?$allocator@D@0@AEBV10@@Z 00000001400550f4     config.obj
 0005:00002100       $pdata$??$forward@V?$_Tree_iterator@V?$_Tree_val@U?$_Tree_simple_types@U?$pair@$$CBW4Object_Type@@PEBVGameObject@@@std@@@std@@@std@@@std@@@std@@YA$$QEAV?$_Tree_iterator@V?$_Tree_val@U?$_Tree_simple_types@U?$pair@$$CBW4Object_Type@@PEBVGameObject@@@std@@@std@@@std@@@0@AEAV10@@Z 0000000140055100     config.obj
 0005:0000210c       $pdata$??$forward@V?$tuple@$$QEAW4Object_Type@@@std@@@std@@YA$$QEAV?$tuple@$$QEAW4Object_Type@@@0@AEAV10@@Z 000000014005510c     config.obj
 0005:00002118       $pdata$??$forward@V?$tuple@$$V@std@@@std@@YA$$QEAV?$tuple@$$V@0@AEAV10@@Z 0000000140055118     config.obj
 0005:00002124       $pdata$??$forward@W4Object_Type@@@std@@YA$$QEAW4Object_Type@@AEAW41@@Z 0000000140055124     config.obj
 0005:00002130       $pdata$??$forward@_N@std@@YA$$QEA_NAEA_N@Z 0000000140055130     config.obj
 0005:0000213c       $pdata$??$forward_as_tuple@$$V@std@@YA?AV?$tuple@$$V@0@XZ 000000014005513c     config.obj
 0005:00002148       $pdata$??$forward_as_tuple@W4Object_Type@@@std@@YA?AV?$tuple@$$QEAW4Object_Type@@@0@$$QEAW4Object_Type@@@Z 0000000140055148     config.obj
 0005:00002154       $pdata$??$get@$0A@$$QEAW4Object_Type@@@std@@YA$$QEAW4Object_Type@@$$QEAV?$tuple@$$QEAW4Object_Type@@@0@@Z 0000000140055154     config.obj
 0005:00002160       $pdata$??$move@AEAV?$allocator@D@std@@@std@@YA$$QEAV?$allocator@D@0@AEAV10@@Z 0000000140055160     config.obj
 0005:0000216c       $pdata$??$move@AEAV?$basic_string@DU?$char_traits@D@std@@V?$allocator@D@2@@std@@@std@@YA$$QEAV?$basic_string@DU?$char_traits@D@std@@V?$allocator@D@2@@0@AEAV10@@Z 000000014005516c     config.obj
 0005:00002178       $pdata$??$move@AEAV?$tuple@$$QEAW4Object_Type@@@std@@@std@@YA$$QEAV?$tuple@$$QEAW4Object_Type@@@0@AEAV10@@Z 0000000140055178     config.obj
 0005:00002184       $pdata$??$move@AEAW4Object_Type@@@std@@YA$$QEAW4Object_Type@@AEAW41@@Z 0000000140055184     config.obj
 0005:00002190       $pdata$??$try_emplace@$$V@?$map@W4Object_Type@@PEBVGameObject@@U?$less@W4Object_Type@@@std@@V?$allocator@U?$pair@$$CBW4Object_Type@@PEBVGameObject@@@std@@@4@@std@@QEAA?AU?$pair@V?$_Tree_iterator@V?$_Tree_val@U?$_Tree_simple_types@U?$pair@$$CBW4Object_Type@@PEBVGameObject@@@std@@@std@@@std@@@std@@_N@1@$$QEAW4Object_Type@@@Z 0000000140055190     config.obj
 0005:0000219c       $pdata$??0?$_Tree_const_iterator@V?$_Tree_val@U?$_Tree_simple_types@U?$pair@$$CBW4Object_Type@@PEBVGameObject@@@std@@@std@@@std@@@std@@QEAA@$$QEAV01@@Z 000000014005519c     config.obj
 0005:000021a8       $pdata$??0?$_Tree_const_iterator@V?$_Tree_val@U?$_Tree_simple_types@U?$pair@$$CBW4Object_Type@@PEBVGameObject@@@std@@@std@@@std@@@std@@QEAA@AEBV01@@Z 00000001400551a8     config.obj
 0005:000021b4       $pdata$??0?$_Tree_const_iterator@V?$_Tree_val@U?$_Tree_simple_types@U?$pair@$$CBW4Object_Type@@PEBVGameObject@@@std@@@std@@@std@@@std@@QEAA@PEAU?$_Tree_node@U?$pair@$$CBW4Object_Type@@PEBVGameObject@@@std@@PEAX@1@PEBV?$_Tree_val@U?$_Tree_simple_types@U?$pair@$$CBW4Object_Type@@PEBVGameObject@@@std@@@std@@@1@@Z 00000001400551b4     config.obj
 0005:000021c0       $pdata$??0?$_Tree_const_iterator@V?$_Tree_val@U?$_Tree_simple_types@U?$pair@$$CBW4Object_Type@@PEBVGameObject@@@std@@@std@@@std@@@std@@QEAA@XZ 00000001400551c0     config.obj
 0005:000021cc       $pdata$??0?$_Tree_iterator@V?$_Tree_val@U?$_Tree_simple_types@U?$pair@$$CBW4Object_Type@@PEBVGameObject@@@std@@@std@@@std@@@std@@QEAA@$$QEAV01@@Z 00000001400551cc     config.obj
 0005:000021d8       $pdata$??0?$_Tree_iterator@V?$_Tree_val@U?$_Tree_simple_types@U?$pair@$$CBW4Object_Type@@PEBVGameObject@@@std@@@std@@@std@@@std@@QEAA@AEBV01@@Z 00000001400551d8     config.obj
 0005:000021e4       $pdata$??0?$_Tree_iterator@V?$_Tree_val@U?$_Tree_simple_types@U?$pair@$$CBW4Object_Type@@PEBVGameObject@@@std@@@std@@@std@@@std@@QEAA@PEAU?$_Tree_node@U?$pair@$$CBW4Object_Type@@PEBVGameObject@@@std@@PEAX@1@PEBV?$_Tree_val@U?$_Tree_simple_types@U?$pair@$$CBW4Object_Type@@PEBVGameObject@@@std@@@std@@@1@@Z 00000001400551e4     config.obj
 0005:000021f0       $pdata$??0?$_Tree_unchecked_const_iterator@V?$_Tree_val@U?$_Tree_simple_types@U?$pair@$$CBW4Object_Type@@PEBVGameObject@@@std@@@std@@@std@@U_Iterator_base12@2@@std@@QEAA@$$QEAV01@@Z 00000001400551f0     config.obj
 0005:000021fc       $pdata$??0?$_Tree_unchecked_const_iterator@V?$_Tree_val@U?$_Tree_simple_types@U?$pair@$$CBW4Object_Type@@PEBVGameObject@@@std@@@std@@@std@@U_Iterator_base12@2@@std@@QEAA@AEBV01@@Z 00000001400551fc     config.obj
 0005:00002208       $pdata$??0?$_Tree_unchecked_const_iterator@V?$_Tree_val@U?$_Tree_simple_types@U?$pair@$$CBW4Object_Type@@PEBVGameObject@@@std@@@std@@@std@@U_Iterator_base12@2@@std@@QEAA@PEAU?$_Tree_node@U?$pair@$$CBW4Object_Type@@PEBVGameObject@@@std@@PEAX@1@PEBV?$_Tree_val@U?$_Tree_simple_types@U?$pair@$$CBW4Object_Type@@PEBVGameObject@@@std@@@std@@@1@@Z 0000000140055208     config.obj
 0005:00002214       $pdata$??0?$_Tree_unchecked_const_iterator@V?$_Tree_val@U?$_Tree_simple_types@U?$pair@$$CBW4Object_Type@@PEBVGameObject@@@std@@@std@@@std@@U_Iterator_base12@2@@std@@QEAA@XZ 0000000140055214     config.obj
 0005:00002220       $pdata$??0?$basic_string@DU?$char_traits@D@std@@V?$allocator@D@2@@std@@QEAA@AEBV01@_K1AEBV?$allocator@D@1@@Z 0000000140055220     config.obj
 0005:0000222c       $pdata$??0?$tuple@$$QEAW4Object_Type@@@std@@QEAA@$$QEAV01@@Z 000000014005522c     config.obj
 0005:00002238       $pdata$??0?$tuple@$$V@std@@QEAA@AEBV01@@Z 0000000140055238     config.obj
 0005:00002244       $pdata$??0?$tuple@$$V@std@@QEAA@XZ 0000000140055244     config.obj
 0005:00002250       $pdata$??0_Iterator_base12@std@@QEAA@AEBU01@@Z 0000000140055250     config.obj
 0005:0000225c       $pdata$??0_Iterator_base12@std@@QEAA@XZ 000000014005525c     config.obj
 0005:00002268       $pdata$??1?$_Tree_const_iterator@V?$_Tree_val@U?$_Tree_simple_types@U?$pair@$$CBW4Object_Type@@PEBVGameObject@@@std@@@std@@@std@@@std@@QEAA@XZ 0000000140055268     config.obj
 0005:00002274       $pdata$??1?$_Tree_iterator@V?$_Tree_val@U?$_Tree_simple_types@U?$pair@$$CBW4Object_Type@@PEBVGameObject@@@std@@@std@@@std@@@std@@QEAA@XZ 0000000140055274     config.obj
 0005:00002280       $pdata$??1?$_Tree_unchecked_const_iterator@V?$_Tree_val@U?$_Tree_simple_types@U?$pair@$$CBW4Object_Type@@PEBVGameObject@@@std@@@std@@@std@@U_Iterator_base12@2@@std@@QEAA@XZ 0000000140055280     config.obj
 0005:0000228c       $pdata$??1?$pair@V?$_Tree_iterator@V?$_Tree_val@U?$_Tree_simple_types@U?$pair@$$CBW4Object_Type@@PEBVGameObject@@@std@@@std@@@std@@@std@@_N@std@@QEAA@XZ 000000014005528c     config.obj
 0005:00002298       $pdata$??1_Iterator_base12@std@@QEAA@XZ 0000000140055298     config.obj
 0005:000022a4       $pdata$??4?$_Tree_const_iterator@V?$_Tree_val@U?$_Tree_simple_types@U?$pair@$$CBW4Object_Type@@PEBVGameObject@@@std@@@std@@@std@@@std@@QEAAAEAV01@AEBV01@@Z 00000001400552a4     config.obj
 0005:000022b0       $pdata$??4?$_Tree_unchecked_const_iterator@V?$_Tree_val@U?$_Tree_simple_types@U?$pair@$$CBW4Object_Type@@PEBVGameObject@@@std@@@std@@@std@@U_Iterator_base12@2@@std@@QEAAAEAV01@AEBV01@@Z 00000001400552b0     config.obj
 0005:000022bc       $pdata$??4?$basic_string@DU?$char_traits@D@std@@V?$allocator@D@2@@std@@QEAAAEAV01@$$QEAV01@@Z 00000001400552bc     config.obj
 0005:000022c8       $pdata$??4_Iterator_base12@std@@QEAAAEAU01@AEBU01@@Z 00000001400552c8     config.obj
 0005:000022d4       $pdata$??8?$_Tree_const_iterator@V?$_Tree_val@U?$_Tree_simple_types@U?$pair@$$CBW4Object_Type@@PEBVGameObject@@@std@@@std@@@std@@@std@@QEBA_NAEBV01@@Z 00000001400552d4     config.obj
 0005:000022e0       $pdata$??A?$map@W4Object_Type@@PEBVGameObject@@U?$less@W4Object_Type@@@std@@V?$allocator@U?$pair@$$CBW4Object_Type@@PEBVGameObject@@@std@@@4@@std@@QEAAAEAPEBVGameObject@@$$QEAW4Object_Type@@@Z 00000001400552e0     config.obj
 0005:000022ec       $pdata$??C?$_Tree_const_iterator@V?$_Tree_val@U?$_Tree_simple_types@U?$pair@$$CBW4Object_Type@@PEBVGameObject@@@std@@@std@@@std@@@std@@QEBAPEBU?$pair@$$CBW4Object_Type@@PEBVGameObject@@@1@XZ 00000001400552ec     config.obj
 0005:000022f8       $pdata$??C?$_Tree_iterator@V?$_Tree_val@U?$_Tree_simple_types@U?$pair@$$CBW4Object_Type@@PEBVGameObject@@@std@@@std@@@std@@@std@@QEBAPEAU?$pair@$$CBW4Object_Type@@PEBVGameObject@@@1@XZ 00000001400552f8     config.obj
 0005:00002304       $pdata$??D?$_Tree_const_iterator@V?$_Tree_val@U?$_Tree_simple_types@U?$pair@$$CBW4Object_Type@@PEBVGameObject@@@std@@@std@@@std@@@std@@QEBAAEBU?$pair@$$CBW4Object_Type@@PEBVGameObject@@@1@XZ 0000000140055304     config.obj
 0005:00002310       $pdata$??D?$_Tree_iterator@V?$_Tree_val@U?$_Tree_simple_types@U?$pair@$$CBW4Object_Type@@PEBVGameObject@@@std@@@std@@@std@@@std@@QEBAAEAU?$pair@$$CBW4Object_Type@@PEBVGameObject@@@1@XZ 0000000140055310     config.obj
 0005:0000231c       $pdata$??E?$_Tree_const_iterator@V?$_Tree_val@U?$_Tree_simple_types@U?$pair@$$CBW4Object_Type@@PEBVGameObject@@@std@@@std@@@std@@@std@@QEAAAEAV01@XZ 000000014005531c     config.obj
 0005:00002328       $pdata$??E?$_Tree_unchecked_const_iterator@V?$_Tree_val@U?$_Tree_simple_types@U?$pair@$$CBW4Object_Type@@PEBVGameObject@@@std@@@std@@@std@@U_Iterator_base12@2@@std@@QEAAAEAV01@XZ 0000000140055328     config.obj
 0005:00002334       $pdata$??F?$_Tree_const_iterator@V?$_Tree_val@U?$_Tree_simple_types@U?$pair@$$CBW4Object_Type@@PEBVGameObject@@@std@@@std@@@std@@@std@@QEAAAEAV01@XZ 0000000140055334     config.obj
 0005:00002340       $pdata$??F?$_Tree_iterator@V?$_Tree_val@U?$_Tree_simple_types@U?$pair@$$CBW4Object_Type@@PEBVGameObject@@@std@@@std@@@std@@@std@@QEAAAEAV01@XZ 0000000140055340     config.obj
 0005:0000234c       $pdata$??F?$_Tree_unchecked_const_iterator@V?$_Tree_val@U?$_Tree_simple_types@U?$pair@$$CBW4Object_Type@@PEBVGameObject@@@std@@@std@@@std@@U_Iterator_base12@2@@std@@QEAAAEAV01@XZ 000000014005534c     config.obj
 0005:00002358       $pdata$??R<lambda_66f57f934f28d61049862f64df852ff0>@@QEBAXQEAD_KQEBD@Z 0000000140055358     config.obj
 0005:00002364       $pdata$??R?$less@W4Object_Type@@@std@@QEBA_NAEBW4Object_Type@@0@Z 0000000140055364     config.obj
 0005:00002370       $pdata$?Create_Object@ConfigManager@@QEBAPEAVGameObject@@W4Object_Type@@@Z 0000000140055370     config.obj
 0005:0000237c       $pdata$?Get_Word_Pos_End@Config_Parser@@YAPEBDPEBD@Z 000000014005537c     config.obj
 0005:00002388       $pdata$?Is_Comment_Line@Config_Parser@@YA_NPEBD@Z 0000000140055388     config.obj
 0005:00002394       $pdata$?Load@ConfigManager@@QEAA_NPEBD@Z 0000000140055394     config.obj
 0005:000023a0       $pdata$?Read@Config_Parser@@YAPEBDPEBDAEAH@Z 00000001400553a0     config.obj
 0005:000023ac       $pdata$?Read@Config_Parser@@YAPEBDPEBDAEAM@Z 00000001400553ac     config.obj
 0005:000023b8       $pdata$?Read@Config_Parser@@YAPEBDPEBDAEAV?$basic_string@DU?$char_traits@D@std@@V?$allocator@D@2@@std@@@Z 00000001400553b8     config.obj
 0005:000023c4       $pdata$?Read_Line@ConfigManager@@AEBA_KPEAU_iobuf@@PEAD_K@Z 00000001400553c4     config.obj
 0005:000023d0       $pdata$?_Adopt@_Iterator_base12@std@@QEAAXPEBU_Container_base12@2@@Z 00000001400553d0     config.obj
 0005:000023dc       $pdata$?_Assign_rv_contents@?$basic_string@DU?$char_traits@D@std@@V?$allocator@D@2@@std@@QEAAX$$QEAV12@U?$integral_constant@_N$00@2@@Z 00000001400553dc     config.obj
 0005:000023e8       $pdata$?_Assign_rv_contents_with_alloc_always_equal@?$basic_string@DU?$char_traits@D@std@@V?$allocator@D@2@@std@@QEAAX$$QEAV12@U?$integral_constant@_N$00@2@@Z 00000001400553e8     config.obj
 0005:000023f4       $pdata$?_Buynode0@?$_Tree_comp_alloc@V?$_Tmap_traits@W4Object_Type@@PEBVGameObject@@U?$less@W4Object_Type@@@std@@V?$allocator@U?$pair@$$CBW4Object_Type@@PEBVGameObject@@@std@@@4@$0A@@std@@@std@@QEAAPEAU?$_Tree_node@U?$pair@$$CBW4Object_Type@@PEBVGameObject@@@std@@PEAX@2@XZ 00000001400553f4     config.obj
 0005:00002400       $pdata$?_Check_offset@?$_String_val@U?$_Simple_types@D@std@@@std@@QEBAX_K@Z 0000000140055400     config.obj
 0005:0000240c       $pdata$?_Clamp_suffix_size@?$_String_val@U?$_Simple_types@D@std@@@std@@QEBA_K_K0@Z 000000014005540c     config.obj
 0005:00002418       $pdata$?_Compare@?$_Tree@V?$_Tmap_traits@W4Object_Type@@PEBVGameObject@@U?$less@W4Object_Type@@@std@@V?$allocator@U?$pair@$$CBW4Object_Type@@PEBVGameObject@@@std@@@4@$0A@@std@@@std@@IEBA_NAEBW4Object_Type@@0@Z 0000000140055418     config.obj
 0005:00002424       $pdata$?_Destroy_if_node@?$_Tree@V?$_Tmap_traits@W4Object_Type@@PEBVGameObject@@U?$less@W4Object_Type@@@std@@V?$allocator@U?$pair@$$CBW4Object_Type@@PEBVGameObject@@@std@@@4@$0A@@std@@@std@@IEAAXPEAU?$_Tree_node@U?$pair@$$CBW4Object_Type@@PEBVGameObject@@@std@@PEAX@2@@Z 0000000140055424     config.obj
 0005:00002430       $pdata$?_Freenode0@?$_Tree_comp_alloc@V?$_Tmap_traits@W4Object_Type@@PEBVGameObject@@U?$less@W4Object_Type@@@std@@V?$allocator@U?$pair@$$CBW4Object_Type@@PEBVGameObject@@@std@@@4@$0A@@std@@@std@@QEAAXPEAU?$_Tree_node@U?$pair@$$CBW4Object_Type@@PEBVGameObject@@@std@@PEAX@2@@Z 0000000140055430     config.obj
 0005:0000243c       $pdata$?_Get_data@?$_Tree_comp_alloc@V?$_Tmap_traits@W4Object_Type@@PEBVGameObject@@U?$less@W4Object_Type@@@std@@V?$allocator@U?$pair@$$CBW4Object_Type@@PEBVGameObject@@@std@@@4@$0A@@std@@@std@@QEAAAEAV?$_Tree_val@U?$_Tree_simple_types@U?$pair@$$CBW4Object_Type@@PEBVGameObject@@@std@@@std@@@2@XZ 000000014005543c     config.obj
 0005:00002448       $pdata$?_Get_data@?$_Tree_comp_alloc@V?$_Tmap_traits@W4Object_Type@@PEBVGameObject@@U?$less@W4Object_Type@@@std@@V?$allocator@U?$pair@$$CBW4Object_Type@@PEBVGameObject@@@std@@@4@$0A@@std@@@std@@QEBAAEBV?$_Tree_val@U?$_Tree_simple_types@U?$pair@$$CBW4Object_Type@@PEBVGameObject@@@std@@@std@@@2@XZ 0000000140055448     config.obj
 0005:00002454       $pdata$?_Get_first@?$_Compressed_pair@U?$less@W4Object_Type@@@std@@V?$_Compressed_pair@V?$allocator@U?$_Tree_node@U?$pair@$$CBW4Object_Type@@PEBVGameObject@@@std@@PEAX@std@@@std@@V?$_Tree_val@U?$_Tree_simple_types@U?$pair@$$CBW4Object_Type@@PEBVGameObject@@@std@@@std@@@2@$00@2@$00@std@@QEAAAEAU?$less@W4Object_Type@@@2@XZ 0000000140055454     config.obj
 0005:00002460       $pdata$?_Get_first@?$_Compressed_pair@U?$less@W4Object_Type@@@std@@V?$_Compressed_pair@V?$allocator@U?$_Tree_node@U?$pair@$$CBW4Object_Type@@PEBVGameObject@@@std@@PEAX@std@@@std@@V?$_Tree_val@U?$_Tree_simple_types@U?$pair@$$CBW4Object_Type@@PEBVGameObject@@@std@@@std@@@2@$00@2@$00@std@@QEBAAEBU?$less@W4Object_Type@@@2@XZ 0000000140055460     config.obj
 0005:0000246c       $pdata$?_Get_first@?$_Compressed_pair@V?$allocator@U?$_Tree_node@U?$pair@$$CBW4Object_Type@@PEBVGameObject@@@std@@PEAX@std@@@std@@V?$_Tree_val@U?$_Tree_simple_types@U?$pair@$$CBW4Object_Type@@PEBVGameObject@@@std@@@std@@@2@$00@std@@QEAAAEAV?$allocator@U?$_Tree_node@U?$pair@$$CBW4Object_Type@@PEBVGameObject@@@std@@PEAX@std@@@2@XZ 000000014005546c     config.obj
 0005:00002478       $pdata$?_Get_first@?$_Compressed_pair@V?$allocator@U?$_Tree_node@U?$pair@$$CBW4Object_Type@@PEBVGameObject@@@std@@PEAX@std@@@std@@V?$_Tree_val@U?$_Tree_simple_types@U?$pair@$$CBW4Object_Type@@PEBVGameObject@@@std@@@std@@@2@$00@std@@QEBAAEBV?$allocator@U?$_Tree_node@U?$pair@$$CBW4Object_Type@@PEBVGameObject@@@std@@PEAX@std@@@2@XZ 0000000140055478     config.obj
 0005:00002484       $pdata$?_Get_second@?$_Compressed_pair@U?$less@W4Object_Type@@@std@@V?$_Compressed_pair@V?$allocator@U?$_Tree_node@U?$pair@$$CBW4Object_Type@@PEBVGameObject@@@std@@PEAX@std@@@std@@V?$_Tree_val@U?$_Tree_simple_types@U?$pair@$$CBW4Object_Type@@PEBVGameObject@@@std@@@std@@@2@$00@2@$00@std@@QEAAAEAV?$_Compressed_pair@V?$allocator@U?$_Tree_node@U?$pair@$$CBW4Object_Type@@PEBVGameObject@@@std@@PEAX@std@@@std@@V?$_Tree_val@U?$_Tree_simple_types@U?$pair@$$CBW4Object_Type@@PEBVGameObject@@@std@@@std@@@2@$00@2@XZ 0000000140055484     config.obj
 0005:00002490       $pdata$?_Get_second@?$_Compressed_pair@U?$less@W4Object_Type@@@std@@V?$_Compressed_pair@V?$allocator@U?$_Tree_node@U?$pair@$$CBW4Object_Type@@PEBVGameObject@@@std@@PEAX@std@@@std@@V?$_Tree_val@U?$_Tree_simple_types@U?$pair@$$CBW4Object_Type@@PEBVGameObject@@@std@@@std@@@2@$00@2@$00@std@@QEBAAEBV?$_Compressed_pair@V?$allocator@U?$_Tree_node@U?$pair@$$CBW4Object_Type@@PEBVGameObject@@@std@@PEAX@std@@@std@@V?$_Tree_val@U?$_Tree_simple_types@U?$pair@$$CBW4Object_Type@@PEBVGameObject@@@std@@@std@@@2@$00@2@XZ 0000000140055490     config.obj
 0005:0000249c       $pdata$?_Get_second@?$_Compressed_pair@V?$allocator@U?$_Tree_node@U?$pair@$$CBW4Object_Type@@PEBVGameObject@@@std@@PEAX@std@@@std@@V?$_Tree_val@U?$_Tree_simple_types@U?$pair@$$CBW4Object_Type@@PEBVGameObject@@@std@@@std@@@2@$00@std@@QEAAAEAV?$_Tree_val@U?$_Tree_simple_types@U?$pair@$$CBW4Object_Type@@PEBVGameObject@@@std@@@std@@@2@XZ 000000014005549c     config.obj
 0005:000024a8       $pdata$?_Get_second@?$_Compressed_pair@V?$allocator@U?$_Tree_node@U?$pair@$$CBW4Object_Type@@PEBVGameObject@@@std@@PEAX@std@@@std@@V?$_Tree_val@U?$_Tree_simple_types@U?$pair@$$CBW4Object_Type@@PEBVGameObject@@@std@@@std@@@2@$00@std@@QEBAAEBV?$_Tree_val@U?$_Tree_simple_types@U?$pair@$$CBW4Object_Type@@PEBVGameObject@@@std@@@std@@@2@XZ 00000001400554a8     config.obj
 0005:000024b4       $pdata$?_Getal@?$_Tree_comp_alloc@V?$_Tmap_traits@W4Object_Type@@PEBVGameObject@@U?$less@W4Object_Type@@@std@@V?$allocator@U?$pair@$$CBW4Object_Type@@PEBVGameObject@@@std@@@4@$0A@@std@@@std@@QEAAAEAV?$allocator@U?$_Tree_node@U?$pair@$$CBW4Object_Type@@PEBVGameObject@@@std@@PEAX@std@@@2@XZ 00000001400554b4     config.obj
 0005:000024c0       $pdata$?_Getal@?$_Tree_comp_alloc@V?$_Tmap_traits@W4Object_Type@@PEBVGameObject@@U?$less@W4Object_Type@@@std@@V?$allocator@U?$pair@$$CBW4Object_Type@@PEBVGameObject@@@std@@@4@$0A@@std@@@std@@QEBAAEBV?$allocator@U?$_Tree_node@U?$pair@$$CBW4Object_Type@@PEBVGameObject@@@std@@PEAX@std@@@2@XZ 00000001400554c0     config.obj
 0005:000024cc       $pdata$?_Getcomp@?$_Tree_comp_alloc@V?$_Tmap_traits@W4Object_Type@@PEBVGameObject@@U?$less@W4Object_Type@@@std@@V?$allocator@U?$pair@$$CBW4Object_Type@@PEBVGameObject@@@std@@@4@$0A@@std@@@std@@QEAAAEAU?$less@W4Object_Type@@@2@XZ 00000001400554cc     config.obj
 0005:000024d8       $pdata$?_Getcomp@?$_Tree_comp_alloc@V?$_Tmap_traits@W4Object_Type@@PEBVGameObject@@U?$less@W4Object_Type@@@std@@V?$allocator@U?$pair@$$CBW4Object_Type@@PEBVGameObject@@@std@@@4@$0A@@std@@@std@@QEBAAEBU?$less@W4Object_Type@@@2@XZ 00000001400554d8     config.obj
 0005:000024e4       $pdata$?_Getcont@_Iterator_base12@std@@QEBAPEBU_Container_base12@2@XZ 00000001400554e4     config.obj
 0005:000024f0       $pdata$?_Key@?$_Tree@V?$_Tmap_traits@W4Object_Type@@PEBVGameObject@@U?$less@W4Object_Type@@@std@@V?$allocator@U?$pair@$$CBW4Object_Type@@PEBVGameObject@@@std@@@4@$0A@@std@@@std@@IEBAAEBW4Object_Type@@PEAU?$_Tree_node@U?$pair@$$CBW4Object_Type@@PEBVGameObject@@@std@@PEAX@2@@Z 00000001400554f0     config.obj
 0005:000024fc       $pdata$?_Kfn@?$_Tree@V?$_Tmap_traits@W4Object_Type@@PEBVGameObject@@U?$less@W4Object_Type@@@std@@V?$allocator@U?$pair@$$CBW4Object_Type@@PEBVGameObject@@@std@@@4@$0A@@std@@@std@@IEBAAEBW4Object_Type@@AEBU?$pair@$$CBW4Object_Type@@PEBVGameObject@@@2@@Z 00000001400554fc     config.obj
 0005:00002508       $pdata$?_Lmost@?$_Tree_val@U?$_Tree_simple_types@U?$pair@$$CBW4Object_Type@@PEBVGameObject@@@std@@@std@@@std@@QEBAAEAPEAU?$_Tree_node@U?$pair@$$CBW4Object_Type@@PEBVGameObject@@@std@@PEAX@2@XZ 0000000140055508     config.obj
 0005:00002514       $pdata$?_Lrotate@?$_Tree_val@U?$_Tree_simple_types@U?$pair@$$CBW4Object_Type@@PEBVGameObject@@@std@@@std@@@std@@QEAAXPEAU?$_Tree_node@U?$pair@$$CBW4Object_Type@@PEBVGameObject@@@std@@PEAX@2@@Z 0000000140055514     config.obj
 0005:00002520       $pdata$?_Max@?$_Tree_val@U?$_Tree_simple_types@U?$pair@$$CBW4Object_Type@@PEBVGameObject@@@std@@@std@@@std@@SAPEAU?$_Tree_node@U?$pair@$$CBW4Object_Type@@PEBVGameObject@@@std@@PEAX@2@PEAU32@@Z 0000000140055520     config.obj
 0005:0000252c       $pdata$?_Min@?$_Tree_val@U?$_Tree_simple_types@U?$pair@$$CBW4Object_Type@@PEBVGameObject@@@std@@@std@@@std@@SAPEAU?$_Tree_node@U?$pair@$$CBW4Object_Type@@PEBVGameObject@@@std@@PEAX@2@PEAU32@@Z 000000014005552c     config.obj
 0005:00002538       $pdata$?_Move_alloc@?$_String_alloc@U?$_String_base_types@DV?$allocator@D@std@@@std@@@std@@QEAAXAEAV?$allocator@D@2@@Z 0000000140055538     config.obj
 0005:00002544       $pdata$?_Myptr@?$_String_val@U?$_Simple_types@D@std@@@std@@QEBAPEBDXZ 0000000140055544     config.obj
 0005:00002550       $pdata$?_Orphan_me@_Iterator_base12@std@@QEAAXXZ 0000000140055550     config.obj
 0005:0000255c       $pdata$?_Rmost@?$_Tree_val@U?$_Tree_simple_types@U?$pair@$$CBW4Object_Type@@PEBVGameObject@@@std@@@std@@@std@@QEBAAEAPEAU?$_Tree_node@U?$pair@$$CBW4Object_Type@@PEBVGameObject@@@std@@PEAX@2@XZ 000000014005555c     config.obj
 0005:00002568       $pdata$?_Root@?$_Tree_val@U?$_Tree_simple_types@U?$pair@$$CBW4Object_Type@@PEBVGameObject@@@std@@@std@@@std@@QEBAAEAPEAU?$_Tree_node@U?$pair@$$CBW4Object_Type@@PEBVGameObject@@@std@@PEAX@2@XZ 0000000140055568     config.obj
 0005:00002574       $pdata$?_Rrotate@?$_Tree_val@U?$_Tree_simple_types@U?$pair@$$CBW4Object_Type@@PEBVGameObject@@@std@@@std@@@std@@QEAAXPEAU?$_Tree_node@U?$pair@$$CBW4Object_Type@@PEBVGameObject@@@std@@PEAX@2@@Z 0000000140055574     config.obj
 0005:00002580       $pdata$?_Swap_all@?$_String_alloc@U?$_String_base_types@DV?$allocator@D@std@@@std@@@std@@QEAAXAEAV12@@Z 0000000140055580     config.obj
 0005:0000258c       $pdata$?_Swap_all@_Container_base12@std@@QEAAXAEAU12@@Z 000000014005558c     config.obj
 0005:00002598       $pdata$?_Xran@?$_String_val@U?$_Simple_types@D@std@@@std@@SAXXZ 0000000140055598     config.obj
 0005:000025a4       $pdata$?allocate@?$allocator@U?$_Tree_node@U?$pair@$$CBW4Object_Type@@PEBVGameObject@@@std@@PEAX@std@@@std@@QEAAPEAU?$_Tree_node@U?$pair@$$CBW4Object_Type@@PEBVGameObject@@@std@@PEAX@2@_K@Z 00000001400555a4     config.obj
 0005:000025b0       $pdata$?assign@?$basic_string@DU?$char_traits@D@std@@V?$allocator@D@2@@std@@QEAAAEAV12@AEBV12@_K_K@Z 00000001400555b0     config.obj
 0005:000025bc       $pdata$?begin@?$_Tree@V?$_Tmap_traits@W4Object_Type@@PEBVGameObject@@U?$less@W4Object_Type@@@std@@V?$allocator@U?$pair@$$CBW4Object_Type@@PEBVGameObject@@@std@@@4@$0A@@std@@@std@@QEAA?AV?$_Tree_iterator@V?$_Tree_val@U?$_Tree_simple_types@U?$pair@$$CBW4Object_Type@@PEBVGameObject@@@std@@@std@@@std@@@2@XZ 00000001400555bc     config.obj
 0005:000025c8       $pdata$?c_str@?$basic_string@DU?$char_traits@D@std@@V?$allocator@D@2@@std@@QEBAPEBDXZ 00000001400555c8     config.obj
 0005:000025d4       $pdata$?deallocate@?$_Default_allocator_traits@V?$allocator@U?$_Tree_node@U?$pair@$$CBW4Object_Type@@PEBVGameObject@@@std@@PEAX@std@@@std@@@std@@SAXAEAV?$allocator@U?$_Tree_node@U?$pair@$$CBW4Object_Type@@PEBVGameObject@@@std@@PEAX@std@@@2@QEAU?$_Tree_node@U?$pair@$$CBW4Object_Type@@PEBVGameObject@@@std@@PEAX@2@_K@Z 00000001400555d4     config.obj
 0005:000025e0       $pdata$?deallocate@?$allocator@U?$_Tree_node@U?$pair@$$CBW4Object_Type@@PEBVGameObject@@@std@@PEAX@std@@@std@@QEAAXQEAU?$_Tree_node@U?$pair@$$CBW4Object_Type@@PEBVGameObject@@@std@@PEAX@2@_K@Z 00000001400555e0     config.obj
 0005:000025ec       $pdata$?end@?$_Tree@V?$_Tmap_traits@W4Object_Type@@PEBVGameObject@@U?$less@W4Object_Type@@@std@@V?$allocator@U?$pair@$$CBW4Object_Type@@PEBVGameObject@@@std@@@4@$0A@@std@@@std@@QEAA?AV?$_Tree_iterator@V?$_Tree_val@U?$_Tree_simple_types@U?$pair@$$CBW4Object_Type@@PEBVGameObject@@@std@@@std@@@std@@@2@XZ 00000001400555ec     config.obj
 0005:000025f8       $pdata$?end@?$_Tree@V?$_Tmap_traits@W4Object_Type@@PEBVGameObject@@U?$less@W4Object_Type@@@std@@V?$allocator@U?$pair@$$CBW4Object_Type@@PEBVGameObject@@@std@@@4@$0A@@std@@@std@@QEBA?AV?$_Tree_const_iterator@V?$_Tree_val@U?$_Tree_simple_types@U?$pair@$$CBW4Object_Type@@PEBVGameObject@@@std@@@std@@@std@@@2@XZ 00000001400555f8     config.obj
 0005:00002604       $pdata$?find@?$_Tree@V?$_Tmap_traits@W4Object_Type@@PEBVGameObject@@U?$less@W4Object_Type@@@std@@V?$allocator@U?$pair@$$CBW4Object_Type@@PEBVGameObject@@@std@@@4@$0A@@std@@@std@@QEBA?AV?$_Tree_const_iterator@V?$_Tree_val@U?$_Tree_simple_types@U?$pair@$$CBW4Object_Type@@PEBVGameObject@@@std@@@std@@@std@@@2@AEBW4Object_Type@@@Z 0000000140055604     config.obj
 0005:00002610       $pdata$?lower_bound@?$_Tree@V?$_Tmap_traits@W4Object_Type@@PEBVGameObject@@U?$less@W4Object_Type@@@std@@V?$allocator@U?$pair@$$CBW4Object_Type@@PEBVGameObject@@@std@@@4@$0A@@std@@@std@@QEAA?AV?$_Tree_iterator@V?$_Tree_val@U?$_Tree_simple_types@U?$pair@$$CBW4Object_Type@@PEBVGameObject@@@std@@@std@@@std@@@2@AEBW4Object_Type@@@Z 0000000140055610     config.obj
 0005:0000261c       $pdata$?lower_bound@?$_Tree@V?$_Tmap_traits@W4Object_Type@@PEBVGameObject@@U?$less@W4Object_Type@@@std@@V?$allocator@U?$pair@$$CBW4Object_Type@@PEBVGameObject@@@std@@@4@$0A@@std@@@std@@QEBA?AV?$_Tree_const_iterator@V?$_Tree_val@U?$_Tree_simple_types@U?$pair@$$CBW4Object_Type@@PEBVGameObject@@@std@@@std@@@std@@@2@AEBW4Object_Type@@@Z 000000014005561c     config.obj
 0005:00002628       $pdata$?max_size@?$_Default_allocator_traits@V?$allocator@U?$_Tree_node@U?$pair@$$CBW4Object_Type@@PEBVGameObject@@@std@@PEAX@std@@@std@@@std@@SA_KAEBV?$allocator@U?$_Tree_node@U?$pair@$$CBW4Object_Type@@PEBVGameObject@@@std@@PEAX@std@@@2@@Z 0000000140055628     config.obj
 0005:00002634       $pdata$?max_size@?$_Tree@V?$_Tmap_traits@W4Object_Type@@PEBVGameObject@@U?$less@W4Object_Type@@@std@@V?$allocator@U?$pair@$$CBW4Object_Type@@PEBVGameObject@@@std@@@4@$0A@@std@@@std@@QEBA_KXZ 0000000140055634     config.obj
 0005:00002640       $pdata$?pointer_to@?$pointer_traits@PEAU?$pair@$$CBW4Object_Type@@PEBVGameObject@@@std@@@std@@SAPEAU?$pair@$$CBW4Object_Type@@PEBVGameObject@@@2@AEAU32@@Z 0000000140055640     config.obj
 0005:0000264c       $pdata$?pointer_to@?$pointer_traits@PEBU?$pair@$$CBW4Object_Type@@PEBVGameObject@@@std@@@std@@SAPEBU?$pair@$$CBW4Object_Type@@PEBVGameObject@@@2@AEBU32@@Z 000000014005564c     config.obj
 0005:00002658       $pdata$?size@?$_Tree@V?$_Tmap_traits@W4Object_Type@@PEBVGameObject@@U?$less@W4Object_Type@@@std@@V?$allocator@U?$pair@$$CBW4Object_Type@@PEBVGameObject@@@std@@@4@$0A@@std@@@std@@QEBA_KXZ 0000000140055658     config.obj
 0005:00002664       $pdata$?stof@std@@YAMAEBV?$basic_string@DU?$char_traits@D@std@@V?$allocator@D@2@@1@PEA_K@Z 0000000140055664     config.obj
 0005:00002670       $pdata$?stoi@std@@YAHAEBV?$basic_string@DU?$char_traits@D@std@@V?$allocator@D@2@@1@PEA_KH@Z 0000000140055670     config.obj
 0005:0000267c       $pdata$__local_stdio_printf_options 000000014005567c     config.obj
 0005:00002688       $pdata$_vfprintf_l         0000000140055688     config.obj
 0005:00002694       $pdata$printf              0000000140055694     config.obj
 0005:000026a0       $pdata$??0?$Container@VGameObject@@@@QEAA@AEBV?$Vector2@M@sf@@0@Z 00000001400556a0     container.obj
 0005:000026ac       $pdata$??0?$Container@VWidget@@@@QEAA@AEBV?$Vector2@M@sf@@0@Z 00000001400556ac     container.obj
 0005:000026b8       $pdata$??1?$Container@VGameObject@@@@UEAA@XZ 00000001400556b8     container.obj
 0005:000026c4       $pdata$??1?$Container@VWidget@@@@UEAA@XZ 00000001400556c4     container.obj
 0005:000026d0       $pdata$??_G?$Container@VGameObject@@@@UEAAPEAXI@Z 00000001400556d0     container.obj
 0005:000026dc       $pdata$??_G?$Container@VWidget@@@@UEAAPEAXI@Z 00000001400556dc     container.obj
 0005:000026e8       $pdata$?AddWidget@?$Container@VGameObject@@@@QEAAXPEAVGameObject@@@Z 00000001400556e8     container.obj
 0005:000026f4       $pdata$?AddWidget@?$Container@VWidget@@@@QEAAXPEAVWidget@@@Z 00000001400556f4     container.obj
 0005:00002700       $pdata$?Draw@?$Container@VGameObject@@@@UEAAXPEAVRenderWindow@sf@@@Z 0000000140055700     container.obj
 0005:0000270c       $pdata$?Draw@?$Container@VWidget@@@@UEAAXPEAVRenderWindow@sf@@@Z 000000014005570c     container.obj
 0005:00002718       $pdata$?GetWidget@?$Container@VGameObject@@@@QEBAPEAVGameObject@@_K@Z 0000000140055718     container.obj
 0005:00002724       $pdata$?GetWidget@?$Container@VWidget@@@@QEBAPEAVWidget@@_K@Z 0000000140055724     container.obj
 0005:00002730       $pdata$?GetWidgetsCount@?$Container@VGameObject@@@@QEBA_KXZ 0000000140055730     container.obj
 0005:0000273c       $pdata$?GetWidgetsCount@?$Container@VWidget@@@@QEBA_KXZ 000000014005573c     container.obj
 0005:00002748       $pdata$?HandleEvent@?$Container@VGameObject@@@@UEAAXAEBVEvent@sf@@@Z 0000000140055748     container.obj
 0005:00002754       $pdata$?HandleEvent@?$Container@VWidget@@@@UEAAXAEBVEvent@sf@@@Z 0000000140055754     container.obj
 0005:00002760       $pdata$?RemoveWidget@?$Container@VGameObject@@@@QEAA_NPEAVGameObject@@@Z 0000000140055760     container.obj
 0005:0000276c       $pdata$?RemoveWidget@?$Container@VWidget@@@@QEAA_NPEAVWidget@@@Z 000000014005576c     container.obj
 0005:00002778       $pdata$?SetPos@?$Container@VGameObject@@@@UEAAXAEBV?$Vector2@M@sf@@@Z 0000000140055778     container.obj
 0005:00002784       $pdata$?SetPos@?$Container@VWidget@@@@UEAAXAEBV?$Vector2@M@sf@@@Z 0000000140055784     container.obj
 0005:00002790       $pdata$?Update@?$Container@VGameObject@@@@UEAAXAEBVTime@sf@@@Z 0000000140055790     container.obj
 0005:0000279c       $pdata$?Update@?$Container@VWidget@@@@UEAAXAEBVTime@sf@@@Z 000000014005579c     container.obj
 0005:000027a8       $pdata$??$?0$$V@?$_Compressed_pair@V?$allocator@PEAV?$Container@VWidget@@@@@std@@V?$_Vector_val@U?$_Simple_types@PEAV?$Container@VWidget@@@@@std@@@2@$00@std@@QEAA@U_Zero_then_variadic_args_t@1@@Z 00000001400557a8     engine.obj
 0005:000027b4       $pdata$??$?0$$V@?$_Compressed_pair@V?$allocator@PEAVObject@@@std@@V?$_Vector_val@U?$_Simple_types@PEAVObject@@@std@@@2@$00@std@@QEAA@U_Zero_then_variadic_args_t@1@@Z 00000001400557b4     engine.obj
 0005:000027c0       $pdata$??$?0$$V@?$_Compressed_pair@V?$allocator@U?$_Tree_node@U?$pair@$$CBW4Object_Type@@PEBVGameObject@@@std@@PEAX@std@@@std@@V?$_Tree_val@U?$_Tree_simple_types@U?$pair@$$CBW4Object_Type@@PEBVGameObject@@@std@@@std@@@2@$00@std@@QEAA@U_Zero_then_variadic_args_t@1@@Z 00000001400557c0     engine.obj
 0005:000027cc       $pdata$??$?0AEBU?$less@W4Object_Type@@@std@@U_Zero_then_variadic_args_t@1@@?$_Compressed_pair@U?$less@W4Object_Type@@@std@@V?$_Compressed_pair@V?$allocator@U?$_Tree_node@U?$pair@$$CBW4Object_Type@@PEBVGameObject@@@std@@PEAX@std@@@std@@V?$_Tree_val@U?$_Tree_simple_types@U?$pair@$$CBW4Object_Type@@PEBVGameObject@@@std@@@std@@@2@$00@2@$00@std@@QEAA@U_One_then_variadic_args_t@1@AEBU?$less@W4Object_Type@@@1@$$QEAU_Zero_then_variadic_args_t@1@@Z 00000001400557cc     engine.obj
 0005:000027d8       $pdata$??$?0PEAV?$Container@VWidget@@@@@?$allocator@U_Container_proxy@std@@@std@@QEAA@AEBV?$allocator@PEAV?$Container@VWidget@@@@@1@@Z 00000001400557d8     engine.obj
 0005:000027e4       $pdata$??$?0PEAVObject@@@?$allocator@U_Container_proxy@std@@@std@@QEAA@AEBV?$allocator@PEAVObject@@@1@@Z 00000001400557e4     engine.obj
 0005:000027f0       $pdata$??$?0U?$_Tree_node@U?$pair@$$CBW4Object_Type@@PEBVGameObject@@@std@@PEAX@std@@@?$allocator@U_Container_proxy@std@@@std@@QEAA@AEBV?$allocator@U?$_Tree_node@U?$pair@$$CBW4Object_Type@@PEBVGameObject@@@std@@PEAX@std@@@1@@Z 00000001400557f0     engine.obj
 0005:000027fc       $pdata$??$_Copy_memmove@PEAPEAV?$Container@VWidget@@@@PEAPEAV1@@std@@YAPEAPEAV?$Container@VWidget@@@@PEAPEAV1@00@Z 00000001400557fc     engine.obj
 0005:00002808       $pdata$??$_Copy_memmove@PEAPEAVObject@@PEAPEAV1@@std@@YAPEAPEAVObject@@PEAPEAV1@00@Z 0000000140055808     engine.obj
 0005:00002814       $pdata$??$_Destroy_range1@V?$allocator@PEAV?$Container@VWidget@@@@@std@@@std@@YAXPEAPEAV?$Container@VWidget@@@@0AEAV?$allocator@PEAV?$Container@VWidget@@@@@0@U?$integral_constant@_N$00@0@@Z 0000000140055814     engine.obj
 0005:00002820       $pdata$??$_Destroy_range1@V?$allocator@PEAVObject@@@std@@@std@@YAXPEAPEAVObject@@0AEAV?$allocator@PEAVObject@@@0@U?$integral_constant@_N$00@0@@Z 0000000140055820     engine.obj
 0005:0000282c       $pdata$??$_Destroy_range@V?$allocator@PEAV?$Container@VWidget@@@@@std@@@std@@YAXPEAPEAV?$Container@VWidget@@@@0AEAV?$allocator@PEAV?$Container@VWidget@@@@@0@@Z 000000014005582c     engine.obj
 0005:00002838       $pdata$??$_Destroy_range@V?$allocator@PEAVObject@@@std@@@std@@YAXPEAPEAVObject@@0AEAV?$allocator@PEAVObject@@@0@@Z 0000000140055838     engine.obj
 0005:00002844       $pdata$??$_Emplace_back_with_unused_capacity@AEBQEAV?$Container@VWidget@@@@@?$vector@PEAV?$Container@VWidget@@@@V?$allocator@PEAV?$Container@VWidget@@@@@std@@@std@@AEAA@AEBQEAV?$Container@VWidget@@@@@Z 0000000140055844     engine.obj
 0005:00002850       $pdata$??$_Emplace_back_with_unused_capacity@AEBQEAVObject@@@?$vector@PEAVObject@@V?$allocator@PEAVObject@@@std@@@std@@AEAA@AEBQEAVObject@@@Z 0000000140055850     engine.obj
 0005:0000285c       $pdata$??$_Emplace_reallocate@AEBQEAV?$Container@VWidget@@@@@?$vector@PEAV?$Container@VWidget@@@@V?$allocator@PEAV?$Container@VWidget@@@@@std@@@std@@QEAAPEAPEAV?$Container@VWidget@@@@QEAPEAV2@AEBQEAV2@@Z 000000014005585c     engine.obj
 0005:00002868       $pdata$??$_Emplace_reallocate@AEBQEAVObject@@@?$vector@PEAVObject@@V?$allocator@PEAVObject@@@std@@@std@@QEAAPEAPEAVObject@@QEAPEAV2@AEBQEAV2@@Z 0000000140055868     engine.obj
 0005:00002874       $pdata$??$_Get_size_of_n@$07@std@@YA_K_K@Z 0000000140055874     engine.obj
 0005:00002880       $pdata$??$_Ptr_move_cat@PEAV?$Container@VWidget@@@@PEAV1@@std@@YA?AU_Really_trivial_ptr_iterator_tag@0@AEBQEAPEAV?$Container@VWidget@@@@0@Z 0000000140055880     engine.obj
 0005:0000288c       $pdata$??$_Ptr_move_cat@PEAVObject@@PEAV1@@std@@YA?AU_Really_trivial_ptr_iterator_tag@0@AEBQEAPEAVObject@@0@Z 000000014005588c     engine.obj
 0005:00002898       $pdata$??$_Rechecked@PEAPEAV?$Container@VWidget@@@@PEAPEAV1@@std@@YAAEAPEAPEAV?$Container@VWidget@@@@AEAPEAPEAV1@QEAPEAV1@@Z 0000000140055898     engine.obj
 0005:000028a4       $pdata$??$_Rechecked@PEAPEAVObject@@PEAPEAV1@@std@@YAAEAPEAPEAVObject@@AEAPEAPEAV1@QEAPEAV1@@Z 00000001400558a4     engine.obj
 0005:000028b0       $pdata$??$_Unchecked@PEAPEAV?$Container@VWidget@@@@@std@@YAPEAPEAV?$Container@VWidget@@@@PEAPEAV1@@Z 00000001400558b0     engine.obj
 0005:000028bc       $pdata$??$_Unchecked@PEAPEAVObject@@@std@@YAPEAPEAVObject@@PEAPEAV1@@Z 00000001400558bc     engine.obj
 0005:000028c8       $pdata$??$_Unfancy@PEAV?$Container@VWidget@@@@@std@@YAPEAPEAV?$Container@VWidget@@@@PEAPEAV1@@Z 00000001400558c8     engine.obj
 0005:000028d4       $pdata$??$_Unfancy@PEAVObject@@@std@@YAPEAPEAVObject@@PEAPEAV1@@Z 00000001400558d4     engine.obj
 0005:000028e0       $pdata$??$_Uninitialized_move@PEAPEAV?$Container@VWidget@@@@PEAPEAV1@V?$allocator@PEAV?$Container@VWidget@@@@@std@@@std@@YAPEAPEAV?$Container@VWidget@@@@QEAPEAV1@0PEAPEAV1@AEAV?$allocator@PEAV?$Container@VWidget@@@@@0@@Z 00000001400558e0     engine.obj
 0005:000028ec       $pdata$??$_Uninitialized_move@PEAPEAVObject@@PEAPEAV1@V?$allocator@PEAVObject@@@std@@@std@@YAPEAPEAVObject@@QEAPEAV1@0PEAPEAV1@AEAV?$allocator@PEAVObject@@@0@@Z 00000001400558ec     engine.obj
 0005:000028f8       $pdata$??$_Uninitialized_move_al_unchecked@PEAV?$Container@VWidget@@@@PEAV1@V?$allocator@PEAV?$Container@VWidget@@@@@std@@@std@@YAPEAPEAV?$Container@VWidget@@@@QEAPEAV1@00AEAV?$allocator@PEAV?$Container@VWidget@@@@@0@U_Really_trivial_ptr_iterator_tag@0@U?$integral_constant@_N$00@0@@Z 00000001400558f8     engine.obj
 0005:00002904       $pdata$??$_Uninitialized_move_al_unchecked@PEAVObject@@PEAV1@V?$allocator@PEAVObject@@@std@@@std@@YAPEAPEAVObject@@QEAPEAV1@00AEAV?$allocator@PEAVObject@@@0@U_Really_trivial_ptr_iterator_tag@0@U?$integral_constant@_N$00@0@@Z 0000000140055904     engine.obj
 0005:00002910       $pdata$??$addressof@V?$_Vector_val@U?$_Simple_types@PEAV?$Container@VWidget@@@@@std@@@std@@@std@@YAPEAV?$_Vector_val@U?$_Simple_types@PEAV?$Container@VWidget@@@@@std@@@0@AEAV10@@Z 0000000140055910     engine.obj
 0005:0000291c       $pdata$??$addressof@V?$_Vector_val@U?$_Simple_types@PEAVObject@@@std@@@std@@@std@@YAPEAV?$_Vector_val@U?$_Simple_types@PEAVObject@@@std@@@0@AEAV10@@Z 000000014005591c     engine.obj
 0005:00002928       $pdata$??$construct@PEAV?$Container@VWidget@@@@AEBQEAV1@@?$_Default_allocator_traits@V?$allocator@PEAV?$Container@VWidget@@@@@std@@@std@@SAXAEAV?$allocator@PEAV?$Container@VWidget@@@@@1@QEAPEAV?$Container@VWidget@@@@AEBQEAV3@@Z 0000000140055928     engine.obj
 0005:00002934       $pdata$??$construct@PEAVObject@@AEBQEAV1@@?$_Default_allocator_traits@V?$allocator@PEAVObject@@@std@@@std@@SAXAEAV?$allocator@PEAVObject@@@1@QEAPEAVObject@@AEBQEAV3@@Z 0000000140055934     engine.obj
 0005:00002940       $pdata$??$emplace_back@AEBQEAV?$Container@VWidget@@@@@?$vector@PEAV?$Container@VWidget@@@@V?$allocator@PEAV?$Container@VWidget@@@@@std@@@std@@QEAA@AEBQEAV?$Container@VWidget@@@@@Z 0000000140055940     engine.obj
 0005:0000294c       $pdata$??$emplace_back@AEBQEAVObject@@@?$vector@PEAVObject@@V?$allocator@PEAVObject@@@std@@@std@@QEAA@AEBQEAVObject@@@Z 000000014005594c     engine.obj
 0005:00002958       $pdata$??$forward@AEBQEAV?$Container@VWidget@@@@@std@@YAAEBQEAV?$Container@VWidget@@@@AEBQEAV1@@Z 0000000140055958     engine.obj
 0005:00002964       $pdata$??$forward@AEBQEAVObject@@@std@@YAAEBQEAVObject@@AEBQEAV1@@Z 0000000140055964     engine.obj
 0005:00002970       $pdata$??$forward@AEBU?$less@W4Object_Type@@@std@@@std@@YAAEBU?$less@W4Object_Type@@@0@AEBU10@@Z 0000000140055970     engine.obj
 0005:0000297c       $pdata$??$forward@U_Zero_then_variadic_args_t@std@@@std@@YA$$QEAU_Zero_then_variadic_args_t@0@AEAU10@@Z 000000014005597c     engine.obj
 0005:00002988       $pdata$??$move@AEAD@std@@YA$$QEADAEAD@Z 0000000140055988     engine.obj
 0005:00002994       $pdata$??$swap@DX@std@@YAXAEAD0@Z 0000000140055994     engine.obj
 0005:000029a0       $pdata$??0?$_Tree@V?$_Tmap_traits@W4Object_Type@@PEBVGameObject@@U?$less@W4Object_Type@@@std@@V?$allocator@U?$pair@$$CBW4Object_Type@@PEBVGameObject@@@std@@@4@$0A@@std@@@std@@QEAA@AEBU?$less@W4Object_Type@@@1@@Z 00000001400559a0     engine.obj
 0005:000029ac       $pdata$??0?$_Tree_comp_alloc@V?$_Tmap_traits@W4Object_Type@@PEBVGameObject@@U?$less@W4Object_Type@@@std@@V?$allocator@U?$pair@$$CBW4Object_Type@@PEBVGameObject@@@std@@@4@$0A@@std@@@std@@QEAA@AEBU?$less@W4Object_Type@@@1@@Z 00000001400559ac     engine.obj
 0005:000029b8       $pdata$??0?$_Tree_val@U?$_Tree_simple_types@U?$pair@$$CBW4Object_Type@@PEBVGameObject@@@std@@@std@@@std@@QEAA@XZ 00000001400559b8     engine.obj
 0005:000029c4       $pdata$??0?$_Vector_alloc@U?$_Vec_base_types@PEAV?$Container@VWidget@@@@V?$allocator@PEAV?$Container@VWidget@@@@@std@@@std@@@std@@QEAA@XZ 00000001400559c4     engine.obj
 0005:000029d0       $pdata$??0?$_Vector_alloc@U?$_Vec_base_types@PEAVObject@@V?$allocator@PEAVObject@@@std@@@std@@@std@@QEAA@XZ 00000001400559d0     engine.obj
 0005:000029dc       $pdata$??0?$_Vector_val@U?$_Simple_types@PEAV?$Container@VWidget@@@@@std@@@std@@QEAA@XZ 00000001400559dc     engine.obj
 0005:000029e8       $pdata$??0?$_Vector_val@U?$_Simple_types@PEAVObject@@@std@@@std@@QEAA@XZ 00000001400559e8     engine.obj
 0005:000029f4       $pdata$??0?$allocator@PEAV?$Container@VWidget@@@@@std@@QEAA@XZ 00000001400559f4     engine.obj
 0005:00002a00       $pdata$??0?$allocator@PEAVObject@@@std@@QEAA@XZ 0000000140055a00     engine.obj
 0005:00002a0c       $pdata$??0?$allocator@U?$_Tree_node@U?$pair@$$CBW4Object_Type@@PEBVGameObject@@@std@@PEAX@std@@@std@@QEAA@XZ 0000000140055a0c     engine.obj
 0005:00002a18       $pdata$??0?$map@W4Object_Type@@PEBVGameObject@@U?$less@W4Object_Type@@@std@@V?$allocator@U?$pair@$$CBW4Object_Type@@PEBVGameObject@@@std@@@4@@std@@QEAA@XZ 0000000140055a18     engine.obj
 0005:00002a24       $pdata$??0?$vector@PEAV?$Container@VWidget@@@@V?$allocator@PEAV?$Container@VWidget@@@@@std@@@std@@QEAA@XZ 0000000140055a24     engine.obj
 0005:00002a30       $pdata$??0?$vector@PEAVObject@@V?$allocator@PEAVObject@@@std@@@std@@QEAA@XZ 0000000140055a30     engine.obj
 0005:00002a3c       $pdata$??0ConfigManager@@QEAA@XZ 0000000140055a3c     engine.obj
 0005:00002a48       $pdata$??0ContextSettings@sf@@QEAA@IIIIII_N@Z 0000000140055a48     engine.obj
 0005:00002a54       $pdata$??0Engine@@QEAA@XZ  0000000140055a54     engine.obj
 0005:00002a60       $pdata$?clear@?$vector@PEAVObject@@V?$allocator@PEAVObject@@@std@@@std@@QEAAXXZ 0000000140055a60     engine.obj
 0005:00002a6c       $pdata$??0locale@std@@QEAA@XZ 0000000140055a6c     engine.obj
 0005:00002a78       $pdata$??1?$_Tree@V?$_Tmap_traits@W4Object_Type@@PEBVGameObject@@U?$less@W4Object_Type@@@std@@V?$allocator@U?$pair@$$CBW4Object_Type@@PEBVGameObject@@@std@@@4@$0A@@std@@@std@@QEAA@XZ 0000000140055a78     engine.obj
 0005:00002a84       $pdata$??1?$_Tree_comp_alloc@V?$_Tmap_traits@W4Object_Type@@PEBVGameObject@@U?$less@W4Object_Type@@@std@@V?$allocator@U?$pair@$$CBW4Object_Type@@PEBVGameObject@@@std@@@4@$0A@@std@@@std@@QEAA@XZ 0000000140055a84     engine.obj
 0005:00002a90       $pdata$??1?$_Vector_alloc@U?$_Vec_base_types@PEAV?$Container@VWidget@@@@V?$allocator@PEAV?$Container@VWidget@@@@@std@@@std@@@std@@QEAA@XZ 0000000140055a90     engine.obj
 0005:00002a9c       $pdata$??1?$_Vector_alloc@U?$_Vec_base_types@PEAVObject@@V?$allocator@PEAVObject@@@std@@@std@@@std@@QEAA@XZ 0000000140055a9c     engine.obj
 0005:00002aa8       $pdata$??1?$map@W4Object_Type@@PEBVGameObject@@U?$less@W4Object_Type@@@std@@V?$allocator@U?$pair@$$CBW4Object_Type@@PEBVGameObject@@@std@@@4@@std@@QEAA@XZ 0000000140055aa8     engine.obj
 0005:00002ab4       $pdata$??1?$vector@PEAV?$Container@VWidget@@@@V?$allocator@PEAV?$Container@VWidget@@@@@std@@@std@@QEAA@XZ 0000000140055ab4     engine.obj
 0005:00002ac0       $pdata$??1?$vector@PEAVObject@@V?$allocator@PEAVObject@@@std@@@std@@QEAA@XZ 0000000140055ac0     engine.obj
 0005:00002acc       $pdata$??1ConfigManager@@QEAA@XZ 0000000140055acc     engine.obj
 0005:00002ad8       $pdata$??1Engine@@QEAA@XZ  0000000140055ad8     engine.obj
 0005:00002ae4       $pdata$??1locale@std@@QEAA@XZ 0000000140055ae4     engine.obj
 0005:00002af0       $pdata$??9?$_Tree_const_iterator@V?$_Tree_val@U?$_Tree_simple_types@U?$pair@$$CBW4Object_Type@@PEBVGameObject@@@std@@@std@@@std@@@std@@QEBA_NAEBV01@@Z 0000000140055af0     engine.obj
 0005:00002afc       $pdata$??A?$vector@PEAV?$Container@VWidget@@@@V?$allocator@PEAV?$Container@VWidget@@@@@std@@@std@@QEAAAEAPEAV?$Container@VWidget@@@@_K@Z 0000000140055afc     engine.obj
 0005:00002b08       $pdata$??A?$vector@PEAVObject@@V?$allocator@PEAVObject@@@std@@@std@@QEAAAEAPEAVObject@@_K@Z 0000000140055b08     engine.obj
 0005:00002b14       $pdata$??E?$_Tree_const_iterator@V?$_Tree_val@U?$_Tree_simple_types@U?$pair@$$CBW4Object_Type@@PEBVGameObject@@@std@@@std@@@std@@@std@@QEAA?AV01@H@Z 0000000140055b14     engine.obj
 0005:00002b20       $pdata$??_GRenderWindow@sf@@UEAAPEAXI@Z 0000000140055b20     engine.obj
 0005:00002b2c       $pdata$?ChangeWindow@Engine@@QEAAXPEAV?$Window@VWidget@@@@@Z 0000000140055b2c     engine.obj
 0005:00002b38       $pdata$?Close@Engine@@QEAAXXZ 0000000140055b38     engine.obj
 0005:00002b50       $pdata$?Draw@Engine@@QEAAXXZ 0000000140055b50     engine.obj
 0005:00002b68       $pdata$?GetConfigManager@Engine@@QEAAPEAVConfigManager@@XZ 0000000140055b68     engine.obj
 0005:00002b74       $pdata$?GetSize@Engine@@QEBA?AV?$Vector2@M@sf@@XZ 0000000140055b74     engine.obj
 0005:00002b8c       $pdata$?SetSize@Engine@@QEAAXAEBV?$Vector2@M@sf@@@Z 0000000140055b8c     engine.obj
 0005:00002b98       $pdata$?Update@Engine@@QEAAXAEBVTime@sf@@@Z 0000000140055b98     engine.obj
 0005:00002ba4       $pdata$?_Alloc_proxy@?$_Tree_comp_alloc@V?$_Tmap_traits@W4Object_Type@@PEBVGameObject@@U?$less@W4Object_Type@@@std@@V?$allocator@U?$pair@$$CBW4Object_Type@@PEBVGameObject@@@std@@@4@$0A@@std@@@std@@QEAAXXZ 0000000140055ba4     engine.obj
 0005:00002bb0       $pdata$?_Alloc_proxy@?$_Vector_alloc@U?$_Vec_base_types@PEAV?$Container@VWidget@@@@V?$allocator@PEAV?$Container@VWidget@@@@@std@@@std@@@std@@QEAAXXZ 0000000140055bb0     engine.obj
 0005:00002bbc       $pdata$?_Alloc_proxy@?$_Vector_alloc@U?$_Vec_base_types@PEAVObject@@V?$allocator@PEAVObject@@@std@@@std@@@std@@QEAAXXZ 0000000140055bbc     engine.obj
 0005:00002bc8       $pdata$?_Buyheadnode@?$_Tree_comp_alloc@V?$_Tmap_traits@W4Object_Type@@PEBVGameObject@@U?$less@W4Object_Type@@@std@@V?$allocator@U?$pair@$$CBW4Object_Type@@PEBVGameObject@@@std@@@4@$0A@@std@@@std@@QEAAPEAU?$_Tree_node@U?$pair@$$CBW4Object_Type@@PEBVGameObject@@@std@@PEAX@2@XZ 0000000140055bc8     engine.obj
 0005:00002bd4       $pdata$?_Calculate_growth@?$vector@PEAV?$Container@VWidget@@@@V?$allocator@PEAV?$Container@VWidget@@@@@std@@@std@@AEBA_K_K@Z 0000000140055bd4     engine.obj
 0005:00002be0       $pdata$?_Calculate_growth@?$vector@PEAVObject@@V?$allocator@PEAVObject@@@std@@@std@@AEBA_K_K@Z 0000000140055be0     engine.obj
 0005:00002bec       $pdata$?_Change_array@?$vector@PEAV?$Container@VWidget@@@@V?$allocator@PEAV?$Container@VWidget@@@@@std@@@std@@AEAAXQEAPEAV?$Container@VWidget@@@@_K1@Z 0000000140055bec     engine.obj
 0005:00002bf8       $pdata$?_Clrcont@_Iterator_base12@std@@QEAAXXZ 0000000140055bf8     engine.obj
 0005:00002c04       $pdata$?_Construct@?$_Tree_comp_alloc@V?$_Tmap_traits@W4Object_Type@@PEBVGameObject@@U?$less@W4Object_Type@@@std@@V?$allocator@U?$pair@$$CBW4Object_Type@@PEBVGameObject@@@std@@@4@$0A@@std@@@std@@QEAAXXZ 0000000140055c04     engine.obj
 0005:00002c10       $pdata$?_Destroy@?$vector@PEAV?$Container@VWidget@@@@V?$allocator@PEAV?$Container@VWidget@@@@@std@@@std@@AEAAXPEAPEAV?$Container@VWidget@@@@0@Z 0000000140055c10     engine.obj
 0005:00002c1c       $pdata$?_Destroy@?$vector@PEAVObject@@V?$allocator@PEAVObject@@@std@@@std@@AEAAXPEAPEAVObject@@0@Z 0000000140055c1c     engine.obj
 0005:00002c28       $pdata$?_Erase@?$_Tree@V?$_Tmap_traits@W4Object_Type@@PEBVGameObject@@U?$less@W4Object_Type@@@std@@V?$allocator@U?$pair@$$CBW4Object_Type@@PEBVGameObject@@@std@@@4@$0A@@std@@@std@@IEAAXPEAU?$_Tree_node@U?$pair@$$CBW4Object_Type@@PEBVGameObject@@@std@@PEAX@2@@Z 0000000140055c28     engine.obj
 0005:00002c34       $pdata$?_Extract@?$_Tree_val@U?$_Tree_simple_types@U?$pair@$$CBW4Object_Type@@PEBVGameObject@@@std@@@std@@@std@@QEAAPEAU?$_Tree_node@U?$pair@$$CBW4Object_Type@@PEBVGameObject@@@std@@PEAX@2@V?$_Tree_const_iterator@V?$_Tree_val@U?$_Tree_simple_types@U?$pair@$$CBW4Object_Type@@PEBVGameObject@@@std@@@std@@@std@@@2@@Z 0000000140055c34     engine.obj
 0005:00002c4c       $pdata$?_Free_proxy@?$_Tree_comp_alloc@V?$_Tmap_traits@W4Object_Type@@PEBVGameObject@@U?$less@W4Object_Type@@@std@@V?$allocator@U?$pair@$$CBW4Object_Type@@PEBVGameObject@@@std@@@4@$0A@@std@@@std@@QEAAXXZ 0000000140055c4c     engine.obj
 0005:00002c58       $pdata$?_Free_proxy@?$_Vector_alloc@U?$_Vec_base_types@PEAV?$Container@VWidget@@@@V?$allocator@PEAV?$Container@VWidget@@@@@std@@@std@@@std@@QEAAXXZ 0000000140055c58     engine.obj
 0005:00002c64       $pdata$?_Freeheadnode@?$_Tree_comp_alloc@V?$_Tmap_traits@W4Object_Type@@PEBVGameObject@@U?$less@W4Object_Type@@@std@@V?$allocator@U?$pair@$$CBW4Object_Type@@PEBVGameObject@@@std@@@4@$0A@@std@@@std@@QEAAXPEAU?$_Tree_node@U?$pair@$$CBW4Object_Type@@PEBVGameObject@@@std@@PEAX@2@@Z 0000000140055c64     engine.obj
 0005:00002c70       $pdata$?_Get_data@?$_Vector_alloc@U?$_Vec_base_types@PEAV?$Container@VWidget@@@@V?$allocator@PEAV?$Container@VWidget@@@@@std@@@std@@@std@@QEAAAEAV?$_Vector_val@U?$_Simple_types@PEAV?$Container@VWidget@@@@@std@@@2@XZ 0000000140055c70     engine.obj
 0005:00002c7c       $pdata$?_Get_data@?$_Vector_alloc@U?$_Vec_base_types@PEAV?$Container@VWidget@@@@V?$allocator@PEAV?$Container@VWidget@@@@@std@@@std@@@std@@QEBAAEBV?$_Vector_val@U?$_Simple_types@PEAV?$Container@VWidget@@@@@std@@@2@XZ 0000000140055c7c     engine.obj
 0005:00002c88       $pdata$?_Get_data@?$_Vector_alloc@U?$_Vec_base_types@PEAVObject@@V?$allocator@PEAVObject@@@std@@@std@@@std@@QEAAAEAV?$_Vector_val@U?$_Simple_types@PEAVObject@@@std@@@2@XZ 0000000140055c88     engine.obj
 0005:00002c94       $pdata$?_Get_data@?$_Vector_alloc@U?$_Vec_base_types@PEAVObject@@V?$allocator@PEAVObject@@@std@@@std@@@std@@QEBAAEBV?$_Vector_val@U?$_Simple_types@PEAVObject@@@std@@@2@XZ 0000000140055c94     engine.obj
 0005:00002ca0       $pdata$?_Get_first@?$_Compressed_pair@V?$allocator@PEAV?$Container@VWidget@@@@@std@@V?$_Vector_val@U?$_Simple_types@PEAV?$Container@VWidget@@@@@std@@@2@$00@std@@QEAAAEAV?$allocator@PEAV?$Container@VWidget@@@@@2@XZ 0000000140055ca0     engine.obj
 0005:00002cac       $pdata$?_Get_first@?$_Compressed_pair@V?$allocator@PEAV?$Container@VWidget@@@@@std@@V?$_Vector_val@U?$_Simple_types@PEAV?$Container@VWidget@@@@@std@@@2@$00@std@@QEBAAEBV?$allocator@PEAV?$Container@VWidget@@@@@2@XZ 0000000140055cac     engine.obj
 0005:00002cb8       $pdata$?_Get_first@?$_Compressed_pair@V?$allocator@PEAVObject@@@std@@V?$_Vector_val@U?$_Simple_types@PEAVObject@@@std@@@2@$00@std@@QEAAAEAV?$allocator@PEAVObject@@@2@XZ 0000000140055cb8     engine.obj
 0005:00002cc4       $pdata$?_Get_first@?$_Compressed_pair@V?$allocator@PEAVObject@@@std@@V?$_Vector_val@U?$_Simple_types@PEAVObject@@@std@@@2@$00@std@@QEBAAEBV?$allocator@PEAVObject@@@2@XZ 0000000140055cc4     engine.obj
 0005:00002cd0       $pdata$?_Get_second@?$_Compressed_pair@V?$allocator@PEAV?$Container@VWidget@@@@@std@@V?$_Vector_val@U?$_Simple_types@PEAV?$Container@VWidget@@@@@std@@@2@$00@std@@QEAAAEAV?$_Vector_val@U?$_Simple_types@PEAV?$Container@VWidget@@@@@std@@@2@XZ 0000000140055cd0     engine.obj
 0005:00002cdc       $pdata$?_Get_second@?$_Compressed_pair@V?$allocator@PEAV?$Container@VWidget@@@@@std@@V?$_Vector_val@U?$_Simple_types@PEAV?$Container@VWidget@@@@@std@@@2@$00@std@@QEBAAEBV?$_Vector_val@U?$_Simple_types@PEAV?$Container@VWidget@@@@@std@@@2@XZ 0000000140055cdc     engine.obj
 0005:00002ce8       $pdata$?_Get_second@?$_Compressed_pair@V?$allocator@PEAVObject@@@std@@V?$_Vector_val@U?$_Simple_types@PEAVObject@@@std@@@2@$00@std@@QEAAAEAV?$_Vector_val@U?$_Simple_types@PEAVObject@@@std@@@2@XZ 0000000140055ce8     engine.obj
 0005:00002cf4       $pdata$?_Get_second@?$_Compressed_pair@V?$allocator@PEAVObject@@@std@@V?$_Vector_val@U?$_Simple_types@PEAVObject@@@std@@@2@$00@std@@QEBAAEBV?$_Vector_val@U?$_Simple_types@PEAVObject@@@std@@@2@XZ 0000000140055cf4     engine.obj
 0005:00002d00       $pdata$?_Getal@?$_Vector_alloc@U?$_Vec_base_types@PEAV?$Container@VWidget@@@@V?$allocator@PEAV?$Container@VWidget@@@@@std@@@std@@@std@@QEAAAEAV?$allocator@PEAV?$Container@VWidget@@@@@2@XZ 0000000140055d00     engine.obj
 0005:00002d0c       $pdata$?_Getal@?$_Vector_alloc@U?$_Vec_base_types@PEAV?$Container@VWidget@@@@V?$allocator@PEAV?$Container@VWidget@@@@@std@@@std@@@std@@QEBAAEBV?$allocator@PEAV?$Container@VWidget@@@@@2@XZ 0000000140055d0c     engine.obj
 0005:00002d18       $pdata$?_Getal@?$_Vector_alloc@U?$_Vec_base_types@PEAVObject@@V?$allocator@PEAVObject@@@std@@@std@@@std@@QEAAAEAV?$allocator@PEAVObject@@@2@XZ 0000000140055d18     engine.obj
 0005:00002d24       $pdata$?_Getal@?$_Vector_alloc@U?$_Vec_base_types@PEAVObject@@V?$allocator@PEAVObject@@@std@@@std@@@std@@QEBAAEBV?$allocator@PEAVObject@@@2@XZ 0000000140055d24     engine.obj
 0005:00002d30       $pdata$?_Getpfirst@?$_Tree_comp_alloc@V?$_Tmap_traits@W4Object_Type@@PEBVGameObject@@U?$less@W4Object_Type@@@std@@V?$allocator@U?$pair@$$CBW4Object_Type@@PEBVGameObject@@@std@@@4@$0A@@std@@@std@@QEBAPEAPEAU_Iterator_base12@2@XZ 0000000140055d30     engine.obj
 0005:00002d3c       $pdata$?_Getpfirst@?$_Vector_alloc@U?$_Vec_base_types@PEAV?$Container@VWidget@@@@V?$allocator@PEAV?$Container@VWidget@@@@@std@@@std@@@std@@QEBAPEAPEAU_Iterator_base12@2@XZ 0000000140055d3c     engine.obj
 0005:00002d48       $pdata$?_Getpfirst@?$_Vector_alloc@U?$_Vec_base_types@PEAVObject@@V?$allocator@PEAVObject@@@std@@@std@@@std@@QEBAPEAPEAU_Iterator_base12@2@XZ 0000000140055d48     engine.obj
 0005:00002d54       $pdata$?_Getpnext@_Iterator_base12@std@@QEAAPEAPEAU12@XZ 0000000140055d54     engine.obj
 0005:00002d60       $pdata$?_Has_unused_capacity@?$vector@PEAV?$Container@VWidget@@@@V?$allocator@PEAV?$Container@VWidget@@@@@std@@@std@@AEBA_NXZ 0000000140055d60     engine.obj
 0005:00002d6c       $pdata$?_Myend@?$_Vector_alloc@U?$_Vec_base_types@PEAV?$Container@VWidget@@@@V?$allocator@PEAV?$Container@VWidget@@@@@std@@@std@@@std@@QEAAAEAPEAPEAV?$Container@VWidget@@@@XZ 0000000140055d6c     engine.obj
 0005:00002d78       $pdata$?_Myend@?$_Vector_alloc@U?$_Vec_base_types@PEAV?$Container@VWidget@@@@V?$allocator@PEAV?$Container@VWidget@@@@@std@@@std@@@std@@QEBAAEBQEAPEAV?$Container@VWidget@@@@XZ 0000000140055d78     engine.obj
 0005:00002d84       $pdata$?_Myend@?$_Vector_alloc@U?$_Vec_base_types@PEAVObject@@V?$allocator@PEAVObject@@@std@@@std@@@std@@QEAAAEAPEAPEAVObject@@XZ 0000000140055d84     engine.obj
 0005:00002d90       $pdata$?_Myend@?$_Vector_alloc@U?$_Vec_base_types@PEAVObject@@V?$allocator@PEAVObject@@@std@@@std@@@std@@QEBAAEBQEAPEAVObject@@XZ 0000000140055d90     engine.obj
 0005:00002d9c       $pdata$?_Myfirst@?$_Vector_alloc@U?$_Vec_base_types@PEAV?$Container@VWidget@@@@V?$allocator@PEAV?$Container@VWidget@@@@@std@@@std@@@std@@QEAAAEAPEAPEAV?$Container@VWidget@@@@XZ 0000000140055d9c     engine.obj
 0005:00002da8       $pdata$?_Myfirst@?$_Vector_alloc@U?$_Vec_base_types@PEAV?$Container@VWidget@@@@V?$allocator@PEAV?$Container@VWidget@@@@@std@@@std@@@std@@QEBAAEBQEAPEAV?$Container@VWidget@@@@XZ 0000000140055da8     engine.obj
 0005:00002db4       $pdata$?_Myfirst@?$_Vector_alloc@U?$_Vec_base_types@PEAVObject@@V?$allocator@PEAVObject@@@std@@@std@@@std@@QEAAAEAPEAPEAVObject@@XZ 0000000140055db4     engine.obj
 0005:00002dc0       $pdata$?_Myfirst@?$_Vector_alloc@U?$_Vec_base_types@PEAVObject@@V?$allocator@PEAVObject@@@std@@@std@@@std@@QEBAAEBQEAPEAVObject@@XZ 0000000140055dc0     engine.obj
 0005:00002dcc       $pdata$?_Mylast@?$_Vector_alloc@U?$_Vec_base_types@PEAV?$Container@VWidget@@@@V?$allocator@PEAV?$Container@VWidget@@@@@std@@@std@@@std@@QEAAAEAPEAPEAV?$Container@VWidget@@@@XZ 0000000140055dcc     engine.obj
 0005:00002dd8       $pdata$?_Mylast@?$_Vector_alloc@U?$_Vec_base_types@PEAV?$Container@VWidget@@@@V?$allocator@PEAV?$Container@VWidget@@@@@std@@@std@@@std@@QEBAAEBQEAPEAV?$Container@VWidget@@@@XZ 0000000140055dd8     engine.obj
 0005:00002de4       $pdata$?_Mylast@?$_Vector_alloc@U?$_Vec_base_types@PEAVObject@@V?$allocator@PEAVObject@@@std@@@std@@@std@@QEAAAEAPEAPEAVObject@@XZ 0000000140055de4     engine.obj
 0005:00002df0       $pdata$?_Mylast@?$_Vector_alloc@U?$_Vec_base_types@PEAVObject@@V?$allocator@PEAVObject@@@std@@@std@@@std@@QEBAAEBQEAPEAVObject@@XZ 0000000140055df0     engine.obj
 0005:00002dfc       $pdata$?_Myproxy@?$_Tree_comp_alloc@V?$_Tmap_traits@W4Object_Type@@PEBVGameObject@@U?$less@W4Object_Type@@@std@@V?$allocator@U?$pair@$$CBW4Object_Type@@PEBVGameObject@@@std@@@4@$0A@@std@@@std@@QEAAAEAPEAU_Container_proxy@2@XZ 0000000140055dfc     engine.obj
 0005:00002e08       $pdata$?_Myproxy@?$_Vector_alloc@U?$_Vec_base_types@PEAV?$Container@VWidget@@@@V?$allocator@PEAV?$Container@VWidget@@@@@std@@@std@@@std@@QEAAAEAPEAU_Container_proxy@2@XZ 0000000140055e08     engine.obj
 0005:00002e14       $pdata$?_Myproxy@?$_Vector_alloc@U?$_Vec_base_types@PEAVObject@@V?$allocator@PEAVObject@@@std@@@std@@@std@@QEAAAEAPEAU_Container_proxy@2@XZ 0000000140055e14     engine.obj
 0005:00002e20       $pdata$?_Orphan_all@?$_Tree_comp_alloc@V?$_Tmap_traits@W4Object_Type@@PEBVGameObject@@U?$less@W4Object_Type@@@std@@V?$allocator@U?$pair@$$CBW4Object_Type@@PEBVGameObject@@@std@@@4@$0A@@std@@@std@@QEAAXXZ 0000000140055e20     engine.obj
 0005:00002e2c       $pdata$?_Orphan_all@?$_Vector_alloc@U?$_Vec_base_types@PEAV?$Container@VWidget@@@@V?$allocator@PEAV?$Container@VWidget@@@@@std@@@std@@@std@@QEAAXXZ 0000000140055e2c     engine.obj
 0005:00002e38       $pdata$?_Orphan_all@?$_Vector_alloc@U?$_Vec_base_types@PEAVObject@@V?$allocator@PEAVObject@@@std@@@std@@@std@@QEAAXXZ 0000000140055e38     engine.obj
 0005:00002e50       $pdata$?_Orphan_ptr@?$_Tree@V?$_Tmap_traits@W4Object_Type@@PEBVGameObject@@U?$less@W4Object_Type@@@std@@V?$allocator@U?$pair@$$CBW4Object_Type@@PEBVGameObject@@@std@@@4@$0A@@std@@@std@@IEAAXPEAU?$_Tree_node@U?$pair@$$CBW4Object_Type@@PEBVGameObject@@@std@@PEAX@2@@Z 0000000140055e50     engine.obj
 0005:00002e5c       $pdata$?_Orphan_range@?$vector@PEAV?$Container@VWidget@@@@V?$allocator@PEAV?$Container@VWidget@@@@@std@@@std@@AEBAXPEAPEAV?$Container@VWidget@@@@0@Z 0000000140055e5c     engine.obj
 0005:00002e68       $pdata$?_Orphan_range@?$vector@PEAVObject@@V?$allocator@PEAVObject@@@std@@@std@@AEBAXPEAPEAVObject@@0@Z 0000000140055e68     engine.obj
 0005:00002e74       $pdata$?_Tidy@?$_Tree@V?$_Tmap_traits@W4Object_Type@@PEBVGameObject@@U?$less@W4Object_Type@@@std@@V?$allocator@U?$pair@$$CBW4Object_Type@@PEBVGameObject@@@std@@@4@$0A@@std@@@std@@IEAAXXZ 0000000140055e74     engine.obj
 0005:00002e80       $pdata$?_Tidy@?$vector@PEAV?$Container@VWidget@@@@V?$allocator@PEAV?$Container@VWidget@@@@@std@@@std@@AEAAXXZ 0000000140055e80     engine.obj
 0005:00002e8c       $pdata$?_Umove@?$vector@PEAV?$Container@VWidget@@@@V?$allocator@PEAV?$Container@VWidget@@@@@std@@@std@@AEAAPEAPEAV?$Container@VWidget@@@@PEAPEAV3@00@Z 0000000140055e8c     engine.obj
 0005:00002e98       $pdata$?_Umove@?$vector@PEAVObject@@V?$allocator@PEAVObject@@@std@@@std@@AEAAPEAPEAVObject@@PEAPEAV3@00@Z 0000000140055e98     engine.obj
 0005:00002ea4       $pdata$?_Umove_if_noexcept1@?$vector@PEAV?$Container@VWidget@@@@V?$allocator@PEAV?$Container@VWidget@@@@@std@@@std@@AEAAXPEAPEAV?$Container@VWidget@@@@00U?$integral_constant@_N$00@2@@Z 0000000140055ea4     engine.obj
 0005:00002eb0       $pdata$?_Umove_if_noexcept1@?$vector@PEAVObject@@V?$allocator@PEAVObject@@@std@@@std@@AEAAXPEAPEAVObject@@00U?$integral_constant@_N$00@2@@Z 0000000140055eb0     engine.obj
 0005:00002ebc       $pdata$?_Umove_if_noexcept@?$vector@PEAV?$Container@VWidget@@@@V?$allocator@PEAV?$Container@VWidget@@@@@std@@@std@@AEAAXPEAPEAV?$Container@VWidget@@@@00@Z 0000000140055ebc     engine.obj
 0005:00002ec8       $pdata$?_Xlength@?$vector@PEAV?$Container@VWidget@@@@V?$allocator@PEAV?$Container@VWidget@@@@@std@@@std@@CAXXZ 0000000140055ec8     engine.obj
 0005:00002ed4       $pdata$?_Xlength@?$vector@PEAVObject@@V?$allocator@PEAVObject@@@std@@@std@@CAXXZ 0000000140055ed4     engine.obj
 0005:00002ee0       $pdata$?allocate@?$allocator@PEAV?$Container@VWidget@@@@@std@@QEAAPEAPEAV?$Container@VWidget@@@@_K@Z 0000000140055ee0     engine.obj
 0005:00002eec       $pdata$?allocate@?$allocator@PEAVObject@@@std@@QEAAPEAPEAVObject@@_K@Z 0000000140055eec     engine.obj
 0005:00002ef8       $pdata$?capacity@?$vector@PEAV?$Container@VWidget@@@@V?$allocator@PEAV?$Container@VWidget@@@@@std@@@std@@QEBA_KXZ 0000000140055ef8     engine.obj
 0005:00002f04       $pdata$?capacity@?$vector@PEAVObject@@V?$allocator@PEAVObject@@@std@@@std@@QEBA_KXZ 0000000140055f04     engine.obj
 0005:00002f10       $pdata$?clear@?$_Tree@V?$_Tmap_traits@W4Object_Type@@PEBVGameObject@@U?$less@W4Object_Type@@@std@@V?$allocator@U?$pair@$$CBW4Object_Type@@PEBVGameObject@@@std@@@4@$0A@@std@@@std@@QEAAXXZ 0000000140055f10     engine.obj
 0005:00002f1c       $pdata$?clear@?$vector@PEAV?$Container@VWidget@@@@V?$allocator@PEAV?$Container@VWidget@@@@@std@@@std@@QEAAXXZ 0000000140055f1c     engine.obj
 0005:00002f28       $pdata$?deallocate@?$allocator@PEAV?$Container@VWidget@@@@@std@@QEAAXQEAPEAV?$Container@VWidget@@@@_K@Z 0000000140055f28     engine.obj
 0005:00002f34       $pdata$?deallocate@?$allocator@PEAVObject@@@std@@QEAAXQEAPEAVObject@@_K@Z 0000000140055f34     engine.obj
 0005:00002f40       $pdata$?destroyObjectsDeffered@Engine@@AEAAXXZ 0000000140055f40     engine.obj
 0005:00002f4c       $pdata$?erase@?$_Tree@V?$_Tmap_traits@W4Object_Type@@PEBVGameObject@@U?$less@W4Object_Type@@@std@@V?$allocator@U?$pair@$$CBW4Object_Type@@PEBVGameObject@@@std@@@4@$0A@@std@@@std@@QEAA?AV?$_Tree_iterator@V?$_Tree_val@U?$_Tree_simple_types@U?$pair@$$CBW4Object_Type@@PEBVGameObject@@@std@@@std@@@std@@@2@V?$_Tree_const_iterator@V?$_Tree_val@U?$_Tree_simple_types@U?$pair@$$CBW4Object_Type@@PEBVGameObject@@@std@@@std@@@std@@@2@0@Z 0000000140055f4c     engine.obj
 0005:00002f58       $pdata$?erase@?$_Tree@V?$_Tmap_traits@W4Object_Type@@PEBVGameObject@@U?$less@W4Object_Type@@@std@@V?$allocator@U?$pair@$$CBW4Object_Type@@PEBVGameObject@@@std@@@4@$0A@@std@@@std@@QEAA?AV?$_Tree_iterator@V?$_Tree_val@U?$_Tree_simple_types@U?$pair@$$CBW4Object_Type@@PEBVGameObject@@@std@@@std@@@std@@@2@V?$_Tree_const_iterator@V?$_Tree_val@U?$_Tree_simple_types@U?$pair@$$CBW4Object_Type@@PEBVGameObject@@@std@@@std@@@std@@@2@@Z 0000000140055f58     engine.obj
 0005:00002f64       $pdata$?max_size@?$_Default_allocator_traits@V?$allocator@PEAV?$Container@VWidget@@@@@std@@@std@@SA_KAEBV?$allocator@PEAV?$Container@VWidget@@@@@2@@Z 0000000140055f64     engine.obj
 0005:00002f70       $pdata$?max_size@?$_Default_allocator_traits@V?$allocator@PEAVObject@@@std@@@std@@SA_KAEBV?$allocator@PEAVObject@@@2@@Z 0000000140055f70     engine.obj
 0005:00002f7c       $pdata$?max_size@?$vector@PEAV?$Container@VWidget@@@@V?$allocator@PEAV?$Container@VWidget@@@@@std@@@std@@QEBA_KXZ 0000000140055f7c     engine.obj
 0005:00002f88       $pdata$?push_back@?$vector@PEAV?$Container@VWidget@@@@V?$allocator@PEAV?$Container@VWidget@@@@@std@@@std@@QEAAXAEBQEAV?$Container@VWidget@@@@@Z 0000000140055f88     engine.obj
 0005:00002f94       $pdata$?push_back@?$vector@PEAVObject@@V?$allocator@PEAVObject@@@std@@@std@@QEAAXAEBQEAVObject@@@Z 0000000140055f94     engine.obj
 0005:00002fa0       $pdata$?size@?$vector@PEAV?$Container@VWidget@@@@V?$allocator@PEAV?$Container@VWidget@@@@@std@@@std@@QEBA_KXZ 0000000140055fa0     engine.obj
 0005:00002fac       $pdata$WinMain             0000000140055fac     main.obj
 0005:00002fb8       $pdata$??0?$ContainerMoving@VWidget@@@@QEAA@AEBV?$Vector2@M@sf@@0@Z 0000000140055fb8     container-moving.obj
 0005:00002fc4       $pdata$??0?$Vector2@M@sf@@QEAA@XZ 0000000140055fc4     container-moving.obj
 0005:00002fd0       $pdata$??1?$ContainerMoving@VWidget@@@@UEAA@XZ 0000000140055fd0     container-moving.obj
 0005:00002fdc       $pdata$??_G?$ContainerMoving@VWidget@@@@UEAAPEAXI@Z 0000000140055fdc     container-moving.obj
 0005:00002fe8       $pdata$?HandleEvent@?$ContainerMoving@VWidget@@@@UEAAXAEBVEvent@sf@@@Z 0000000140055fe8     container-moving.obj
 0005:00002ff4       $pdata$?SetMoveBeginListener@?$ContainerMoving@VWidget@@@@QEAAXP6APEAVWidget@@PEAV2@@Z@Z 0000000140055ff4     container-moving.obj
 0005:00003000       $pdata$?SetMoveEndListener@?$ContainerMoving@VWidget@@@@QEAAXP6AXPEAVWidget@@@Z@Z 0000000140056000     container-moving.obj
 0005:0000300c       $pdata$?SetMovingListener@?$ContainerMoving@VWidget@@@@QEAAXP6AXPEAVWidget@@@Z@Z 000000014005600c     container-moving.obj
 0005:00003018       $pdata$??0?$basic_string@DU?$char_traits@D@std@@V?$allocator@D@2@@std@@QEAA@XZ 0000000140056018     game-object.obj
 0005:00003024       $pdata$??0GameObject@@QEAA@PEBD@Z 0000000140056024     game-object.obj
 0005:00003030       $pdata$??0GameObject@@QEAA@PEBV0@@Z 0000000140056030     game-object.obj
 0005:0000303c       $pdata$??0ID@@QEAA@XZ      000000014005603c     game-object.obj
 0005:00003048       $pdata$??1GameObject@@UEAA@XZ 0000000140056048     game-object.obj
 0005:00003054       $pdata$??1ID@@QEAA@XZ      0000000140056054     game-object.obj
 0005:00003060       $pdata$??_GGameObject@@UEAAPEAXI@Z 0000000140056060     game-object.obj
 0005:0000306c       $pdata$?CheckIntersect@GameObject@@QEBA_NPEBV1@VTime@sf@@@Z 000000014005606c     game-object.obj
 0005:00003078       $pdata$?CheckIntersectX@GameObject@@QEBA_NPEBV1@VTime@sf@@@Z 0000000140056078     game-object.obj
 0005:00003084       $pdata$?CheckIntersectY@GameObject@@QEBA_NPEBV1@VTime@sf@@@Z 0000000140056084     game-object.obj
 0005:00003090       $pdata$?Create@GameObject@@SAPEBV1@PEBD@Z 0000000140056090     game-object.obj
 0005:0000309c       $pdata$?CreateImpl@GameObject@@CAPEAV1@W4Object_Type@@PEBD@Z 000000014005609c     game-object.obj
 0005:000030a8       $pdata$?Generate@ID@@QEAAXXZ 00000001400560a8     game-object.obj
 0005:000030b4       $pdata$?GetDirection@GameObject@@QEBA?AV?$Vector2@M@sf@@XZ 00000001400560b4     game-object.obj
 0005:000030c0       $pdata$?GetGroup@GameObject@@QEBA_KXZ 00000001400560c0     game-object.obj
 0005:000030cc       $pdata$?GetHealth@GameObject@@QEBAHXZ 00000001400560cc     game-object.obj
 0005:000030d8       $pdata$?GetType@GameObject@@QEBA?AW4Object_Type@@XZ 00000001400560d8     game-object.obj
 0005:000030e4       $pdata$?GetVelocity@GameObject@@QEBA?AV?$Vector2@M@sf@@XZ 00000001400560e4     game-object.obj
 0005:000030f0       $pdata$?SetGroup@GameObject@@QEAAX_K@Z 00000001400560f0     game-object.obj
 0005:000030fc       $pdata$?SetType@GameObject@@QEAAX_K@Z 00000001400560fc     game-object.obj
 0005:00003108       $pdata$?SetVelocity@GameObject@@QEAAXAEBV?$Vector2@M@sf@@@Z 0000000140056108     game-object.obj
 0005:00003114       $pdata$?Update@GameObject@@UEAAXAEBVTime@sf@@@Z 0000000140056114     game-object.obj
 0005:00003120       $pdata$?calculateDirection@GameObject@@AEAAXXZ 0000000140056120     game-object.obj
 0005:0000312c       $pdata$?fabs@@YAMM@Z       000000014005612c     game-object.obj
 0005:00003138       $pdata$fabsf               0000000140056138     game-object.obj
 0005:00003144       $pdata$??$?0AEBV<lambda_312b3f49165ee8dbe2e5837b3ce31c90>@@X@?$_Func_impl_no_alloc@V<lambda_312b3f49165ee8dbe2e5837b3ce31c90>@@XPEAVButton@@@std@@QEAA@AEBV<lambda_312b3f49165ee8dbe2e5837b3ce31c90>@@@Z 0000000140056144     menu-window.obj
 0005:00003150       $pdata$??$?0AEBV<lambda_5f2a59844b8069354d5a17d44e450129>@@X@?$_Func_impl_no_alloc@V<lambda_5f2a59844b8069354d5a17d44e450129>@@XPEAVButton@@@std@@QEAA@AEBV<lambda_5f2a59844b8069354d5a17d44e450129>@@@Z 0000000140056150     menu-window.obj
 0005:0000315c       $pdata$??$?0AEBV<lambda_668a1179af56ef880bbabaf92a5d9839>@@X@?$_Func_impl_no_alloc@V<lambda_668a1179af56ef880bbabaf92a5d9839>@@XPEAVButton@@@std@@QEAA@AEBV<lambda_668a1179af56ef880bbabaf92a5d9839>@@@Z 000000014005615c     menu-window.obj
 0005:00003168       $pdata$??$?0V<lambda_312b3f49165ee8dbe2e5837b3ce31c90>@@X@?$_Func_impl_no_alloc@V<lambda_312b3f49165ee8dbe2e5837b3ce31c90>@@XPEAVButton@@@std@@QEAA@$$QEAV<lambda_312b3f49165ee8dbe2e5837b3ce31c90>@@@Z 0000000140056168     menu-window.obj
 0005:00003174       $pdata$??$?0V<lambda_312b3f49165ee8dbe2e5837b3ce31c90>@@X@?$function@$$A6AXPEAVButton@@@Z@std@@QEAA@V<lambda_312b3f49165ee8dbe2e5837b3ce31c90>@@@Z 0000000140056174     menu-window.obj
 0005:00003180       $pdata$??$?0V<lambda_5f2a59844b8069354d5a17d44e450129>@@X@?$_Func_impl_no_alloc@V<lambda_5f2a59844b8069354d5a17d44e450129>@@XPEAVButton@@@std@@QEAA@$$QEAV<lambda_5f2a59844b8069354d5a17d44e450129>@@@Z 0000000140056180     menu-window.obj
 0005:0000318c       $pdata$??$?0V<lambda_5f2a59844b8069354d5a17d44e450129>@@X@?$function@$$A6AXPEAVButton@@@Z@std@@QEAA@V<lambda_5f2a59844b8069354d5a17d44e450129>@@@Z 000000014005618c     menu-window.obj
 0005:00003198       $pdata$??$?0V<lambda_668a1179af56ef880bbabaf92a5d9839>@@X@?$_Func_impl_no_alloc@V<lambda_668a1179af56ef880bbabaf92a5d9839>@@XPEAVButton@@@std@@QEAA@$$QEAV<lambda_668a1179af56ef880bbabaf92a5d9839>@@@Z 0000000140056198     menu-window.obj
 0005:000031a4       $pdata$??$?0V<lambda_668a1179af56ef880bbabaf92a5d9839>@@X@?$function@$$A6AXPEAVButton@@@Z@std@@QEAA@V<lambda_668a1179af56ef880bbabaf92a5d9839>@@@Z 00000001400561a4     menu-window.obj
 0005:000031b0       $pdata$??$_Call@AEAV<lambda_312b3f49165ee8dbe2e5837b3ce31c90>@@PEAVButton@@@?$_Invoker_ret@X$00@std@@SAXAEAV<lambda_312b3f49165ee8dbe2e5837b3ce31c90>@@$$QEAPEAVButton@@@Z 00000001400561b0     menu-window.obj
 0005:000031bc       $pdata$??$_Call@AEAV<lambda_312b3f49165ee8dbe2e5837b3ce31c90>@@PEAVButton@@@_Invoker_functor@std@@SAXAEAV<lambda_312b3f49165ee8dbe2e5837b3ce31c90>@@$$QEAPEAVButton@@@Z 00000001400561bc     menu-window.obj
 0005:000031c8       $pdata$??$_Call@AEAV<lambda_5f2a59844b8069354d5a17d44e450129>@@PEAVButton@@@?$_Invoker_ret@X$00@std@@SAXAEAV<lambda_5f2a59844b8069354d5a17d44e450129>@@$$QEAPEAVButton@@@Z 00000001400561c8     menu-window.obj
 0005:000031d4       $pdata$??$_Call@AEAV<lambda_5f2a59844b8069354d5a17d44e450129>@@PEAVButton@@@_Invoker_functor@std@@SAXAEAV<lambda_5f2a59844b8069354d5a17d44e450129>@@$$QEAPEAVButton@@@Z 00000001400561d4     menu-window.obj
 0005:000031e0       $pdata$??$_Call@AEAV<lambda_668a1179af56ef880bbabaf92a5d9839>@@PEAVButton@@@?$_Invoker_ret@X$00@std@@SAXAEAV<lambda_668a1179af56ef880bbabaf92a5d9839>@@$$QEAPEAVButton@@@Z 00000001400561e0     menu-window.obj
 0005:000031ec       $pdata$??$_Call@AEAV<lambda_668a1179af56ef880bbabaf92a5d9839>@@PEAVButton@@@_Invoker_functor@std@@SAXAEAV<lambda_668a1179af56ef880bbabaf92a5d9839>@@$$QEAPEAVButton@@@Z 00000001400561ec     menu-window.obj
 0005:000031f8       $pdata$??$_Deallocate@$07$0A@@std@@YAXPEAX_K@Z 00000001400561f8     menu-window.obj
 0005:00003204       $pdata$??$_Reset@V<lambda_312b3f49165ee8dbe2e5837b3ce31c90>@@@?$_Func_class@XPEAVButton@@@std@@IEAAX$$QEAV<lambda_312b3f49165ee8dbe2e5837b3ce31c90>@@@Z 0000000140056204     menu-window.obj
 0005:00003210       $pdata$??$_Reset@V<lambda_5f2a59844b8069354d5a17d44e450129>@@@?$_Func_class@XPEAVButton@@@std@@IEAAX$$QEAV<lambda_5f2a59844b8069354d5a17d44e450129>@@@Z 0000000140056210     menu-window.obj
 0005:0000321c       $pdata$??$_Reset@V<lambda_668a1179af56ef880bbabaf92a5d9839>@@@?$_Func_class@XPEAVButton@@@std@@IEAAX$$QEAV<lambda_668a1179af56ef880bbabaf92a5d9839>@@@Z 000000014005621c     menu-window.obj
 0005:00003228       $pdata$??$_Reset_impl@V?$_Func_impl_no_alloc@V<lambda_312b3f49165ee8dbe2e5837b3ce31c90>@@XPEAVButton@@@std@@V<lambda_312b3f49165ee8dbe2e5837b3ce31c90>@@@?$_Func_class@XPEAVButton@@@std@@IEAAX$$QEAV<lambda_312b3f49165ee8dbe2e5837b3ce31c90>@@U?$integral_constant@_N$0A@@1@@Z 0000000140056228     menu-window.obj
 0005:00003234       $pdata$??$_Reset_impl@V?$_Func_impl_no_alloc@V<lambda_5f2a59844b8069354d5a17d44e450129>@@XPEAVButton@@@std@@V<lambda_5f2a59844b8069354d5a17d44e450129>@@@?$_Func_class@XPEAVButton@@@std@@IEAAX$$QEAV<lambda_5f2a59844b8069354d5a17d44e450129>@@U?$integral_constant@_N$0A@@1@@Z 0000000140056234     menu-window.obj
 0005:00003240       $pdata$??$_Reset_impl@V?$_Func_impl_no_alloc@V<lambda_668a1179af56ef880bbabaf92a5d9839>@@XPEAVButton@@@std@@V<lambda_668a1179af56ef880bbabaf92a5d9839>@@@?$_Func_class@XPEAVButton@@@std@@IEAAX$$QEAV<lambda_668a1179af56ef880bbabaf92a5d9839>@@U?$integral_constant@_N$0A@@1@@Z 0000000140056240     menu-window.obj
 0005:0000324c       $pdata$??$_Test_callable@V<lambda_312b3f49165ee8dbe2e5837b3ce31c90>@@@std@@YA_NAEBV<lambda_312b3f49165ee8dbe2e5837b3ce31c90>@@@Z 000000014005624c     menu-window.obj
 0005:00003258       $pdata$??$_Test_callable@V<lambda_312b3f49165ee8dbe2e5837b3ce31c90>@@@std@@YA_NAEBV<lambda_312b3f49165ee8dbe2e5837b3ce31c90>@@U?$integral_constant@_N$0A@@0@@Z 0000000140056258     menu-window.obj
 0005:00003264       $pdata$??$_Test_callable@V<lambda_5f2a59844b8069354d5a17d44e450129>@@@std@@YA_NAEBV<lambda_5f2a59844b8069354d5a17d44e450129>@@@Z 0000000140056264     menu-window.obj
 0005:00003270       $pdata$??$_Test_callable@V<lambda_5f2a59844b8069354d5a17d44e450129>@@@std@@YA_NAEBV<lambda_5f2a59844b8069354d5a17d44e450129>@@U?$integral_constant@_N$0A@@0@@Z 0000000140056270     menu-window.obj
 0005:0000327c       $pdata$??$_Test_callable@V<lambda_668a1179af56ef880bbabaf92a5d9839>@@@std@@YA_NAEBV<lambda_668a1179af56ef880bbabaf92a5d9839>@@@Z 000000014005627c     menu-window.obj
 0005:00003288       $pdata$??$_Test_callable@V<lambda_668a1179af56ef880bbabaf92a5d9839>@@@std@@YA_NAEBV<lambda_668a1179af56ef880bbabaf92a5d9839>@@U?$integral_constant@_N$0A@@0@@Z 0000000140056288     menu-window.obj
 0005:00003294       $pdata$??$addressof@$$CBV<lambda_312b3f49165ee8dbe2e5837b3ce31c90>@@@std@@YAPEBV<lambda_312b3f49165ee8dbe2e5837b3ce31c90>@@AEBV1@@Z 0000000140056294     menu-window.obj
 0005:000032a0       $pdata$??$addressof@$$CBV<lambda_5f2a59844b8069354d5a17d44e450129>@@@std@@YAPEBV<lambda_5f2a59844b8069354d5a17d44e450129>@@AEBV1@@Z 00000001400562a0     menu-window.obj
 0005:000032ac       $pdata$??$addressof@$$CBV<lambda_668a1179af56ef880bbabaf92a5d9839>@@@std@@YAPEBV<lambda_668a1179af56ef880bbabaf92a5d9839>@@AEBV1@@Z 00000001400562ac     menu-window.obj
 0005:000032b8       $pdata$??$forward@AEAV<lambda_312b3f49165ee8dbe2e5837b3ce31c90>@@@std@@YAAEAV<lambda_312b3f49165ee8dbe2e5837b3ce31c90>@@AEAV1@@Z 00000001400562b8     menu-window.obj
 0005:000032c4       $pdata$??$forward@AEAV<lambda_5f2a59844b8069354d5a17d44e450129>@@@std@@YAAEAV<lambda_5f2a59844b8069354d5a17d44e450129>@@AEAV1@@Z 00000001400562c4     menu-window.obj
 0005:000032d0       $pdata$??$forward@AEAV<lambda_668a1179af56ef880bbabaf92a5d9839>@@@std@@YAAEAV<lambda_668a1179af56ef880bbabaf92a5d9839>@@AEAV1@@Z 00000001400562d0     menu-window.obj
 0005:000032dc       $pdata$??$forward@AEBV<lambda_312b3f49165ee8dbe2e5837b3ce31c90>@@@std@@YAAEBV<lambda_312b3f49165ee8dbe2e5837b3ce31c90>@@AEBV1@@Z 00000001400562dc     menu-window.obj
 0005:000032e8       $pdata$??$forward@AEBV<lambda_5f2a59844b8069354d5a17d44e450129>@@@std@@YAAEBV<lambda_5f2a59844b8069354d5a17d44e450129>@@AEBV1@@Z 00000001400562e8     menu-window.obj
 0005:000032f4       $pdata$??$forward@AEBV<lambda_668a1179af56ef880bbabaf92a5d9839>@@@std@@YAAEBV<lambda_668a1179af56ef880bbabaf92a5d9839>@@AEBV1@@Z 00000001400562f4     menu-window.obj
 0005:00003300       $pdata$??$forward@V<lambda_312b3f49165ee8dbe2e5837b3ce31c90>@@@std@@YA$$QEAV<lambda_312b3f49165ee8dbe2e5837b3ce31c90>@@AEAV1@@Z 0000000140056300     menu-window.obj
 0005:0000330c       $pdata$??$forward@V<lambda_5f2a59844b8069354d5a17d44e450129>@@@std@@YA$$QEAV<lambda_5f2a59844b8069354d5a17d44e450129>@@AEAV1@@Z 000000014005630c     menu-window.obj
 0005:00003318       $pdata$??$forward@V<lambda_668a1179af56ef880bbabaf92a5d9839>@@@std@@YA$$QEAV<lambda_668a1179af56ef880bbabaf92a5d9839>@@AEAV1@@Z 0000000140056318     menu-window.obj
 0005:00003324       $pdata$??$invoke@AEAV<lambda_312b3f49165ee8dbe2e5837b3ce31c90>@@PEAVButton@@@std@@YAXAEAV<lambda_312b3f49165ee8dbe2e5837b3ce31c90>@@$$QEAPEAVButton@@@Z 0000000140056324     menu-window.obj
 0005:00003330       $pdata$??$invoke@AEAV<lambda_5f2a59844b8069354d5a17d44e450129>@@PEAVButton@@@std@@YAXAEAV<lambda_5f2a59844b8069354d5a17d44e450129>@@$$QEAPEAVButton@@@Z 0000000140056330     menu-window.obj
 0005:0000333c       $pdata$??$invoke@AEAV<lambda_668a1179af56ef880bbabaf92a5d9839>@@PEAVButton@@@std@@YAXAEAV<lambda_668a1179af56ef880bbabaf92a5d9839>@@$$QEAPEAVButton@@@Z 000000014005633c     menu-window.obj
 0005:00003348       $pdata$??$move@AEAV<lambda_312b3f49165ee8dbe2e5837b3ce31c90>@@@std@@YA$$QEAV<lambda_312b3f49165ee8dbe2e5837b3ce31c90>@@AEAV1@@Z 0000000140056348     menu-window.obj
 0005:00003354       $pdata$??$move@AEAV<lambda_5f2a59844b8069354d5a17d44e450129>@@@std@@YA$$QEAV<lambda_5f2a59844b8069354d5a17d44e450129>@@AEAV1@@Z 0000000140056354     menu-window.obj
 0005:00003360       $pdata$??$move@AEAV<lambda_668a1179af56ef880bbabaf92a5d9839>@@@std@@YA$$QEAV<lambda_668a1179af56ef880bbabaf92a5d9839>@@AEAV1@@Z 0000000140056360     menu-window.obj
 0005:0000336c       $pdata$??0<lambda_312b3f49165ee8dbe2e5837b3ce31c90>@@QEAA@QEAVMenuWindow@@@Z 000000014005636c     menu-window.obj
 0005:00003378       $pdata$??0<lambda_5f2a59844b8069354d5a17d44e450129>@@QEAA@QEAVMenuWindow@@@Z 0000000140056378     menu-window.obj
 0005:00003384       $pdata$??0<lambda_668a1179af56ef880bbabaf92a5d9839>@@QEAA@QEAVMenuWindow@@@Z 0000000140056384     menu-window.obj
 0005:00003390       $pdata$??0?$_Func_base@XPEAVButton@@@std@@QEAA@XZ 0000000140056390     menu-window.obj
 0005:0000339c       $pdata$??0MenuWindow@@QEAA@PEAVEngine@@AEBV?$Vector2@M@sf@@1@Z 000000014005639c     menu-window.obj
 0005:000033a8       $pdata$??1MenuWindow@@UEAA@XZ 00000001400563a8     menu-window.obj
 0005:000033b4       $pdata$??R<lambda_312b3f49165ee8dbe2e5837b3ce31c90>@@QEBAXPEAVButton@@@Z 00000001400563b4     menu-window.obj
 0005:000033c0       $pdata$??R<lambda_5f2a59844b8069354d5a17d44e450129>@@QEBAXPEAVButton@@@Z 00000001400563c0     menu-window.obj
 0005:000033cc       $pdata$??R<lambda_668a1179af56ef880bbabaf92a5d9839>@@QEBAXPEAVButton@@@Z 00000001400563cc     menu-window.obj
 0005:000033d8       $pdata$??_GMenuWindow@@UEAAPEAXI@Z 00000001400563d8     menu-window.obj
 0005:000033e4       $pdata$?_Clone@?$_Func_impl_no_alloc@V<lambda_312b3f49165ee8dbe2e5837b3ce31c90>@@XPEAVButton@@@std@@AEBAPEAV?$_Func_base@XPEAVButton@@@2@PEAXU?$integral_constant@_N$0A@@2@@Z 00000001400563e4     menu-window.obj
 0005:000033f0       $pdata$?_Clone@?$_Func_impl_no_alloc@V<lambda_5f2a59844b8069354d5a17d44e450129>@@XPEAVButton@@@std@@AEBAPEAV?$_Func_base@XPEAVButton@@@2@PEAXU?$integral_constant@_N$0A@@2@@Z 00000001400563f0     menu-window.obj
 0005:000033fc       $pdata$?_Clone@?$_Func_impl_no_alloc@V<lambda_668a1179af56ef880bbabaf92a5d9839>@@XPEAVButton@@@std@@AEBAPEAV?$_Func_base@XPEAVButton@@@2@PEAXU?$integral_constant@_N$0A@@2@@Z 00000001400563fc     menu-window.obj
 0005:00003408       $pdata$?_Copy@?$_Func_impl_no_alloc@V<lambda_312b3f49165ee8dbe2e5837b3ce31c90>@@XPEAVButton@@@std@@EEBAPEAV?$_Func_base@XPEAVButton@@@2@PEAX@Z 0000000140056408     menu-window.obj
 0005:00003414       $pdata$?_Copy@?$_Func_impl_no_alloc@V<lambda_5f2a59844b8069354d5a17d44e450129>@@XPEAVButton@@@std@@EEBAPEAV?$_Func_base@XPEAVButton@@@2@PEAX@Z 0000000140056414     menu-window.obj
 0005:00003420       $pdata$?_Copy@?$_Func_impl_no_alloc@V<lambda_668a1179af56ef880bbabaf92a5d9839>@@XPEAVButton@@@std@@EEBAPEAV?$_Func_base@XPEAVButton@@@2@PEAX@Z 0000000140056420     menu-window.obj
 0005:0000342c       $pdata$?_Delete_this@?$_Func_impl_no_alloc@V<lambda_312b3f49165ee8dbe2e5837b3ce31c90>@@XPEAVButton@@@std@@EEAAX_N@Z 000000014005642c     menu-window.obj
 0005:00003438       $pdata$?_Delete_this@?$_Func_impl_no_alloc@V<lambda_5f2a59844b8069354d5a17d44e450129>@@XPEAVButton@@@std@@EEAAX_N@Z 0000000140056438     menu-window.obj
 0005:00003444       $pdata$?_Delete_this@?$_Func_impl_no_alloc@V<lambda_668a1179af56ef880bbabaf92a5d9839>@@XPEAVButton@@@std@@EEAAX_N@Z 0000000140056444     menu-window.obj
 0005:00003450       $pdata$?_Do_call@?$_Func_impl_no_alloc@V<lambda_312b3f49165ee8dbe2e5837b3ce31c90>@@XPEAVButton@@@std@@EEAAX$$QEAPEAVButton@@@Z 0000000140056450     menu-window.obj
 0005:0000345c       $pdata$?_Do_call@?$_Func_impl_no_alloc@V<lambda_5f2a59844b8069354d5a17d44e450129>@@XPEAVButton@@@std@@EEAAX$$QEAPEAVButton@@@Z 000000014005645c     menu-window.obj
 0005:00003468       $pdata$?_Do_call@?$_Func_impl_no_alloc@V<lambda_668a1179af56ef880bbabaf92a5d9839>@@XPEAVButton@@@std@@EEAAX$$QEAPEAVButton@@@Z 0000000140056468     menu-window.obj
 0005:00003474       $pdata$?_Get@?$_Func_impl_no_alloc@V<lambda_312b3f49165ee8dbe2e5837b3ce31c90>@@XPEAVButton@@@std@@EEBAPEBXXZ 0000000140056474     menu-window.obj
 0005:00003480       $pdata$?_Get@?$_Func_impl_no_alloc@V<lambda_5f2a59844b8069354d5a17d44e450129>@@XPEAVButton@@@std@@EEBAPEBXXZ 0000000140056480     menu-window.obj
 0005:0000348c       $pdata$?_Get@?$_Func_impl_no_alloc@V<lambda_668a1179af56ef880bbabaf92a5d9839>@@XPEAVButton@@@std@@EEBAPEBXXZ 000000014005648c     menu-window.obj
 0005:00003498       $pdata$?_Move@?$_Func_impl_no_alloc@V<lambda_312b3f49165ee8dbe2e5837b3ce31c90>@@XPEAVButton@@@std@@EEAAPEAV?$_Func_base@XPEAVButton@@@2@PEAX@Z 0000000140056498     menu-window.obj
 0005:000034a4       $pdata$?_Move@?$_Func_impl_no_alloc@V<lambda_5f2a59844b8069354d5a17d44e450129>@@XPEAVButton@@@std@@EEAAPEAV?$_Func_base@XPEAVButton@@@2@PEAX@Z 00000001400564a4     menu-window.obj
 0005:000034b0       $pdata$?_Move@?$_Func_impl_no_alloc@V<lambda_668a1179af56ef880bbabaf92a5d9839>@@XPEAVButton@@@std@@EEAAPEAV?$_Func_base@XPEAVButton@@@2@PEAX@Z 00000001400564b0     menu-window.obj
 0005:000034bc       $pdata$?_Target_type@?$_Func_impl_no_alloc@V<lambda_312b3f49165ee8dbe2e5837b3ce31c90>@@XPEAVButton@@@std@@EEBAAEBVtype_info@@XZ 00000001400564bc     menu-window.obj
 0005:000034c8       $pdata$?_Target_type@?$_Func_impl_no_alloc@V<lambda_5f2a59844b8069354d5a17d44e450129>@@XPEAVButton@@@std@@EEBAAEBVtype_info@@XZ 00000001400564c8     menu-window.obj
 0005:000034d4       $pdata$?_Target_type@?$_Func_impl_no_alloc@V<lambda_668a1179af56ef880bbabaf92a5d9839>@@XPEAVButton@@@std@@EEBAAEBVtype_info@@XZ 00000001400564d4     menu-window.obj
 0005:000034e0       $pdata$?onEditorClicked@MenuWindow@@AEAAXPEAVButton@@@Z 00000001400564e0     menu-window.obj
 0005:000034ec       $pdata$?onExitClicked@MenuWindow@@AEAAXPEAVButton@@@Z 00000001400564ec     menu-window.obj
 0005:000034f8       $pdata$?onStartClicked@MenuWindow@@AEAAXPEAVButton@@@Z 00000001400564f8     menu-window.obj
 0005:00003504       $pdata$??0Missile@@QEAA@XZ 0000000140056504     missile.obj
 0005:00003510       $pdata$??1Missile@@QEAA@XZ 0000000140056510     missile.obj
 0005:000035c4       $pdata$??0Player@@QEAA@PEAVGameObject@@@Z 00000001400565c4     player.obj
 0005:000035d0       $pdata$??1Player@@QEAA@XZ  00000001400565d0     player.obj
 0005:000035dc       $pdata$?HandleEvent@Player@@QEAA_NAEBVEvent@sf@@@Z 00000001400565dc     player.obj
 0005:000035e8       $pdata$??0Tank@@QEAA@PEBD@Z 00000001400565e8     tank.obj
 0005:000035f4       $pdata$??0Tank@@QEAA@PEBV0@@Z 00000001400565f4     tank.obj
 0005:00003600       $pdata$??1Tank@@UEAA@XZ    0000000140056600     tank.obj
 0005:0000360c       $pdata$??_GTank@@UEAAPEAXI@Z 000000014005660c     tank.obj
 0005:00003618       $pdata$?Clone@Tank@@UEBAPEAVGameObject@@XZ 0000000140056618     tank.obj
 0005:00003624       $pdata$?OnIntersect@Tank@@UEAAXPEAVGameObject@@@Z 0000000140056624     tank.obj
 0005:00003630       $pdata$??0Wall@@QEAA@PEBD@Z 0000000140056630     wall.obj
 0005:0000363c       $pdata$??0Wall@@QEAA@PEBV0@@Z 000000014005663c     wall.obj
 0005:00003648       $pdata$??1Wall@@UEAA@XZ    0000000140056648     wall.obj
 0005:00003654       $pdata$??_GWall@@UEAAPEAXI@Z 0000000140056654     wall.obj
 0005:00003660       $pdata$?Clone@Wall@@UEBAPEAVGameObject@@XZ 0000000140056660     wall.obj
 0005:0000366c       $pdata$?OnIntersect@Wall@@UEAAXPEAVGameObject@@@Z 000000014005666c     wall.obj
 0005:00003678       $pdata$??0WidgetGame@@QEAA@PEAVEngine@@AEBV?$Vector2@M@sf@@1@Z 0000000140056678     widget-game.obj
 0005:00003684       $pdata$??1WidgetGame@@UEAA@XZ 0000000140056684     widget-game.obj
 0005:00003690       $pdata$??_GWidgetGame@@UEAAPEAXI@Z 0000000140056690     widget-game.obj
 0005:0000369c       $pdata$?Draw@WidgetGame@@UEAAXPEAVRenderWindow@sf@@@Z 000000014005669c     widget-game.obj
 0005:000036a8       $pdata$?GetNearestIntersectX@WidgetGame@@AEBAPEAVGameObject@@PEBV2@VTime@sf@@@Z 00000001400566a8     widget-game.obj
 0005:000036b4       $pdata$?GetNearestIntersectY@WidgetGame@@AEBAPEAVGameObject@@PEBV2@VTime@sf@@@Z 00000001400566b4     widget-game.obj
 0005:000036c0       $pdata$?HandleEvent@WidgetGame@@UEAAXAEBVEvent@sf@@@Z 00000001400566c0     widget-game.obj
 0005:000036cc       $pdata$?Update@WidgetGame@@UEAAXAEBVTime@sf@@@Z 00000001400566cc     widget-game.obj
 0005:000036d8       $pdata$?createWorldWalls@WidgetGame@@QEAAXPEBVConfigManager@@@Z 00000001400566d8     widget-game.obj
 0005:000036e4       $pdata$??0?$Rect@M@sf@@QEAA@MMMM@Z 00000001400566e4     widget.obj
 0005:000036f0       $pdata$??0Widget@@QEAA@AEBV?$Vector2@M@sf@@0@Z 00000001400566f0     widget.obj
 0005:000036fc       $pdata$??1Widget@@UEAA@XZ  00000001400566fc     widget.obj
 0005:00003708       $pdata$??_GWidget@@UEAAPEAXI@Z 0000000140056708     widget.obj
 0005:00003714       $pdata$?Draw@Widget@@UEAAXPEAVRenderWindow@sf@@@Z 0000000140056714     widget.obj
 0005:00003720       $pdata$??0WidgetTemplates@@QEAA@AEBV?$Vector2@M@sf@@0@Z 0000000140056720     widget-templates.obj
 0005:0000372c       $pdata$??1WidgetTemplates@@UEAA@XZ 000000014005672c     widget-templates.obj
 0005:00003738       $pdata$??_GWidgetTemplates@@UEAAPEAXI@Z 0000000140056738     widget-templates.obj
 0005:00003744       $pdata$??0?$Window@VWidget@@@@QEAA@AEBV?$Vector2@M@sf@@0@Z 0000000140056744     window.obj
 0005:00003750       $pdata$??1?$Window@VWidget@@@@UEAA@XZ 0000000140056750     window.obj
 0005:0000375c       $pdata$??_G?$Window@VWidget@@@@UEAAPEAXI@Z 000000014005675c     window.obj
 0005:00003768       $pdata$??0WindowGame@@QEAA@PEAVEngine@@AEBV?$Vector2@M@sf@@1@Z 0000000140056768     window-game.obj
 0005:00003774       $pdata$??1WindowGame@@UEAA@XZ 0000000140056774     window-game.obj
 0005:00003780       $pdata$??_GWindowGame@@UEAAPEAXI@Z 0000000140056780     window-game.obj
 0005:0000378c       $pdata$?<lambda_invoker_cdecl>@<lambda_d959d1f5d5308bc9905e6be0a7d8cebe>@@CAPEAVWidget@@PEAV2@@Z 000000014005678c     window-editor.obj
 0005:00003798       $pdata$??0WindowEditor@@QEAA@PEAVEngine@@AEBV?$Vector2@M@sf@@1@Z 0000000140056798     window-editor.obj
 0005:000037a4       $pdata$??1WindowEditor@@UEAA@XZ 00000001400567a4     window-editor.obj
 0005:000037b0       $pdata$??B<lambda_d959d1f5d5308bc9905e6be0a7d8cebe>@@QEBAP6APEAVWidget@@PEAV1@@ZXZ 00000001400567b0     window-editor.obj
 0005:000037bc       $pdata$??R<lambda_d959d1f5d5308bc9905e6be0a7d8cebe>@@QEBAPEAVWidget@@PEAV1@@Z 00000001400567bc     window-editor.obj
 0005:000037c8       $pdata$??_GWindowEditor@@UEAAPEAXI@Z 00000001400567c8     window-editor.obj
 0005:000037d4       $pdata$??2@YAPEAX_K@Z      00000001400567d4     MSVCRTD:new_scalar.obj
 0005:000037e0       $pdata$??3@YAXPEAX_K@Z     00000001400567e0     MSVCRTD:delete_scalar_size.obj
 0005:000037ec       $pdata$??$__crt_fast_decode_pointer@PEAP6AXXZ@@YAPEAP6AXXZQEAP6AXXZ@Z 00000001400567ec     MSVCRTD:utility.obj
 0005:000037f8       $pdata$??$__crt_fast_encode_pointer@PEAP6AXXZ@@YAPEAP6AXXZQEAP6AXXZ@Z 00000001400567f8     MSVCRTD:utility.obj
 0005:00003804       $pdata$?configure_argv@__scrt_narrow_argv_policy@@SAHXZ 0000000140056804     MSVCRTD:utility.obj
 0005:00003810       $pdata$?find_pe_section@@YAPEAU_IMAGE_SECTION_HEADER@@QEAE_K@Z 0000000140056810     MSVCRTD:utility.obj
 0005:0000381c       $pdata$?initialize_environment@__scrt_narrow_environment_policy@@SAHXZ 000000014005681c     MSVCRTD:utility.obj
 0005:00003828       $pdata$?is_potentially_valid_image_base@@YA_NQEAX@Z 0000000140056828     MSVCRTD:utility.obj
 0005:00003834       $pdata$__scrt_acquire_startup_lock 0000000140056834     MSVCRTD:utility.obj
 0005:00003840       $pdata$__scrt_dllmain_after_initialize_c 0000000140056840     MSVCRTD:utility.obj
 0005:0000384c       $pdata$__scrt_dllmain_before_initialize_c 000000014005684c     MSVCRTD:utility.obj
 0005:00003858       $pdata$__scrt_dllmain_crt_thread_attach 0000000140056858     MSVCRTD:utility.obj
 0005:00003864       $pdata$__scrt_dllmain_crt_thread_detach 0000000140056864     MSVCRTD:utility.obj
 0005:00003870       $pdata$__scrt_dllmain_exception_filter 0000000140056870     MSVCRTD:utility.obj
 0005:0000387c       $pdata$__scrt_dllmain_uninitialize_c 000000014005687c     MSVCRTD:utility.obj
 0005:00003888       $pdata$__scrt_dllmain_uninitialize_critical 0000000140056888     MSVCRTD:utility.obj
 0005:00003894       $pdata$__scrt_initialize_crt 0000000140056894     MSVCRTD:utility.obj
 0005:000038a0       $pdata$__scrt_initialize_onexit_tables 00000001400568a0     MSVCRTD:utility.obj
 0005:000038ac       $pdata$__scrt_is_nonwritable_in_current_image 00000001400568ac     MSVCRTD:utility.obj
 0005:000038b8       $pdata$__scrt_release_startup_lock 00000001400568b8     MSVCRTD:utility.obj
 0005:000038c4       $pdata$__scrt_uninitialize_crt 00000001400568c4     MSVCRTD:utility.obj
 0005:000038d0       $pdata$_onexit             00000001400568d0     MSVCRTD:utility.obj
 0005:000038dc       $pdata$at_quick_exit       00000001400568dc     MSVCRTD:utility.obj
 0005:000038e8       $pdata$atexit              00000001400568e8     MSVCRTD:utility.obj
 0005:000038f4       $pdata$_RTC_AllocaHelper   00000001400568f4     MSVCRTD:_stack_.obj
 0005:00003900       $pdata$0$_RTC_AllocaHelper 0000000140056900     MSVCRTD:_stack_.obj
 0005:0000390c       $pdata$1$_RTC_AllocaHelper 000000014005690c     MSVCRTD:_stack_.obj
 0005:00003918       $pdata$_RTC_CheckStackVars 0000000140056918     MSVCRTD:_stack_.obj
 0005:00003924       $pdata$0$_RTC_CheckStackVars 0000000140056924     MSVCRTD:_stack_.obj
 0005:00003930       $pdata$1$_RTC_CheckStackVars 0000000140056930     MSVCRTD:_stack_.obj
 0005:0000393c       $pdata$_RTC_CheckStackVars2 000000014005693c     MSVCRTD:_stack_.obj
 0005:00003948       $pdata$1$_RTC_CheckStackVars2 0000000140056948     MSVCRTD:_stack_.obj
 0005:00003954       $pdata$2$_RTC_CheckStackVars2 0000000140056954     MSVCRTD:_stack_.obj
 0005:00003960       $pdata$3$_RTC_CheckStackVars2 0000000140056960     MSVCRTD:_stack_.obj
 0005:0000396c       $pdata$4$_RTC_CheckStackVars2 000000014005696c     MSVCRTD:_stack_.obj
 0005:00003978       $pdata$5$_RTC_CheckStackVars2 0000000140056978     MSVCRTD:_stack_.obj
 0005:00003984       $pdata$6$_RTC_CheckStackVars2 0000000140056984     MSVCRTD:_stack_.obj
 0005:00003990       $pdata$_RTC_InitBase       0000000140056990     MSVCRTD:_init_.obj
 0005:0000399c       $pdata$_RTC_Shutdown       000000014005699c     MSVCRTD:_init_.obj
 0005:000039a8       $pdata$__GSHandlerCheck    00000001400569a8     MSVCRTD:_gshandler_.obj
 0005:000039b4       $pdata$__GSHandlerCheckCommon 00000001400569b4     MSVCRTD:_gshandler_.obj
 0005:000039c0       $pdata$__GSHandlerCheck_EH 00000001400569c0     MSVCRTD:gshandlereh.obj
 0005:000039d8       $pdata$??_Gtype_info@@UEAAPEAXI@Z 00000001400569d8     MSVCRTD:std_type_info_static.obj
 0005:000039e4       $pdata$??_U@YAPEAX_K@Z     00000001400569e4     MSVCRTD:new_array.obj
 0005:000039f0       $pdata$?DebuggerProbe@@YA_NK@Z 00000001400569f0     MSVCRTD:_error_.obj
 0005:000039fc       $pdata$?DebuggerRuntime@@YA_NKHPEAXPEB_W@Z 00000001400569fc     MSVCRTD:_error_.obj
 0005:00003a08       $pdata$?_RTC_AllocaFailure@@YAXPEAXPEAU_RTC_ALLOCA_NODE@@H@Z 0000000140056a08     MSVCRTD:_error_.obj
 0005:00003a14       $pdata$0$?_RTC_AllocaFailure@@YAXPEAXPEAU_RTC_ALLOCA_NODE@@H@Z 0000000140056a14     MSVCRTD:_error_.obj
 0005:00003a20       $pdata$1$?_RTC_AllocaFailure@@YAXPEAXPEAU_RTC_ALLOCA_NODE@@H@Z 0000000140056a20     MSVCRTD:_error_.obj
 0005:00003a2c       $pdata$?_RTC_StackFailure@@YAXPEAXPEBD@Z 0000000140056a2c     MSVCRTD:_error_.obj
 0005:00003a38       $pdata$?_getMemBlockDataString@@YAXPEAD0PEBD_K@Z 0000000140056a38     MSVCRTD:_error_.obj
 0005:00003a44       $pdata$3$?_getMemBlockDataString@@YAXPEAD0PEBD_K@Z 0000000140056a44     MSVCRTD:_error_.obj
 0005:00003a50       $pdata$4$?_getMemBlockDataString@@YAXPEAD0PEBD_K@Z 0000000140056a50     MSVCRTD:_error_.obj
 0005:00003a5c       $pdata$?failwithmessage@@YAXPEAXHHPEBD@Z 0000000140056a5c     MSVCRTD:_error_.obj
 0005:00003a68       $pdata$?notify_debugger@@YAXAEBUtagEXCEPTION_VISUALCPP_DEBUG_INFO@@@Z 0000000140056a68     MSVCRTD:_error_.obj
 0005:00003a74       $pdata$_RTC_UninitUse      0000000140056a74     MSVCRTD:_error_.obj
 0005:00003a80       $pdata$_vsprintf_s_l       0000000140056a80     MSVCRTD:_error_.obj
 0005:00003a8c       $pdata$sprintf_s           0000000140056a8c     MSVCRTD:_error_.obj
 0005:00003a98       $pdata$?pre_c_initialization@@YAHXZ 0000000140056a98     MSVCRTD:exe_winmain.obj
 0005:00003aa4       $pdata$?post_pgo_initialization@@YAHXZ 0000000140056aa4     MSVCRTD:exe_winmain.obj
 0005:00003ab0       $pdata$?pre_cpp_initialization@@YAXXZ 0000000140056ab0     MSVCRTD:exe_winmain.obj
 0005:00003abc       $pdata$?__scrt_common_main@@YAHXZ 0000000140056abc     MSVCRTD:exe_winmain.obj
 0005:00003ac8       $pdata$?__scrt_common_main_seh@@YAHXZ 0000000140056ac8     MSVCRTD:exe_winmain.obj
 0005:00003ad4       $pdata$?invoke_main@@YAHXZ 0000000140056ad4     MSVCRTD:exe_winmain.obj
 0005:00003ae0       $pdata$?set_app_type@__scrt_winmain_policy@@SAXXZ 0000000140056ae0     MSVCRTD:exe_winmain.obj
 0005:00003aec       $pdata$?set_commode@__scrt_file_policy@@SAXXZ 0000000140056aec     MSVCRTD:exe_winmain.obj
 0005:00003af8       $pdata$?set_fmode@__scrt_file_policy@@SAXXZ 0000000140056af8     MSVCRTD:exe_winmain.obj
 0005:00003b04       $pdata$WinMainCRTStartup   0000000140056b04     MSVCRTD:exe_winmain.obj
 0005:00003b10       $pdata$??0bad_alloc@std@@AEAA@QEBD@Z 0000000140056b10     MSVCRTD:throw_bad_alloc.obj
 0005:00003b1c       $pdata$??0bad_alloc@std@@QEAA@AEBV01@@Z 0000000140056b1c     MSVCRTD:throw_bad_alloc.obj
 0005:00003b28       $pdata$??0bad_alloc@std@@QEAA@XZ 0000000140056b28     MSVCRTD:throw_bad_alloc.obj
 0005:00003b34       $pdata$??0bad_array_new_length@std@@QEAA@AEBV01@@Z 0000000140056b34     MSVCRTD:throw_bad_alloc.obj
 0005:00003b40       $pdata$??0bad_array_new_length@std@@QEAA@XZ 0000000140056b40     MSVCRTD:throw_bad_alloc.obj
 0005:00003b4c       $pdata$??0exception@std@@QEAA@AEBV01@@Z 0000000140056b4c     MSVCRTD:throw_bad_alloc.obj
 0005:00003b58       $pdata$??0exception@std@@QEAA@QEBDH@Z 0000000140056b58     MSVCRTD:throw_bad_alloc.obj
 0005:00003b64       $pdata$??1bad_alloc@std@@UEAA@XZ 0000000140056b64     MSVCRTD:throw_bad_alloc.obj
 0005:00003b70       $pdata$??1bad_array_new_length@std@@UEAA@XZ 0000000140056b70     MSVCRTD:throw_bad_alloc.obj
 0005:00003b7c       $pdata$??1exception@std@@UEAA@XZ 0000000140056b7c     MSVCRTD:throw_bad_alloc.obj
 0005:00003b88       $pdata$??_Gbad_alloc@std@@UEAAPEAXI@Z 0000000140056b88     MSVCRTD:throw_bad_alloc.obj
 0005:00003b94       $pdata$??_Gbad_array_new_length@std@@UEAAPEAXI@Z 0000000140056b94     MSVCRTD:throw_bad_alloc.obj
 0005:00003ba0       $pdata$??_Gexception@std@@UEAAPEAXI@Z 0000000140056ba0     MSVCRTD:throw_bad_alloc.obj
 0005:00003bac       $pdata$?__scrt_throw_std_bad_alloc@@YAXXZ 0000000140056bac     MSVCRTD:throw_bad_alloc.obj
 0005:00003bb8       $pdata$?__scrt_throw_std_bad_array_new_length@@YAXXZ 0000000140056bb8     MSVCRTD:throw_bad_alloc.obj
 0005:00003bc4       $pdata$?what@exception@std@@UEBAPEBDXZ 0000000140056bc4     MSVCRTD:throw_bad_alloc.obj
 0005:00003bd0       $pdata$??3@YAXPEAX@Z       0000000140056bd0     MSVCRTD:delete_scalar.obj
 0005:00003bdc       $pdata$__isa_available_init 0000000140056bdc     MSVCRTD:_cpu_disp_.obj
 0005:00003be8       $pdata$__scrt_is_ucrt_dll_in_use 0000000140056be8     MSVCRTD:ucrt_detection.obj
 0005:00003bf4       $pdata$__scrt_fastfail     0000000140056bf4     MSVCRTD:utility_desktop.obj
 0005:00003c00       $pdata$__scrt_get_show_window_mode 0000000140056c00     MSVCRTD:utility_desktop.obj
 0005:00003c0c       $pdata$__scrt_is_managed_app 0000000140056c0c     MSVCRTD:utility_desktop.obj
 0005:00003c18       $pdata$__scrt_set_unhandled_exception_filter 0000000140056c18     MSVCRTD:utility_desktop.obj
 0005:00003c24       $pdata$__scrt_unhandled_exception_filter 0000000140056c24     MSVCRTD:utility_desktop.obj
 0005:00003c30       $pdata$ReadNoFence64       0000000140056c30     MSVCRTD:guard_support.obj
 0005:00003c3c       $pdata$ReadPointerNoFence  0000000140056c3c     MSVCRTD:guard_support.obj
 0005:00003c48       $pdata$_guard_icall_checks_enforced 0000000140056c48     MSVCRTD:guard_support.obj
 0005:00003c54       $pdata$__raise_securityfailure 0000000140056c54     MSVCRTD:gs_report.obj
 0005:00003c60       $pdata$__report_gsfailure  0000000140056c60     MSVCRTD:gs_report.obj
 0005:00003c6c       $pdata$__report_rangecheckfailure 0000000140056c6c     MSVCRTD:gs_report.obj
 0005:00003c78       $pdata$__report_securityfailure 0000000140056c78     MSVCRTD:gs_report.obj
 0005:00003c84       $pdata$__report_securityfailureEx 0000000140056c84     MSVCRTD:gs_report.obj
 0005:00003c90       $pdata$capture_current_context 0000000140056c90     MSVCRTD:gs_report.obj
 0005:00003c9c       $pdata$capture_previous_context 0000000140056c9c     MSVCRTD:gs_report.obj
 0005:00003ca8       $pdata$?GetPdbDll@@YAPEAUHINSTANCE__@@XZ 0000000140056ca8     MSVCRTD:_pdblkup_.obj
 0005:00003cb4       $pdata$?GetPdbDllFromInstallPath@@YAPEAUHINSTANCE__@@XZ 0000000140056cb4     MSVCRTD:_pdblkup_.obj
 0005:00003cc0       $pdata$?GetPdbDllPathFromFilePath@@YAHPEB_WPEA_W_K@Z 0000000140056cc0     MSVCRTD:_pdblkup_.obj
 0005:00003ccc       $pdata$?_RTC_GetSrcLine@@YAHPEAEPEA_WKPEAH1K@Z 0000000140056ccc     MSVCRTD:_pdblkup_.obj
 0005:00003cd8       $pdata$__get_entropy       0000000140056cd8     MSVCRTD:gs_support.obj
 0005:00003ce4       $pdata$__security_init_cookie 0000000140056ce4     MSVCRTD:gs_support.obj
 0005:00003cf0       $pdata$?__scrt_initialize_type_info@@YAXXZ 0000000140056cf0     MSVCRTD:tncleanup.obj
 0005:00003cfc       $pdata$?__scrt_uninitialize_type_info@@YAXXZ 0000000140056cfc     MSVCRTD:tncleanup.obj
 0005:00003d08       $pdata$__scrt_initialize_default_local_stdio_options 0000000140056d08     MSVCRTD:default_local_stdio_options.obj
 0005:00003d14       $pdata$__scrt_is_user_matherr_present 0000000140056d14     MSVCRTD:matherr_detection.obj
 0005:00003d20       $pdata$_RTC_Initialize     0000000140056d20     MSVCRTD:_initsect_.obj
 0005:00003d2c       $pdata$_RTC_Terminate      0000000140056d2c     MSVCRTD:_initsect_.obj
 0005:00003d38       $pdata$?Execute@Engine@@QEAAXXZ 0000000140056d38     engine.obj
 0005:00003d50       $pdata$?dtor$0@?0???0?$_String_alloc@U?$_String_base_types@DV?$allocator@D@std@@@std@@@std@@QEAA@XZ@4HA 0000000140056d50     button.obj
 0005:00003d5c       $pdata$?dtor$0@?0???0?$basic_string@DU?$char_traits@D@std@@V?$allocator@D@2@@std@@QEAA@QEBD@Z@4HA 0000000140056d5c     button.obj
 0005:00003d68       $pdata$?dtor$0@?0???0?$function@$$A6AXPEAVButton@@@Z@std@@QEAA@AEBV01@@Z@4HA 0000000140056d68     button.obj
 0005:00003d74       $pdata$?dtor$0@?0???0Button@@QEAA@AEBV?$Vector2@M@sf@@0@Z@4HA 0000000140056d74     button.obj
 0005:00003d80       $pdata$?dtor$1@?0???0Button@@QEAA@AEBV?$Vector2@M@sf@@0@Z@4HA 0000000140056d80     button.obj
 0005:00003d8c       $pdata$?dtor$2@?0???0Button@@QEAA@AEBV?$Vector2@M@sf@@0@Z@4HA 0000000140056d8c     button.obj
 0005:00003d98       $pdata$?dtor$3@?0???0Button@@QEAA@AEBV?$Vector2@M@sf@@0@Z@4HA 0000000140056d98     button.obj
 0005:00003da4       $pdata$?dtor$0@?0??SetOnClickedListener@Button@@QEAAXV?$function@$$A6AXPEAVButton@@@Z@std@@@Z@4HA 0000000140056da4     button.obj
 0005:00003db0       $pdata$?dtor$0@?0??SetText@Button@@QEAAXPEB_W@Z@4HA 0000000140056db0     button.obj
 0005:00003dbc       $pdata$?dtor$0@?0???$?0AEBV?$allocator@D@std@@X@?$_String_alloc@U?$_String_base_types@DV?$allocator@D@std@@@std@@@std@@QEAA@AEBV?$allocator@D@1@@Z@4HA 0000000140056dbc     config.obj
 0005:00003dc8       $pdata$?catch$0@?0???$_Buynode@AEBUpiecewise_construct_t@std@@V?$tuple@$$QEAW4Object_Type@@@2@V?$tuple@$$V@2@@?$_Tree_comp_alloc@V?$_Tmap_traits@W4Object_Type@@PEBVGameObject@@U?$less@W4Object_Type@@@std@@V?$allocator@U?$pair@$$CBW4Object_Type@@PEBVGameObject@@@std@@@4@$0A@@std@@@std@@QEAAPEAU?$_Tree_node@U?$pair@$$CBW4Object_Type@@PEBVGameObject@@@std@@PEAX@1@AEBUpiecewise_construct_t@1@$$QEAV?$tuple@$$QEAW4Object_Type@@@1@$$QEAV?$tuple@$$V@1@@Z@4HA 0000000140056dc8     config.obj
 0005:00003dd4       $pdata$?catch$10@?0???$_Insert_hint@AEAU?$pair@$$CBW4Object_Type@@PEBVGameObject@@@std@@PEAU?$_Tree_node@U?$pair@$$CBW4Object_Type@@PEBVGameObject@@@std@@PEAX@2@@?$_Tree@V?$_Tmap_traits@W4Object_Type@@PEBVGameObject@@U?$less@W4Object_Type@@@std@@V?$allocator@U?$pair@$$CBW4Object_Type@@PEBVGameObject@@@std@@@4@$0A@@std@@@std@@IEAA?AV?$_Tree_iterator@V?$_Tree_val@U?$_Tree_simple_types@U?$pair@$$CBW4Object_Type@@PEBVGameObject@@@std@@@std@@@std@@@1@V?$_Tree_const_iterator@V?$_Tree_val@U?$_Tree_simple_types@U?$pair@$$CBW4Object_Type@@PEBVGameObject@@@std@@@std@@@std@@@1@AEAU?$pair@$$CBW4Object_Type@@PEBVGameObject@@@1@PEAU?$_Tree_node@U?$pair@$$CBW4Object_Type@@PEBVGameObject@@@std@@PEAX@1@@Z@4HA 0000000140056dd4     config.obj
 0005:00003de0       $pdata$?dtor$0@?0???$_Insert_hint@AEAU?$pair@$$CBW4Object_Type@@PEBVGameObject@@@std@@PEAU?$_Tree_node@U?$pair@$$CBW4Object_Type@@PEBVGameObject@@@std@@PEAX@2@@?$_Tree@V?$_Tmap_traits@W4Object_Type@@PEBVGameObject@@U?$less@W4Object_Type@@@std@@V?$allocator@U?$pair@$$CBW4Object_Type@@PEBVGameObject@@@std@@@4@$0A@@std@@@std@@IEAA?AV?$_Tree_iterator@V?$_Tree_val@U?$_Tree_simple_types@U?$pair@$$CBW4Object_Type@@PEBVGameObject@@@std@@@std@@@std@@@1@V?$_Tree_const_iterator@V?$_Tree_val@U?$_Tree_simple_types@U?$pair@$$CBW4Object_Type@@PEBVGameObject@@@std@@@std@@@std@@@1@AEAU?$pair@$$CBW4Object_Type@@PEBVGameObject@@@1@PEAU?$_Tree_node@U?$pair@$$CBW4Object_Type@@PEBVGameObject@@@std@@PEAX@1@@Z@4HA 0000000140056de0     config.obj
 0005:00003dec       $pdata$?dtor$1@?0???$_Insert_hint@AEAU?$pair@$$CBW4Object_Type@@PEBVGameObject@@@std@@PEAU?$_Tree_node@U?$pair@$$CBW4Object_Type@@PEBVGameObject@@@std@@PEAX@2@@?$_Tree@V?$_Tmap_traits@W4Object_Type@@PEBVGameObject@@U?$less@W4Object_Type@@@std@@V?$allocator@U?$pair@$$CBW4Object_Type@@PEBVGameObject@@@std@@@4@$0A@@std@@@std@@IEAA?AV?$_Tree_iterator@V?$_Tree_val@U?$_Tree_simple_types@U?$pair@$$CBW4Object_Type@@PEBVGameObject@@@std@@@std@@@std@@@1@V?$_Tree_const_iterator@V?$_Tree_val@U?$_Tree_simple_types@U?$pair@$$CBW4Object_Type@@PEBVGameObject@@@std@@@std@@@std@@@1@AEAU?$pair@$$CBW4Object_Type@@PEBVGameObject@@@1@PEAU?$_Tree_node@U?$pair@$$CBW4Object_Type@@PEBVGameObject@@@std@@PEAX@1@@Z@4HA 0000000140056dec     config.obj
 0005:00003df8       $pdata$?dtor$3@?0???$_Insert_hint@AEAU?$pair@$$CBW4Object_Type@@PEBVGameObject@@@std@@PEAU?$_Tree_node@U?$pair@$$CBW4Object_Type@@PEBVGameObject@@@std@@PEAX@2@@?$_Tree@V?$_Tmap_traits@W4Object_Type@@PEBVGameObject@@U?$less@W4Object_Type@@@std@@V?$allocator@U?$pair@$$CBW4Object_Type@@PEBVGameObject@@@std@@@4@$0A@@std@@@std@@IEAA?AV?$_Tree_iterator@V?$_Tree_val@U?$_Tree_simple_types@U?$pair@$$CBW4Object_Type@@PEBVGameObject@@@std@@@std@@@std@@@1@V?$_Tree_const_iterator@V?$_Tree_val@U?$_Tree_simple_types@U?$pair@$$CBW4Object_Type@@PEBVGameObject@@@std@@@std@@@std@@@1@AEAU?$pair@$$CBW4Object_Type@@PEBVGameObject@@@1@PEAU?$_Tree_node@U?$pair@$$CBW4Object_Type@@PEBVGameObject@@@std@@PEAX@1@@Z@4HA 0000000140056df8     config.obj
 0005:00003e04       $pdata$?dtor$4@?0???$_Insert_hint@AEAU?$pair@$$CBW4Object_Type@@PEBVGameObject@@@std@@PEAU?$_Tree_node@U?$pair@$$CBW4Object_Type@@PEBVGameObject@@@std@@PEAX@2@@?$_Tree@V?$_Tmap_traits@W4Object_Type@@PEBVGameObject@@U?$less@W4Object_Type@@@std@@V?$allocator@U?$pair@$$CBW4Object_Type@@PEBVGameObject@@@std@@@4@$0A@@std@@@std@@IEAA?AV?$_Tree_iterator@V?$_Tree_val@U?$_Tree_simple_types@U?$pair@$$CBW4Object_Type@@PEBVGameObject@@@std@@@std@@@std@@@1@V?$_Tree_const_iterator@V?$_Tree_val@U?$_Tree_simple_types@U?$pair@$$CBW4Object_Type@@PEBVGameObject@@@std@@@std@@@std@@@1@AEAU?$pair@$$CBW4Object_Type@@PEBVGameObject@@@1@PEAU?$_Tree_node@U?$pair@$$CBW4Object_Type@@PEBVGameObject@@@std@@PEAX@1@@Z@4HA 0000000140056e04     config.obj
 0005:00003e10       $pdata$?dtor$5@?0???$_Insert_hint@AEAU?$pair@$$CBW4Object_Type@@PEBVGameObject@@@std@@PEAU?$_Tree_node@U?$pair@$$CBW4Object_Type@@PEBVGameObject@@@std@@PEAX@2@@?$_Tree@V?$_Tmap_traits@W4Object_Type@@PEBVGameObject@@U?$less@W4Object_Type@@@std@@V?$allocator@U?$pair@$$CBW4Object_Type@@PEBVGameObject@@@std@@@4@$0A@@std@@@std@@IEAA?AV?$_Tree_iterator@V?$_Tree_val@U?$_Tree_simple_types@U?$pair@$$CBW4Object_Type@@PEBVGameObject@@@std@@@std@@@std@@@1@V?$_Tree_const_iterator@V?$_Tree_val@U?$_Tree_simple_types@U?$pair@$$CBW4Object_Type@@PEBVGameObject@@@std@@@std@@@std@@@1@AEAU?$pair@$$CBW4Object_Type@@PEBVGameObject@@@1@PEAU?$_Tree_node@U?$pair@$$CBW4Object_Type@@PEBVGameObject@@@std@@PEAX@1@@Z@4HA 0000000140056e10     config.obj
 0005:00003e1c       $pdata$?dtor$6@?0???$_Insert_hint@AEAU?$pair@$$CBW4Object_Type@@PEBVGameObject@@@std@@PEAU?$_Tree_node@U?$pair@$$CBW4Object_Type@@PEBVGameObject@@@std@@PEAX@2@@?$_Tree@V?$_Tmap_traits@W4Object_Type@@PEBVGameObject@@U?$less@W4Object_Type@@@std@@V?$allocator@U?$pair@$$CBW4Object_Type@@PEBVGameObject@@@std@@@4@$0A@@std@@@std@@IEAA?AV?$_Tree_iterator@V?$_Tree_val@U?$_Tree_simple_types@U?$pair@$$CBW4Object_Type@@PEBVGameObject@@@std@@@std@@@std@@@1@V?$_Tree_const_iterator@V?$_Tree_val@U?$_Tree_simple_types@U?$pair@$$CBW4Object_Type@@PEBVGameObject@@@std@@@std@@@std@@@1@AEAU?$pair@$$CBW4Object_Type@@PEBVGameObject@@@1@PEAU?$_Tree_node@U?$pair@$$CBW4Object_Type@@PEBVGameObject@@@std@@PEAX@1@@Z@4HA 0000000140056e1c     config.obj
 0005:00003e28       $pdata$?dtor$7@?0???$_Insert_hint@AEAU?$pair@$$CBW4Object_Type@@PEBVGameObject@@@std@@PEAU?$_Tree_node@U?$pair@$$CBW4Object_Type@@PEBVGameObject@@@std@@PEAX@2@@?$_Tree@V?$_Tmap_traits@W4Object_Type@@PEBVGameObject@@U?$less@W4Object_Type@@@std@@V?$allocator@U?$pair@$$CBW4Object_Type@@PEBVGameObject@@@std@@@4@$0A@@std@@@std@@IEAA?AV?$_Tree_iterator@V?$_Tree_val@U?$_Tree_simple_types@U?$pair@$$CBW4Object_Type@@PEBVGameObject@@@std@@@std@@@std@@@1@V?$_Tree_const_iterator@V?$_Tree_val@U?$_Tree_simple_types@U?$pair@$$CBW4Object_Type@@PEBVGameObject@@@std@@@std@@@std@@@1@AEAU?$pair@$$CBW4Object_Type@@PEBVGameObject@@@1@PEAU?$_Tree_node@U?$pair@$$CBW4Object_Type@@PEBVGameObject@@@std@@PEAX@1@@Z@4HA 0000000140056e28     config.obj
 0005:00003e34       $pdata$?dtor$8@?0???$_Insert_hint@AEAU?$pair@$$CBW4Object_Type@@PEBVGameObject@@@std@@PEAU?$_Tree_node@U?$pair@$$CBW4Object_Type@@PEBVGameObject@@@std@@PEAX@2@@?$_Tree@V?$_Tmap_traits@W4Object_Type@@PEBVGameObject@@U?$less@W4Object_Type@@@std@@V?$allocator@U?$pair@$$CBW4Object_Type@@PEBVGameObject@@@std@@@4@$0A@@std@@@std@@IEAA?AV?$_Tree_iterator@V?$_Tree_val@U?$_Tree_simple_types@U?$pair@$$CBW4Object_Type@@PEBVGameObject@@@std@@@std@@@std@@@1@V?$_Tree_const_iterator@V?$_Tree_val@U?$_Tree_simple_types@U?$pair@$$CBW4Object_Type@@PEBVGameObject@@@std@@@std@@@std@@@1@AEAU?$pair@$$CBW4Object_Type@@PEBVGameObject@@@1@PEAU?$_Tree_node@U?$pair@$$CBW4Object_Type@@PEBVGameObject@@@std@@PEAX@1@@Z@4HA 0000000140056e34     config.obj
 0005:00003e40       $pdata$?catch$6@?0???$_Insert_nohint@AEAU?$pair@$$CBW4Object_Type@@PEBVGameObject@@@std@@PEAU?$_Tree_node@U?$pair@$$CBW4Object_Type@@PEBVGameObject@@@std@@PEAX@2@@?$_Tree@V?$_Tmap_traits@W4Object_Type@@PEBVGameObject@@U?$less@W4Object_Type@@@std@@V?$allocator@U?$pair@$$CBW4Object_Type@@PEBVGameObject@@@std@@@4@$0A@@std@@@std@@IEAA?AU?$pair@V?$_Tree_iterator@V?$_Tree_val@U?$_Tree_simple_types@U?$pair@$$CBW4Object_Type@@PEBVGameObject@@@std@@@std@@@std@@@std@@_N@1@_NAEAU?$pair@$$CBW4Object_Type@@PEBVGameObject@@@1@PEAU?$_Tree_node@U?$pair@$$CBW4Object_Type@@PEBVGameObject@@@std@@PEAX@1@@Z@4HA 0000000140056e40     config.obj
 0005:00003e4c       $pdata$?dtor$2@?0???$_Insert_nohint@AEAU?$pair@$$CBW4Object_Type@@PEBVGameObject@@@std@@PEAU?$_Tree_node@U?$pair@$$CBW4Object_Type@@PEBVGameObject@@@std@@PEAX@2@@?$_Tree@V?$_Tmap_traits@W4Object_Type@@PEBVGameObject@@U?$less@W4Object_Type@@@std@@V?$allocator@U?$pair@$$CBW4Object_Type@@PEBVGameObject@@@std@@@4@$0A@@std@@@std@@IEAA?AU?$pair@V?$_Tree_iterator@V?$_Tree_val@U?$_Tree_simple_types@U?$pair@$$CBW4Object_Type@@PEBVGameObject@@@std@@@std@@@std@@@std@@_N@1@_NAEAU?$pair@$$CBW4Object_Type@@PEBVGameObject@@@1@PEAU?$_Tree_node@U?$pair@$$CBW4Object_Type@@PEBVGameObject@@@std@@PEAX@1@@Z@4HA 0000000140056e4c     config.obj
 0005:00003e58       $pdata$?dtor$3@?0???$_Insert_nohint@AEAU?$pair@$$CBW4Object_Type@@PEBVGameObject@@@std@@PEAU?$_Tree_node@U?$pair@$$CBW4Object_Type@@PEBVGameObject@@@std@@PEAX@2@@?$_Tree@V?$_Tmap_traits@W4Object_Type@@PEBVGameObject@@U?$less@W4Object_Type@@@std@@V?$allocator@U?$pair@$$CBW4Object_Type@@PEBVGameObject@@@std@@@4@$0A@@std@@@std@@IEAA?AU?$pair@V?$_Tree_iterator@V?$_Tree_val@U?$_Tree_simple_types@U?$pair@$$CBW4Object_Type@@PEBVGameObject@@@std@@@std@@@std@@@std@@_N@1@_NAEAU?$pair@$$CBW4Object_Type@@PEBVGameObject@@@1@PEAU?$_Tree_node@U?$pair@$$CBW4Object_Type@@PEBVGameObject@@@std@@PEAX@1@@Z@4HA 0000000140056e58     config.obj
 0005:00003e64       $pdata$?dtor$0@?0???$_Try_emplace@W4Object_Type@@$$V@?$map@W4Object_Type@@PEBVGameObject@@U?$less@W4Object_Type@@@std@@V?$allocator@U?$pair@$$CBW4Object_Type@@PEBVGameObject@@@std@@@4@@std@@QEAA?AU?$pair@V?$_Tree_iterator@V?$_Tree_val@U?$_Tree_simple_types@U?$pair@$$CBW4Object_Type@@PEBVGameObject@@@std@@@std@@@std@@@std@@_N@1@$$QEAW4Object_Type@@@Z@4HA 0000000140056e64     config.obj
 0005:00003e70       $pdata$?dtor$1@?0???$_Try_emplace@W4Object_Type@@$$V@?$map@W4Object_Type@@PEBVGameObject@@U?$less@W4Object_Type@@@std@@V?$allocator@U?$pair@$$CBW4Object_Type@@PEBVGameObject@@@std@@@4@@std@@QEAA?AU?$pair@V?$_Tree_iterator@V?$_Tree_val@U?$_Tree_simple_types@U?$pair@$$CBW4Object_Type@@PEBVGameObject@@@std@@@std@@@std@@@std@@_N@1@$$QEAW4Object_Type@@@Z@4HA 0000000140056e70     config.obj
 0005:00003e7c       $pdata$?dtor$0@?0???$emplace_hint@AEBUpiecewise_construct_t@std@@V?$tuple@$$QEAW4Object_Type@@@2@V?$tuple@$$V@2@@?$_Tree@V?$_Tmap_traits@W4Object_Type@@PEBVGameObject@@U?$less@W4Object_Type@@@std@@V?$allocator@U?$pair@$$CBW4Object_Type@@PEBVGameObject@@@std@@@4@$0A@@std@@@std@@QEAA?AV?$_Tree_iterator@V?$_Tree_val@U?$_Tree_simple_types@U?$pair@$$CBW4Object_Type@@PEBVGameObject@@@std@@@std@@@std@@@1@V?$_Tree_const_iterator@V?$_Tree_val@U?$_Tree_simple_types@U?$pair@$$CBW4Object_Type@@PEBVGameObject@@@std@@@std@@@std@@@1@AEBUpiecewise_construct_t@1@$$QEAV?$tuple@$$QEAW4Object_Type@@@1@$$QEAV?$tuple@$$V@1@@Z@4HA 0000000140056e7c     config.obj
 0005:00003e88       $pdata$?dtor$0@?0???0?$basic_string@DU?$char_traits@D@std@@V?$allocator@D@2@@std@@QEAA@AEBV01@_K1AEBV?$allocator@D@1@@Z@4HA 0000000140056e88     config.obj
 0005:00003e94       $pdata$?dtor$0@?0???A?$map@W4Object_Type@@PEBVGameObject@@U?$less@W4Object_Type@@@std@@V?$allocator@U?$pair@$$CBW4Object_Type@@PEBVGameObject@@@std@@@4@@std@@QEAAAEAPEBVGameObject@@$$QEAW4Object_Type@@@Z@4HA 0000000140056e94     config.obj
 0005:00003ea0       $pdata$?dtor$0@?0??Create_Object@ConfigManager@@QEBAPEAVGameObject@@W4Object_Type@@@Z@4HA 0000000140056ea0     config.obj
 0005:00003eac       $pdata$?dtor$1@?0??Create_Object@ConfigManager@@QEBAPEAVGameObject@@W4Object_Type@@@Z@4HA 0000000140056eac     config.obj
 0005:00003eb8       $pdata$?dtor$0@?0??Read@Config_Parser@@YAPEBDPEBDAEAH@Z@4HA 0000000140056eb8     config.obj
 0005:00003ec4       $pdata$?dtor$1@?0??Read@Config_Parser@@YAPEBDPEBDAEAH@Z@4HA 0000000140056ec4     config.obj
 0005:00003ed0       $pdata$?dtor$0@?0??Read@Config_Parser@@YAPEBDPEBDAEAM@Z@4HA 0000000140056ed0     config.obj
 0005:00003edc       $pdata$?dtor$1@?0??Read@Config_Parser@@YAPEBDPEBDAEAM@Z@4HA 0000000140056edc     config.obj
 0005:00003ee8       $pdata$?dtor$0@?0??Read@Config_Parser@@YAPEBDPEBDAEAV?$basic_string@DU?$char_traits@D@std@@V?$allocator@D@2@@std@@@Z@4HA 0000000140056ee8     config.obj
 0005:00003ef4       $pdata$?catch$0@?0??_Buynode0@?$_Tree_comp_alloc@V?$_Tmap_traits@W4Object_Type@@PEBVGameObject@@U?$less@W4Object_Type@@@std@@V?$allocator@U?$pair@$$CBW4Object_Type@@PEBVGameObject@@@std@@@4@$0A@@std@@@std@@QEAAPEAU?$_Tree_node@U?$pair@$$CBW4Object_Type@@PEBVGameObject@@@std@@PEAX@2@XZ@4HA 0000000140056ef4     config.obj
 0005:00003f00       $pdata$?dtor$0@?0??find@?$_Tree@V?$_Tmap_traits@W4Object_Type@@PEBVGameObject@@U?$less@W4Object_Type@@@std@@V?$allocator@U?$pair@$$CBW4Object_Type@@PEBVGameObject@@@std@@@4@$0A@@std@@@std@@QEBA?AV?$_Tree_const_iterator@V?$_Tree_val@U?$_Tree_simple_types@U?$pair@$$CBW4Object_Type@@PEBVGameObject@@@std@@@std@@@std@@@2@AEBW4Object_Type@@@Z@4HA 0000000140056f00     config.obj
 0005:00003f0c       $pdata$?dtor$1@?0??find@?$_Tree@V?$_Tmap_traits@W4Object_Type@@PEBVGameObject@@U?$less@W4Object_Type@@@std@@V?$allocator@U?$pair@$$CBW4Object_Type@@PEBVGameObject@@@std@@@4@$0A@@std@@@std@@QEBA?AV?$_Tree_const_iterator@V?$_Tree_val@U?$_Tree_simple_types@U?$pair@$$CBW4Object_Type@@PEBVGameObject@@@std@@@std@@@std@@@2@AEBW4Object_Type@@@Z@4HA 0000000140056f0c     config.obj
 0005:00003f18       $pdata$?catch$0@?0???$_Emplace_reallocate@AEBQEAV?$Container@VWidget@@@@@?$vector@PEAV?$Container@VWidget@@@@V?$allocator@PEAV?$Container@VWidget@@@@@std@@@std@@QEAAPEAPEAV?$Container@VWidget@@@@QEAPEAV2@AEBQEAV2@@Z@4HA 0000000140056f18     engine.obj
 0005:00003f24       $pdata$?catch$0@?0???$_Emplace_reallocate@AEBQEAVObject@@@?$vector@PEAVObject@@V?$allocator@PEAVObject@@@std@@@std@@QEAAPEAPEAVObject@@QEAPEAV2@AEBQEAV2@@Z@4HA 0000000140056f24     engine.obj
 0005:00003f30       $pdata$?dtor$0@?0???0Engine@@QEAA@XZ@4HA 0000000140056f30     engine.obj
 0005:00003f3c       $pdata$?dtor$1@?0???0Engine@@QEAA@XZ@4HA 0000000140056f3c     engine.obj
 0005:00003f48       $pdata$?dtor$2@?0???0Engine@@QEAA@XZ@4HA 0000000140056f48     engine.obj
 0005:00003f54       $pdata$?dtor$3@?0???0Engine@@QEAA@XZ@4HA 0000000140056f54     engine.obj
 0005:00003f60       $pdata$?dtor$4@?0???0Engine@@QEAA@XZ@4HA 0000000140056f60     engine.obj
 0005:00003f6c       $pdata$?dtor$5@?0???0Engine@@QEAA@XZ@4HA 0000000140056f6c     engine.obj
 0005:00003f78       $pdata$?dtor$0@?0???E?$_Tree_const_iterator@V?$_Tree_val@U?$_Tree_simple_types@U?$pair@$$CBW4Object_Type@@PEBVGameObject@@@std@@@std@@@std@@@std@@QEAA?AV01@H@Z@4HA 0000000140056f78     engine.obj
 0005:00003f84       $pdata$?dtor$0@?0??Execute@Engine@@QEAAXXZ@4HA 0000000140056f84     engine.obj
 0005:00003f90       $pdata$?catch$0@?0??_Buyheadnode@?$_Tree_comp_alloc@V?$_Tmap_traits@W4Object_Type@@PEBVGameObject@@U?$less@W4Object_Type@@@std@@V?$allocator@U?$pair@$$CBW4Object_Type@@PEBVGameObject@@@std@@@4@$0A@@std@@@std@@QEAAPEAU?$_Tree_node@U?$pair@$$CBW4Object_Type@@PEBVGameObject@@@std@@PEAX@2@XZ@4HA 0000000140056f90     engine.obj
 0005:00003f9c       $pdata$?catch$0@?0??_Construct@?$_Tree_comp_alloc@V?$_Tmap_traits@W4Object_Type@@PEBVGameObject@@U?$less@W4Object_Type@@@std@@V?$allocator@U?$pair@$$CBW4Object_Type@@PEBVGameObject@@@std@@@4@$0A@@std@@@std@@QEAAXXZ@4HA 0000000140056f9c     engine.obj
 0005:00003fa8       $pdata$?dtor$0@?0??_Extract@?$_Tree_val@U?$_Tree_simple_types@U?$pair@$$CBW4Object_Type@@PEBVGameObject@@@std@@@std@@@std@@QEAAPEAU?$_Tree_node@U?$pair@$$CBW4Object_Type@@PEBVGameObject@@@std@@PEAX@2@V?$_Tree_const_iterator@V?$_Tree_val@U?$_Tree_simple_types@U?$pair@$$CBW4Object_Type@@PEBVGameObject@@@std@@@std@@@std@@@2@@Z@4HA 0000000140056fa8     engine.obj
 0005:00003fb4       $pdata$?dtor$0@?0??_Orphan_ptr@?$_Tree@V?$_Tmap_traits@W4Object_Type@@PEBVGameObject@@U?$less@W4Object_Type@@@std@@V?$allocator@U?$pair@$$CBW4Object_Type@@PEBVGameObject@@@std@@@4@$0A@@std@@@std@@IEAAXPEAU?$_Tree_node@U?$pair@$$CBW4Object_Type@@PEBVGameObject@@@std@@PEAX@2@@Z@4HA 0000000140056fb4     engine.obj
 0005:00003fc0       $pdata$?dtor$0@?0??_Orphan_range@?$vector@PEAV?$Container@VWidget@@@@V?$allocator@PEAV?$Container@VWidget@@@@@std@@@std@@AEBAXPEAPEAV?$Container@VWidget@@@@0@Z@4HA 0000000140056fc0     engine.obj
 0005:00003fcc       $pdata$?dtor$0@?0??_Orphan_range@?$vector@PEAVObject@@V?$allocator@PEAVObject@@@std@@@std@@AEBAXPEAPEAVObject@@0@Z@4HA 0000000140056fcc     engine.obj
 0005:00003fd8       $pdata$?dtor$0@?0??_Tidy@?$_Tree@V?$_Tmap_traits@W4Object_Type@@PEBVGameObject@@U?$less@W4Object_Type@@@std@@V?$allocator@U?$pair@$$CBW4Object_Type@@PEBVGameObject@@@std@@@4@$0A@@std@@@std@@IEAAXXZ@4HA 0000000140056fd8     engine.obj
 0005:00003fe4       $pdata$?dtor$2@?0??_Tidy@?$_Tree@V?$_Tmap_traits@W4Object_Type@@PEBVGameObject@@U?$less@W4Object_Type@@@std@@V?$allocator@U?$pair@$$CBW4Object_Type@@PEBVGameObject@@@std@@@4@$0A@@std@@@std@@IEAAXXZ@4HA 0000000140056fe4     engine.obj
 0005:00003ff0       $pdata$?dtor$0@?0??erase@?$_Tree@V?$_Tmap_traits@W4Object_Type@@PEBVGameObject@@U?$less@W4Object_Type@@@std@@V?$allocator@U?$pair@$$CBW4Object_Type@@PEBVGameObject@@@std@@@4@$0A@@std@@@std@@QEAA?AV?$_Tree_iterator@V?$_Tree_val@U?$_Tree_simple_types@U?$pair@$$CBW4Object_Type@@PEBVGameObject@@@std@@@std@@@std@@@2@V?$_Tree_const_iterator@V?$_Tree_val@U?$_Tree_simple_types@U?$pair@$$CBW4Object_Type@@PEBVGameObject@@@std@@@std@@@std@@@2@0@Z@4HA 0000000140056ff0     engine.obj
 0005:00003ffc       $pdata$?dtor$1@?0??erase@?$_Tree@V?$_Tmap_traits@W4Object_Type@@PEBVGameObject@@U?$less@W4Object_Type@@@std@@V?$allocator@U?$pair@$$CBW4Object_Type@@PEBVGameObject@@@std@@@4@$0A@@std@@@std@@QEAA?AV?$_Tree_iterator@V?$_Tree_val@U?$_Tree_simple_types@U?$pair@$$CBW4Object_Type@@PEBVGameObject@@@std@@@std@@@std@@@2@V?$_Tree_const_iterator@V?$_Tree_val@U?$_Tree_simple_types@U?$pair@$$CBW4Object_Type@@PEBVGameObject@@@std@@@std@@@std@@@2@0@Z@4HA 0000000140056ffc     engine.obj
 0005:00004008       $pdata$?dtor$2@?0??erase@?$_Tree@V?$_Tmap_traits@W4Object_Type@@PEBVGameObject@@U?$less@W4Object_Type@@@std@@V?$allocator@U?$pair@$$CBW4Object_Type@@PEBVGameObject@@@std@@@4@$0A@@std@@@std@@QEAA?AV?$_Tree_iterator@V?$_Tree_val@U?$_Tree_simple_types@U?$pair@$$CBW4Object_Type@@PEBVGameObject@@@std@@@std@@@std@@@2@V?$_Tree_const_iterator@V?$_Tree_val@U?$_Tree_simple_types@U?$pair@$$CBW4Object_Type@@PEBVGameObject@@@std@@@std@@@std@@@2@0@Z@4HA 0000000140057008     engine.obj
 0005:00004014       $pdata$?dtor$3@?0??erase@?$_Tree@V?$_Tmap_traits@W4Object_Type@@PEBVGameObject@@U?$less@W4Object_Type@@@std@@V?$allocator@U?$pair@$$CBW4Object_Type@@PEBVGameObject@@@std@@@4@$0A@@std@@@std@@QEAA?AV?$_Tree_iterator@V?$_Tree_val@U?$_Tree_simple_types@U?$pair@$$CBW4Object_Type@@PEBVGameObject@@@std@@@std@@@std@@@2@V?$_Tree_const_iterator@V?$_Tree_val@U?$_Tree_simple_types@U?$pair@$$CBW4Object_Type@@PEBVGameObject@@@std@@@std@@@std@@@2@0@Z@4HA 0000000140057014     engine.obj
 0005:00004020       $pdata$?dtor$0@?0??erase@?$_Tree@V?$_Tmap_traits@W4Object_Type@@PEBVGameObject@@U?$less@W4Object_Type@@@std@@V?$allocator@U?$pair@$$CBW4Object_Type@@PEBVGameObject@@@std@@@4@$0A@@std@@@std@@QEAA?AV?$_Tree_iterator@V?$_Tree_val@U?$_Tree_simple_types@U?$pair@$$CBW4Object_Type@@PEBVGameObject@@@std@@@std@@@std@@@2@V?$_Tree_const_iterator@V?$_Tree_val@U?$_Tree_simple_types@U?$pair@$$CBW4Object_Type@@PEBVGameObject@@@std@@@std@@@std@@@2@@Z@4HA 0000000140057020     engine.obj
 0005:0000402c       $pdata$?dtor$1@?0??erase@?$_Tree@V?$_Tmap_traits@W4Object_Type@@PEBVGameObject@@U?$less@W4Object_Type@@@std@@V?$allocator@U?$pair@$$CBW4Object_Type@@PEBVGameObject@@@std@@@4@$0A@@std@@@std@@QEAA?AV?$_Tree_iterator@V?$_Tree_val@U?$_Tree_simple_types@U?$pair@$$CBW4Object_Type@@PEBVGameObject@@@std@@@std@@@std@@@2@V?$_Tree_const_iterator@V?$_Tree_val@U?$_Tree_simple_types@U?$pair@$$CBW4Object_Type@@PEBVGameObject@@@std@@@std@@@std@@@2@@Z@4HA 000000014005702c     engine.obj
 0005:00004038       $pdata$WinMain$dtor$0      0000000140057038     main.obj
 0005:00004044       $pdata$?dtor$0@?0???0?$ContainerMoving@VWidget@@@@QEAA@AEBV?$Vector2@M@sf@@0@Z@4HA 0000000140057044     container-moving.obj
 0005:00004050       $pdata$?dtor$0@?0???0GameObject@@QEAA@PEBD@Z@4HA 0000000140057050     game-object.obj
 0005:0000405c       $pdata$?dtor$1@?0???0GameObject@@QEAA@PEBD@Z@4HA 000000014005705c     game-object.obj
 0005:00004068       $pdata$?dtor$2@?0???0GameObject@@QEAA@PEBD@Z@4HA 0000000140057068     game-object.obj
 0005:00004074       $pdata$?dtor$0@?0???0GameObject@@QEAA@PEBV0@@Z@4HA 0000000140057074     game-object.obj
 0005:00004080       $pdata$?dtor$1@?0???0GameObject@@QEAA@PEBV0@@Z@4HA 0000000140057080     game-object.obj
 0005:0000408c       $pdata$?dtor$0@?0??Create@GameObject@@SAPEBV1@PEBD@Z@4HA 000000014005708c     game-object.obj
 0005:00004098       $pdata$?catch$2@?0??CreateImpl@GameObject@@CAPEAV1@W4Object_Type@@PEBD@Z@4HA 0000000140057098     game-object.obj
 0005:000040a4       $pdata$?dtor$0@?0??CreateImpl@GameObject@@CAPEAV1@W4Object_Type@@PEBD@Z@4HA 00000001400570a4     game-object.obj
 0005:000040b0       $pdata$?dtor$1@?0??CreateImpl@GameObject@@CAPEAV1@W4Object_Type@@PEBD@Z@4HA 00000001400570b0     game-object.obj
 0005:000040bc       $pdata$?dtor$0@?0???$?0V<lambda_312b3f49165ee8dbe2e5837b3ce31c90>@@X@?$function@$$A6AXPEAVButton@@@Z@std@@QEAA@V<lambda_312b3f49165ee8dbe2e5837b3ce31c90>@@@Z@4HA 00000001400570bc     menu-window.obj
 0005:000040c8       $pdata$?dtor$0@?0???$?0V<lambda_5f2a59844b8069354d5a17d44e450129>@@X@?$function@$$A6AXPEAVButton@@@Z@std@@QEAA@V<lambda_5f2a59844b8069354d5a17d44e450129>@@@Z@4HA 00000001400570c8     menu-window.obj
 0005:000040d4       $pdata$?dtor$0@?0???$?0V<lambda_668a1179af56ef880bbabaf92a5d9839>@@X@?$function@$$A6AXPEAVButton@@@Z@std@@QEAA@V<lambda_668a1179af56ef880bbabaf92a5d9839>@@@Z@4HA 00000001400570d4     menu-window.obj
 0005:000040e0       $pdata$?dtor$0@?0???0MenuWindow@@QEAA@PEAVEngine@@AEBV?$Vector2@M@sf@@1@Z@4HA 00000001400570e0     menu-window.obj
 0005:000040ec       $pdata$?dtor$1@?0???0MenuWindow@@QEAA@PEAVEngine@@AEBV?$Vector2@M@sf@@1@Z@4HA 00000001400570ec     menu-window.obj
 0005:000040f8       $pdata$?dtor$3@?0???0MenuWindow@@QEAA@PEAVEngine@@AEBV?$Vector2@M@sf@@1@Z@4HA 00000001400570f8     menu-window.obj
 0005:00004104       $pdata$?dtor$5@?0???0MenuWindow@@QEAA@PEAVEngine@@AEBV?$Vector2@M@sf@@1@Z@4HA 0000000140057104     menu-window.obj
 0005:00004110       $pdata$?dtor$0@?0??onStartClicked@MenuWindow@@AEAAXPEAVButton@@@Z@4HA 0000000140057110     menu-window.obj
 0005:00004170       $pdata$?dtor$0@?0??Clone@Tank@@UEBAPEAVGameObject@@XZ@4HA 0000000140057170     tank.obj
 0005:0000417c       $pdata$?dtor$0@?0??Clone@Wall@@UEBAPEAVGameObject@@XZ@4HA 000000014005717c     wall.obj
 0005:00004188       $pdata$?dtor$0@?0???0WidgetGame@@QEAA@PEAVEngine@@AEBV?$Vector2@M@sf@@1@Z@4HA 0000000140057188     widget-game.obj
 0005:00004194       $pdata$?dtor$1@?0???0WidgetGame@@QEAA@PEAVEngine@@AEBV?$Vector2@M@sf@@1@Z@4HA 0000000140057194     widget-game.obj
 0005:000041a0       $pdata$?dtor$0@?0???0WindowGame@@QEAA@PEAVEngine@@AEBV?$Vector2@M@sf@@1@Z@4HA 00000001400571a0     window-game.obj
 0005:000041ac       $pdata$?dtor$1@?0???0WindowGame@@QEAA@PEAVEngine@@AEBV?$Vector2@M@sf@@1@Z@4HA 00000001400571ac     window-game.obj
 0005:000041b8       $pdata$?dtor$0@?0???0WindowEditor@@QEAA@PEAVEngine@@AEBV?$Vector2@M@sf@@1@Z@4HA 00000001400571b8     window-editor.obj
 0005:000041c4       $pdata$?dtor$1@?0???0WindowEditor@@QEAA@PEAVEngine@@AEBV?$Vector2@M@sf@@1@Z@4HA 00000001400571c4     window-editor.obj
 0005:000041d0       $pdata$__scrt_is_nonwritable_in_current_image$filt$0 00000001400571d0     MSVCRTD:utility.obj
 0005:000041dc       $pdata$?filt$0@?0??notify_debugger@@YAXAEBUtagEXCEPTION_VISUALCPP_DEBUG_INFO@@@Z@4HA 00000001400571dc     MSVCRTD:_error_.obj
 0005:000041e8       $pdata$?filt$0@?0??__scrt_common_main_seh@@YAHXZ@4HA 00000001400571e8     MSVCRTD:exe_winmain.obj
 0005:000041f4       $pdata$??__Ffont@@YAXXZ    00000001400571f4     button.obj
 0006:000017d6       .idata$6                   00000001400597d6     sfml-graphics-d:sfml-graphics-d-2.dll
 0006:00001890       .idata$6                   0000000140059890     sfml-window-d:sfml-window-d-2.dll
 0006:000019f4       .idata$6                   00000001400599f4     sfml-system-d:sfml-system-d-2.dll
 0006:00001c0c       .idata$6                   0000000140059c0c     msvcprtd:MSVCP140D.dll
 0006:00001d3e       .idata$6                   0000000140059d3e     vcruntimed:VCRUNTIME140D.dll
 0006:00002078       .idata$6                   000000014005a078     ucrtd:ucrtbased.dll
 0006:0000229e       .idata$6                   000000014005a29e     kernel32:KERNEL32.dll
 0008:00000170       $R000000                   000000014005c170     * linker generated manifest res *
